 PhysX3CharacterKinematic_x86

 Timestamp is 55b9694f (Wed Jul 29 17:01:19 2015)

 Preferred load address is 10000000

 Start         Length     Name                   Class
 0001:00000000 00000134H .text$di                CODE
 0001:00000140 00041722H .text$mn                CODE
 0002:00000000 000001b0H .idata$5                DATA
 0002:000001b0 00000004H .CRT$XCA                DATA
 0002:000001b4 00000030H .CRT$XCU                DATA
 0002:000001e4 00000004H .CRT$XCZ                DATA
 0002:000001e8 00000004H .CRT$XIA                DATA
 0002:000001ec 00000010H .CRT$XIC                DATA
 0002:000001fc 00000004H .CRT$XIZ                DATA
 0002:00000200 00000004H .CRT$XPA                DATA
 0002:00000204 00000008H .CRT$XPX                DATA
 0002:0000020c 00000004H .CRT$XPXA               DATA
 0002:00000210 00000004H .CRT$XPZ                DATA
 0002:00000214 00000004H .CRT$XTA                DATA
 0002:00000218 00000004H .CRT$XTZ                DATA
 0002:00000220 00006500H .rdata                  DATA
 0002:00006720 00000084H .rdata$debug            DATA
 0002:000067a4 0000020cH .rdata$r                DATA
 0002:000069b0 0000000cH .rdata$sxdata           DATA
 0002:000069bc 00000004H .rtc$IAA                DATA
 0002:000069c0 00000004H .rtc$IZZ                DATA
 0002:000069c4 00000004H .rtc$TAA                DATA
 0002:000069c8 00000004H .rtc$TZZ                DATA
 0002:000069d0 00000564H .xdata$x                DATA
 0002:00006f40 000001e8H .edata                  DATA
 0002:00007128 00000028H .idata$2                DATA
 0002:00007150 00000014H .idata$3                DATA
 0002:00007164 000001b0H .idata$4                DATA
 0002:00007314 00000edcH .idata$6                DATA
 0003:00000000 0000124cH .data                   DATA
 0003:00001250 0000037fH .data$r                 DATA
 0003:000015e0 00001fa0H .bss                    DATA
 0004:00000000 000000a0H .rsrc$01                DATA
 0004:000000a0 00000500H .rsrc$02                DATA

  Address         Publics by Value              Rva+Base       Lib:Object

 0000:00000000       ___guard_fids_count        00000000     <absolute>
 0000:00000000       ___guard_flags             00000000     <absolute>
 0000:00000000       ___guard_fids_table        00000000     <absolute>
 0000:00000000       __except_list              00000000     <absolute>
 0000:00000003       ___safe_se_handler_count   00000003     <absolute>
 0000:00000000       ___ImageBase               10000000     <linker-defined>
 0001:00000140       ??0BoxController@Cct@physx@@QAE@ABVPxControllerDesc@2@AAVPxPhysics@2@PAVPxScene@2@@Z 10001140 f   CctBoxController.obj
 0001:000001f0       ??1BoxController@Cct@physx@@UAE@XZ 100011f0 f   CctBoxController.obj
 0001:00000210       ?getWorldBox@BoxController@Cct@physx@@UBE_NAAUPxExtendedBounds3@3@@Z 10001210 f   CctBoxController.obj
 0001:000002c0       ?setFootPosition@BoxController@Cct@physx@@UAE_NABUPxExtendedVec3@3@@Z 100012c0 f   CctBoxController.obj
 0001:00000340       ?getFootPosition@BoxController@Cct@physx@@UBE?AUPxExtendedVec3@3@XZ 10001340 f   CctBoxController.obj
 0001:000003c0       ?invalidateCache@BoxController@Cct@physx@@UAEXXZ 100013c0 f   CctBoxController.obj
 0001:000003d0       ?resize@BoxController@Cct@physx@@UAEXM@Z 100013d0 f   CctBoxController.obj
 0001:00000470       ?getHalfHeight@BoxController@Cct@physx@@UBEMXZ 10001470 f   CctBoxController.obj
 0001:00000480       ?getHalfSideExtent@BoxController@Cct@physx@@UBEMXZ 10001480 f   CctBoxController.obj
 0001:00000490       ?getHalfForwardExtent@BoxController@Cct@physx@@UBEMXZ 10001490 f   CctBoxController.obj
 0001:000004a0       ?setHalfHeight@BoxController@Cct@physx@@UAE_NM@Z 100014a0 f   CctBoxController.obj
 0001:000004d0       ?setHalfSideExtent@BoxController@Cct@physx@@UAE_NM@Z 100014d0 f   CctBoxController.obj
 0001:00000500       ?setHalfForwardExtent@BoxController@Cct@physx@@UAE_NM@Z 10001500 f   CctBoxController.obj
 0001:00000530       ?updateKinematicProxy@BoxController@Cct@physx@@QAE_NXZ 10001530 f   CctBoxController.obj
 0001:000005d0       ?getOBB@BoxController@Cct@physx@@QBEXAAVPxExtendedBox@3@@Z 100015d0 f   CctBoxController.obj
 0001:000006e0       ??0PxBoxController@physx@@IAE@XZ 100016e0 f i CctBoxController.obj
 0001:000006f0       ??0PxBoxGeometry@physx@@QAE@XZ 100016f0 f i CctBoxController.obj
 0001:00000710       ??0PxController@physx@@IAE@XZ 10001710 f i CctBoxController.obj
 0001:00000720       ??0PxExtendedBounds3@physx@@QAE@XZ 10001720 f i CctBoxController.obj
 0001:00000730       ??0PxExtendedVec3@physx@@QAE@NNN@Z 10001730 f i CctBoxController.obj
 0001:00000760       ??0PxExtendedVec3@physx@@QAE@XZ 10001760 f i CctBoxController.obj
 0001:00000770       ??0PxGeometry@physx@@IAE@W4Enum@PxGeometryType@1@@Z 10001770 f i CctBoxController.obj
 0001:00000780       ??0PxVec3@physx@@QAE@ABV01@@Z 10001780 f i CctBoxController.obj
 0001:000007a0       ??0PxVec3@physx@@QAE@MMM@Z 100017a0 f i CctBoxController.obj
 0001:000007d0       ??1PxBoxController@physx@@MAE@XZ 100017d0 f i CctBoxController.obj
 0001:000007e0       ??1PxController@physx@@MAE@XZ 100017e0 f i CctBoxController.obj
 0001:000007f0       ??3UserAllocated@shdfnd@physx@@SAXPAX@Z 100017f0 f i CctBoxController.obj
 0001:00000810       ??4PxQuat@physx@@QAEAAV01@ABV01@@Z 10001810 f i CctBoxController.obj
 0001:00000840       ??4PxVec3@physx@@QAEAAV01@ABV01@@Z 10001840 f i CctBoxController.obj
 0001:00000860       ??DPxVec3@physx@@QBE?AV01@M@Z 10001860 f i CctBoxController.obj
 0001:000008a0       ??GPxExtendedVec3@physx@@QBE?AVPxVec3@1@ABU01@@Z 100018a0 f i CctBoxController.obj
 0001:000008f0       ??HPxExtendedVec3@physx@@QBE?AU01@ABU01@@Z 100018f0 f i CctBoxController.obj
 0001:00000930       ??XPxExtendedVec3@physx@@QAEAAU01@ABM@Z 10001930 f i CctBoxController.obj
 0001:00000970       ??XPxVec3@physx@@QAEAAV01@M@Z 10001970 f i CctBoxController.obj
 0001:000009b0       ??YPxExtendedVec3@physx@@QAEAAU01@ABVPxVec3@1@@Z 100019b0 f i CctBoxController.obj
 0001:000009f0       ??ZPxExtendedVec3@physx@@QAEAAU01@ABVPxVec3@1@@Z 100019f0 f i CctBoxController.obj
 0001:00000a3b       ??_EBoxController@Cct@physx@@W7AEPAXI@Z 10001a3b f i CctBoxController.obj
 0001:00000a50       ??_EBoxController@Cct@physx@@UAEPAXI@Z 10001a50 f i CctBoxController.obj
 0001:00000a50       ??_GBoxController@Cct@physx@@UAEPAXI@Z 10001a50 f i CctBoxController.obj
 0001:00000a90       ??_GPxBoxController@physx@@MAEPAXI@Z 10001a90 f i CctBoxController.obj
 0001:00000a90       ??_EPxBoxController@physx@@MAEPAXI@Z 10001a90 f i CctBoxController.obj
 0001:00000ac0       ??_EPxController@physx@@MAEPAXI@Z 10001ac0 f i CctBoxController.obj
 0001:00000ac0       ??_GPxController@physx@@MAEPAXI@Z 10001ac0 f i CctBoxController.obj
 0001:00000af0       ??_H@YGXPAXIHP6EPAX0@Z@Z   10001af0 f i CctBoxController.obj
 0001:00000b20       ?getActor@BoxController@Cct@physx@@UBEPAVPxRigidDynamic@3@XZ 10001b20 f i CctBoxController.obj
 0001:00000b30       ?getCenter@physx@@YAXABUPxExtendedBounds3@1@AAUPxExtendedVec3@1@@Z 10001b30 f i CctBoxController.obj
 0001:00000b90       ?getContactOffset@BoxController@Cct@physx@@UBEMXZ 10001b90 f i CctBoxController.obj
 0001:00000ba0       ?getExtents@physx@@YAXABUPxExtendedBounds3@1@AAVPxVec3@1@@Z 10001ba0 f i CctBoxController.obj
 0001:00000c00       ?getHalfHeightInternal@BoxController@Cct@physx@@UBEMXZ 10001c00 f i CctBoxController.obj
 0001:00000c10       ?getNonWalkableMode@BoxController@Cct@physx@@UBE?AW4Enum@PxControllerNonWalkableMode@3@XZ 10001c10 f i CctBoxController.obj
 0001:00000c20       ?getPosition@BoxController@Cct@physx@@UBEABUPxExtendedVec3@3@XZ 10001c20 f i CctBoxController.obj
 0001:00000c30       ?getPxController@BoxController@Cct@physx@@UAEPAVPxController@3@XZ 10001c30 f i CctBoxController.obj
 0001:00000c40       ?getScene@BoxController@Cct@physx@@UAEPAVPxScene@3@XZ 10001c40 f i CctBoxController.obj
 0001:00000c50       ?getSlopeLimit@BoxController@Cct@physx@@UBEMXZ 10001c50 f i CctBoxController.obj
 0001:00000c60       ?getState@BoxController@Cct@physx@@UBEXAAUPxControllerState@3@@Z 10001c60 f i CctBoxController.obj
 0001:00000c70       ?getStats@BoxController@Cct@physx@@UBEXAAUPxControllerStats@3@@Z 10001c70 f i CctBoxController.obj
 0001:00000c80       ?getStepOffset@BoxController@Cct@physx@@UBEMXZ 10001c80 f i CctBoxController.obj
 0001:00000c90       ?getType@BoxController@Cct@physx@@UBE?AW4Enum@PxControllerShapeType@3@XZ 10001c90 f i CctBoxController.obj
 0001:00000ca0       ?getUpDirection@BoxController@Cct@physx@@UBE?AVPxVec3@3@XZ 10001ca0 f i CctBoxController.obj
 0001:00000cc0       ?getUserData@BoxController@Cct@physx@@UBEPAXXZ 10001cc0 f i CctBoxController.obj
 0001:00000cd0       ?release@BoxController@Cct@physx@@UAEXXZ 10001cd0 f i CctBoxController.obj
 0001:00000ce0       ?setCenterExtents@physx@@YAXAAUPxExtendedBounds3@1@ABUPxExtendedVec3@1@ABVPxVec3@1@@Z 10001ce0 f i CctBoxController.obj
 0001:00000d90       ?setContactOffset@BoxController@Cct@physx@@UAEXM@Z 10001d90 f i CctBoxController.obj
 0001:00000db0       ?setNonWalkableMode@BoxController@Cct@physx@@UAEXW4Enum@PxControllerNonWalkableMode@3@@Z 10001db0 f i CctBoxController.obj
 0001:00000dc0       ?setPosition@BoxController@Cct@physx@@UAE_NABUPxExtendedVec3@3@@Z 10001dc0 f i CctBoxController.obj
 0001:00000dd0       ?setSlopeLimit@BoxController@Cct@physx@@UAEXM@Z 10001dd0 f i CctBoxController.obj
 0001:00000df0       ?setStepOffset@BoxController@Cct@physx@@UAEXM@Z 10001df0 f i CctBoxController.obj
 0001:00000e10       ?setUpDirection@BoxController@Cct@physx@@UAEXABVPxVec3@3@@Z 10001e10 f i CctBoxController.obj
 0001:00000e20       ?setUserData@BoxController@Cct@physx@@UAEXPAX@Z 10001e20 f i CctBoxController.obj
 0001:00000e30       ??0CapsuleController@Cct@physx@@QAE@ABVPxControllerDesc@2@AAVPxPhysics@2@PAVPxScene@2@@Z 10001e30 f   CctCapsuleController.obj
 0001:00000ed0       ??1CapsuleController@Cct@physx@@UAE@XZ 10001ed0 f   CctCapsuleController.obj
 0001:00000ef0       ?getWorldBox@CapsuleController@Cct@physx@@UBE_NAAUPxExtendedBounds3@3@@Z 10001ef0 f   CctCapsuleController.obj
 0001:00000fb0       ?setFootPosition@CapsuleController@Cct@physx@@UAE_NABUPxExtendedVec3@3@@Z 10001fb0 f   CctCapsuleController.obj
 0001:00001040       ?getFootPosition@CapsuleController@Cct@physx@@UBE?AUPxExtendedVec3@3@XZ 10002040 f   CctCapsuleController.obj
 0001:000010d0       ?invalidateCache@CapsuleController@Cct@physx@@UAEXXZ 100020d0 f   CctCapsuleController.obj
 0001:000010e0       ?resize@CapsuleController@Cct@physx@@UAEXM@Z 100020e0 f   CctCapsuleController.obj
 0001:000011a0       ?getClimbingMode@CapsuleController@Cct@physx@@UBE?AW4Enum@PxCapsuleClimbingMode@3@XZ 100021a0 f   CctCapsuleController.obj
 0001:000011b0       ?setRadius@CapsuleController@Cct@physx@@UAE_NM@Z 100021b0 f   CctCapsuleController.obj
 0001:00001230       ?setHeight@CapsuleController@Cct@physx@@UAE_NM@Z 10002230 f   CctCapsuleController.obj
 0001:000012b0       ?setClimbingMode@CapsuleController@Cct@physx@@UAE_NW4Enum@PxCapsuleClimbingMode@3@@Z 100022b0 f   CctCapsuleController.obj
 0001:000012d0       ?getCapsule@CapsuleController@Cct@physx@@QBEXAAUPxExtendedCapsule@3@@Z 100022d0 f   CctCapsuleController.obj
 0001:000013d0       ??0PxCapsuleController@physx@@IAE@XZ 100023d0 f i CctCapsuleController.obj
 0001:000013e0       ??0PxCapsuleGeometry@physx@@QAE@XZ 100023e0 f i CctCapsuleController.obj
 0001:00001400       ??1PxCapsuleController@physx@@MAE@XZ 10002400 f i CctCapsuleController.obj
 0001:00001407       ??_ECapsuleController@Cct@physx@@W7AEPAXI@Z 10002407 f i CctCapsuleController.obj
 0001:00001410       ??_GCapsuleController@Cct@physx@@UAEPAXI@Z 10002410 f i CctCapsuleController.obj
 0001:00001410       ??_ECapsuleController@Cct@physx@@UAEPAXI@Z 10002410 f i CctCapsuleController.obj
 0001:00001450       ??_EPxCapsuleController@physx@@MAEPAXI@Z 10002450 f i CctCapsuleController.obj
 0001:00001450       ??_GPxCapsuleController@physx@@MAEPAXI@Z 10002450 f i CctCapsuleController.obj
 0001:00001480       ?getActor@CapsuleController@Cct@physx@@UBEPAVPxRigidDynamic@3@XZ 10002480 f i CctCapsuleController.obj
 0001:00001490       ?getContactOffset@CapsuleController@Cct@physx@@UBEMXZ 10002490 f i CctCapsuleController.obj
 0001:000014a0       ?getHalfHeightInternal@CapsuleController@Cct@physx@@UBEMXZ 100024a0 f i CctCapsuleController.obj
 0001:000014c0       ?getHeight@CapsuleController@Cct@physx@@UBEMXZ 100024c0 f i CctCapsuleController.obj
 0001:000014d0       ?getNonWalkableMode@CapsuleController@Cct@physx@@UBE?AW4Enum@PxControllerNonWalkableMode@3@XZ 100024d0 f i CctCapsuleController.obj
 0001:000014e0       ?getPosition@CapsuleController@Cct@physx@@UBEABUPxExtendedVec3@3@XZ 100024e0 f i CctCapsuleController.obj
 0001:000014f0       ?getPxController@CapsuleController@Cct@physx@@UAEPAVPxController@3@XZ 100024f0 f i CctCapsuleController.obj
 0001:00001500       ?getRadius@CapsuleController@Cct@physx@@UBEMXZ 10002500 f i CctCapsuleController.obj
 0001:00001510       ?getScene@CapsuleController@Cct@physx@@UAEPAVPxScene@3@XZ 10002510 f i CctCapsuleController.obj
 0001:00001520       ?getSlopeLimit@CapsuleController@Cct@physx@@UBEMXZ 10002520 f i CctCapsuleController.obj
 0001:00001530       ?getState@CapsuleController@Cct@physx@@UBEXAAUPxControllerState@3@@Z 10002530 f i CctCapsuleController.obj
 0001:00001540       ?getStats@CapsuleController@Cct@physx@@UBEXAAUPxControllerStats@3@@Z 10002540 f i CctCapsuleController.obj
 0001:00001550       ?getStepOffset@CapsuleController@Cct@physx@@UBEMXZ 10002550 f i CctCapsuleController.obj
 0001:00001560       ?getType@CapsuleController@Cct@physx@@UBE?AW4Enum@PxControllerShapeType@3@XZ 10002560 f i CctCapsuleController.obj
 0001:00001570       ?getUpDirection@CapsuleController@Cct@physx@@UBE?AVPxVec3@3@XZ 10002570 f i CctCapsuleController.obj
 0001:00001590       ?getUserData@CapsuleController@Cct@physx@@UBEPAXXZ 10002590 f i CctCapsuleController.obj
 0001:000015a0       ?release@CapsuleController@Cct@physx@@UAEXXZ 100025a0 f i CctCapsuleController.obj
 0001:000015b0       ?setContactOffset@CapsuleController@Cct@physx@@UAEXM@Z 100025b0 f i CctCapsuleController.obj
 0001:000015d0       ?setNonWalkableMode@CapsuleController@Cct@physx@@UAEXW4Enum@PxControllerNonWalkableMode@3@@Z 100025d0 f i CctCapsuleController.obj
 0001:000015e0       ?setPosition@CapsuleController@Cct@physx@@UAE_NABUPxExtendedVec3@3@@Z 100025e0 f i CctCapsuleController.obj
 0001:000015f0       ?setSlopeLimit@CapsuleController@Cct@physx@@UAEXM@Z 100025f0 f i CctCapsuleController.obj
 0001:00001610       ?setStepOffset@CapsuleController@Cct@physx@@UAEXM@Z 10002610 f i CctCapsuleController.obj
 0001:00001630       ?setUpDirection@CapsuleController@Cct@physx@@UAEXABVPxVec3@3@@Z 10002630 f i CctCapsuleController.obj
 0001:00001640       ?setUserData@CapsuleController@Cct@physx@@UAEXPAX@Z 10002640 f i CctCapsuleController.obj
 0001:00001660       ??0CCTParams@Cct@physx@@QAE@XZ 10002660 f   CctCharacterController.obj
 0001:000016d0       ??0SweepTest@Cct@physx@@QAE@XZ 100026d0 f   CctCharacterController.obj
 0001:00001830       ??1SweepTest@Cct@physx@@QAE@XZ 10002830 f   CctCharacterController.obj
 0001:000018a0       ?moveCharacter@SweepTest@Cct@physx@@QAE?AV?$PxFlags@W4Enum@PxControllerCollisionFlag@physx@@E@3@PBUInternalCBData_FindTouchedGeom@23@PBUInternalCBData_OnHit@23@AAVSweptVolume@23@ABVPxVec3@3@ABUUserObstacles@23@MABVPxControllerFilters@3@_N6@Z 100028a0 f   CctCharacterController.obj
 0001:00002180       ?doSweepTest@SweepTest@Cct@physx@@QAE_NPBUInternalCBData_FindTouchedGeom@23@PBUInternalCBData_OnHit@23@ABUUserObstacles@23@AAVSweptVolume@23@ABVPxVec3@3@4IPAIMABVPxControllerFilters@3@W4SweepPass@23@@Z 10003180 f   CctCharacterController.obj
 0001:00003210       ?findTouchedObstacles@SweepTest@Cct@physx@@QAEXABUUserObstacles@23@ABUPxExtendedBounds3@3@@Z 10004210 f   CctCharacterController.obj
 0001:00003980       ?voidTestCache@SweepTest@Cct@physx@@QAEXXZ 10004980 f   CctCharacterController.obj
 0001:000039c0       ?onRelease@SweepTest@Cct@physx@@QAEXABVPxBase@3@@Z 100049c0 f   CctCharacterController.obj
 0001:00003a60       ?onObstacleRemoved@SweepTest@Cct@physx@@QAEXI@Z 10004a60 f   CctCharacterController.obj
 0001:00003a80       ?onObstacleUpdated@SweepTest@Cct@physx@@QAEXIPBVPxObstacleContext@3@ABVPxVec3@3@1M@Z 10004a80 f   CctCharacterController.obj
 0001:00003c80       ?onObstacleAdded@SweepTest@Cct@physx@@QAEXIPBVPxObstacleContext@3@ABVPxVec3@3@1M@Z 10004c80 f   CctCharacterController.obj
 0001:00003ec0       ?onOriginShift@SweepTest@Cct@physx@@QAEXABVPxVec3@3@@Z 10004ec0 f   CctCharacterController.obj
 0001:00004060       ?updateTouchedGeoms@SweepTest@Cct@physx@@AAEXPBUInternalCBData_FindTouchedGeom@23@ABUUserObstacles@23@ABUPxExtendedBounds3@3@ABVPxControllerFilters@3@ABVPxVec3@3@@Z 10005060 f   CctCharacterController.obj
 0001:00004720       ?findTouchedObject@Controller@Cct@physx@@IAEXABVPxControllerFilters@3@PBVPxObstacleContext@3@ABVPxVec3@3@@Z 10005720 f   CctCharacterController.obj
 0001:00004e10       ?rideOnTouchedObject@Controller@Cct@physx@@IAE_NAAVSweptVolume@23@ABVPxVec3@3@AAV53@PBVPxObstacleContext@3@@Z 10005e10 f   CctCharacterController.obj
 0001:000053a0       ?move@Controller@Cct@physx@@IAE?AV?$PxFlags@W4Enum@PxControllerCollisionFlag@physx@@E@3@AAVSweptVolume@23@ABVPxVec3@3@MMABVPxControllerFilters@3@PBVPxObstacleContext@3@_N@Z 100063a0 f   CctCharacterController.obj
 0001:00006140       ?filterTouchedShape@Controller@Cct@physx@@IAE_NABVPxControllerFilters@3@@Z 10007140 f   CctCharacterController.obj
 0001:000087c0       ?move@BoxController@Cct@physx@@UAE?AV?$PxFlags@W4Enum@PxControllerCollisionFlag@physx@@E@3@ABVPxVec3@3@MMABVPxControllerFilters@3@PBVPxObstacleContext@3@@Z 100097c0 f   CctCharacterController.obj
 0001:00008890       ?move@CapsuleController@Cct@physx@@UAE?AV?$PxFlags@W4Enum@PxControllerCollisionFlag@physx@@E@3@ABVPxVec3@3@MMABVPxControllerFilters@3@PBVPxObstacleContext@3@@Z 10009890 f   CctCharacterController.obj
 0001:00008970       ??$PX_UNUSED@I@@YAXABI@Z   10009970 f i CctCharacterController.obj
 0001:00008980       ??$PX_UNUSED@PBUPxRaycastHit@physx@@@@YAXABQBUPxRaycastHit@physx@@@Z 10009980 f i CctCharacterController.obj
 0001:00008990       ??$PX_UNUSED@W4PxIDENTITY@physx@@@@YAXABW4PxIDENTITY@physx@@@Z 10009990 f i CctCharacterController.obj
 0001:000089a0       ??$PxMax@N@physx@@YANNN@Z  100099a0 f i CctCharacterController.obj
 0001:000089d0       ??$PxMin@N@physx@@YANNN@Z  100099d0 f i CctCharacterController.obj
 0001:00008a00       ??$PxUnionCast@PBVPxGeometry@physx@@PAY03$$CBE@physx@@YAPBVPxGeometry@0@PAY03$$CBE@Z 10009a00 f i CctCharacterController.obj
 0001:00008a10       ??$reserve@IV?$ReflectionAllocator@I@shdfnd@physx@@@Cct@physx@@YAPAIAAV?$Array@IV?$ReflectionAllocator@I@shdfnd@physx@@@shdfnd@1@I@Z 10009a10 f i CctCharacterController.obj
 0001:00008a40       ??0?$Array@IV?$ReflectionAllocator@I@shdfnd@physx@@@shdfnd@physx@@QAE@ABV?$ReflectionAllocator@I@12@@Z 10009a40 f i CctCharacterController.obj
 0001:00008a60       ??0?$Array@VPxTriangle@physx@@V?$ReflectionAllocator@VPxTriangle@physx@@@shdfnd@2@@shdfnd@physx@@QAE@ABV?$ReflectionAllocator@VPxTriangle@physx@@@12@@Z 10009a60 f i CctCharacterController.obj
 0001:00008a80       ??0?$PxFlags@W4Enum@PxControllerCollisionFlag@physx@@E@physx@@QAE@ABV01@@Z 10009a80 f i CctCharacterController.obj
 0001:00008a90       ??0?$PxFlags@W4Enum@PxControllerCollisionFlag@physx@@E@physx@@QAE@E@Z 10009a90 f i CctCharacterController.obj
 0001:00008aa0       ??0?$PxFlags@W4Enum@PxHitFlag@physx@@G@physx@@QAE@ABV01@@Z 10009aa0 f i CctCharacterController.obj
 0001:00008ac0       ??0?$PxFlags@W4Enum@PxHitFlag@physx@@G@physx@@QAE@G@Z 10009ac0 f i CctCharacterController.obj
 0001:00008ad0       ??0?$PxFlags@W4Enum@PxHitFlag@physx@@G@physx@@QAE@W4Enum@PxHitFlag@1@@Z 10009ad0 f i CctCharacterController.obj
 0001:00008ae0       ??0?$PxFlags@W4Enum@PxQueryFlag@physx@@G@physx@@QAE@ABV01@@Z 10009ae0 f i CctCharacterController.obj
 0001:00008b00       ??0?$PxFlags@W4Enum@PxQueryFlag@physx@@G@physx@@QAE@W4Enum@PxQueryFlag@1@@Z 10009b00 f i CctCharacterController.obj
 0001:00008b10       ??0?$PxFlags@W4Enum@PxQueryFlag@physx@@G@physx@@QAE@XZ 10009b10 f i CctCharacterController.obj
 0001:00008b20       ??0?$PxFlags@W4Enum@PxShapeFlag@physx@@E@physx@@QAE@ABV01@@Z 10009b20 f i CctCharacterController.obj
 0001:00008b30       ??0?$PxHitBuffer@UPxRaycastHit@physx@@@physx@@QAE@PAUPxRaycastHit@1@I@Z 10009b30 f i CctCharacterController.obj
 0001:00008b90       ??0?$PxHitCallback@UPxRaycastHit@physx@@@physx@@QAE@PAUPxRaycastHit@1@I@Z 10009b90 f i CctCharacterController.obj
 0001:00008bf0       ??0?$ReflectionAllocator@I@shdfnd@physx@@QAE@ABV012@@Z 10009bf0 f i CctCharacterController.obj
 0001:00008c00       ??0?$ReflectionAllocator@I@shdfnd@physx@@QAE@PBD@Z 10009c00 f i CctCharacterController.obj
 0001:00008c10       ??0?$ReflectionAllocator@VPxTriangle@physx@@@shdfnd@physx@@QAE@ABV012@@Z 10009c10 f i CctCharacterController.obj
 0001:00008c20       ??0?$ReflectionAllocator@VPxTriangle@physx@@@shdfnd@physx@@QAE@PBD@Z 10009c20 f i CctCharacterController.obj
 0001:00008c30       ??0CCTFilter@Cct@physx@@QAE@XZ 10009c30 f i CctCharacterController.obj
 0001:00008c50       ??0ControllerFilter@@QAE@XZ 10009c50 f i CctCharacterController.obj
 0001:00008c60       ??0DebugBox@Cm@physx@@QAE@ABVPxBounds3@2@_N@Z 10009c60 f i CctCharacterController.obj
 0001:00008ca0       ??0DebugBox@Cm@physx@@QAE@ABVPxVec3@2@_N@Z 10009ca0 f i CctCharacterController.obj
 0001:00008cf0       ??0Matrix34@Cm@physx@@QAE@XZ 10009cf0 f i CctCharacterController.obj
 0001:00008d00       ??0PxActorShape@physx@@QAE@XZ 10009d00 f i CctCharacterController.obj
 0001:00008d10       ??0PxBounds3@physx@@QAE@ABVPxVec3@1@0@Z 10009d10 f i CctCharacterController.obj
 0001:00008d50       ??0PxBoxGeometry@physx@@QAE@VPxVec3@1@@Z 10009d50 f i CctCharacterController.obj
 0001:00008d80       ??0PxCapsuleGeometry@physx@@QAE@MM@Z 10009d80 f i CctCharacterController.obj
 0001:00008db0       ??0PxControllerManager@physx@@IAE@XZ 10009db0 f i CctCharacterController.obj
 0001:00008dc0       ??0PxControllerManager@physx@@QAE@ABV01@@Z 10009dc0 f i CctCharacterController.obj
 0001:00008dd0       ??0PxExtendedBox@physx@@QAE@ABV01@@Z 10009dd0 f i CctCharacterController.obj
 0001:00008e20       ??0PxExtendedBox@physx@@QAE@XZ 10009e20 f i CctCharacterController.obj
 0001:00008e30       ??0PxExtendedCapsule@physx@@QAE@XZ 10009e30 f i CctCharacterController.obj
 0001:00008e40       ??0PxExtendedSegment@physx@@QAE@XZ 10009e40 f i CctCharacterController.obj
 0001:00008e50       ??0PxFilterData@physx@@QAE@XZ 10009e50 f i CctCharacterController.obj
 0001:00008e70       ??0PxLocationHit@physx@@QAE@XZ 10009e70 f i CctCharacterController.obj
 0001:00008eb0       ??0PxMat33@physx@@QAE@ABV01@@Z 10009eb0 f i CctCharacterController.obj
 0001:00008ef0       ??0PxMat33@physx@@QAE@ABVPxQuat@1@@Z 10009ef0 f i CctCharacterController.obj
 0001:00009030       ??0PxMat33@physx@@QAE@W4PxIDENTITY@1@@Z 1000a030 f i CctCharacterController.obj
 0001:00009080       ??0PxQuat@physx@@QAE@ABV01@@Z 1000a080 f i CctCharacterController.obj
 0001:000090b0       ??0PxQuat@physx@@QAE@MMMM@Z 1000a0b0 f i CctCharacterController.obj
 0001:000090e0       ??0PxQuat@physx@@QAE@W4PxIDENTITY@1@@Z 1000a0e0 f i CctCharacterController.obj
 0001:00009100       ??0PxQuat@physx@@QAE@XZ    1000a100 f i CctCharacterController.obj
 0001:00009110       ??0PxQueryFilterCallback@physx@@QAE@XZ 1000a110 f i CctCharacterController.obj
 0001:00009120       ??0PxQueryFilterData@physx@@QAE@ABUPxFilterData@1@V?$PxFlags@W4Enum@PxQueryFlag@physx@@G@1@@Z 1000a120 f i CctCharacterController.obj
 0001:00009140       ??0PxQueryHit@physx@@QAE@XZ 1000a140 f i CctCharacterController.obj
 0001:00009160       ??0PxRaycastHit@physx@@QAE@XZ 1000a160 f i CctCharacterController.obj
 0001:000091a0       ??0PxSphereGeometry@physx@@QAE@XZ 1000a1a0 f i CctCharacterController.obj
 0001:000091b0       ??0PxSweepHit@physx@@QAE@XZ 1000a1b0 f i CctCharacterController.obj
 0001:000091f0       ??0PxTransform@physx@@QAE@ABVPxVec3@1@ABVPxQuat@1@@Z 1000a1f0 f i CctCharacterController.obj
 0001:00009230       ??0PxTransform@physx@@QAE@XZ 1000a230 f i CctCharacterController.obj
 0001:00009240       ??0PxVec3@physx@@QAE@M@Z   1000a240 f i CctCharacterController.obj
 0001:00009260       ??0PxVec3@physx@@QAE@XZ    1000a260 f i CctCharacterController.obj
 0001:00009270       ??0SIMDGuard@shdfnd@physx@@QAE@XZ 1000a270 f i CctCharacterController.obj
 0001:00009290       ??0SweptContact@Cct@physx@@QAE@XZ 1000a290 f i CctCharacterController.obj
 0001:000092a0       ??1?$Array@IV?$ReflectionAllocator@I@shdfnd@physx@@@shdfnd@physx@@QAE@XZ 1000a2a0 f i CctCharacterController.obj
 0001:000092d0       ??1?$Array@VPxTriangle@physx@@V?$ReflectionAllocator@VPxTriangle@physx@@@shdfnd@2@@shdfnd@physx@@QAE@XZ 1000a2d0 f i CctCharacterController.obj
 0001:00009300       ??1?$PxHitBuffer@UPxRaycastHit@physx@@@physx@@UAE@XZ 1000a300 f i CctCharacterController.obj
 0001:00009310       ??1?$PxHitCallback@UPxRaycastHit@physx@@@physx@@UAE@XZ 1000a310 f i CctCharacterController.obj
 0001:00009320       ??1ControllerFilter@@UAE@XZ 1000a320 f i CctCharacterController.obj
 0001:00009330       ??1PxControllerManager@physx@@MAE@XZ 1000a330 f i CctCharacterController.obj
 0001:00009340       ??1PxExtendedBox@physx@@QAE@XZ 1000a340 f i CctCharacterController.obj
 0001:00009350       ??1PxQueryFilterCallback@physx@@UAE@XZ 1000a350 f i CctCharacterController.obj
 0001:00009360       ??1PxTriangle@physx@@QAE@XZ 1000a360 f i CctCharacterController.obj
 0001:00009370       ??1SIMDGuard@shdfnd@physx@@QAE@XZ 1000a370 f i CctCharacterController.obj
 0001:00009390       ??2@YAPAXIPAX@Z            1000a390 f i CctCharacterController.obj
 0001:000093a0       ??4?$PxFlags@W4Enum@PxControllerCollisionFlag@physx@@E@physx@@QAEAAV01@ABV01@@Z 1000a3a0 f i CctCharacterController.obj
 0001:000093b0       ??4?$PxFlags@W4Enum@PxHitFlag@physx@@G@physx@@QAEAAV01@ABV01@@Z 1000a3b0 f i CctCharacterController.obj
 0001:000093d0       ??4?$PxFlags@W4Enum@PxQueryFlag@physx@@G@physx@@QAEAAV01@ABV01@@Z 1000a3d0 f i CctCharacterController.obj
 0001:000093f0       ??4CCTParams@Cct@physx@@QAEAAU012@ABU012@@Z 1000a3f0 f i CctCharacterController.obj
 0001:00009480       ??4PxControllerManager@physx@@QAEAAV01@ABV01@@Z 1000a480 f i CctCharacterController.obj
 0001:00009490       ??4PxExtendedBox@physx@@QAEAAV01@ABV01@@Z 1000a490 f i CctCharacterController.obj
 0001:000094e0       ??4PxLocationHit@physx@@QAEAAU01@ABU01@@Z 1000a4e0 f i CctCharacterController.obj
 0001:00009530       ??4PxRaycastHit@physx@@QAEAAU01@ABU01@@Z 1000a530 f i CctCharacterController.obj
 0001:000095a0       ??4PxTransform@physx@@QAEAAV01@ABV01@@Z 1000a5a0 f i CctCharacterController.obj
 0001:000095e0       ??4SweptContact@Cct@physx@@QAEAAU012@ABU012@@Z 1000a5e0 f i CctCharacterController.obj
 0001:00009630       ??A?$Array@IV?$ReflectionAllocator@I@shdfnd@physx@@@shdfnd@physx@@QBEABII@Z 1000a630 f i CctCharacterController.obj
 0001:00009640       ??A?$Array@UInternalBoxObstacle@ObstacleContext@Cct@physx@@V?$ReflectionAllocator@UInternalBoxObstacle@ObstacleContext@Cct@physx@@@shdfnd@4@@shdfnd@physx@@QBEABUInternalBoxObstacle@ObstacleContext@Cct@2@I@Z 1000a640 f i CctCharacterController.obj
 0001:00009660       ??A?$Array@UInternalCapsuleObstacle@ObstacleContext@Cct@physx@@V?$ReflectionAllocator@UInternalCapsuleObstacle@ObstacleContext@Cct@physx@@@shdfnd@4@@shdfnd@physx@@QBEABUInternalCapsuleObstacle@ObstacleContext@Cct@2@I@Z 1000a660 f i CctCharacterController.obj
 0001:00009670       ??A?$Array@VPxTriangle@physx@@V?$ReflectionAllocator@VPxTriangle@physx@@@shdfnd@2@@shdfnd@physx@@QAEAAVPxTriangle@2@I@Z 1000a670 f i CctCharacterController.obj
 0001:00009690       ??A?$Array@VPxTriangle@physx@@V?$ReflectionAllocator@VPxTriangle@physx@@@shdfnd@2@@shdfnd@physx@@QBEABVPxTriangle@2@I@Z 1000a690 f i CctCharacterController.obj
 0001:000096b0       ??B?$PxFlags@W4Enum@PxControllerBehaviorFlag@physx@@E@physx@@QBEIXZ 1000a6b0 f i CctCharacterController.obj
 0001:000096c0       ??B?$PxFlags@W4Enum@PxControllerDebugRenderFlag@physx@@I@physx@@QBEIXZ 1000a6c0 f i CctCharacterController.obj
 0001:000096d0       ??B?$PxFlags@W4Enum@PxQueryFlag@physx@@G@physx@@QBE_NXZ 1000a6d0 f i CctCharacterController.obj
 0001:000096e0       ??B?$PxFlags@W4Enum@PxShapeFlag@physx@@E@physx@@QBE_NXZ 1000a6e0 f i CctCharacterController.obj
 0001:000096f0       ??DPxQuat@physx@@QBE?AV01@ABV01@@Z 1000a6f0 f i CctCharacterController.obj
 0001:000097d0       ??DPxTransform@physx@@QBE?AV01@ABV01@@Z 1000a7d0 f i CctCharacterController.obj
 0001:00009a00       ??GPxVec3@physx@@QBE?AV01@ABV01@@Z 1000aa00 f i CctCharacterController.obj
 0001:00009a40       ??GPxVec3@physx@@QBE?AV01@XZ 1000aa40 f i CctCharacterController.obj
 0001:00009a80       ??HPxVec3@physx@@QBE?AV01@ABV01@@Z 1000aa80 f i CctCharacterController.obj
 0001:00009ac0       ??I?$PxFlags@W4Enum@PxQueryFlag@physx@@G@physx@@QBE?AV01@W4Enum@PxQueryFlag@1@@Z 1000aac0 f i CctCharacterController.obj
 0001:00009ae0       ??I?$PxFlags@W4Enum@PxShapeFlag@physx@@E@physx@@QBE?AV01@W4Enum@PxShapeFlag@1@@Z 1000aae0 f i CctCharacterController.obj
 0001:00009b00       ??R?$Hash@PAVPxShape@physx@@@shdfnd@physx@@QBEIABQAVPxShape@2@@Z 1000ab00 f i CctCharacterController.obj
 0001:00009b40       ??R?$Hash@PAVPxShape@physx@@@shdfnd@physx@@QBE_NABQAVPxShape@2@0@Z 1000ab40 f i CctCharacterController.obj
 0001:00009b60       ??RGetKey@?$HashSetBase@PAVPxShape@physx@@U?$Hash@PAVPxShape@physx@@@shdfnd@2@VAllocator@42@$0A@@internal@shdfnd@physx@@QAEABQAVPxShape@4@ABQAV54@@Z 1000ab60 f i CctCharacterController.obj
 0001:00009b70       ??U?$PxFlags@W4Enum@PxHitFlag@physx@@G@physx@@QBE?AV01@W4Enum@PxHitFlag@1@@Z 1000ab70 f i CctCharacterController.obj
 0001:00009b90       ??U?$PxFlags@W4Enum@PxQueryFlag@physx@@G@physx@@QBE?AV01@W4Enum@PxQueryFlag@1@@Z 1000ab90 f i CctCharacterController.obj
 0001:00009bb0       ??Uphysx@@YA?AV?$PxFlags@W4Enum@PxHitFlag@physx@@G@0@W4Enum@PxHitFlag@0@0@Z 1000abb0 f i CctCharacterController.obj
 0001:00009bd0       ??Uphysx@@YA?AV?$PxFlags@W4Enum@PxQueryFlag@physx@@G@0@W4Enum@PxQueryFlag@0@0@Z 1000abd0 f i CctCharacterController.obj
 0001:00009bf0       ??YPxVec3@physx@@QAEAAV01@ABV01@@Z 1000abf0 f i CctCharacterController.obj
 0001:00009c30       ??ZPxVec3@physx@@QAEAAV01@ABV01@@Z 1000ac30 f i CctCharacterController.obj
 0001:00009c70       ??_0PxVec3@physx@@QAEAAV01@M@Z 1000ac70 f i CctCharacterController.obj
 0001:00009cb0       ??_5?$PxFlags@W4Enum@PxControllerCollisionFlag@physx@@E@physx@@QAEAAV01@W4Enum@PxControllerCollisionFlag@1@@Z 1000acb0 f i CctCharacterController.obj
 0001:00009cc0       ??_5?$PxFlags@W4Enum@PxHitFlag@physx@@G@physx@@QAEAAV01@W4Enum@PxHitFlag@1@@Z 1000acc0 f i CctCharacterController.obj
 0001:00009cd0       ??_5?$PxFlags@W4Enum@PxQueryFlag@physx@@G@physx@@QAEAAV01@W4Enum@PxQueryFlag@1@@Z 1000acd0 f i CctCharacterController.obj
 0001:00009ce0       ??_EPxControllerManager@physx@@MAEPAXI@Z 1000ace0 f i CctCharacterController.obj
 0001:00009d40       ??_G?$PxHitBuffer@UPxRaycastHit@physx@@@physx@@UAEPAXI@Z 1000ad40 f i CctCharacterController.obj
 0001:00009d40       ??_E?$PxHitBuffer@UPxRaycastHit@physx@@@physx@@UAEPAXI@Z 1000ad40 f i CctCharacterController.obj
 0001:00009d70       ??_G?$PxHitCallback@UPxRaycastHit@physx@@@physx@@UAEPAXI@Z 1000ad70 f i CctCharacterController.obj
 0001:00009d70       ??_E?$PxHitCallback@UPxRaycastHit@physx@@@physx@@UAEPAXI@Z 1000ad70 f i CctCharacterController.obj
 0001:00009da0       ??_GControllerFilter@@UAEPAXI@Z 1000ada0 f i CctCharacterController.obj
 0001:00009da0       ??_EControllerFilter@@UAEPAXI@Z 1000ada0 f i CctCharacterController.obj
 0001:00009dd0       ??_GPxControllerManager@physx@@MAEPAXI@Z 1000add0 f i CctCharacterController.obj
 0001:00009e00       ??_GPxExtendedBox@physx@@QAEPAXI@Z 1000ae00 f i CctCharacterController.obj
 0001:00009e20       ??_GPxQueryFilterCallback@physx@@UAEPAXI@Z 1000ae20 f i CctCharacterController.obj
 0001:00009e20       ??_EPxQueryFilterCallback@physx@@UAEPAXI@Z 1000ae20 f i CctCharacterController.obj
 0001:00009e50       ??_GPxTriangle@physx@@QAEPAXI@Z 1000ae50 f i CctCharacterController.obj
 0001:00009e70       ??_I@YGXPAXIHP6EX0@Z@Z     1000ae70 f i CctCharacterController.obj
 0001:00009eb0       ?FLoad@aos@shdfnd@physx@@YA?AT__m128@@M@Z 1000aeb0 f i CctCharacterController.obj
 0001:00009ec0       ?PxAbs@physx@@YAMM@Z       1000aec0 f i CctCharacterController.obj
 0001:00009ee0       ?PxRecipSqrt@physx@@YAMM@Z 1000aee0 f i CctCharacterController.obj
 0001:00009f10       ?PxSqrt@physx@@YAMM@Z      1000af10 f i CctCharacterController.obj
 0001:00009f30       ?PxSqrt@physx@@YANN@Z      1000af30 f i CctCharacterController.obj
 0001:00009f50       ?V3Load@aos@shdfnd@physx@@YA?AT__m128@@M@Z 1000af50 f i CctCharacterController.obj
 0001:00009f70       ?V4Load@aos@shdfnd@physx@@YA?AT__m128@@M@Z 1000af70 f i CctCharacterController.obj
 0001:00009f80       ?abs@intrinsics@physx@@YAMM@Z 1000af80 f i CctCharacterController.obj
 0001:00009fa0       ?add@physx@@YAXAAUPxExtendedBounds3@1@ABU21@@Z 1000afa0 f i CctCharacterController.obj
 0001:0000a020       ?allocate@?$Array@IV?$ReflectionAllocator@I@shdfnd@physx@@@shdfnd@physx@@IAEPAII@Z 1000b020 f i CctCharacterController.obj
 0001:0000a090       ?allocate@?$Array@PBXV?$ReflectionAllocator@PBX@shdfnd@physx@@@shdfnd@physx@@IAEPAPBXI@Z 1000b090 f i CctCharacterController.obj
 0001:0000a100       ?allocate@?$Array@UPxExtendedCapsule@physx@@V?$ReflectionAllocator@UPxExtendedCapsule@physx@@@shdfnd@2@@shdfnd@physx@@IAEPAUPxExtendedCapsule@3@I@Z 1000b100 f i CctCharacterController.obj
 0001:0000a180       ?allocate@?$Array@VPxExtendedBox@physx@@V?$ReflectionAllocator@VPxExtendedBox@physx@@@shdfnd@2@@shdfnd@physx@@IAEPAVPxExtendedBox@3@I@Z 1000b180 f i CctCharacterController.obj
 0001:0000a200       ?allocate@?$ReflectionAllocator@I@shdfnd@physx@@QAEPAXIPBDH@Z 1000b200 f i CctCharacterController.obj
 0001:0000a260       ?allocate@?$ReflectionAllocator@PBX@shdfnd@physx@@QAEPAXIPBDH@Z 1000b260 f i CctCharacterController.obj
 0001:0000a2c0       ?allocate@?$ReflectionAllocator@UPxExtendedCapsule@physx@@@shdfnd@physx@@QAEPAXIPBDH@Z 1000b2c0 f i CctCharacterController.obj
 0001:0000a320       ?allocate@?$ReflectionAllocator@VPxExtendedBox@physx@@@shdfnd@physx@@QAEPAXIPBDH@Z 1000b320 f i CctCharacterController.obj
 0001:0000a380       ?any@PxGeometryHolder@physx@@QBEABVPxGeometry@2@XZ 1000b380 f i CctCharacterController.obj
 0001:0000a390       ?begin@?$Array@IV?$ReflectionAllocator@I@shdfnd@physx@@@shdfnd@physx@@QAEPAIXZ 1000b390 f i CctCharacterController.obj
 0001:0000a3a0       ?begin@?$Array@IV?$ReflectionAllocator@I@shdfnd@physx@@@shdfnd@physx@@QBEPBIXZ 1000b3a0 f i CctCharacterController.obj
 0001:0000a3b0       ?begin@?$Array@PBXV?$ReflectionAllocator@PBX@shdfnd@physx@@@shdfnd@physx@@QAEPAPBXXZ 1000b3b0 f i CctCharacterController.obj
 0001:0000a3c0       ?begin@?$Array@UPxExtendedCapsule@physx@@V?$ReflectionAllocator@UPxExtendedCapsule@physx@@@shdfnd@2@@shdfnd@physx@@QAEPAUPxExtendedCapsule@3@XZ 1000b3c0 f i CctCharacterController.obj
 0001:0000a3d0       ?begin@?$Array@VPxExtendedBox@physx@@V?$ReflectionAllocator@VPxExtendedBox@physx@@@shdfnd@2@@shdfnd@physx@@QAEPAVPxExtendedBox@3@XZ 1000b3d0 f i CctCharacterController.obj
 0001:0000a3e0       ?capacity@?$Array@IV?$ReflectionAllocator@I@shdfnd@physx@@@shdfnd@physx@@QBEIXZ 1000b3e0 f i CctCharacterController.obj
 0001:0000a3f0       ?capacity@?$Array@PBXV?$ReflectionAllocator@PBX@shdfnd@physx@@@shdfnd@physx@@QBEIXZ 1000b3f0 f i CctCharacterController.obj
 0001:0000a400       ?capacity@?$Array@UPxExtendedCapsule@physx@@V?$ReflectionAllocator@UPxExtendedCapsule@physx@@@shdfnd@2@@shdfnd@physx@@QBEIXZ 1000b400 f i CctCharacterController.obj
 0001:0000a410       ?capacity@?$Array@VPxExtendedBox@physx@@V?$ReflectionAllocator@VPxExtendedBox@physx@@@shdfnd@2@@shdfnd@physx@@QBEIXZ 1000b410 f i CctCharacterController.obj
 0001:0000a420       ?capacity@?$Array@VPxTriangle@physx@@V?$ReflectionAllocator@VPxTriangle@physx@@@shdfnd@2@@shdfnd@physx@@QBEIXZ 1000b420 f i CctCharacterController.obj
 0001:0000a430       ?capacityIncrement@?$Array@PBXV?$ReflectionAllocator@PBX@shdfnd@physx@@@shdfnd@physx@@IBEIXZ 1000b430 f i CctCharacterController.obj
 0001:0000a450       ?capacityIncrement@?$Array@UPxExtendedCapsule@physx@@V?$ReflectionAllocator@UPxExtendedCapsule@physx@@@shdfnd@2@@shdfnd@physx@@IBEIXZ 1000b450 f i CctCharacterController.obj
 0001:0000a470       ?capacityIncrement@?$Array@VPxExtendedBox@physx@@V?$ReflectionAllocator@VPxExtendedBox@physx@@@shdfnd@2@@shdfnd@physx@@IBEIXZ 1000b470 f i CctCharacterController.obj
 0001:0000a490       ?clear@?$Array@IV?$ReflectionAllocator@I@shdfnd@physx@@@shdfnd@physx@@QAEXXZ 1000b490 f i CctCharacterController.obj
 0001:0000a4a0       ?clear@?$Array@VPxTriangle@physx@@V?$ReflectionAllocator@VPxTriangle@physx@@@shdfnd@2@@shdfnd@physx@@QAEXXZ 1000b4a0 f i CctCharacterController.obj
 0001:0000a4b0       ?contains@?$HashSetBase@PAVPxShape@physx@@U?$Hash@PAVPxShape@physx@@@shdfnd@2@VAllocator@42@$0A@@internal@shdfnd@physx@@QBE_NABQAVPxShape@4@@Z 1000b4b0 f i CctCharacterController.obj
 0001:0000a4d0       ?copy@?$Array@IV?$ReflectionAllocator@I@shdfnd@physx@@@shdfnd@physx@@KAXPAI0PBI@Z 1000b4d0 f i CctCharacterController.obj
 0001:0000a500       ?copy@?$Array@PBXV?$ReflectionAllocator@PBX@shdfnd@physx@@@shdfnd@physx@@KAXPAPBX0PBQBX@Z 1000b500 f i CctCharacterController.obj
 0001:0000a530       ?copy@?$Array@UPxExtendedCapsule@physx@@V?$ReflectionAllocator@UPxExtendedCapsule@physx@@@shdfnd@2@@shdfnd@physx@@KAXPAUPxExtendedCapsule@3@0PBU43@@Z 1000b530 f i CctCharacterController.obj
 0001:0000a580       ?copy@?$Array@VPxExtendedBox@physx@@V?$ReflectionAllocator@VPxExtendedBox@physx@@@shdfnd@2@@shdfnd@physx@@KAXPAVPxExtendedBox@3@0PBV43@@Z 1000b580 f i CctCharacterController.obj
 0001:0000a600       ?createController@PxControllerManager@physx@@UAEPAVPxController@2@AAVPxPhysics@2@PAVPxScene@2@ABVPxControllerDesc@2@@Z 1000b600 f i CctCharacterController.obj
 0001:0000a640       ?cross@PxVec3@physx@@QBE?AV12@ABV12@@Z 1000b640 f i CctCharacterController.obj
 0001:0000a6b0       ?deallocate@?$Array@IV?$ReflectionAllocator@I@shdfnd@physx@@@shdfnd@physx@@IAEXPAX@Z 1000b6b0 f i CctCharacterController.obj
 0001:0000a6d0       ?deallocate@?$Array@PBXV?$ReflectionAllocator@PBX@shdfnd@physx@@@shdfnd@physx@@IAEXPAX@Z 1000b6d0 f i CctCharacterController.obj
 0001:0000a6f0       ?deallocate@?$Array@UPxExtendedCapsule@physx@@V?$ReflectionAllocator@UPxExtendedCapsule@physx@@@shdfnd@2@@shdfnd@physx@@IAEXPAX@Z 1000b6f0 f i CctCharacterController.obj
 0001:0000a710       ?deallocate@?$Array@VPxExtendedBox@physx@@V?$ReflectionAllocator@VPxExtendedBox@physx@@@shdfnd@2@@shdfnd@physx@@IAEXPAX@Z 1000b710 f i CctCharacterController.obj
 0001:0000a730       ?deallocate@?$Array@VPxTriangle@physx@@V?$ReflectionAllocator@VPxTriangle@physx@@@shdfnd@2@@shdfnd@physx@@IAEXPAX@Z 1000b730 f i CctCharacterController.obj
 0001:0000a750       ?deallocate@?$ReflectionAllocator@I@shdfnd@physx@@QAEXPAX@Z 1000b750 f i CctCharacterController.obj
 0001:0000a770       ?deallocate@?$ReflectionAllocator@PBX@shdfnd@physx@@QAEXPAX@Z 1000b770 f i CctCharacterController.obj
 0001:0000a790       ?deallocate@?$ReflectionAllocator@UPxExtendedCapsule@physx@@@shdfnd@physx@@QAEXPAX@Z 1000b790 f i CctCharacterController.obj
 0001:0000a7b0       ?deallocate@?$ReflectionAllocator@VPxExtendedBox@physx@@@shdfnd@physx@@QAEXPAX@Z 1000b7b0 f i CctCharacterController.obj
 0001:0000a7d0       ?deallocate@?$ReflectionAllocator@VPxTriangle@physx@@@shdfnd@physx@@QAEXPAX@Z 1000b7d0 f i CctCharacterController.obj
 0001:0000a7f0       ?decomposeVector@shdfnd@physx@@YAXAAVPxVec3@2@0ABV32@1@Z 1000b7f0 f i CctCharacterController.obj
 0001:0000a880       ?destroy@?$Array@IV?$ReflectionAllocator@I@shdfnd@physx@@@shdfnd@physx@@KAXPAI0@Z 1000b880 f i CctCharacterController.obj
 0001:0000a890       ?destroy@?$Array@PBXV?$ReflectionAllocator@PBX@shdfnd@physx@@@shdfnd@physx@@KAXPAPBX0@Z 1000b890 f i CctCharacterController.obj
 0001:0000a8a0       ?destroy@?$Array@UPxExtendedCapsule@physx@@V?$ReflectionAllocator@UPxExtendedCapsule@physx@@@shdfnd@2@@shdfnd@physx@@KAXPAUPxExtendedCapsule@3@0@Z 1000b8a0 f i CctCharacterController.obj
 0001:0000a8b0       ?destroy@?$Array@VPxExtendedBox@physx@@V?$ReflectionAllocator@VPxExtendedBox@physx@@@shdfnd@2@@shdfnd@physx@@KAXPAVPxExtendedBox@3@0@Z 1000b8b0 f i CctCharacterController.obj
 0001:0000a8c0       ?destroy@?$Array@VPxTriangle@physx@@V?$ReflectionAllocator@VPxTriangle@physx@@@shdfnd@2@@shdfnd@physx@@KAXPAVPxTriangle@3@0@Z 1000b8c0 f i CctCharacterController.obj
 0001:0000a8d0       ?distance@physx@@YANABUPxExtendedVec3@1@0@Z 1000b8d0 f i CctCharacterController.obj
 0001:0000a920       ?dot@PxVec3@physx@@QBEMABV12@@Z 1000b920 f i CctCharacterController.obj
 0001:0000a940       ?encodeUserObject@Cct@physx@@YAIIW4UserObjectType@12@@Z 1000b940 f i CctCharacterController.obj
 0001:0000a960       ?end@?$Array@IV?$ReflectionAllocator@I@shdfnd@physx@@@shdfnd@physx@@QAEPAIXZ 1000b960 f i CctCharacterController.obj
 0001:0000a970       ?end@?$Array@IV?$ReflectionAllocator@I@shdfnd@physx@@@shdfnd@physx@@QBEPBIXZ 1000b970 f i CctCharacterController.obj
 0001:0000a980       ?fabs@@YAMM@Z              1000b980 f i CctCharacterController.obj
 0001:0000a9a0       ?finalizeQuery@?$PxHitCallback@UPxRaycastHit@physx@@@physx@@UAEXXZ 1000b9a0 f i CctCharacterController.obj
 0001:0000a9b0       ?find@?$HashBase@PAVPxShape@physx@@PAV12@U?$Hash@PAVPxShape@physx@@@shdfnd@2@UGetKey@?$HashSetBase@PAVPxShape@physx@@U?$Hash@PAVPxShape@physx@@@shdfnd@2@VAllocator@42@$0A@@internal@42@VAllocator@42@$0A@@internal@shdfnd@physx@@QBEPBQAVPxShape@4@ABQAV54@@Z 1000b9b0 f i CctCharacterController.obj
 0001:0000aa40       ?forceSize_Unsafe@?$Array@IV?$ReflectionAllocator@I@shdfnd@physx@@@shdfnd@physx@@QAEXI@Z 1000ba40 f i CctCharacterController.obj
 0001:0000aa50       ?forceSize_Unsafe@?$Array@VPxTriangle@physx@@V?$ReflectionAllocator@VPxTriangle@physx@@@shdfnd@2@@shdfnd@physx@@QAEXI@Z 1000ba50 f i CctCharacterController.obj
 0001:0000aa60       ?getAnyHit@?$PxHitBuffer@UPxRaycastHit@physx@@@physx@@QBEABUPxRaycastHit@2@I@Z 1000ba60 f i CctCharacterController.obj
 0001:0000aa80       ?getBasisVector0@PxQuat@physx@@QBE?AVPxVec3@2@XZ 1000ba80 f i CctCharacterController.obj
 0001:0000ab00       ?getCenter@PxBounds3@physx@@QBE?AVPxVec3@2@XZ 1000bb00 f i CctCharacterController.obj
 0001:0000ab50       ?getConcreteType@PxBase@physx@@QBEGXZ 1000bb50 f i CctCharacterController.obj
 0001:0000ab60       ?getDimensions@PxBounds3@physx@@QBE?AVPxVec3@2@XZ 1000bb60 f i CctCharacterController.obj
 0001:0000aba0       ?getExtents@PxBounds3@physx@@QBE?AVPxVec3@2@XZ 1000bba0 f i CctCharacterController.obj
 0001:0000abf0       ?getGlobalPose@PxShapeExt@physx@@SA?AVPxTransform@2@ABVPxShape@2@ABVPxRigidActor@2@@Z 1000bbf0 f i CctCharacterController.obj
 0001:0000ae30       ?getName@?$ReflectionAllocator@I@shdfnd@physx@@CAPBDXZ 1000be30 f i CctCharacterController.obj
 0001:0000ae60       ?getName@?$ReflectionAllocator@PBX@shdfnd@physx@@CAPBDXZ 1000be60 f i CctCharacterController.obj
 0001:0000ae90       ?getName@?$ReflectionAllocator@UPxExtendedCapsule@physx@@@shdfnd@physx@@CAPBDXZ 1000be90 f i CctCharacterController.obj
 0001:0000aec0       ?getName@?$ReflectionAllocator@VPxExtendedBox@physx@@@shdfnd@physx@@CAPBDXZ 1000bec0 f i CctCharacterController.obj
 0001:0000aef0       ?getNbTouches@?$PxHitBuffer@UPxRaycastHit@physx@@@physx@@QBEIXZ 1000bef0 f i CctCharacterController.obj
 0001:0000af00       ?getNormalized@PxVec3@physx@@QBE?AV12@XZ 1000bf00 f i CctCharacterController.obj
 0001:0000afa0       ?getShapeGlobalPose@physx@@YA?AVPxTransform@1@ABVPxShape@1@ABVPxRigidActor@1@@Z 1000bfa0 f i CctCharacterController.obj
 0001:0000b1e0       ?getTouches@?$PxHitBuffer@UPxRaycastHit@physx@@@physx@@QBEPBUPxRaycastHit@2@XZ 1000c1e0 f i CctCharacterController.obj
 0001:0000b1f0       ?getType@SweptVolume@Cct@physx@@QBE?AW4Enum@SweptVolumeType@23@XZ 1000c1f0 f i CctCharacterController.obj
 0001:0000b200       ?grow@?$Array@IV?$ReflectionAllocator@I@shdfnd@physx@@@shdfnd@physx@@IAEXI@Z 1000c200 f i CctCharacterController.obj
 0001:0000b210       ?growAndPushBack@?$Array@PBXV?$ReflectionAllocator@PBX@shdfnd@physx@@@shdfnd@physx@@IAEAAPBXABQBX@Z 1000c210 f i CctCharacterController.obj
 0001:0000b2a0       ?growAndPushBack@?$Array@UPxExtendedCapsule@physx@@V?$ReflectionAllocator@UPxExtendedCapsule@physx@@@shdfnd@2@@shdfnd@physx@@IAEAAUPxExtendedCapsule@3@ABU43@@Z 1000c2a0 f i CctCharacterController.obj
 0001:0000b360       ?growAndPushBack@?$Array@VPxExtendedBox@physx@@V?$ReflectionAllocator@VPxExtendedBox@physx@@@shdfnd@2@@shdfnd@physx@@IAEAAVPxExtendedBox@3@ABV43@@Z 1000c360 f i CctCharacterController.obj
 0001:0000b430       ?hash@?$HashBase@PAVPxShape@physx@@PAV12@U?$Hash@PAVPxShape@physx@@@shdfnd@2@UGetKey@?$HashSetBase@PAVPxShape@physx@@U?$Hash@PAVPxShape@physx@@@shdfnd@2@VAllocator@42@$0A@@internal@42@VAllocator@42@$0A@@internal@shdfnd@physx@@ABEIABQAVPxShape@4@@Z 1000c430 f i CctCharacterController.obj
 0001:0000b470       ?hash@?$HashBase@PAVPxShape@physx@@PAV12@U?$Hash@PAVPxShape@physx@@@shdfnd@2@UGetKey@?$HashSetBase@PAVPxShape@physx@@U?$Hash@PAVPxShape@physx@@@shdfnd@2@VAllocator@42@$0A@@internal@42@VAllocator@42@$0A@@internal@shdfnd@physx@@ABEIABQAVPxShape@4@I@Z 1000c470 f i CctCharacterController.obj
 0001:0000b4b0       ?hash@shdfnd@physx@@YAII@Z 1000c4b0 f i CctCharacterController.obj
 0001:0000b4f0       ?hash@shdfnd@physx@@YAIPBX@Z 1000c4f0 f i CctCharacterController.obj
 0001:0000b530       ?intersectOBBAABB@Gu@physx@@YA_NABVBox@12@ABVPxBounds3@2@@Z 1000c530 f i CctCharacterController.obj
 0001:0000b600       ?isAlmostZero@shdfnd@physx@@YA_NABVPxVec3@2@@Z 1000c600 f i CctCharacterController.obj
 0001:0000b650       ?isInUserMemory@?$Array@IV?$ReflectionAllocator@I@shdfnd@physx@@@shdfnd@physx@@QBEIXZ 1000c650 f i CctCharacterController.obj
 0001:0000b660       ?isInUserMemory@?$Array@PBXV?$ReflectionAllocator@PBX@shdfnd@physx@@@shdfnd@physx@@QBEIXZ 1000c660 f i CctCharacterController.obj
 0001:0000b670       ?isInUserMemory@?$Array@UPxExtendedCapsule@physx@@V?$ReflectionAllocator@UPxExtendedCapsule@physx@@@shdfnd@2@@shdfnd@physx@@QBEIXZ 1000c670 f i CctCharacterController.obj
 0001:0000b680       ?isInUserMemory@?$Array@VPxExtendedBox@physx@@V?$ReflectionAllocator@VPxExtendedBox@physx@@@shdfnd@2@@shdfnd@physx@@QBEIXZ 1000c680 f i CctCharacterController.obj
 0001:0000b690       ?isInUserMemory@?$Array@VPxTriangle@physx@@V?$ReflectionAllocator@VPxTriangle@physx@@@shdfnd@2@@shdfnd@physx@@QBEIXZ 1000c690 f i CctCharacterController.obj
 0001:0000b6a0       ?isInside@PxExtendedBounds3@physx@@QBE_NABU12@@Z 1000c6a0 f i CctCharacterController.obj
 0001:0000b700       ?isZero@PxVec3@physx@@QBE_NXZ 1000c700 f i CctCharacterController.obj
 0001:0000b740       ?magnitude@PxVec3@physx@@QBEMXZ 1000c740 f i CctCharacterController.obj
 0001:0000b780       ?magnitudeSquared@PxVec3@physx@@QBEMXZ 1000c780 f i CctCharacterController.obj
 0001:0000b7c0       ?maximum@PxExtendedVec3@physx@@QAEXABU12@@Z 1000c7c0 f i CctCharacterController.obj
 0001:0000b800       ?minimum@PxExtendedVec3@physx@@QAEXABU12@@Z 1000c800 f i CctCharacterController.obj
 0001:0000b850       ?normal@PxTriangle@physx@@QBEXAAVPxVec3@2@@Z 1000c850 f i CctCharacterController.obj
 0001:0000b930       ?normalize@PxVec3@physx@@QAEMXZ 1000c930 f i CctCharacterController.obj
 0001:0000b9a0       ?postFilter@ControllerFilter@@UAE?AW4Enum@PxQueryHitType@physx@@ABUPxFilterData@4@ABUPxQueryHit@4@@Z 1000c9a0 f i CctCharacterController.obj
 0001:0000b9c0       ?preFilter@ControllerFilter@@UAE?AW4Enum@PxQueryHitType@physx@@ABUPxFilterData@4@PBVPxShape@4@PBVPxRigidActor@4@AAV?$PxFlags@W4Enum@PxHitFlag@physx@@G@4@@Z 1000c9c0 f i CctCharacterController.obj
 0001:0000ba20       ?processTouches@?$PxHitBuffer@UPxRaycastHit@physx@@@physx@@MAE_NPBUPxRaycastHit@2@I@Z 1000ca20 f i CctCharacterController.obj
 0001:0000ba30       ?pushBack@?$Array@PBXV?$ReflectionAllocator@PBX@shdfnd@physx@@@shdfnd@physx@@QAEAAPBXABQBX@Z 1000ca30 f i CctCharacterController.obj
 0001:0000ba70       ?pushBack@?$Array@UPxExtendedCapsule@physx@@V?$ReflectionAllocator@UPxExtendedCapsule@physx@@@shdfnd@2@@shdfnd@physx@@QAEAAUPxExtendedCapsule@3@ABU43@@Z 1000ca70 f i CctCharacterController.obj
 0001:0000baf0       ?pushBack@?$Array@VPxExtendedBox@physx@@V?$ReflectionAllocator@VPxExtendedBox@physx@@@shdfnd@2@@shdfnd@physx@@QAEAAVPxExtendedBox@3@ABV43@@Z 1000caf0 f i CctCharacterController.obj
 0001:0000bb80       ?recipSqrt@intrinsics@physx@@YAMM@Z 1000cb80 f i CctCharacterController.obj
 0001:0000bbb0       ?recreate@?$Array@IV?$ReflectionAllocator@I@shdfnd@physx@@@shdfnd@physx@@IAEXI@Z 1000cbb0 f i CctCharacterController.obj
 0001:0000bc10       ?reserve@?$Array@IV?$ReflectionAllocator@I@shdfnd@physx@@@shdfnd@physx@@QAEXI@Z 1000cc10 f i CctCharacterController.obj
 0001:0000bc30       ?resetStats@SweepTest@Cct@physx@@QAEXXZ 1000cc30 f i CctCharacterController.obj
 0001:0000bc40       ?resizeUninitialized@?$Array@IV?$ReflectionAllocator@I@shdfnd@physx@@@shdfnd@physx@@QAEXI@Z 1000cc40 f i CctCharacterController.obj
 0001:0000bc70       ?rotate@PxQuat@physx@@QBE?BVPxVec3@2@ABV32@@Z 1000cc70 f i CctCharacterController.obj
 0001:0000bd90       ?rotateInv@PxQuat@physx@@QBE?BVPxVec3@2@ABV32@@Z 1000cd90 f i CctCharacterController.obj
 0001:0000beb0       ?selectMax@intrinsics@physx@@YAMMM@Z 1000ceb0 f i CctCharacterController.obj
 0001:0000bee0       ?selectMin@intrinsics@physx@@YAMMM@Z 1000cee0 f i CctCharacterController.obj
 0001:0000bf10       ?set@PxExtendedBounds3@physx@@QAEXNNNNNN@Z 1000cf10 f i CctCharacterController.obj
 0001:0000bf60       ?set@PxExtendedVec3@physx@@QAEXNNN@Z 1000cf60 f i CctCharacterController.obj
 0001:0000bf90       ?setEmpty@PxExtendedBounds3@physx@@QAEXXZ 1000cf90 f i CctCharacterController.obj
 0001:0000bfb0       ?setWorldPos@SweptContact@Cct@physx@@QAEXABVPxVec3@3@ABUPxExtendedVec3@3@@Z 1000cfb0 f i CctCharacterController.obj
 0001:0000bff0       ?size@?$Array@IV?$ReflectionAllocator@I@shdfnd@physx@@@shdfnd@physx@@QBEIXZ 1000cff0 f i CctCharacterController.obj
 0001:0000c000       ?size@?$Array@UInternalBoxObstacle@ObstacleContext@Cct@physx@@V?$ReflectionAllocator@UInternalBoxObstacle@ObstacleContext@Cct@physx@@@shdfnd@4@@shdfnd@physx@@QBEIXZ 1000d000 f i CctCharacterController.obj
 0001:0000c010       ?size@?$Array@UInternalCapsuleObstacle@ObstacleContext@Cct@physx@@V?$ReflectionAllocator@UInternalCapsuleObstacle@ObstacleContext@Cct@physx@@@shdfnd@4@@shdfnd@physx@@QBEIXZ 1000d010 f i CctCharacterController.obj
 0001:0000c020       ?size@?$Array@UPxExtendedCapsule@physx@@V?$ReflectionAllocator@UPxExtendedCapsule@physx@@@shdfnd@2@@shdfnd@physx@@QBEIXZ 1000d020 f i CctCharacterController.obj
 0001:0000c030       ?size@?$Array@VPxExtendedBox@physx@@V?$ReflectionAllocator@VPxExtendedBox@physx@@@shdfnd@2@@shdfnd@physx@@QBEIXZ 1000d030 f i CctCharacterController.obj
 0001:0000c040       ?size@?$Array@VPxTriangle@physx@@V?$ReflectionAllocator@VPxTriangle@physx@@@shdfnd@2@@shdfnd@physx@@QBEIXZ 1000d040 f i CctCharacterController.obj
 0001:0000c050       ?sqrt@intrinsics@physx@@YAMM@Z 1000d050 f i CctCharacterController.obj
 0001:0000c070       ?testSlope@physx@@YA_NABVPxVec3@1@0M@Z 1000d070 f i CctCharacterController.obj
 0001:0000c0c0       ?toVec3@physx@@YA?AVPxVec3@1@ABUPxExtendedVec3@1@@Z 1000d0c0 f i CctCharacterController.obj
 0001:0000c100       ?transform@PxTransform@physx@@QBE?AV12@ABV12@@Z 1000d100 f i CctCharacterController.obj
 0001:0000c330       ?transform@PxTransform@physx@@QBE?AVPxVec3@2@ABV32@@Z 1000d330 f i CctCharacterController.obj
 0001:0000c470       ?transformInv@PxTransform@physx@@QBE?AVPxVec3@2@ABV32@@Z 1000d470 f i CctCharacterController.obj
 0001:0000c5a0       _fabsf                     1000d5a0 f i CctCharacterController.obj
 0001:0000c5c0       _sqrtf                     1000d5c0 f i CctCharacterController.obj
 0001:0000c620       ?getSceneTimestamp@Cct@physx@@YAIPBUInternalCBData_FindTouchedGeom@12@@Z 1000d620 f   CctCharacterControllerCallbacks.obj
 0001:0000c640       ?findTouchedGeometry@Cct@physx@@YAXPBUInternalCBData_FindTouchedGeom@12@ABUPxExtendedBounds3@2@AAV?$Array@VPxTriangle@physx@@V?$ReflectionAllocator@VPxTriangle@physx@@@shdfnd@2@@shdfnd@2@AAV?$Array@IV?$ReflectionAllocator@I@shdfnd@physx@@@62@3ABVCCTFilter@12@ABUCCTParams@12@AAG@Z 1000d640 f   CctCharacterControllerCallbacks.obj
 0001:0000ccc0       ?shapeHitCallback@Cct@physx@@YAIPBUInternalCBData_OnHit@12@ABUSweptContact@12@ABVPxVec3@2@M@Z 1000dcc0 f   CctCharacterControllerCallbacks.obj
 0001:0000cd90       ?userHitCallback@Cct@physx@@YAIPBUInternalCBData_OnHit@12@ABUSweptContact@12@ABVPxVec3@2@M@Z 1000dd90 f   CctCharacterControllerCallbacks.obj
 0001:000118c0       ??$PX_UNUSED@PBUPxOverlapHit@physx@@@@YAXABQBUPxOverlapHit@physx@@@Z 100128c0 f i CctCharacterControllerCallbacks.obj
 0001:000118d0       ??$reserve@VPxTriangle@physx@@V?$ReflectionAllocator@VPxTriangle@physx@@@shdfnd@2@@Cct@physx@@YAPAVPxTriangle@1@AAV?$Array@VPxTriangle@physx@@V?$ReflectionAllocator@VPxTriangle@physx@@@shdfnd@2@@shdfnd@1@I@Z 100128d0 f i CctCharacterControllerCallbacks.obj
 0001:00011900       ??0?$PxFlags@W4Enum@PxMeshGeometryFlag@physx@@E@physx@@QAE@E@Z 10012900 f i CctCharacterControllerCallbacks.obj
 0001:00011910       ??0?$PxFlags@W4Enum@PxMeshGeometryFlag@physx@@E@physx@@QAE@XZ 10012910 f i CctCharacterControllerCallbacks.obj
 0001:00011920       ??0?$PxHitBuffer@UPxOverlapHit@physx@@@physx@@QAE@PAUPxOverlapHit@1@I@Z 10012920 f i CctCharacterControllerCallbacks.obj
 0001:00011960       ??0?$PxHitCallback@UPxOverlapHit@physx@@@physx@@QAE@PAUPxOverlapHit@1@I@Z 10012960 f i CctCharacterControllerCallbacks.obj
 0001:000119a0       ??0?$PxPadding@$02@physx@@QAE@XZ 100129a0 f i CctCharacterControllerCallbacks.obj
 0001:000119b0       ??0PxControllerHit@physx@@QAE@XZ 100129b0 f i CctCharacterControllerCallbacks.obj
 0001:000119c0       ??0PxControllerObstacleHit@physx@@QAE@XZ 100129c0 f i CctCharacterControllerCallbacks.obj
 0001:000119d0       ??0PxControllerShapeHit@physx@@QAE@XZ 100129d0 f i CctCharacterControllerCallbacks.obj
 0001:000119e0       ??0PxControllersHit@physx@@QAE@XZ 100129e0 f i CctCharacterControllerCallbacks.obj
 0001:000119f0       ??0PxConvexMeshGeometry@physx@@QAE@XZ 100129f0 f i CctCharacterControllerCallbacks.obj
 0001:00011a40       ??0PxExtendedSphere@physx@@QAE@XZ 10012a40 f i CctCharacterControllerCallbacks.obj
 0001:00011a50       ??0PxHeightFieldGeometry@physx@@QAE@XZ 10012a50 f i CctCharacterControllerCallbacks.obj
 0001:00011a90       ??0PxMat33@physx@@QAE@ABVPxVec3@1@00@Z 10012a90 f i CctCharacterControllerCallbacks.obj
 0001:00011ae0       ??0PxMat44@physx@@QAE@ABVPxMat33@1@ABVPxVec3@1@@Z 10012ae0 f i CctCharacterControllerCallbacks.obj
 0001:00011b60       ??0PxMeshScale@physx@@QAE@M@Z 10012b60 f i CctCharacterControllerCallbacks.obj
 0001:00011ba0       ??0PxMeshScale@physx@@QAE@XZ 10012ba0 f i CctCharacterControllerCallbacks.obj
 0001:00011be0       ??0PxOverlapHit@physx@@QAE@XZ 10012be0 f i CctCharacterControllerCallbacks.obj
 0001:00011c00       ??0PxPlane@physx@@QAE@ABVPxVec3@1@M@Z 10012c00 f i CctCharacterControllerCallbacks.obj
 0001:00011c30       ??0PxPlane@physx@@QAE@MMMM@Z 10012c30 f i CctCharacterControllerCallbacks.obj
 0001:00011c60       ??0PxQueryFilterData@physx@@QAE@ABU01@@Z 10012c60 f i CctCharacterControllerCallbacks.obj
 0001:00011c90       ??0PxQueryFilterData@physx@@QAE@V?$PxFlags@W4Enum@PxQueryFlag@physx@@G@1@@Z 10012c90 f i CctCharacterControllerCallbacks.obj
 0001:00011cc0       ??0PxTransform@physx@@QAE@ABVPxVec3@1@@Z 10012cc0 f i CctCharacterControllerCallbacks.obj
 0001:00011d00       ??0PxTriangle@physx@@QAE@ABV01@@Z 10012d00 f i CctCharacterControllerCallbacks.obj
 0001:00011d40       ??0PxTriangle@physx@@QAE@ABVPxVec3@1@00@Z 10012d40 f i CctCharacterControllerCallbacks.obj
 0001:00011d90       ??0PxTriangle@physx@@QAE@XZ 10012d90 f i CctCharacterControllerCallbacks.obj
 0001:00011da0       ??0PxTriangleMeshGeometry@physx@@QAE@XZ 10012da0 f i CctCharacterControllerCallbacks.obj
 0001:00011df0       ??0PxVec4@physx@@QAE@ABVPxVec3@1@M@Z 10012df0 f i CctCharacterControllerCallbacks.obj
 0001:00011e20       ??0PxVec4@physx@@QAE@MMMM@Z 10012e20 f i CctCharacterControllerCallbacks.obj
 0001:00011e50       ??0TessParams@@QAE@XZ      10012e50 f i CctCharacterControllerCallbacks.obj
 0001:00011e60       ??1?$PxHitBuffer@UPxOverlapHit@physx@@@physx@@UAE@XZ 10012e60 f i CctCharacterControllerCallbacks.obj
 0001:00011e70       ??1?$PxHitCallback@UPxOverlapHit@physx@@@physx@@UAE@XZ 10012e70 f i CctCharacterControllerCallbacks.obj
 0001:00011e80       ??1PxExtendedSphere@physx@@QAE@XZ 10012e80 f i CctCharacterControllerCallbacks.obj
 0001:00011e90       ??APxVec3@physx@@QBEABMH@Z 10012e90 f i CctCharacterControllerCallbacks.obj
 0001:00011ea0       ??DPxMat33@physx@@QBE?AV01@ABV01@@Z 10012ea0 f i CctCharacterControllerCallbacks.obj
 0001:000120f0       ??DPxVec4@physx@@QBE?AV01@M@Z 100130f0 f i CctCharacterControllerCallbacks.obj
 0001:00012110       ??HPxVec4@physx@@QBE?AV01@ABV01@@Z 10013110 f i CctCharacterControllerCallbacks.obj
 0001:00012160       ??_G?$PxHitBuffer@UPxOverlapHit@physx@@@physx@@UAEPAXI@Z 10013160 f i CctCharacterControllerCallbacks.obj
 0001:00012160       ??_E?$PxHitBuffer@UPxOverlapHit@physx@@@physx@@UAEPAXI@Z 10013160 f i CctCharacterControllerCallbacks.obj
 0001:00012190       ??_E?$PxHitCallback@UPxOverlapHit@physx@@@physx@@UAEPAXI@Z 10013190 f i CctCharacterControllerCallbacks.obj
 0001:00012190       ??_G?$PxHitCallback@UPxOverlapHit@physx@@@physx@@UAEPAXI@Z 10013190 f i CctCharacterControllerCallbacks.obj
 0001:000121c0       ?PxPlaneEquationFromTransform@physx@@YA?AVPxPlane@1@ABVPxTransform@1@@Z 100131c0 f i CctCharacterControllerCallbacks.obj
 0001:00012300       ?allocate@?$Array@VPxTriangle@physx@@V?$ReflectionAllocator@VPxTriangle@physx@@@shdfnd@2@@shdfnd@physx@@IAEPAVPxTriangle@3@I@Z 10013300 f i CctCharacterControllerCallbacks.obj
 0001:00012370       ?allocate@?$ReflectionAllocator@VPxTriangle@physx@@@shdfnd@physx@@QAEPAXIPBDH@Z 10013370 f i CctCharacterControllerCallbacks.obj
 0001:000123d0       ?begin@?$Array@VPxTriangle@physx@@V?$ReflectionAllocator@VPxTriangle@physx@@@shdfnd@2@@shdfnd@physx@@QAEPAVPxTriangle@3@XZ 100133d0 f i CctCharacterControllerCallbacks.obj
 0001:000123e0       ?capacityIncrement@?$Array@IV?$ReflectionAllocator@I@shdfnd@physx@@@shdfnd@physx@@IBEIXZ 100133e0 f i CctCharacterControllerCallbacks.obj
 0001:00012400       ?capacityIncrement@?$Array@VPxTriangle@physx@@V?$ReflectionAllocator@VPxTriangle@physx@@@shdfnd@2@@shdfnd@physx@@IBEIXZ 10013400 f i CctCharacterControllerCallbacks.obj
 0001:00012420       ?centerExtents@PxBounds3@physx@@SA?AV12@ABVPxVec3@2@0@Z 10013420 f i CctCharacterControllerCallbacks.obj
 0001:00012490       ?computeBasis@shdfnd@physx@@YAXABVPxVec3@2@AAV32@1@Z 10013490 f i CctCharacterControllerCallbacks.obj
 0001:000125a0       ?copy@?$Array@VPxTriangle@physx@@V?$ReflectionAllocator@VPxTriangle@physx@@@shdfnd@2@@shdfnd@physx@@KAXPAVPxTriangle@3@0PBV43@@Z 100135a0 f i CctCharacterControllerCallbacks.obj
 0001:00012610       ?decodeIndex@Cct@physx@@YAII@Z 10013610 f i CctCharacterControllerCallbacks.obj
 0001:00012620       ?decodeType@Cct@physx@@YA?AW4UserObjectType@12@I@Z 10013620 f i CctCharacterControllerCallbacks.obj
 0001:00012630       ?distance@PxPlane@physx@@QBEMABVPxVec3@2@@Z 10013630 f i CctCharacterControllerCallbacks.obj
 0001:00012670       ?finalizeQuery@?$PxHitCallback@UPxOverlapHit@physx@@@physx@@UAEXXZ 10013670 f i CctCharacterControllerCallbacks.obj
 0001:00012680       ?getAnyHit@?$PxHitBuffer@UPxOverlapHit@physx@@@physx@@QBEABUPxOverlapHit@2@I@Z 10013680 f i CctCharacterControllerCallbacks.obj
 0001:000126a0       ?getName@?$ReflectionAllocator@VPxTriangle@physx@@@shdfnd@physx@@CAPBDXZ 100136a0 f i CctCharacterControllerCallbacks.obj
 0001:000126d0       ?getNbAnyHits@?$PxHitBuffer@UPxOverlapHit@physx@@@physx@@QBEIXZ 100136d0 f i CctCharacterControllerCallbacks.obj
 0001:000126e0       ?getNbTouches@?$PxHitBuffer@UPxOverlapHit@physx@@@physx@@QBEIXZ 100136e0 f i CctCharacterControllerCallbacks.obj
 0001:000126f0       ?getPosition@PxMat44@physx@@QBE?AVPxVec3@2@XZ 100136f0 f i CctCharacterControllerCallbacks.obj
 0001:00012710       ?getResults@PxMeshOverlapUtil@physx@@QBEPBIXZ 10013710 f i CctCharacterControllerCallbacks.obj
 0001:00012720       ?getTouches@?$PxHitBuffer@UPxOverlapHit@physx@@@physx@@QBEPBUPxOverlapHit@2@XZ 10013720 f i CctCharacterControllerCallbacks.obj
 0001:00012730       ?getTranspose@PxMat33@physx@@QBE?AV12@XZ 10013730 f i CctCharacterControllerCallbacks.obj
 0001:000127b0       ?getXYZ@PxVec4@physx@@QBE?AVPxVec3@2@XZ 100137b0 f i CctCharacterControllerCallbacks.obj
 0001:000127d0       ?grow@?$Array@VPxTriangle@physx@@V?$ReflectionAllocator@VPxTriangle@physx@@@shdfnd@2@@shdfnd@physx@@IAEXI@Z 100137d0 f i CctCharacterControllerCallbacks.obj
 0001:000127e0       ?growAndPushBack@?$Array@IV?$ReflectionAllocator@I@shdfnd@physx@@@shdfnd@physx@@IAEAAIABI@Z 100137e0 f i CctCharacterControllerCallbacks.obj
 0001:00012870       ?growAndPushBack@?$Array@VPxTriangle@physx@@V?$ReflectionAllocator@VPxTriangle@physx@@@shdfnd@2@@shdfnd@physx@@IAEAAVPxTriangle@3@ABV43@@Z 10013870 f i CctCharacterControllerCallbacks.obj
 0001:00012930       ?processTouches@?$PxHitBuffer@UPxOverlapHit@physx@@@physx@@MAE_NPBUPxOverlapHit@2@I@Z 10013930 f i CctCharacterControllerCallbacks.obj
 0001:00012940       ?project@PxPlane@physx@@QBE?AVPxVec3@2@ABV32@@Z 10013940 f i CctCharacterControllerCallbacks.obj
 0001:000129c0       ?pushBack@?$Array@IV?$ReflectionAllocator@I@shdfnd@physx@@@shdfnd@physx@@QAEAAIABI@Z 100139c0 f i CctCharacterControllerCallbacks.obj
 0001:00012a00       ?pushBack@?$Array@VPxTriangle@physx@@V?$ReflectionAllocator@VPxTriangle@physx@@@shdfnd@2@@shdfnd@physx@@QAEAAVPxTriangle@3@ABV43@@Z 10013a00 f i CctCharacterControllerCallbacks.obj
 0001:00012a80       ?recreate@?$Array@VPxTriangle@physx@@V?$ReflectionAllocator@VPxTriangle@physx@@@shdfnd@2@@shdfnd@physx@@IAEXI@Z 10013a80 f i CctCharacterControllerCallbacks.obj
 0001:00012ae0       ?reserve@?$Array@VPxTriangle@physx@@V?$ReflectionAllocator@VPxTriangle@physx@@@shdfnd@2@@shdfnd@physx@@QAEXI@Z 10013ae0 f i CctCharacterControllerCallbacks.obj
 0001:00012b00       ?resizeUninitialized@?$Array@VPxTriangle@physx@@V?$ReflectionAllocator@VPxTriangle@physx@@@shdfnd@2@@shdfnd@physx@@QAEXI@Z 10013b00 f i CctCharacterControllerCallbacks.obj
 0001:00012b30       ?rotate@PxMat44@physx@@QBE?BVPxVec3@2@ABV32@@Z 10013b30 f i CctCharacterControllerCallbacks.obj
 0001:00012bd0       ?rotate@PxMat44@physx@@QBE?BVPxVec4@2@ABV32@@Z 10013bd0 f i CctCharacterControllerCallbacks.obj
 0001:00012cb0       ?rotate@PxTransform@physx@@QBE?AVPxVec3@2@ABV32@@Z 10013cb0 f i CctCharacterControllerCallbacks.obj
 0001:00012dd0       ?toMat33@PxMeshScale@physx@@QBE?AVPxMat33@2@XZ 10013dd0 f i CctCharacterControllerCallbacks.obj
 0001:00013140       ?transform@PxMat33@physx@@QBE?AVPxVec3@2@ABV32@@Z 10014140 f i CctCharacterControllerCallbacks.obj
 0001:000131e0       ?transform@PxTransform@physx@@QBE?AVPxPlane@2@ABV32@@Z 100141e0 f i CctCharacterControllerCallbacks.obj
 0001:00013380       _PxCreateControllerManager 10014380 f   CctCharacterControllerManager.obj
 0001:000133f0       ??0CharacterControllerManager@Cct@physx@@QAE@AAVPxScene@2@@Z 100143f0 f   CctCharacterControllerManager.obj
 0001:00013500       ??1CharacterControllerManager@Cct@physx@@UAE@XZ 10014500 f   CctCharacterControllerManager.obj
 0001:00013600       ?release@CharacterControllerManager@Cct@physx@@UAEXXZ 10014600 f   CctCharacterControllerManager.obj
 0001:000136e0       ?getScene@CharacterControllerManager@Cct@physx@@UBEAAVPxScene@3@XZ 100146e0 f   CctCharacterControllerManager.obj
 0001:000136f0       ?getNbControllers@CharacterControllerManager@Cct@physx@@UBEIXZ 100146f0 f   CctCharacterControllerManager.obj
 0001:00013700       ?getController@CharacterControllerManager@Cct@physx@@UAEPAVPxController@3@I@Z 10014700 f   CctCharacterControllerManager.obj
 0001:00013740       ?createController@CharacterControllerManager@Cct@physx@@UAEPAVPxController@3@ABVPxControllerDesc@3@@Z 10014740 f   CctCharacterControllerManager.obj
 0001:000138e0       ?purgeControllers@CharacterControllerManager@Cct@physx@@UAEXXZ 100148e0 f   CctCharacterControllerManager.obj
 0001:00013990       ?getRenderBuffer@CharacterControllerManager@Cct@physx@@UAEAAVPxRenderBuffer@3@XZ 10014990 f   CctCharacterControllerManager.obj
 0001:00013a00       ?setDebugRenderingFlags@CharacterControllerManager@Cct@physx@@UAEXV?$PxFlags@W4Enum@PxControllerDebugRenderFlag@physx@@I@3@@Z 10014a00 f   CctCharacterControllerManager.obj
 0001:00013a30       ?getNbObstacleContexts@CharacterControllerManager@Cct@physx@@UBEIXZ 10014a30 f   CctCharacterControllerManager.obj
 0001:00013a40       ?getObstacleContext@CharacterControllerManager@Cct@physx@@UAEPAVPxObstacleContext@3@I@Z 10014a40 f   CctCharacterControllerManager.obj
 0001:00013a80       ?createObstacleContext@CharacterControllerManager@Cct@physx@@UAEPAVPxObstacleContext@3@XZ 10014a80 f   CctCharacterControllerManager.obj
 0001:00013b20       ?computeInteractions@CharacterControllerManager@Cct@physx@@UAEXMPAVPxControllerFilterCallback@3@@Z 10014b20 f   CctCharacterControllerManager.obj
 0001:00013cd0       ?setTessellation@CharacterControllerManager@Cct@physx@@UAEX_NM@Z 10014cd0 f   CctCharacterControllerManager.obj
 0001:00013cf0       ?setOverlapRecoveryModule@CharacterControllerManager@Cct@physx@@UAEX_N@Z 10014cf0 f   CctCharacterControllerManager.obj
 0001:00013d00       ?setPreciseSweeps@CharacterControllerManager@Cct@physx@@UAEX_N@Z 10014d00 f   CctCharacterControllerManager.obj
 0001:00013d10       ?setPreventVerticalSlidingAgainstCeiling@CharacterControllerManager@Cct@physx@@UAEX_N@Z 10014d10 f   CctCharacterControllerManager.obj
 0001:00013d20       ?shiftOrigin@CharacterControllerManager@Cct@physx@@UAEXABVPxVec3@3@@Z 10014d20 f   CctCharacterControllerManager.obj
 0001:00013db0       ?onObstacleRemoved@CharacterControllerManager@Cct@physx@@QBEXI@Z 10014db0 f   CctCharacterControllerManager.obj
 0001:00013de0       ?onObstacleUpdated@CharacterControllerManager@Cct@physx@@QBEXIPBVPxObstacleContext@3@@Z 10014de0 f   CctCharacterControllerManager.obj
 0001:00013eb0       ?onObstacleAdded@CharacterControllerManager@Cct@physx@@QBEXIPBVPxObstacleContext@3@@Z 10014eb0 f   CctCharacterControllerManager.obj
 0001:00013f80       ?releaseController@CharacterControllerManager@Cct@physx@@QAEXAAVPxController@3@@Z 10014f80 f   CctCharacterControllerManager.obj
 0001:00014010       ?getControllers@CharacterControllerManager@Cct@physx@@QAEPAPAVController@23@XZ 10015010 f   CctCharacterControllerManager.obj
 0001:00014020       ?releaseObstacleContext@CharacterControllerManager@Cct@physx@@QAEXAAVObstacleContext@23@@Z 10015020 f   CctCharacterControllerManager.obj
 0001:00014070       ?resetObstaclesBuffers@CharacterControllerManager@Cct@physx@@QAEXXZ 10015070 f   CctCharacterControllerManager.obj
 0001:00015280       ??$?2V?$ReflectionAllocator@VBoxController@Cct@physx@@@shdfnd@physx@@@UserAllocated@shdfnd@physx@@SAPAXIV?$ReflectionAllocator@VBoxController@Cct@physx@@@12@PBDH@Z 10016280 f i CctCharacterControllerManager.obj
 0001:000152e0       ??$?2V?$ReflectionAllocator@VCapsuleController@Cct@physx@@@shdfnd@physx@@@UserAllocated@shdfnd@physx@@SAPAXIV?$ReflectionAllocator@VCapsuleController@Cct@physx@@@12@PBDH@Z 100162e0 f i CctCharacterControllerManager.obj
 0001:00015340       ??$?2V?$ReflectionAllocator@VCharacterControllerManager@Cct@physx@@@shdfnd@physx@@@UserAllocated@shdfnd@physx@@SAPAXIV?$ReflectionAllocator@VCharacterControllerManager@Cct@physx@@@12@PBDH@Z 10016340 f i CctCharacterControllerManager.obj
 0001:000153a0       ??$?2V?$ReflectionAllocator@VObstacleContext@Cct@physx@@@shdfnd@physx@@@UserAllocated@shdfnd@physx@@SAPAXIV?$ReflectionAllocator@VObstacleContext@Cct@physx@@@12@PBDH@Z 100163a0 f i CctCharacterControllerManager.obj
 0001:00015400       ??$?2V?$ReflectionAllocator@VRenderBuffer@Cm@physx@@@shdfnd@physx@@@UserAllocated@shdfnd@physx@@SAPAXIV?$ReflectionAllocator@VRenderBuffer@Cm@physx@@@12@PBDH@Z 10016400 f i CctCharacterControllerManager.obj
 0001:00015460       ??$append@UPxDebugLine@physx@@@RenderBuffer@Cm@physx@@AAEXAAV?$Array@UPxDebugLine@physx@@V?$ReflectionAllocator@UPxDebugLine@physx@@@shdfnd@2@@shdfnd@2@PBUPxDebugLine@2@I@Z 10016460 f i CctCharacterControllerManager.obj
 0001:00015510       ??$append@UPxDebugPoint@physx@@@RenderBuffer@Cm@physx@@AAEXAAV?$Array@UPxDebugPoint@physx@@V?$ReflectionAllocator@UPxDebugPoint@physx@@@shdfnd@2@@shdfnd@2@PBUPxDebugPoint@2@I@Z 10016510 f i CctCharacterControllerManager.obj
 0001:00015590       ??$append@UPxDebugText@physx@@@RenderBuffer@Cm@physx@@AAEXAAV?$Array@UPxDebugText@physx@@V?$ReflectionAllocator@UPxDebugText@physx@@@shdfnd@2@@shdfnd@2@PBUPxDebugText@2@I@Z 10016590 f i CctCharacterControllerManager.obj
 0001:00015630       ??$append@UPxDebugTriangle@physx@@@RenderBuffer@Cm@physx@@AAEXAAV?$Array@UPxDebugTriangle@physx@@V?$ReflectionAllocator@UPxDebugTriangle@physx@@@shdfnd@2@@shdfnd@2@PBUPxDebugTriangle@2@I@Z 10016630 f i CctCharacterControllerManager.obj
 0001:00015700       ??$resetOrClear@V?$Array@PBXV?$ReflectionAllocator@PBX@shdfnd@physx@@@shdfnd@physx@@@@YAXAAV?$Array@PBXV?$ReflectionAllocator@PBX@shdfnd@physx@@@shdfnd@physx@@@Z 10016700 f i CctCharacterControllerManager.obj
 0001:00015750       ??$resetOrClear@V?$Array@UPxExtendedCapsule@physx@@V?$ReflectionAllocator@UPxExtendedCapsule@physx@@@shdfnd@2@@shdfnd@physx@@@@YAXAAV?$Array@UPxExtendedCapsule@physx@@V?$ReflectionAllocator@UPxExtendedCapsule@physx@@@shdfnd@2@@shdfnd@physx@@@Z 10016750 f i CctCharacterControllerManager.obj
 0001:000157a0       ??$resetOrClear@V?$Array@VPxExtendedBox@physx@@V?$ReflectionAllocator@VPxExtendedBox@physx@@@shdfnd@2@@shdfnd@physx@@@@YAXAAV?$Array@VPxExtendedBox@physx@@V?$ReflectionAllocator@VPxExtendedBox@physx@@@shdfnd@2@@shdfnd@physx@@@Z 100167a0 f i CctCharacterControllerManager.obj
 0001:000157f0       ??$swap@PAVController@Cct@physx@@@shdfnd@physx@@YAXAAPAVController@Cct@1@0@Z 100167f0 f i CctCharacterControllerManager.obj
 0001:00015810       ??0?$Array@DV?$ReflectionAllocator@D@shdfnd@physx@@@shdfnd@physx@@QAE@ABV?$ReflectionAllocator@D@12@@Z 10016810 f i CctCharacterControllerManager.obj
 0001:00015830       ??0?$Array@PAVController@Cct@physx@@V?$ReflectionAllocator@PAVController@Cct@physx@@@shdfnd@3@@shdfnd@physx@@QAE@ABV?$ReflectionAllocator@PAVController@Cct@physx@@@12@@Z 10016830 f i CctCharacterControllerManager.obj
 0001:00015850       ??0?$Array@PAVObstacleContext@Cct@physx@@V?$ReflectionAllocator@PAVObstacleContext@Cct@physx@@@shdfnd@3@@shdfnd@physx@@QAE@ABV?$ReflectionAllocator@PAVObstacleContext@Cct@physx@@@12@@Z 10016850 f i CctCharacterControllerManager.obj
 0001:00015870       ??0?$Array@PBXV?$ReflectionAllocator@PBX@shdfnd@physx@@@shdfnd@physx@@QAE@ABV?$ReflectionAllocator@PBX@12@@Z 10016870 f i CctCharacterControllerManager.obj
 0001:00015890       ??0?$Array@UPxDebugLine@physx@@V?$ReflectionAllocator@UPxDebugLine@physx@@@shdfnd@2@@shdfnd@physx@@QAE@ABV?$ReflectionAllocator@UPxDebugLine@physx@@@12@@Z 10016890 f i CctCharacterControllerManager.obj
 0001:000158b0       ??0?$Array@UPxDebugPoint@physx@@V?$ReflectionAllocator@UPxDebugPoint@physx@@@shdfnd@2@@shdfnd@physx@@QAE@ABV?$ReflectionAllocator@UPxDebugPoint@physx@@@12@@Z 100168b0 f i CctCharacterControllerManager.obj
 0001:000158d0       ??0?$Array@UPxDebugText@physx@@V?$ReflectionAllocator@UPxDebugText@physx@@@shdfnd@2@@shdfnd@physx@@QAE@ABV?$ReflectionAllocator@UPxDebugText@physx@@@12@@Z 100168d0 f i CctCharacterControllerManager.obj
 0001:000158f0       ??0?$Array@UPxDebugTriangle@physx@@V?$ReflectionAllocator@UPxDebugTriangle@physx@@@shdfnd@2@@shdfnd@physx@@QAE@ABV?$ReflectionAllocator@UPxDebugTriangle@physx@@@12@@Z 100168f0 f i CctCharacterControllerManager.obj
 0001:00015910       ??0?$Array@UPxExtendedCapsule@physx@@V?$ReflectionAllocator@UPxExtendedCapsule@physx@@@shdfnd@2@@shdfnd@physx@@QAE@ABV?$ReflectionAllocator@UPxExtendedCapsule@physx@@@12@@Z 10016910 f i CctCharacterControllerManager.obj
 0001:00015930       ??0?$Array@VPxExtendedBox@physx@@V?$ReflectionAllocator@VPxExtendedBox@physx@@@shdfnd@2@@shdfnd@physx@@QAE@ABV?$ReflectionAllocator@VPxExtendedBox@physx@@@12@@Z 10016930 f i CctCharacterControllerManager.obj
 0001:00015950       ??0?$HashBase@PAVPxShape@physx@@PAV12@U?$Hash@PAVPxShape@physx@@@shdfnd@2@UGetKey@?$HashSetBase@PAVPxShape@physx@@U?$Hash@PAVPxShape@physx@@@shdfnd@2@VAllocator@42@$0A@@internal@42@VAllocator@42@$0A@@internal@shdfnd@physx@@QAE@IM@Z 10016950 f i CctCharacterControllerManager.obj
 0001:000159c0       ??0?$HashSet@PAVPxShape@physx@@U?$Hash@PAVPxShape@physx@@@shdfnd@2@VAllocator@42@@shdfnd@physx@@QAE@IM@Z 100169c0 f i CctCharacterControllerManager.obj
 0001:00015a30       ??0?$HashSetBase@PAVPxShape@physx@@U?$Hash@PAVPxShape@physx@@@shdfnd@2@VAllocator@42@$0A@@internal@shdfnd@physx@@QAE@IM@Z 10016a30 f i CctCharacterControllerManager.obj
 0001:00015aa0       ??0?$PxFlags@W4Enum@PxControllerDebugRenderFlag@physx@@I@physx@@QAE@I@Z 10016aa0 f i CctCharacterControllerManager.obj
 0001:00015ab0       ??0?$ReflectionAllocator@D@shdfnd@physx@@QAE@ABV012@@Z 10016ab0 f i CctCharacterControllerManager.obj
 0001:00015ac0       ??0?$ReflectionAllocator@D@shdfnd@physx@@QAE@PBD@Z 10016ac0 f i CctCharacterControllerManager.obj
 0001:00015ad0       ??0?$ReflectionAllocator@PAVController@Cct@physx@@@shdfnd@physx@@QAE@ABV012@@Z 10016ad0 f i CctCharacterControllerManager.obj
 0001:00015ae0       ??0?$ReflectionAllocator@PAVController@Cct@physx@@@shdfnd@physx@@QAE@PBD@Z 10016ae0 f i CctCharacterControllerManager.obj
 0001:00015af0       ??0?$ReflectionAllocator@PAVObstacleContext@Cct@physx@@@shdfnd@physx@@QAE@ABV012@@Z 10016af0 f i CctCharacterControllerManager.obj
 0001:00015b00       ??0?$ReflectionAllocator@PAVObstacleContext@Cct@physx@@@shdfnd@physx@@QAE@PBD@Z 10016b00 f i CctCharacterControllerManager.obj
 0001:00015b10       ??0?$ReflectionAllocator@PBX@shdfnd@physx@@QAE@ABV012@@Z 10016b10 f i CctCharacterControllerManager.obj
 0001:00015b20       ??0?$ReflectionAllocator@PBX@shdfnd@physx@@QAE@PBD@Z 10016b20 f i CctCharacterControllerManager.obj
 0001:00015b30       ??0?$ReflectionAllocator@UPxDebugLine@physx@@@shdfnd@physx@@QAE@ABV012@@Z 10016b30 f i CctCharacterControllerManager.obj
 0001:00015b40       ??0?$ReflectionAllocator@UPxDebugLine@physx@@@shdfnd@physx@@QAE@PBD@Z 10016b40 f i CctCharacterControllerManager.obj
 0001:00015b50       ??0?$ReflectionAllocator@UPxDebugPoint@physx@@@shdfnd@physx@@QAE@ABV012@@Z 10016b50 f i CctCharacterControllerManager.obj
 0001:00015b60       ??0?$ReflectionAllocator@UPxDebugPoint@physx@@@shdfnd@physx@@QAE@PBD@Z 10016b60 f i CctCharacterControllerManager.obj
 0001:00015b70       ??0?$ReflectionAllocator@UPxDebugText@physx@@@shdfnd@physx@@QAE@ABV012@@Z 10016b70 f i CctCharacterControllerManager.obj
 0001:00015b80       ??0?$ReflectionAllocator@UPxDebugText@physx@@@shdfnd@physx@@QAE@PBD@Z 10016b80 f i CctCharacterControllerManager.obj
 0001:00015b90       ??0?$ReflectionAllocator@UPxDebugTriangle@physx@@@shdfnd@physx@@QAE@ABV012@@Z 10016b90 f i CctCharacterControllerManager.obj
 0001:00015ba0       ??0?$ReflectionAllocator@UPxDebugTriangle@physx@@@shdfnd@physx@@QAE@PBD@Z 10016ba0 f i CctCharacterControllerManager.obj
 0001:00015bb0       ??0?$ReflectionAllocator@UPxExtendedCapsule@physx@@@shdfnd@physx@@QAE@ABV012@@Z 10016bb0 f i CctCharacterControllerManager.obj
 0001:00015bc0       ??0?$ReflectionAllocator@UPxExtendedCapsule@physx@@@shdfnd@physx@@QAE@PBD@Z 10016bc0 f i CctCharacterControllerManager.obj
 0001:00015bd0       ??0?$ReflectionAllocator@VBoxController@Cct@physx@@@shdfnd@physx@@QAE@PBD@Z 10016bd0 f i CctCharacterControllerManager.obj
 0001:00015be0       ??0?$ReflectionAllocator@VCapsuleController@Cct@physx@@@shdfnd@physx@@QAE@PBD@Z 10016be0 f i CctCharacterControllerManager.obj
 0001:00015bf0       ??0?$ReflectionAllocator@VCharacterControllerManager@Cct@physx@@@shdfnd@physx@@QAE@PBD@Z 10016bf0 f i CctCharacterControllerManager.obj
 0001:00015c00       ??0?$ReflectionAllocator@VObstacleContext@Cct@physx@@@shdfnd@physx@@QAE@PBD@Z 10016c00 f i CctCharacterControllerManager.obj
 0001:00015c10       ??0?$ReflectionAllocator@VPxExtendedBox@physx@@@shdfnd@physx@@QAE@ABV012@@Z 10016c10 f i CctCharacterControllerManager.obj
 0001:00015c20       ??0?$ReflectionAllocator@VPxExtendedBox@physx@@@shdfnd@physx@@QAE@PBD@Z 10016c20 f i CctCharacterControllerManager.obj
 0001:00015c30       ??0?$ReflectionAllocator@VRenderBuffer@Cm@physx@@@shdfnd@physx@@QAE@PBD@Z 10016c30 f i CctCharacterControllerManager.obj
 0001:00015c40       ??0Axes@Gu@physx@@QAE@W4AxisOrder@12@@Z 10016c40 f i CctCharacterControllerManager.obj
 0001:00015c70       ??0PxDebugLine@physx@@QAE@ABU01@@Z 10016c70 f i CctCharacterControllerManager.obj
 0001:00015cb0       ??0PxDebugPoint@physx@@QAE@ABU01@@Z 10016cb0 f i CctCharacterControllerManager.obj
 0001:00015ce0       ??0PxDebugText@physx@@QAE@ABU01@@Z 10016ce0 f i CctCharacterControllerManager.obj
 0001:00015d10       ??0PxDebugTriangle@physx@@QAE@ABU01@@Z 10016d10 f i CctCharacterControllerManager.obj
 0001:00015d70       ??0PxRenderBuffer@physx@@QAE@XZ 10016d70 f i CctCharacterControllerManager.obj
 0001:00015d80       ??0RenderBuffer@Cm@physx@@QAE@XZ 10016d80 f i CctCharacterControllerManager.obj
 0001:00015e00       ??1?$Array@DV?$ReflectionAllocator@D@shdfnd@physx@@@shdfnd@physx@@QAE@XZ 10016e00 f i CctCharacterControllerManager.obj
 0001:00015e30       ??1?$Array@PAVController@Cct@physx@@V?$ReflectionAllocator@PAVController@Cct@physx@@@shdfnd@3@@shdfnd@physx@@QAE@XZ 10016e30 f i CctCharacterControllerManager.obj
 0001:00015e60       ??1?$Array@PAVObstacleContext@Cct@physx@@V?$ReflectionAllocator@PAVObstacleContext@Cct@physx@@@shdfnd@3@@shdfnd@physx@@QAE@XZ 10016e60 f i CctCharacterControllerManager.obj
 0001:00015e90       ??1?$Array@PBXV?$ReflectionAllocator@PBX@shdfnd@physx@@@shdfnd@physx@@QAE@XZ 10016e90 f i CctCharacterControllerManager.obj
 0001:00015ec0       ??1?$Array@UPxDebugLine@physx@@V?$ReflectionAllocator@UPxDebugLine@physx@@@shdfnd@2@@shdfnd@physx@@QAE@XZ 10016ec0 f i CctCharacterControllerManager.obj
 0001:00015ef0       ??1?$Array@UPxDebugPoint@physx@@V?$ReflectionAllocator@UPxDebugPoint@physx@@@shdfnd@2@@shdfnd@physx@@QAE@XZ 10016ef0 f i CctCharacterControllerManager.obj
 0001:00015f20       ??1?$Array@UPxDebugText@physx@@V?$ReflectionAllocator@UPxDebugText@physx@@@shdfnd@2@@shdfnd@physx@@QAE@XZ 10016f20 f i CctCharacterControllerManager.obj
 0001:00015f50       ??1?$Array@UPxDebugTriangle@physx@@V?$ReflectionAllocator@UPxDebugTriangle@physx@@@shdfnd@2@@shdfnd@physx@@QAE@XZ 10016f50 f i CctCharacterControllerManager.obj
 0001:00015f80       ??1?$Array@UPxExtendedCapsule@physx@@V?$ReflectionAllocator@UPxExtendedCapsule@physx@@@shdfnd@2@@shdfnd@physx@@QAE@XZ 10016f80 f i CctCharacterControllerManager.obj
 0001:00015fb0       ??1?$Array@VPxExtendedBox@physx@@V?$ReflectionAllocator@VPxExtendedBox@physx@@@shdfnd@2@@shdfnd@physx@@QAE@XZ 10016fb0 f i CctCharacterControllerManager.obj
 0001:00015fe0       ??1?$HashBase@PAVPxShape@physx@@PAV12@U?$Hash@PAVPxShape@physx@@@shdfnd@2@UGetKey@?$HashSetBase@PAVPxShape@physx@@U?$Hash@PAVPxShape@physx@@@shdfnd@2@VAllocator@42@$0A@@internal@42@VAllocator@42@$0A@@internal@shdfnd@physx@@QAE@XZ 10016fe0 f i CctCharacterControllerManager.obj
 0001:00015ff0       ??1?$HashSet@PAVPxShape@physx@@U?$Hash@PAVPxShape@physx@@@shdfnd@2@VAllocator@42@@shdfnd@physx@@QAE@XZ 10016ff0 f i CctCharacterControllerManager.obj
 0001:00016000       ??1?$HashSetBase@PAVPxShape@physx@@U?$Hash@PAVPxShape@physx@@@shdfnd@2@VAllocator@42@$0A@@internal@shdfnd@physx@@QAE@XZ 10017000 f i CctCharacterControllerManager.obj
 0001:00016010       ??1Axes@Gu@physx@@QAE@XZ   10017010 f i CctCharacterControllerManager.obj
 0001:00016020       ??1PxRenderBuffer@physx@@UAE@XZ 10017020 f i CctCharacterControllerManager.obj
 0001:00016030       ??1RenderBuffer@Cm@physx@@UAE@XZ 10017030 f i CctCharacterControllerManager.obj
 0001:000160e0       ??4?$PxFlags@W4Enum@PxControllerDebugRenderFlag@physx@@I@physx@@QAEAAV01@ABV01@@Z 100170e0 f i CctCharacterControllerManager.obj
 0001:000160f0       ??4PxBounds3@physx@@QAEAAV01@ABV01@@Z 100170f0 f i CctCharacterControllerManager.obj
 0001:00016120       ??A?$Array@PAVController@Cct@physx@@V?$ReflectionAllocator@PAVController@Cct@physx@@@shdfnd@3@@shdfnd@physx@@QAEAAPAVController@Cct@2@I@Z 10017120 f i CctCharacterControllerManager.obj
 0001:00016130       ??A?$Array@PAVController@Cct@physx@@V?$ReflectionAllocator@PAVController@Cct@physx@@@shdfnd@3@@shdfnd@physx@@QBEABQAVController@Cct@2@I@Z 10017130 f i CctCharacterControllerManager.obj
 0001:00016140       ??A?$Array@PAVObstacleContext@Cct@physx@@V?$ReflectionAllocator@PAVObstacleContext@Cct@physx@@@shdfnd@3@@shdfnd@physx@@QAEAAPAVObstacleContext@Cct@2@I@Z 10017140 f i CctCharacterControllerManager.obj
 0001:00016150       ??A?$Array@UPxDebugLine@physx@@V?$ReflectionAllocator@UPxDebugLine@physx@@@shdfnd@2@@shdfnd@physx@@QAEAAUPxDebugLine@2@I@Z 10017150 f i CctCharacterControllerManager.obj
 0001:00016160       ??A?$Array@UPxDebugPoint@physx@@V?$ReflectionAllocator@UPxDebugPoint@physx@@@shdfnd@2@@shdfnd@physx@@QAEAAUPxDebugPoint@2@I@Z 10017160 f i CctCharacterControllerManager.obj
 0001:00016170       ??A?$Array@UPxDebugText@physx@@V?$ReflectionAllocator@UPxDebugText@physx@@@shdfnd@2@@shdfnd@physx@@QAEAAUPxDebugText@2@I@Z 10017170 f i CctCharacterControllerManager.obj
 0001:00016190       ??A?$Array@UPxDebugTriangle@physx@@V?$ReflectionAllocator@UPxDebugTriangle@physx@@@shdfnd@2@@shdfnd@physx@@QAEAAUPxDebugTriangle@2@I@Z 10017190 f i CctCharacterControllerManager.obj
 0001:000161b0       ??APxMat33@physx@@QBEABVPxVec3@1@H@Z 100171b0 f i CctCharacterControllerManager.obj
 0001:000161c0       ??APxMat33@physx@@QBEABVPxVec3@1@I@Z 100171c0 f i CctCharacterControllerManager.obj
 0001:000161d0       ??APxVec3@physx@@QBEABMI@Z 100171d0 f i CctCharacterControllerManager.obj
 0001:000161e0       ??B?$PxFlags@W4Enum@PxControllerDebugRenderFlag@physx@@I@physx@@QBE_NXZ 100171e0 f i CctCharacterControllerManager.obj
 0001:000161f0       ??_GCharacterControllerManager@Cct@physx@@UAEPAXI@Z 100171f0 f i CctCharacterControllerManager.obj
 0001:000161f0       ??_ECharacterControllerManager@Cct@physx@@UAEPAXI@Z 100171f0 f i CctCharacterControllerManager.obj
 0001:00016220       ??_EPxRenderBuffer@physx@@UAEPAXI@Z 10017220 f i CctCharacterControllerManager.obj
 0001:00016220       ??_GPxRenderBuffer@physx@@UAEPAXI@Z 10017220 f i CctCharacterControllerManager.obj
 0001:00016250       ??_GRenderBuffer@Cm@physx@@UAEPAXI@Z 10017250 f i CctCharacterControllerManager.obj
 0001:00016250       ??_ERenderBuffer@Cm@physx@@UAEPAXI@Z 10017250 f i CctCharacterControllerManager.obj
 0001:00016280       ?PxMemCopy@physx@@YAPAXPIAXPIBXI@Z 10017280 f i CctCharacterControllerManager.obj
 0001:00016290       ?PxMemSet@physx@@YAPAXPIAXHI@Z 10017290 f i CctCharacterControllerManager.obj
 0001:000162a0       ?allocate@?$Array@PAVController@Cct@physx@@V?$ReflectionAllocator@PAVController@Cct@physx@@@shdfnd@3@@shdfnd@physx@@IAEPAPAVController@Cct@3@I@Z 100172a0 f i CctCharacterControllerManager.obj
 0001:00016310       ?allocate@?$Array@PAVObstacleContext@Cct@physx@@V?$ReflectionAllocator@PAVObstacleContext@Cct@physx@@@shdfnd@3@@shdfnd@physx@@IAEPAPAVObstacleContext@Cct@3@I@Z 10017310 f i CctCharacterControllerManager.obj
 0001:00016380       ?allocate@?$Array@UPxDebugLine@physx@@V?$ReflectionAllocator@UPxDebugLine@physx@@@shdfnd@2@@shdfnd@physx@@IAEPAUPxDebugLine@3@I@Z 10017380 f i CctCharacterControllerManager.obj
 0001:000163f0       ?allocate@?$Array@UPxDebugPoint@physx@@V?$ReflectionAllocator@UPxDebugPoint@physx@@@shdfnd@2@@shdfnd@physx@@IAEPAUPxDebugPoint@3@I@Z 100173f0 f i CctCharacterControllerManager.obj
 0001:00016460       ?allocate@?$Array@UPxDebugText@physx@@V?$ReflectionAllocator@UPxDebugText@physx@@@shdfnd@2@@shdfnd@physx@@IAEPAUPxDebugText@3@I@Z 10017460 f i CctCharacterControllerManager.obj
 0001:000164d0       ?allocate@?$Array@UPxDebugTriangle@physx@@V?$ReflectionAllocator@UPxDebugTriangle@physx@@@shdfnd@2@@shdfnd@physx@@IAEPAUPxDebugTriangle@3@I@Z 100174d0 f i CctCharacterControllerManager.obj
 0001:00016540       ?allocate@?$ReflectionAllocator@PAVController@Cct@physx@@@shdfnd@physx@@QAEPAXIPBDH@Z 10017540 f i CctCharacterControllerManager.obj
 0001:000165a0       ?allocate@?$ReflectionAllocator@PAVObstacleContext@Cct@physx@@@shdfnd@physx@@QAEPAXIPBDH@Z 100175a0 f i CctCharacterControllerManager.obj
 0001:00016600       ?allocate@?$ReflectionAllocator@UPxDebugLine@physx@@@shdfnd@physx@@QAEPAXIPBDH@Z 10017600 f i CctCharacterControllerManager.obj
 0001:00016660       ?allocate@?$ReflectionAllocator@UPxDebugPoint@physx@@@shdfnd@physx@@QAEPAXIPBDH@Z 10017660 f i CctCharacterControllerManager.obj
 0001:000166c0       ?allocate@?$ReflectionAllocator@UPxDebugText@physx@@@shdfnd@physx@@QAEPAXIPBDH@Z 100176c0 f i CctCharacterControllerManager.obj
 0001:00016720       ?allocate@?$ReflectionAllocator@UPxDebugTriangle@physx@@@shdfnd@physx@@QAEPAXIPBDH@Z 10017720 f i CctCharacterControllerManager.obj
 0001:00016780       ?allocate@?$ReflectionAllocator@VBoxController@Cct@physx@@@shdfnd@physx@@QAEPAXIPBDH@Z 10017780 f i CctCharacterControllerManager.obj
 0001:000167e0       ?allocate@?$ReflectionAllocator@VCapsuleController@Cct@physx@@@shdfnd@physx@@QAEPAXIPBDH@Z 100177e0 f i CctCharacterControllerManager.obj
 0001:00016840       ?allocate@?$ReflectionAllocator@VCharacterControllerManager@Cct@physx@@@shdfnd@physx@@QAEPAXIPBDH@Z 10017840 f i CctCharacterControllerManager.obj
 0001:000168a0       ?allocate@?$ReflectionAllocator@VObstacleContext@Cct@physx@@@shdfnd@physx@@QAEPAXIPBDH@Z 100178a0 f i CctCharacterControllerManager.obj
 0001:00016900       ?allocate@?$ReflectionAllocator@VRenderBuffer@Cm@physx@@@shdfnd@physx@@QAEPAXIPBDH@Z 10017900 f i CctCharacterControllerManager.obj
 0001:00016960       ?append@RenderBuffer@Cm@physx@@UAEXABVPxRenderBuffer@3@@Z 10017960 f i CctCharacterControllerManager.obj
 0001:000169e0       ?begin@?$Array@PAVController@Cct@physx@@V?$ReflectionAllocator@PAVController@Cct@physx@@@shdfnd@3@@shdfnd@physx@@QAEPAPAVController@Cct@3@XZ 100179e0 f i CctCharacterControllerManager.obj
 0001:000169f0       ?begin@?$Array@UPxDebugLine@physx@@V?$ReflectionAllocator@UPxDebugLine@physx@@@shdfnd@2@@shdfnd@physx@@QBEPBUPxDebugLine@3@XZ 100179f0 f i CctCharacterControllerManager.obj
 0001:00016a00       ?begin@?$Array@UPxDebugPoint@physx@@V?$ReflectionAllocator@UPxDebugPoint@physx@@@shdfnd@2@@shdfnd@physx@@QBEPBUPxDebugPoint@3@XZ 10017a00 f i CctCharacterControllerManager.obj
 0001:00016a10       ?begin@?$Array@UPxDebugText@physx@@V?$ReflectionAllocator@UPxDebugText@physx@@@shdfnd@2@@shdfnd@physx@@QBEPBUPxDebugText@3@XZ 10017a10 f i CctCharacterControllerManager.obj
 0001:00016a20       ?begin@?$Array@UPxDebugTriangle@physx@@V?$ReflectionAllocator@UPxDebugTriangle@physx@@@shdfnd@2@@shdfnd@physx@@QBEPBUPxDebugTriangle@3@XZ 10017a20 f i CctCharacterControllerManager.obj
 0001:00016a30       ?capacity@?$Array@DV?$ReflectionAllocator@D@shdfnd@physx@@@shdfnd@physx@@QBEIXZ 10017a30 f i CctCharacterControllerManager.obj
 0001:00016a40       ?capacity@?$Array@PAVController@Cct@physx@@V?$ReflectionAllocator@PAVController@Cct@physx@@@shdfnd@3@@shdfnd@physx@@QBEIXZ 10017a40 f i CctCharacterControllerManager.obj
 0001:00016a50       ?capacity@?$Array@PAVObstacleContext@Cct@physx@@V?$ReflectionAllocator@PAVObstacleContext@Cct@physx@@@shdfnd@3@@shdfnd@physx@@QBEIXZ 10017a50 f i CctCharacterControllerManager.obj
 0001:00016a60       ?capacity@?$Array@UPxDebugLine@physx@@V?$ReflectionAllocator@UPxDebugLine@physx@@@shdfnd@2@@shdfnd@physx@@QBEIXZ 10017a60 f i CctCharacterControllerManager.obj
 0001:00016a70       ?capacity@?$Array@UPxDebugPoint@physx@@V?$ReflectionAllocator@UPxDebugPoint@physx@@@shdfnd@2@@shdfnd@physx@@QBEIXZ 10017a70 f i CctCharacterControllerManager.obj
 0001:00016a80       ?capacity@?$Array@UPxDebugText@physx@@V?$ReflectionAllocator@UPxDebugText@physx@@@shdfnd@2@@shdfnd@physx@@QBEIXZ 10017a80 f i CctCharacterControllerManager.obj
 0001:00016a90       ?capacity@?$Array@UPxDebugTriangle@physx@@V?$ReflectionAllocator@UPxDebugTriangle@physx@@@shdfnd@2@@shdfnd@physx@@QBEIXZ 10017a90 f i CctCharacterControllerManager.obj
 0001:00016aa0       ?capacityIncrement@?$Array@PAVController@Cct@physx@@V?$ReflectionAllocator@PAVController@Cct@physx@@@shdfnd@3@@shdfnd@physx@@IBEIXZ 10017aa0 f i CctCharacterControllerManager.obj
 0001:00016ac0       ?capacityIncrement@?$Array@PAVObstacleContext@Cct@physx@@V?$ReflectionAllocator@PAVObstacleContext@Cct@physx@@@shdfnd@3@@shdfnd@physx@@IBEIXZ 10017ac0 f i CctCharacterControllerManager.obj
 0001:00016ae0       ?capacityIncrement@?$Array@UPxDebugLine@physx@@V?$ReflectionAllocator@UPxDebugLine@physx@@@shdfnd@2@@shdfnd@physx@@IBEIXZ 10017ae0 f i CctCharacterControllerManager.obj
 0001:00016b00       ?capacityIncrement@?$Array@UPxDebugPoint@physx@@V?$ReflectionAllocator@UPxDebugPoint@physx@@@shdfnd@2@@shdfnd@physx@@IBEIXZ 10017b00 f i CctCharacterControllerManager.obj
 0001:00016b20       ?capacityIncrement@?$Array@UPxDebugText@physx@@V?$ReflectionAllocator@UPxDebugText@physx@@@shdfnd@2@@shdfnd@physx@@IBEIXZ 10017b20 f i CctCharacterControllerManager.obj
 0001:00016b40       ?capacityIncrement@?$Array@UPxDebugTriangle@physx@@V?$ReflectionAllocator@UPxDebugTriangle@physx@@@shdfnd@2@@shdfnd@physx@@IBEIXZ 10017b40 f i CctCharacterControllerManager.obj
 0001:00016b60       ?clear@?$Array@DV?$ReflectionAllocator@D@shdfnd@physx@@@shdfnd@physx@@QAEXXZ 10017b60 f i CctCharacterControllerManager.obj
 0001:00016b70       ?clear@?$Array@PBXV?$ReflectionAllocator@PBX@shdfnd@physx@@@shdfnd@physx@@QAEXXZ 10017b70 f i CctCharacterControllerManager.obj
 0001:00016b80       ?clear@?$Array@UPxDebugLine@physx@@V?$ReflectionAllocator@UPxDebugLine@physx@@@shdfnd@2@@shdfnd@physx@@QAEXXZ 10017b80 f i CctCharacterControllerManager.obj
 0001:00016b90       ?clear@?$Array@UPxDebugPoint@physx@@V?$ReflectionAllocator@UPxDebugPoint@physx@@@shdfnd@2@@shdfnd@physx@@QAEXXZ 10017b90 f i CctCharacterControllerManager.obj
 0001:00016ba0       ?clear@?$Array@UPxDebugText@physx@@V?$ReflectionAllocator@UPxDebugText@physx@@@shdfnd@2@@shdfnd@physx@@QAEXXZ 10017ba0 f i CctCharacterControllerManager.obj
 0001:00016bb0       ?clear@?$Array@UPxDebugTriangle@physx@@V?$ReflectionAllocator@UPxDebugTriangle@physx@@@shdfnd@2@@shdfnd@physx@@QAEXXZ 10017bb0 f i CctCharacterControllerManager.obj
 0001:00016bc0       ?clear@?$Array@UPxExtendedCapsule@physx@@V?$ReflectionAllocator@UPxExtendedCapsule@physx@@@shdfnd@2@@shdfnd@physx@@QAEXXZ 10017bc0 f i CctCharacterControllerManager.obj
 0001:00016bd0       ?clear@?$Array@VPxExtendedBox@physx@@V?$ReflectionAllocator@VPxExtendedBox@physx@@@shdfnd@2@@shdfnd@physx@@QAEXXZ 10017bd0 f i CctCharacterControllerManager.obj
 0001:00016be0       ?clear@RenderBuffer@Cm@physx@@UAEXXZ 10017be0 f i CctCharacterControllerManager.obj
 0001:00016c10       ?copy@?$Array@PAVController@Cct@physx@@V?$ReflectionAllocator@PAVController@Cct@physx@@@shdfnd@3@@shdfnd@physx@@KAXPAPAVController@Cct@3@0PBQAV453@@Z 10017c10 f i CctCharacterControllerManager.obj
 0001:00016c40       ?copy@?$Array@PAVObstacleContext@Cct@physx@@V?$ReflectionAllocator@PAVObstacleContext@Cct@physx@@@shdfnd@3@@shdfnd@physx@@KAXPAPAVObstacleContext@Cct@3@0PBQAV453@@Z 10017c40 f i CctCharacterControllerManager.obj
 0001:00016c70       ?copy@?$Array@UPxDebugLine@physx@@V?$ReflectionAllocator@UPxDebugLine@physx@@@shdfnd@2@@shdfnd@physx@@KAXPAUPxDebugLine@3@0PBU43@@Z 10017c70 f i CctCharacterControllerManager.obj
 0001:00016ce0       ?copy@?$Array@UPxDebugPoint@physx@@V?$ReflectionAllocator@UPxDebugPoint@physx@@@shdfnd@2@@shdfnd@physx@@KAXPAUPxDebugPoint@3@0PBU43@@Z 10017ce0 f i CctCharacterControllerManager.obj
 0001:00016d30       ?copy@?$Array@UPxDebugText@physx@@V?$ReflectionAllocator@UPxDebugText@physx@@@shdfnd@2@@shdfnd@physx@@KAXPAUPxDebugText@3@0PBU43@@Z 10017d30 f i CctCharacterControllerManager.obj
 0001:00016d90       ?copy@?$Array@UPxDebugTriangle@physx@@V?$ReflectionAllocator@UPxDebugTriangle@physx@@@shdfnd@2@@shdfnd@physx@@KAXPAUPxDebugTriangle@3@0PBU43@@Z 10017d90 f i CctCharacterControllerManager.obj
 0001:00016e10       ?create@?$Array@PBXV?$ReflectionAllocator@PBX@shdfnd@physx@@@shdfnd@physx@@KAXPAPBX0ABQBX@Z 10017e10 f i CctCharacterControllerManager.obj
 0001:00016e40       ?create@?$Array@UPxExtendedCapsule@physx@@V?$ReflectionAllocator@UPxExtendedCapsule@physx@@@shdfnd@2@@shdfnd@physx@@KAXPAUPxExtendedCapsule@3@0ABU43@@Z 10017e40 f i CctCharacterControllerManager.obj
 0001:00016e90       ?create@?$Array@VPxExtendedBox@physx@@V?$ReflectionAllocator@VPxExtendedBox@physx@@@shdfnd@2@@shdfnd@physx@@KAXPAVPxExtendedBox@3@0ABV43@@Z 10017e90 f i CctCharacterControllerManager.obj
 0001:00016f00       ?create@?$HashBase@PAVPxShape@physx@@PAV12@U?$Hash@PAVPxShape@physx@@@shdfnd@2@UGetKey@?$HashSetBase@PAVPxShape@physx@@U?$Hash@PAVPxShape@physx@@@shdfnd@2@VAllocator@42@$0A@@internal@42@VAllocator@42@$0A@@internal@shdfnd@physx@@QAEPAPAVPxShape@4@ABQAV54@AA_N@Z 10017f00 f i CctCharacterControllerManager.obj
 0001:00017030       ?createController@CharacterControllerManager@Cct@physx@@UAEPAVPxController@3@AAVPxPhysics@3@PAVPxScene@3@ABVPxControllerDesc@3@@Z 10018030 f i CctCharacterControllerManager.obj
 0001:00017070       ?deallocate@?$Array@DV?$ReflectionAllocator@D@shdfnd@physx@@@shdfnd@physx@@IAEXPAX@Z 10018070 f i CctCharacterControllerManager.obj
 0001:00017090       ?deallocate@?$Array@PAVController@Cct@physx@@V?$ReflectionAllocator@PAVController@Cct@physx@@@shdfnd@3@@shdfnd@physx@@IAEXPAX@Z 10018090 f i CctCharacterControllerManager.obj
 0001:000170b0       ?deallocate@?$Array@PAVObstacleContext@Cct@physx@@V?$ReflectionAllocator@PAVObstacleContext@Cct@physx@@@shdfnd@3@@shdfnd@physx@@IAEXPAX@Z 100180b0 f i CctCharacterControllerManager.obj
 0001:000170d0       ?deallocate@?$Array@UPxDebugLine@physx@@V?$ReflectionAllocator@UPxDebugLine@physx@@@shdfnd@2@@shdfnd@physx@@IAEXPAX@Z 100180d0 f i CctCharacterControllerManager.obj
 0001:000170f0       ?deallocate@?$Array@UPxDebugPoint@physx@@V?$ReflectionAllocator@UPxDebugPoint@physx@@@shdfnd@2@@shdfnd@physx@@IAEXPAX@Z 100180f0 f i CctCharacterControllerManager.obj
 0001:00017110       ?deallocate@?$Array@UPxDebugText@physx@@V?$ReflectionAllocator@UPxDebugText@physx@@@shdfnd@2@@shdfnd@physx@@IAEXPAX@Z 10018110 f i CctCharacterControllerManager.obj
 0001:00017130       ?deallocate@?$Array@UPxDebugTriangle@physx@@V?$ReflectionAllocator@UPxDebugTriangle@physx@@@shdfnd@2@@shdfnd@physx@@IAEXPAX@Z 10018130 f i CctCharacterControllerManager.obj
 0001:00017150       ?deallocate@?$ReflectionAllocator@D@shdfnd@physx@@QAEXPAX@Z 10018150 f i CctCharacterControllerManager.obj
 0001:00017170       ?deallocate@?$ReflectionAllocator@PAVController@Cct@physx@@@shdfnd@physx@@QAEXPAX@Z 10018170 f i CctCharacterControllerManager.obj
 0001:00017190       ?deallocate@?$ReflectionAllocator@PAVObstacleContext@Cct@physx@@@shdfnd@physx@@QAEXPAX@Z 10018190 f i CctCharacterControllerManager.obj
 0001:000171b0       ?deallocate@?$ReflectionAllocator@UPxDebugLine@physx@@@shdfnd@physx@@QAEXPAX@Z 100181b0 f i CctCharacterControllerManager.obj
 0001:000171d0       ?deallocate@?$ReflectionAllocator@UPxDebugPoint@physx@@@shdfnd@physx@@QAEXPAX@Z 100181d0 f i CctCharacterControllerManager.obj
 0001:000171f0       ?deallocate@?$ReflectionAllocator@UPxDebugText@physx@@@shdfnd@physx@@QAEXPAX@Z 100181f0 f i CctCharacterControllerManager.obj
 0001:00017210       ?deallocate@?$ReflectionAllocator@UPxDebugTriangle@physx@@@shdfnd@physx@@QAEXPAX@Z 10018210 f i CctCharacterControllerManager.obj
 0001:00017230       ?destroy@?$Array@DV?$ReflectionAllocator@D@shdfnd@physx@@@shdfnd@physx@@KAXPAD0@Z 10018230 f i CctCharacterControllerManager.obj
 0001:00017240       ?destroy@?$Array@PAVController@Cct@physx@@V?$ReflectionAllocator@PAVController@Cct@physx@@@shdfnd@3@@shdfnd@physx@@KAXPAPAVController@Cct@3@0@Z 10018240 f i CctCharacterControllerManager.obj
 0001:00017250       ?destroy@?$Array@PAVObstacleContext@Cct@physx@@V?$ReflectionAllocator@PAVObstacleContext@Cct@physx@@@shdfnd@3@@shdfnd@physx@@KAXPAPAVObstacleContext@Cct@3@0@Z 10018250 f i CctCharacterControllerManager.obj
 0001:00017260       ?destroy@?$Array@UPxDebugLine@physx@@V?$ReflectionAllocator@UPxDebugLine@physx@@@shdfnd@2@@shdfnd@physx@@KAXPAUPxDebugLine@3@0@Z 10018260 f i CctCharacterControllerManager.obj
 0001:00017270       ?destroy@?$Array@UPxDebugPoint@physx@@V?$ReflectionAllocator@UPxDebugPoint@physx@@@shdfnd@2@@shdfnd@physx@@KAXPAUPxDebugPoint@3@0@Z 10018270 f i CctCharacterControllerManager.obj
 0001:00017280       ?destroy@?$Array@UPxDebugText@physx@@V?$ReflectionAllocator@UPxDebugText@physx@@@shdfnd@2@@shdfnd@physx@@KAXPAUPxDebugText@3@0@Z 10018280 f i CctCharacterControllerManager.obj
 0001:00017290       ?destroy@?$Array@UPxDebugTriangle@physx@@V?$ReflectionAllocator@UPxDebugTriangle@physx@@@shdfnd@2@@shdfnd@physx@@KAXPAUPxDebugTriangle@3@0@Z 10018290 f i CctCharacterControllerManager.obj
 0001:000172a0       ?destroy@?$HashBase@PAVPxShape@physx@@PAV12@U?$Hash@PAVPxShape@physx@@@shdfnd@2@UGetKey@?$HashSetBase@PAVPxShape@physx@@U?$Hash@PAVPxShape@physx@@@shdfnd@2@VAllocator@42@$0A@@internal@42@VAllocator@42@$0A@@internal@shdfnd@physx@@AAEXXZ 100182a0 f i CctCharacterControllerManager.obj
 0001:000172e0       ?erase@?$HashBase@PAVPxShape@physx@@PAV12@U?$Hash@PAVPxShape@physx@@@shdfnd@2@UGetKey@?$HashSetBase@PAVPxShape@physx@@U?$Hash@PAVPxShape@physx@@@shdfnd@2@VAllocator@42@$0A@@internal@42@VAllocator@42@$0A@@internal@shdfnd@physx@@QAE_NABQAVPxShape@4@@Z 100182e0 f i CctCharacterControllerManager.obj
 0001:00017390       ?erase@?$HashSetBase@PAVPxShape@physx@@U?$Hash@PAVPxShape@physx@@@shdfnd@2@VAllocator@42@$0A@@internal@shdfnd@physx@@QAE_NABQAVPxShape@4@@Z 10018390 f i CctCharacterControllerManager.obj
 0001:000173a0       ?findAndReplaceWithLast@?$Array@PAVObstacleContext@Cct@physx@@V?$ReflectionAllocator@PAVObstacleContext@Cct@physx@@@shdfnd@3@@shdfnd@physx@@QAE_NABQAVObstacleContext@Cct@3@@Z 100183a0 f i CctCharacterControllerManager.obj
 0001:000173f0       ?freeListAdd@?$HashBase@PAVPxShape@physx@@PAV12@U?$Hash@PAVPxShape@physx@@@shdfnd@2@UGetKey@?$HashSetBase@PAVPxShape@physx@@U?$Hash@PAVPxShape@physx@@@shdfnd@2@VAllocator@42@$0A@@internal@42@VAllocator@42@$0A@@internal@shdfnd@physx@@AAEXI@Z 100183f0 f i CctCharacterControllerManager.obj
 0001:00017410       ?freeListAdd@?$HashBase@PAVPxShape@physx@@PAV12@U?$Hash@PAVPxShape@physx@@@shdfnd@2@UGetKey@?$HashSetBase@PAVPxShape@physx@@U?$Hash@PAVPxShape@physx@@@shdfnd@2@VAllocator@42@$0A@@internal@42@VAllocator@42@$0A@@internal@shdfnd@physx@@AAEXII@Z 10018410 f i CctCharacterControllerManager.obj
 0001:00017450       ?freeListEmpty@?$HashBase@PAVPxShape@physx@@PAV12@U?$Hash@PAVPxShape@physx@@@shdfnd@2@UGetKey@?$HashSetBase@PAVPxShape@physx@@U?$Hash@PAVPxShape@physx@@@shdfnd@2@VAllocator@42@$0A@@internal@42@VAllocator@42@$0A@@internal@shdfnd@physx@@ABE_NXZ 10018450 f i CctCharacterControllerManager.obj
 0001:00017460       ?freeListGetNext@?$HashBase@PAVPxShape@physx@@PAV12@U?$Hash@PAVPxShape@physx@@@shdfnd@2@UGetKey@?$HashSetBase@PAVPxShape@physx@@U?$Hash@PAVPxShape@physx@@@shdfnd@2@VAllocator@42@$0A@@internal@42@VAllocator@42@$0A@@internal@shdfnd@physx@@AAEIXZ 10018460 f i CctCharacterControllerManager.obj
 0001:00017470       ?getFoundation@shdfnd@physx@@YAAAVFoundation@12@XZ 10018470 f i CctCharacterControllerManager.obj
 0001:00017480       ?getLines@RenderBuffer@Cm@physx@@UBEPBUPxDebugLine@3@XZ 10018480 f i CctCharacterControllerManager.obj
 0001:00017490       ?getName@?$ReflectionAllocator@PAVController@Cct@physx@@@shdfnd@physx@@CAPBDXZ 10018490 f i CctCharacterControllerManager.obj
 0001:000174c0       ?getName@?$ReflectionAllocator@PAVObstacleContext@Cct@physx@@@shdfnd@physx@@CAPBDXZ 100184c0 f i CctCharacterControllerManager.obj
 0001:000174f0       ?getName@?$ReflectionAllocator@UPxDebugLine@physx@@@shdfnd@physx@@CAPBDXZ 100184f0 f i CctCharacterControllerManager.obj
 0001:00017520       ?getName@?$ReflectionAllocator@UPxDebugPoint@physx@@@shdfnd@physx@@CAPBDXZ 10018520 f i CctCharacterControllerManager.obj
 0001:00017550       ?getName@?$ReflectionAllocator@UPxDebugText@physx@@@shdfnd@physx@@CAPBDXZ 10018550 f i CctCharacterControllerManager.obj
 0001:00017580       ?getName@?$ReflectionAllocator@UPxDebugTriangle@physx@@@shdfnd@physx@@CAPBDXZ 10018580 f i CctCharacterControllerManager.obj
 0001:000175b0       ?getName@?$ReflectionAllocator@VBoxController@Cct@physx@@@shdfnd@physx@@CAPBDXZ 100185b0 f i CctCharacterControllerManager.obj
 0001:000175e0       ?getName@?$ReflectionAllocator@VCapsuleController@Cct@physx@@@shdfnd@physx@@CAPBDXZ 100185e0 f i CctCharacterControllerManager.obj
 0001:00017610       ?getName@?$ReflectionAllocator@VCharacterControllerManager@Cct@physx@@@shdfnd@physx@@CAPBDXZ 10018610 f i CctCharacterControllerManager.obj
 0001:00017640       ?getName@?$ReflectionAllocator@VObstacleContext@Cct@physx@@@shdfnd@physx@@CAPBDXZ 10018640 f i CctCharacterControllerManager.obj
 0001:00017670       ?getName@?$ReflectionAllocator@VRenderBuffer@Cm@physx@@@shdfnd@physx@@CAPBDXZ 10018670 f i CctCharacterControllerManager.obj
 0001:000176a0       ?getNbLines@RenderBuffer@Cm@physx@@UBEIXZ 100186a0 f i CctCharacterControllerManager.obj
 0001:000176b0       ?getNbPoints@RenderBuffer@Cm@physx@@UBEIXZ 100186b0 f i CctCharacterControllerManager.obj
 0001:000176c0       ?getNbTexts@RenderBuffer@Cm@physx@@UBEIXZ 100186c0 f i CctCharacterControllerManager.obj
 0001:000176d0       ?getNbTriangles@RenderBuffer@Cm@physx@@UBEIXZ 100186d0 f i CctCharacterControllerManager.obj
 0001:000176e0       ?getPoints@RenderBuffer@Cm@physx@@UBEPBUPxDebugPoint@3@XZ 100186e0 f i CctCharacterControllerManager.obj
 0001:000176f0       ?getTexts@RenderBuffer@Cm@physx@@UBEPBUPxDebugText@3@XZ 100186f0 f i CctCharacterControllerManager.obj
 0001:00017700       ?getTriangles@RenderBuffer@Cm@physx@@UBEPBUPxDebugTriangle@3@XZ 10018700 f i CctCharacterControllerManager.obj
 0001:00017710       ?getType@PxControllerDesc@physx@@QBE?AW4Enum@PxControllerShapeType@2@XZ 10018710 f i CctCharacterControllerManager.obj
 0001:00017720       ?grow@?$Array@PBXV?$ReflectionAllocator@PBX@shdfnd@physx@@@shdfnd@physx@@IAEXI@Z 10018720 f i CctCharacterControllerManager.obj
 0001:00017730       ?grow@?$Array@UPxDebugLine@physx@@V?$ReflectionAllocator@UPxDebugLine@physx@@@shdfnd@2@@shdfnd@physx@@IAEXI@Z 10018730 f i CctCharacterControllerManager.obj
 0001:00017740       ?grow@?$Array@UPxDebugPoint@physx@@V?$ReflectionAllocator@UPxDebugPoint@physx@@@shdfnd@2@@shdfnd@physx@@IAEXI@Z 10018740 f i CctCharacterControllerManager.obj
 0001:00017750       ?grow@?$Array@UPxDebugText@physx@@V?$ReflectionAllocator@UPxDebugText@physx@@@shdfnd@2@@shdfnd@physx@@IAEXI@Z 10018750 f i CctCharacterControllerManager.obj
 0001:00017760       ?grow@?$Array@UPxDebugTriangle@physx@@V?$ReflectionAllocator@UPxDebugTriangle@physx@@@shdfnd@2@@shdfnd@physx@@IAEXI@Z 10018760 f i CctCharacterControllerManager.obj
 0001:00017770       ?grow@?$Array@UPxExtendedCapsule@physx@@V?$ReflectionAllocator@UPxExtendedCapsule@physx@@@shdfnd@2@@shdfnd@physx@@IAEXI@Z 10018770 f i CctCharacterControllerManager.obj
 0001:00017780       ?grow@?$Array@VPxExtendedBox@physx@@V?$ReflectionAllocator@VPxExtendedBox@physx@@@shdfnd@2@@shdfnd@physx@@IAEXI@Z 10018780 f i CctCharacterControllerManager.obj
 0001:00017790       ?grow@?$HashBase@PAVPxShape@physx@@PAV12@U?$Hash@PAVPxShape@physx@@@shdfnd@2@UGetKey@?$HashSetBase@PAVPxShape@physx@@U?$Hash@PAVPxShape@physx@@@shdfnd@2@VAllocator@42@$0A@@internal@42@VAllocator@42@$0A@@internal@shdfnd@physx@@AAEXXZ 10018790 f i CctCharacterControllerManager.obj
 0001:000177b0       ?growAndPushBack@?$Array@PAVController@Cct@physx@@V?$ReflectionAllocator@PAVController@Cct@physx@@@shdfnd@3@@shdfnd@physx@@IAEAAPAVController@Cct@3@ABQAV453@@Z 100187b0 f i CctCharacterControllerManager.obj
 0001:00017840       ?growAndPushBack@?$Array@PAVObstacleContext@Cct@physx@@V?$ReflectionAllocator@PAVObstacleContext@Cct@physx@@@shdfnd@3@@shdfnd@physx@@IAEAAPAVObstacleContext@Cct@3@ABQAV453@@Z 10018840 f i CctCharacterControllerManager.obj
 0001:000178d0       ?growAndPushBack@?$Array@UPxDebugLine@physx@@V?$ReflectionAllocator@UPxDebugLine@physx@@@shdfnd@2@@shdfnd@physx@@IAEAAUPxDebugLine@3@ABU43@@Z 100188d0 f i CctCharacterControllerManager.obj
 0001:00017980       ?growAndPushBack@?$Array@UPxDebugPoint@physx@@V?$ReflectionAllocator@UPxDebugPoint@physx@@@shdfnd@2@@shdfnd@physx@@IAEAAUPxDebugPoint@3@ABU43@@Z 10018980 f i CctCharacterControllerManager.obj
 0001:00017a20       ?growAndPushBack@?$Array@UPxDebugText@physx@@V?$ReflectionAllocator@UPxDebugText@physx@@@shdfnd@2@@shdfnd@physx@@IAEAAUPxDebugText@3@ABU43@@Z 10018a20 f i CctCharacterControllerManager.obj
 0001:00017ad0       ?growAndPushBack@?$Array@UPxDebugTriangle@physx@@V?$ReflectionAllocator@UPxDebugTriangle@physx@@@shdfnd@2@@shdfnd@physx@@IAEAAUPxDebugTriangle@3@ABU43@@Z 10018ad0 f i CctCharacterControllerManager.obj
 0001:00017ba0       ?init@?$HashBase@PAVPxShape@physx@@PAV12@U?$Hash@PAVPxShape@physx@@@shdfnd@2@UGetKey@?$HashSetBase@PAVPxShape@physx@@U?$Hash@PAVPxShape@physx@@@shdfnd@2@VAllocator@42@$0A@@internal@42@VAllocator@42@$0A@@internal@shdfnd@physx@@AAEXIM@Z 10018ba0 f i CctCharacterControllerManager.obj
 0001:00017c00       ?insert@?$HashSetBase@PAVPxShape@physx@@U?$Hash@PAVPxShape@physx@@@shdfnd@2@VAllocator@42@$0A@@internal@shdfnd@physx@@QAE_NABQAVPxShape@4@@Z 10018c00 f i CctCharacterControllerManager.obj
 0001:00017c30       ?isInUserMemory@?$Array@DV?$ReflectionAllocator@D@shdfnd@physx@@@shdfnd@physx@@QBEIXZ 10018c30 f i CctCharacterControllerManager.obj
 0001:00017c40       ?isInUserMemory@?$Array@PAVController@Cct@physx@@V?$ReflectionAllocator@PAVController@Cct@physx@@@shdfnd@3@@shdfnd@physx@@QBEIXZ 10018c40 f i CctCharacterControllerManager.obj
 0001:00017c50       ?isInUserMemory@?$Array@PAVObstacleContext@Cct@physx@@V?$ReflectionAllocator@PAVObstacleContext@Cct@physx@@@shdfnd@3@@shdfnd@physx@@QBEIXZ 10018c50 f i CctCharacterControllerManager.obj
 0001:00017c60       ?isInUserMemory@?$Array@UPxDebugLine@physx@@V?$ReflectionAllocator@UPxDebugLine@physx@@@shdfnd@2@@shdfnd@physx@@QBEIXZ 10018c60 f i CctCharacterControllerManager.obj
 0001:00017c70       ?isInUserMemory@?$Array@UPxDebugPoint@physx@@V?$ReflectionAllocator@UPxDebugPoint@physx@@@shdfnd@2@@shdfnd@physx@@QBEIXZ 10018c70 f i CctCharacterControllerManager.obj
 0001:00017c80       ?isInUserMemory@?$Array@UPxDebugText@physx@@V?$ReflectionAllocator@UPxDebugText@physx@@@shdfnd@2@@shdfnd@physx@@QBEIXZ 10018c80 f i CctCharacterControllerManager.obj
 0001:00017c90       ?isInUserMemory@?$Array@UPxDebugTriangle@physx@@V?$ReflectionAllocator@UPxDebugTriangle@physx@@@shdfnd@2@@shdfnd@physx@@QBEIXZ 10018c90 f i CctCharacterControllerManager.obj
 0001:00017ca0       ?isPowerOfTwo@shdfnd@physx@@YA_NI@Z 10018ca0 f i CctCharacterControllerManager.obj
 0001:00017cc0       ?memCopy@intrinsics@physx@@YAPAXPIAXPIBXI@Z 10018cc0 f i CctCharacterControllerManager.obj
 0001:00017cd0       ?memSet@intrinsics@physx@@YAPAXPIAXHI@Z 10018cd0 f i CctCharacterControllerManager.obj
 0001:00017ce0       ?nextPowerOfTwo@shdfnd@physx@@YAII@Z 10018ce0 f i CctCharacterControllerManager.obj
 0001:00017d10       ?pushBack@?$Array@PAVController@Cct@physx@@V?$ReflectionAllocator@PAVController@Cct@physx@@@shdfnd@3@@shdfnd@physx@@QAEAAPAVController@Cct@3@ABQAV453@@Z 10018d10 f i CctCharacterControllerManager.obj
 0001:00017d50       ?pushBack@?$Array@PAVObstacleContext@Cct@physx@@V?$ReflectionAllocator@PAVObstacleContext@Cct@physx@@@shdfnd@3@@shdfnd@physx@@QAEAAPAVObstacleContext@Cct@3@ABQAV453@@Z 10018d50 f i CctCharacterControllerManager.obj
 0001:00017d90       ?pushBack@?$Array@UPxDebugLine@physx@@V?$ReflectionAllocator@UPxDebugLine@physx@@@shdfnd@2@@shdfnd@physx@@QAEAAUPxDebugLine@3@ABU43@@Z 10018d90 f i CctCharacterControllerManager.obj
 0001:00017e00       ?pushBack@?$Array@UPxDebugPoint@physx@@V?$ReflectionAllocator@UPxDebugPoint@physx@@@shdfnd@2@@shdfnd@physx@@QAEAAUPxDebugPoint@3@ABU43@@Z 10018e00 f i CctCharacterControllerManager.obj
 0001:00017e60       ?pushBack@?$Array@UPxDebugText@physx@@V?$ReflectionAllocator@UPxDebugText@physx@@@shdfnd@2@@shdfnd@physx@@QAEAAUPxDebugText@3@ABU43@@Z 10018e60 f i CctCharacterControllerManager.obj
 0001:00017ed0       ?pushBack@?$Array@UPxDebugTriangle@physx@@V?$ReflectionAllocator@UPxDebugTriangle@physx@@@shdfnd@2@@shdfnd@physx@@QAEAAUPxDebugTriangle@3@ABU43@@Z 10018ed0 f i CctCharacterControllerManager.obj
 0001:00017f20       ?recreate@?$Array@PBXV?$ReflectionAllocator@PBX@shdfnd@physx@@@shdfnd@physx@@IAEXI@Z 10018f20 f i CctCharacterControllerManager.obj
 0001:00017f80       ?recreate@?$Array@UPxDebugLine@physx@@V?$ReflectionAllocator@UPxDebugLine@physx@@@shdfnd@2@@shdfnd@physx@@IAEXI@Z 10018f80 f i CctCharacterControllerManager.obj
 0001:00017fe0       ?recreate@?$Array@UPxDebugPoint@physx@@V?$ReflectionAllocator@UPxDebugPoint@physx@@@shdfnd@2@@shdfnd@physx@@IAEXI@Z 10018fe0 f i CctCharacterControllerManager.obj
 0001:00018040       ?recreate@?$Array@UPxDebugText@physx@@V?$ReflectionAllocator@UPxDebugText@physx@@@shdfnd@2@@shdfnd@physx@@IAEXI@Z 10019040 f i CctCharacterControllerManager.obj
 0001:000180a0       ?recreate@?$Array@UPxDebugTriangle@physx@@V?$ReflectionAllocator@UPxDebugTriangle@physx@@@shdfnd@2@@shdfnd@physx@@IAEXI@Z 100190a0 f i CctCharacterControllerManager.obj
 0001:00018100       ?recreate@?$Array@UPxExtendedCapsule@physx@@V?$ReflectionAllocator@UPxExtendedCapsule@physx@@@shdfnd@2@@shdfnd@physx@@IAEXI@Z 10019100 f i CctCharacterControllerManager.obj
 0001:00018160       ?recreate@?$Array@VPxExtendedBox@physx@@V?$ReflectionAllocator@VPxExtendedBox@physx@@@shdfnd@2@@shdfnd@physx@@IAEXI@Z 10019160 f i CctCharacterControllerManager.obj
 0001:000181c0       ?replaceWithLast@?$Array@PAVController@Cct@physx@@V?$ReflectionAllocator@PAVController@Cct@physx@@@shdfnd@3@@shdfnd@physx@@QAEXI@Z 100191c0 f i CctCharacterControllerManager.obj
 0001:000181e0       ?replaceWithLast@?$Array@PAVObstacleContext@Cct@physx@@V?$ReflectionAllocator@PAVObstacleContext@Cct@physx@@@shdfnd@3@@shdfnd@physx@@QAEXI@Z 100191e0 f i CctCharacterControllerManager.obj
 0001:00018200       ?replaceWithLast@?$HashBase@PAVPxShape@physx@@PAV12@U?$Hash@PAVPxShape@physx@@@shdfnd@2@UGetKey@?$HashSetBase@PAVPxShape@physx@@U?$Hash@PAVPxShape@physx@@@shdfnd@2@VAllocator@42@$0A@@internal@42@VAllocator@42@$0A@@internal@shdfnd@physx@@AAEXI@Z 10019200 f i CctCharacterControllerManager.obj
 0001:00018290       ?reserve@?$Array@PBXV?$ReflectionAllocator@PBX@shdfnd@physx@@@shdfnd@physx@@QAEXI@Z 10019290 f i CctCharacterControllerManager.obj
 0001:000182b0       ?reserve@?$Array@UPxDebugLine@physx@@V?$ReflectionAllocator@UPxDebugLine@physx@@@shdfnd@2@@shdfnd@physx@@QAEXI@Z 100192b0 f i CctCharacterControllerManager.obj
 0001:000182d0       ?reserve@?$Array@UPxDebugPoint@physx@@V?$ReflectionAllocator@UPxDebugPoint@physx@@@shdfnd@2@@shdfnd@physx@@QAEXI@Z 100192d0 f i CctCharacterControllerManager.obj
 0001:000182f0       ?reserve@?$Array@UPxDebugText@physx@@V?$ReflectionAllocator@UPxDebugText@physx@@@shdfnd@2@@shdfnd@physx@@QAEXI@Z 100192f0 f i CctCharacterControllerManager.obj
 0001:00018310       ?reserve@?$Array@UPxDebugTriangle@physx@@V?$ReflectionAllocator@UPxDebugTriangle@physx@@@shdfnd@2@@shdfnd@physx@@QAEXI@Z 10019310 f i CctCharacterControllerManager.obj
 0001:00018330       ?reserve@?$Array@UPxExtendedCapsule@physx@@V?$ReflectionAllocator@UPxExtendedCapsule@physx@@@shdfnd@2@@shdfnd@physx@@QAEXI@Z 10019330 f i CctCharacterControllerManager.obj
 0001:00018350       ?reserve@?$Array@VPxExtendedBox@physx@@V?$ReflectionAllocator@VPxExtendedBox@physx@@@shdfnd@2@@shdfnd@physx@@QAEXI@Z 10019350 f i CctCharacterControllerManager.obj
 0001:00018370       ?reserve@?$HashBase@PAVPxShape@physx@@PAV12@U?$Hash@PAVPxShape@physx@@@shdfnd@2@UGetKey@?$HashSetBase@PAVPxShape@physx@@U?$Hash@PAVPxShape@physx@@@shdfnd@2@VAllocator@42@$0A@@internal@42@VAllocator@42@$0A@@internal@shdfnd@physx@@QAEXI@Z 10019370 f i CctCharacterControllerManager.obj
 0001:00018390       ?reserveInternal@?$HashBase@PAVPxShape@physx@@PAV12@U?$Hash@PAVPxShape@physx@@@shdfnd@2@UGetKey@?$HashSetBase@PAVPxShape@physx@@U?$Hash@PAVPxShape@physx@@@shdfnd@2@VAllocator@42@$0A@@internal@42@VAllocator@42@$0A@@internal@shdfnd@physx@@AAEXI@Z 10019390 f i CctCharacterControllerManager.obj
 0001:000185f0       ?reset@?$Array@PBXV?$ReflectionAllocator@PBX@shdfnd@physx@@@shdfnd@physx@@QAEXXZ 100195f0 f i CctCharacterControllerManager.obj
 0001:00018620       ?reset@?$Array@UPxExtendedCapsule@physx@@V?$ReflectionAllocator@UPxExtendedCapsule@physx@@@shdfnd@2@@shdfnd@physx@@QAEXXZ 10019620 f i CctCharacterControllerManager.obj
 0001:00018650       ?reset@?$Array@VPxExtendedBox@physx@@V?$ReflectionAllocator@VPxExtendedBox@physx@@@shdfnd@2@@shdfnd@physx@@QAEXXZ 10019650 f i CctCharacterControllerManager.obj
 0001:00018680       ?resize@?$Array@PBXV?$ReflectionAllocator@PBX@shdfnd@physx@@@shdfnd@physx@@QAEXIABQBX@Z 10019680 f i CctCharacterControllerManager.obj
 0001:000186d0       ?resize@?$Array@UPxExtendedCapsule@physx@@V?$ReflectionAllocator@UPxExtendedCapsule@physx@@@shdfnd@2@@shdfnd@physx@@QAEXIABUPxExtendedCapsule@3@@Z 100196d0 f i CctCharacterControllerManager.obj
 0001:00018720       ?resize@?$Array@VPxExtendedBox@physx@@V?$ReflectionAllocator@VPxExtendedBox@physx@@@shdfnd@2@@shdfnd@physx@@QAEXIABVPxExtendedBox@3@@Z 10019720 f i CctCharacterControllerManager.obj
 0001:00018770       ?shift@RenderBuffer@Cm@physx@@QAEXABVPxVec3@3@@Z 10019770 f i CctCharacterControllerManager.obj
 0001:00018930       ?shrink@?$Array@PBXV?$ReflectionAllocator@PBX@shdfnd@physx@@@shdfnd@physx@@QAEXXZ 10019930 f i CctCharacterControllerManager.obj
 0001:00018940       ?shrink@?$Array@UPxExtendedCapsule@physx@@V?$ReflectionAllocator@UPxExtendedCapsule@physx@@@shdfnd@2@@shdfnd@physx@@QAEXXZ 10019940 f i CctCharacterControllerManager.obj
 0001:00018950       ?shrink@?$Array@VPxExtendedBox@physx@@V?$ReflectionAllocator@VPxExtendedBox@physx@@@shdfnd@2@@shdfnd@physx@@QAEXXZ 10019950 f i CctCharacterControllerManager.obj
 0001:00018960       ?size@?$Array@PAVController@Cct@physx@@V?$ReflectionAllocator@PAVController@Cct@physx@@@shdfnd@3@@shdfnd@physx@@QBEIXZ 10019960 f i CctCharacterControllerManager.obj
 0001:00018970       ?size@?$Array@PAVObstacleContext@Cct@physx@@V?$ReflectionAllocator@PAVObstacleContext@Cct@physx@@@shdfnd@3@@shdfnd@physx@@QBEIXZ 10019970 f i CctCharacterControllerManager.obj
 0001:00018980       ?size@?$Array@PBXV?$ReflectionAllocator@PBX@shdfnd@physx@@@shdfnd@physx@@QBEIXZ 10019980 f i CctCharacterControllerManager.obj
 0001:00018990       ?size@?$Array@UPxDebugLine@physx@@V?$ReflectionAllocator@UPxDebugLine@physx@@@shdfnd@2@@shdfnd@physx@@QBEIXZ 10019990 f i CctCharacterControllerManager.obj
 0001:000189a0       ?size@?$Array@UPxDebugPoint@physx@@V?$ReflectionAllocator@UPxDebugPoint@physx@@@shdfnd@2@@shdfnd@physx@@QBEIXZ 100199a0 f i CctCharacterControllerManager.obj
 0001:000189b0       ?size@?$Array@UPxDebugText@physx@@V?$ReflectionAllocator@UPxDebugText@physx@@@shdfnd@2@@shdfnd@physx@@QBEIXZ 100199b0 f i CctCharacterControllerManager.obj
 0001:000189c0       ?size@?$Array@UPxDebugTriangle@physx@@V?$ReflectionAllocator@UPxDebugTriangle@physx@@@shdfnd@2@@shdfnd@physx@@QBEIXZ 100199c0 f i CctCharacterControllerManager.obj
 0001:000189d0       ??0Controller@Cct@physx@@QAE@ABVPxControllerDesc@2@PAVPxScene@2@@Z 100199d0 f   CctController.obj
 0001:00018b60       ??1Controller@Cct@physx@@UAE@XZ 10019b60 f   CctController.obj
 0001:00018bb0       ?releaseInternal@Controller@Cct@physx@@QAEXXZ 10019bb0 f   CctController.obj
 0001:00018bd0       ?getInternalState@Controller@Cct@physx@@QBEXAAUPxControllerState@3@@Z 10019bd0 f   CctController.obj
 0001:00018c50       ?getInternalStats@Controller@Cct@physx@@QBEXAAUPxControllerStats@3@@Z 10019c50 f   CctController.obj
 0001:00018c90       ?onRelease@Controller@Cct@physx@@UAEXPBVPxBase@3@PAXW4Enum@PxDeletionEventFlag@3@@Z 10019c90 f   CctController.obj
 0001:00018cb0       ?onOriginShift@Controller@Cct@physx@@QAEXABVPxVec3@3@@Z 10019cb0 f   CctController.obj
 0001:00018d20       ?setUpDirectionInternal@Controller@Cct@physx@@IAEXABVPxVec3@3@@Z 10019d20 f   CctController.obj
 0001:00018da0       ?getKineShape@Controller@Cct@physx@@IBEPAVPxShape@3@XZ 10019da0 f   CctController.obj
 0001:00018dd0       ?createProxyActor@Controller@Cct@physx@@IAE_NAAVPxPhysics@3@ABVPxGeometry@3@ABVPxMaterial@3@@Z 10019dd0 f   CctController.obj
 0001:00018ea0       ?setPos@Controller@Cct@physx@@IAE_NABUPxExtendedVec3@3@@Z 10019ea0 f   CctController.obj
 0001:00018f30       ??$PX_UNUSED@W4Enum@PxDeletionEventFlag@physx@@@@YAXABW4Enum@PxDeletionEventFlag@physx@@@Z 10019f30 f i CctController.obj
 0001:00018f40       ??0?$PxFlags@W4Enum@PxDeletionEventFlag@physx@@E@physx@@QAE@W4Enum@PxDeletionEventFlag@1@@Z 10019f40 f i CctController.obj
 0001:00018f50       ??0?$PxFlags@W4Enum@PxShapeFlag@physx@@E@physx@@QAE@W4Enum@PxShapeFlag@1@@Z 10019f50 f i CctController.obj
 0001:00018f60       ??0PxDeletionListener@physx@@IAE@XZ 10019f60 f i CctController.obj
 0001:00018f70       ??1PxDeletionListener@physx@@MAE@XZ 10019f70 f i CctController.obj
 0001:00018f80       ??8PxVec3@physx@@QBE_NABV01@@Z 10019f80 f i CctController.obj
 0001:00018fc0       ??B?$PxFlags@W4Enum@PxControllerCollisionFlag@physx@@E@physx@@QBEIXZ 10019fc0 f i CctController.obj
 0001:00018fd0       ??U?$PxFlags@W4Enum@PxShapeFlag@physx@@E@physx@@QBE?AV01@W4Enum@PxShapeFlag@1@@Z 10019fd0 f i CctController.obj
 0001:00018ff0       ??Uphysx@@YA?AV?$PxFlags@W4Enum@PxShapeFlag@physx@@E@0@W4Enum@PxShapeFlag@0@0@Z 10019ff0 f i CctController.obj
 0001:00019000       ??_5?$PxFlags@W4Enum@PxShapeFlag@physx@@E@physx@@QAEAAV01@W4Enum@PxShapeFlag@1@@Z 1001a000 f i CctController.obj
 0001:00019010       ??_EController@Cct@physx@@UAEPAXI@Z 1001a010 f i CctController.obj
 0001:00019010       ??_GController@Cct@physx@@UAEPAXI@Z 1001a010 f i CctController.obj
 0001:00019070       ??_EPxDeletionListener@physx@@MAEPAXI@Z 1001a070 f i CctController.obj
 0001:00019070       ??_GPxDeletionListener@physx@@MAEPAXI@Z 1001a070 f i CctController.obj
 0001:000190a0       ?createShape@PxRigidActor@physx@@QAEPAVPxShape@2@ABVPxGeometry@2@ABVPxMaterial@2@V?$PxFlags@W4Enum@PxShapeFlag@physx@@E@2@@Z 1001a0a0 f i CctController.obj
 0001:000190d0       ?getNormalized@PxQuat@physx@@QBE?AV12@XZ 1001a0d0 f i CctController.obj
 0001:00019150       ?magnitude@PxQuat@physx@@QBEMXZ 1001a150 f i CctController.obj
 0001:000191a0       ?magnitudeSquared@PxQuat@physx@@QBEMXZ 1001a1a0 f i CctController.obj
 0001:000191e0       ?rotationArc@shdfnd@physx@@YA?AVPxQuat@2@ABVPxVec3@2@0@Z 1001a1e0 f i CctController.obj
 0001:000193e0       ??0HandleManager@Cct@physx@@QAE@XZ 1001a3e0 f   CctObstacleContext.obj
 0001:000194a0       ??1HandleManager@Cct@physx@@QAE@XZ 1001a4a0 f   CctObstacleContext.obj
 0001:00019510       ?Add@HandleManager@Cct@physx@@QAEIPAX@Z 1001a510 f   CctObstacleContext.obj
 0001:000196d0       ?Remove@HandleManager@Cct@physx@@QAEXI@Z 1001a6d0 f   CctObstacleContext.obj
 0001:00019780       ?GetObject@HandleManager@Cct@physx@@QBEPAXI@Z 1001a780 f   CctObstacleContext.obj
 0001:000197d0       ?UpdateObject@HandleManager@Cct@physx@@QAE_NIPAX@Z 1001a7d0 f   CctObstacleContext.obj
 0001:00019830       ?SetupLists@HandleManager@Cct@physx@@AAE_NPAPAXPAG11@Z 1001a830 f   CctObstacleContext.obj
 0001:000198a0       ??0ObstacleContext@Cct@physx@@QAE@AAVCharacterControllerManager@12@@Z 1001a8a0 f   CctObstacleContext.obj
 0001:000198f0       ??1ObstacleContext@Cct@physx@@UAE@XZ 1001a8f0 f   CctObstacleContext.obj
 0001:000199b0       ?release@ObstacleContext@Cct@physx@@UAEXXZ 1001a9b0 f   CctObstacleContext.obj
 0001:000199c0       ?getControllerManager@ObstacleContext@Cct@physx@@UBEAAVPxControllerManager@3@XZ 1001a9c0 f   CctObstacleContext.obj
 0001:000199d0       ?addObstacle@ObstacleContext@Cct@physx@@UAEIABVPxObstacle@3@@Z 1001a9d0 f   CctObstacleContext.obj
 0001:00019b70       ?removeObstacle@ObstacleContext@Cct@physx@@UAE_NI@Z 1001ab70 f   CctObstacleContext.obj
 0001:00019d10       ?updateObstacle@ObstacleContext@Cct@physx@@UAE_NIABVPxObstacle@3@@Z 1001ad10 f   CctObstacleContext.obj
 0001:00019de0       ?getNbObstacles@ObstacleContext@Cct@physx@@UBEIXZ 1001ade0 f   CctObstacleContext.obj
 0001:00019df0       ?getObstacle@ObstacleContext@Cct@physx@@UBEPBVPxObstacle@3@I@Z 1001adf0 f   CctObstacleContext.obj
 0001:00019e30       ?getObstacleByHandle@ObstacleContext@Cct@physx@@UBEPBVPxObstacle@3@I@Z 1001ae30 f   CctObstacleContext.obj
 0001:00019ec0       ?raycastSingle@ObstacleContext@Cct@physx@@QBEPBVPxObstacle@3@AAUPxRaycastHit@3@ABVPxVec3@3@1MAAI@Z 1001aec0 f   CctObstacleContext.obj
 0001:0001a1c0       ?raycastSingle@ObstacleContext@Cct@physx@@QBEPBVPxObstacle@3@AAUPxRaycastHit@3@ABIABVPxVec3@3@2M@Z 1001b1c0 f   CctObstacleContext.obj
 0001:0001a370       ?onOriginShift@ObstacleContext@Cct@physx@@QAEXABVPxVec3@3@@Z 1001b370 f   CctObstacleContext.obj
 0001:0001a560       ??$PX_UNUSED@_N@@YAXAB_N@Z 1001b560 f i CctObstacleContext.obj
 0001:0001a570       ??0?$Array@UInternalBoxObstacle@ObstacleContext@Cct@physx@@V?$ReflectionAllocator@UInternalBoxObstacle@ObstacleContext@Cct@physx@@@shdfnd@4@@shdfnd@physx@@QAE@ABV?$ReflectionAllocator@UInternalBoxObstacle@ObstacleContext@Cct@physx@@@12@@Z 1001b570 f i CctObstacleContext.obj
 0001:0001a590       ??0?$Array@UInternalCapsuleObstacle@ObstacleContext@Cct@physx@@V?$ReflectionAllocator@UInternalCapsuleObstacle@ObstacleContext@Cct@physx@@@shdfnd@4@@shdfnd@physx@@QAE@ABV?$ReflectionAllocator@UInternalCapsuleObstacle@ObstacleContext@Cct@physx@@@12@@Z 1001b590 f i CctObstacleContext.obj
 0001:0001a5b0       ??0?$ReflectionAllocator@UInternalBoxObstacle@ObstacleContext@Cct@physx@@@shdfnd@physx@@QAE@ABV012@@Z 1001b5b0 f i CctObstacleContext.obj
 0001:0001a5c0       ??0?$ReflectionAllocator@UInternalBoxObstacle@ObstacleContext@Cct@physx@@@shdfnd@physx@@QAE@PBD@Z 1001b5c0 f i CctObstacleContext.obj
 0001:0001a5d0       ??0?$ReflectionAllocator@UInternalCapsuleObstacle@ObstacleContext@Cct@physx@@@shdfnd@physx@@QAE@ABV012@@Z 1001b5d0 f i CctObstacleContext.obj
 0001:0001a5e0       ??0?$ReflectionAllocator@UInternalCapsuleObstacle@ObstacleContext@Cct@physx@@@shdfnd@physx@@QAE@PBD@Z 1001b5e0 f i CctObstacleContext.obj
 0001:0001a5f0       ??0InternalBoxObstacle@ObstacleContext@Cct@physx@@QAE@ABU0123@@Z 1001b5f0 f i CctObstacleContext.obj
 0001:0001a650       ??0InternalBoxObstacle@ObstacleContext@Cct@physx@@QAE@IABVPxBoxObstacle@3@@Z 1001b650 f i CctObstacleContext.obj
 0001:0001a6b0       ??0InternalCapsuleObstacle@ObstacleContext@Cct@physx@@QAE@ABU0123@@Z 1001b6b0 f i CctObstacleContext.obj
 0001:0001a710       ??0InternalCapsuleObstacle@ObstacleContext@Cct@physx@@QAE@IABVPxCapsuleObstacle@3@@Z 1001b710 f i CctObstacleContext.obj
 0001:0001a770       ??0PxBoxObstacle@physx@@QAE@ABV01@@Z 1001b770 f i CctObstacleContext.obj
 0001:0001a7d0       ??0PxCapsuleObstacle@physx@@QAE@ABV01@@Z 1001b7d0 f i CctObstacleContext.obj
 0001:0001a820       ??0PxObstacle@physx@@QAE@ABV01@@Z 1001b820 f i CctObstacleContext.obj
 0001:0001a870       ??0PxObstacleContext@physx@@QAE@XZ 1001b870 f i CctObstacleContext.obj
 0001:0001a880       ??1?$Array@UInternalBoxObstacle@ObstacleContext@Cct@physx@@V?$ReflectionAllocator@UInternalBoxObstacle@ObstacleContext@Cct@physx@@@shdfnd@4@@shdfnd@physx@@QAE@XZ 1001b880 f i CctObstacleContext.obj
 0001:0001a8b0       ??1?$Array@UInternalCapsuleObstacle@ObstacleContext@Cct@physx@@V?$ReflectionAllocator@UInternalCapsuleObstacle@ObstacleContext@Cct@physx@@@shdfnd@4@@shdfnd@physx@@QAE@XZ 1001b8b0 f i CctObstacleContext.obj
 0001:0001a8e0       ??1InternalBoxObstacle@ObstacleContext@Cct@physx@@QAE@XZ 1001b8e0 f i CctObstacleContext.obj
 0001:0001a8f0       ??1InternalCapsuleObstacle@ObstacleContext@Cct@physx@@QAE@XZ 1001b8f0 f i CctObstacleContext.obj
 0001:0001a900       ??1PxBoxObstacle@physx@@QAE@XZ 1001b900 f i CctObstacleContext.obj
 0001:0001a910       ??1PxCapsuleObstacle@physx@@QAE@XZ 1001b910 f i CctObstacleContext.obj
 0001:0001a920       ??1PxObstacle@physx@@IAE@XZ 1001b920 f i CctObstacleContext.obj
 0001:0001a930       ??1PxObstacleContext@physx@@UAE@XZ 1001b930 f i CctObstacleContext.obj
 0001:0001a940       ??4InternalBoxObstacle@ObstacleContext@Cct@physx@@QAEAAU0123@ABU0123@@Z 1001b940 f i CctObstacleContext.obj
 0001:0001a9a0       ??4InternalCapsuleObstacle@ObstacleContext@Cct@physx@@QAEAAU0123@ABU0123@@Z 1001b9a0 f i CctObstacleContext.obj
 0001:0001aa00       ??4PxBoxObstacle@physx@@QAEAAV01@ABV01@@Z 1001ba00 f i CctObstacleContext.obj
 0001:0001aa60       ??4PxCapsuleObstacle@physx@@QAEAAV01@ABV01@@Z 1001ba60 f i CctObstacleContext.obj
 0001:0001aab0       ??4PxObstacle@physx@@QAEAAV01@ABV01@@Z 1001bab0 f i CctObstacleContext.obj
 0001:0001ab00       ??A?$Array@UInternalBoxObstacle@ObstacleContext@Cct@physx@@V?$ReflectionAllocator@UInternalBoxObstacle@ObstacleContext@Cct@physx@@@shdfnd@4@@shdfnd@physx@@QAEAAUInternalBoxObstacle@ObstacleContext@Cct@2@I@Z 1001bb00 f i CctObstacleContext.obj
 0001:0001ab20       ??A?$Array@UInternalCapsuleObstacle@ObstacleContext@Cct@physx@@V?$ReflectionAllocator@UInternalCapsuleObstacle@ObstacleContext@Cct@physx@@@shdfnd@4@@shdfnd@physx@@QAEAAUInternalCapsuleObstacle@ObstacleContext@Cct@2@I@Z 1001bb20 f i CctObstacleContext.obj
 0001:0001ab30       ??_GInternalBoxObstacle@ObstacleContext@Cct@physx@@QAEPAXI@Z 1001bb30 f i CctObstacleContext.obj
 0001:0001ab50       ??_GInternalCapsuleObstacle@ObstacleContext@Cct@physx@@QAEPAXI@Z 1001bb50 f i CctObstacleContext.obj
 0001:0001ab70       ??_EObstacleContext@Cct@physx@@UAEPAXI@Z 1001bb70 f i CctObstacleContext.obj
 0001:0001ab70       ??_GObstacleContext@Cct@physx@@UAEPAXI@Z 1001bb70 f i CctObstacleContext.obj
 0001:0001aba0       ??_EPxObstacleContext@physx@@UAEPAXI@Z 1001bba0 f i CctObstacleContext.obj
 0001:0001aba0       ??_GPxObstacleContext@physx@@UAEPAXI@Z 1001bba0 f i CctObstacleContext.obj
 0001:0001abd0       ?PxMemZero@physx@@YAPAXPIAXI@Z 1001bbd0 f i CctObstacleContext.obj
 0001:0001abf0       ?allocate@?$Array@UInternalBoxObstacle@ObstacleContext@Cct@physx@@V?$ReflectionAllocator@UInternalBoxObstacle@ObstacleContext@Cct@physx@@@shdfnd@4@@shdfnd@physx@@IAEPAUInternalBoxObstacle@ObstacleContext@Cct@3@I@Z 1001bbf0 f i CctObstacleContext.obj
 0001:0001ac60       ?allocate@?$Array@UInternalCapsuleObstacle@ObstacleContext@Cct@physx@@V?$ReflectionAllocator@UInternalCapsuleObstacle@ObstacleContext@Cct@physx@@@shdfnd@4@@shdfnd@physx@@IAEPAUInternalCapsuleObstacle@ObstacleContext@Cct@3@I@Z 1001bc60 f i CctObstacleContext.obj
 0001:0001acd0       ?allocate@?$ReflectionAllocator@UInternalBoxObstacle@ObstacleContext@Cct@physx@@@shdfnd@physx@@QAEPAXIPBDH@Z 1001bcd0 f i CctObstacleContext.obj
 0001:0001ad30       ?allocate@?$ReflectionAllocator@UInternalCapsuleObstacle@ObstacleContext@Cct@physx@@@shdfnd@physx@@QAEPAXIPBDH@Z 1001bd30 f i CctObstacleContext.obj
 0001:0001ad90       ?capacity@?$Array@UInternalBoxObstacle@ObstacleContext@Cct@physx@@V?$ReflectionAllocator@UInternalBoxObstacle@ObstacleContext@Cct@physx@@@shdfnd@4@@shdfnd@physx@@QBEIXZ 1001bd90 f i CctObstacleContext.obj
 0001:0001ada0       ?capacity@?$Array@UInternalCapsuleObstacle@ObstacleContext@Cct@physx@@V?$ReflectionAllocator@UInternalCapsuleObstacle@ObstacleContext@Cct@physx@@@shdfnd@4@@shdfnd@physx@@QBEIXZ 1001bda0 f i CctObstacleContext.obj
 0001:0001adb0       ?capacityIncrement@?$Array@UInternalBoxObstacle@ObstacleContext@Cct@physx@@V?$ReflectionAllocator@UInternalBoxObstacle@ObstacleContext@Cct@physx@@@shdfnd@4@@shdfnd@physx@@IBEIXZ 1001bdb0 f i CctObstacleContext.obj
 0001:0001add0       ?capacityIncrement@?$Array@UInternalCapsuleObstacle@ObstacleContext@Cct@physx@@V?$ReflectionAllocator@UInternalCapsuleObstacle@ObstacleContext@Cct@physx@@@shdfnd@4@@shdfnd@physx@@IBEIXZ 1001bdd0 f i CctObstacleContext.obj
 0001:0001adf0       ?copy@?$Array@UInternalBoxObstacle@ObstacleContext@Cct@physx@@V?$ReflectionAllocator@UInternalBoxObstacle@ObstacleContext@Cct@physx@@@shdfnd@4@@shdfnd@physx@@KAXPAUInternalBoxObstacle@ObstacleContext@Cct@3@0PBU4563@@Z 1001bdf0 f i CctObstacleContext.obj
 0001:0001ae80       ?copy@?$Array@UInternalCapsuleObstacle@ObstacleContext@Cct@physx@@V?$ReflectionAllocator@UInternalCapsuleObstacle@ObstacleContext@Cct@physx@@@shdfnd@4@@shdfnd@physx@@KAXPAUInternalCapsuleObstacle@ObstacleContext@Cct@3@0PBU4563@@Z 1001be80 f i CctObstacleContext.obj
 0001:0001af10       ?deallocate@?$Array@UInternalBoxObstacle@ObstacleContext@Cct@physx@@V?$ReflectionAllocator@UInternalBoxObstacle@ObstacleContext@Cct@physx@@@shdfnd@4@@shdfnd@physx@@IAEXPAX@Z 1001bf10 f i CctObstacleContext.obj
 0001:0001af30       ?deallocate@?$Array@UInternalCapsuleObstacle@ObstacleContext@Cct@physx@@V?$ReflectionAllocator@UInternalCapsuleObstacle@ObstacleContext@Cct@physx@@@shdfnd@4@@shdfnd@physx@@IAEXPAX@Z 1001bf30 f i CctObstacleContext.obj
 0001:0001af50       ?deallocate@?$ReflectionAllocator@UInternalBoxObstacle@ObstacleContext@Cct@physx@@@shdfnd@physx@@QAEXPAX@Z 1001bf50 f i CctObstacleContext.obj
 0001:0001af70       ?deallocate@?$ReflectionAllocator@UInternalCapsuleObstacle@ObstacleContext@Cct@physx@@@shdfnd@physx@@QAEXPAX@Z 1001bf70 f i CctObstacleContext.obj
 0001:0001af90       ?destroy@?$Array@UInternalBoxObstacle@ObstacleContext@Cct@physx@@V?$ReflectionAllocator@UInternalBoxObstacle@ObstacleContext@Cct@physx@@@shdfnd@4@@shdfnd@physx@@KAXPAUInternalBoxObstacle@ObstacleContext@Cct@3@0@Z 1001bf90 f i CctObstacleContext.obj
 0001:0001afa0       ?destroy@?$Array@UInternalCapsuleObstacle@ObstacleContext@Cct@physx@@V?$ReflectionAllocator@UInternalCapsuleObstacle@ObstacleContext@Cct@physx@@@shdfnd@4@@shdfnd@physx@@KAXPAUInternalCapsuleObstacle@ObstacleContext@Cct@3@0@Z 1001bfa0 f i CctObstacleContext.obj
 0001:0001afb0       ?getName@?$ReflectionAllocator@UInternalBoxObstacle@ObstacleContext@Cct@physx@@@shdfnd@physx@@CAPBDXZ 1001bfb0 f i CctObstacleContext.obj
 0001:0001aff0       ?getName@?$ReflectionAllocator@UInternalCapsuleObstacle@ObstacleContext@Cct@physx@@@shdfnd@physx@@CAPBDXZ 1001bff0 f i CctObstacleContext.obj
 0001:0001b020       ?getType@PxObstacle@physx@@QBE?AW4Enum@PxGeometryType@2@XZ 1001c020 f i CctObstacleContext.obj
 0001:0001b030       ?growAndPushBack@?$Array@UInternalBoxObstacle@ObstacleContext@Cct@physx@@V?$ReflectionAllocator@UInternalBoxObstacle@ObstacleContext@Cct@physx@@@shdfnd@4@@shdfnd@physx@@IAEAAUInternalBoxObstacle@ObstacleContext@Cct@3@ABU4563@@Z 1001c030 f i CctObstacleContext.obj
 0001:0001b100       ?growAndPushBack@?$Array@UInternalCapsuleObstacle@ObstacleContext@Cct@physx@@V?$ReflectionAllocator@UInternalCapsuleObstacle@ObstacleContext@Cct@physx@@@shdfnd@4@@shdfnd@physx@@IAEAAUInternalCapsuleObstacle@ObstacleContext@Cct@3@ABU4563@@Z 1001c100 f i CctObstacleContext.obj
 0001:0001b1d0       ?isInUserMemory@?$Array@UInternalBoxObstacle@ObstacleContext@Cct@physx@@V?$ReflectionAllocator@UInternalBoxObstacle@ObstacleContext@Cct@physx@@@shdfnd@4@@shdfnd@physx@@QBEIXZ 1001c1d0 f i CctObstacleContext.obj
 0001:0001b1e0       ?isInUserMemory@?$Array@UInternalCapsuleObstacle@ObstacleContext@Cct@physx@@V?$ReflectionAllocator@UInternalCapsuleObstacle@ObstacleContext@Cct@physx@@@shdfnd@4@@shdfnd@physx@@QBEIXZ 1001c1e0 f i CctObstacleContext.obj
 0001:0001b1f0       ?memZero@intrinsics@physx@@YAPAXPIAXI@Z 1001c1f0 f i CctObstacleContext.obj
 0001:0001b210       ?pushBack@?$Array@UInternalBoxObstacle@ObstacleContext@Cct@physx@@V?$ReflectionAllocator@UInternalBoxObstacle@ObstacleContext@Cct@physx@@@shdfnd@4@@shdfnd@physx@@QAEAAUInternalBoxObstacle@ObstacleContext@Cct@3@ABU4563@@Z 1001c210 f i CctObstacleContext.obj
 0001:0001b260       ?pushBack@?$Array@UInternalCapsuleObstacle@ObstacleContext@Cct@physx@@V?$ReflectionAllocator@UInternalCapsuleObstacle@ObstacleContext@Cct@physx@@@shdfnd@4@@shdfnd@physx@@QAEAAUInternalCapsuleObstacle@ObstacleContext@Cct@3@ABU4563@@Z 1001c260 f i CctObstacleContext.obj
 0001:0001b2b0       ?replaceWithLast@?$Array@UInternalBoxObstacle@ObstacleContext@Cct@physx@@V?$ReflectionAllocator@UInternalBoxObstacle@ObstacleContext@Cct@physx@@@shdfnd@4@@shdfnd@physx@@QAEXI@Z 1001c2b0 f i CctObstacleContext.obj
 0001:0001b330       ?replaceWithLast@?$Array@UInternalCapsuleObstacle@ObstacleContext@Cct@physx@@V?$ReflectionAllocator@UInternalCapsuleObstacle@ObstacleContext@Cct@physx@@@shdfnd@4@@shdfnd@physx@@QAEXI@Z 1001c330 f i CctObstacleContext.obj
 0001:0001b3a0       ?to16@shdfnd@physx@@YAGI@Z 1001c3a0 f i CctObstacleContext.obj
 0001:0001b3b0       ??0SweptBox@Cct@physx@@QAE@XZ 1001c3b0 f   CctSweptBox.obj
 0001:0001b3d0       ??1SweptBox@Cct@physx@@UAE@XZ 1001c3d0 f   CctSweptBox.obj
 0001:0001b3e0       ?computeTemporalBox@SweptBox@Cct@physx@@UBEXABVSweepTest@23@AAUPxExtendedBounds3@3@ABUPxExtendedVec3@3@ABVPxVec3@3@@Z 1001c3e0 f   CctSweptBox.obj
 0001:0001b450       ??$PxMax@M@physx@@YAMMM@Z  1001c450 f i CctSweptBox.obj
 0001:0001b480       ??_ESweptBox@Cct@physx@@UAEPAXI@Z 1001c480 f i CctSweptBox.obj
 0001:0001b480       ??_GSweptBox@Cct@physx@@UAEPAXI@Z 1001c480 f i CctSweptBox.obj
 0001:0001b4b0       ??0SweptCapsule@Cct@physx@@QAE@XZ 1001c4b0 f   CctSweptCapsule.obj
 0001:0001b4d0       ??1SweptCapsule@Cct@physx@@UAE@XZ 1001c4d0 f   CctSweptCapsule.obj
 0001:0001b4e0       ?computeTemporalBox@SweptCapsule@Cct@physx@@UBEXABVSweepTest@23@AAUPxExtendedBounds3@3@ABUPxExtendedVec3@3@ABVPxVec3@3@@Z 1001c4e0 f   CctSweptCapsule.obj
 0001:0001b540       ??_ESweptCapsule@Cct@physx@@UAEPAXI@Z 1001c540 f i CctSweptCapsule.obj
 0001:0001b540       ??_GSweptCapsule@Cct@physx@@UAEPAXI@Z 1001c540 f i CctSweptCapsule.obj
 0001:0001b570       ??0SweptVolume@Cct@physx@@QAE@XZ 1001c570 f   CctSweptVolume.obj
 0001:0001b580       ??1SweptVolume@Cct@physx@@UAE@XZ 1001c580 f   CctSweptVolume.obj
 0001:0001b590       ?computeTemporalBox@Cct@physx@@YAXAAUPxExtendedBounds3@2@MMMMABVPxVec3@2@ABUPxExtendedVec3@2@1@Z 1001c590 f   CctSweptVolume.obj
 0001:0001b920       ??_ESweptVolume@Cct@physx@@UAEPAXI@Z 1001c920 f i CctSweptVolume.obj
 0001:0001b920       ??_GSweptVolume@Cct@physx@@UAEPAXI@Z 1001c920 f i CctSweptVolume.obj
 0001:0001b942       ?deallocate@Allocator@shdfnd@physx@@QAEXPAX@Z 1001c942 f   PhysX3Common_x86:PhysX3Common_x86.dll
 0001:0001b948       _PxGetFoundation           1001c948 f   PhysX3Common_x86:PhysX3Common_x86.dll
 0001:0001b94e       ?PxTransformFromSegment@physx@@YA?AVPxTransform@1@ABVPxVec3@1@0PAM@Z 1001c94e f   PhysX3Common_x86:PhysX3Common_x86.dll
 0001:0001b954       ?sweep@PxGeometryQuery@physx@@SA_NABVPxVec3@2@MABVPxGeometry@2@ABVPxTransform@2@12AAUPxSweepHit@2@V?$PxFlags@W4Enum@PxHitFlag@physx@@G@2@M@Z 1001c954 f   PhysX3Common_x86:PhysX3Common_x86.dll
 0001:0001b95a       ?computePenetration@PxGeometryQuery@physx@@SA_NAAVPxVec3@2@AAMABVPxGeometry@2@ABVPxTransform@2@23@Z 1001c95a f   PhysX3Common_x86:PhysX3Common_x86.dll
 0001:0001b960       ?getAllocator@shdfnd@physx@@YAAAVPxAllocatorCallback@2@XZ 1001c960 f   PhysX3Common_x86:PhysX3Common_x86.dll
 0001:0001b966       ??0RenderOutput@Cm@physx@@QAE@AAVRenderBuffer@12@@Z 1001c966 f   PhysX3Common_x86:PhysX3Common_x86.dll
 0001:0001b96c       ??6RenderOutput@Cm@physx@@QAEAAV012@I@Z 1001c96c f   PhysX3Common_x86:PhysX3Common_x86.dll
 0001:0001b972       ??6RenderOutput@Cm@physx@@QAEAAV012@ABVPxTransform@2@@Z 1001c972 f   PhysX3Common_x86:PhysX3Common_x86.dll
 0001:0001b978       ?outputCapsule@RenderOutput@Cm@physx@@QAEAAV123@MMABVMatrix34@23@@Z 1001c978 f   PhysX3Common_x86:PhysX3Common_x86.dll
 0001:0001b97e       ??6Cm@physx@@YAAAVRenderOutput@01@AAV201@ABUDebugBox@01@@Z 1001c97e f   PhysX3Common_x86:PhysX3Common_x86.dll
 0001:0001b984       ?intersectOBBOBB@Gu@physx@@YA_NABVPxVec3@2@0ABVPxMat33@2@001_N@Z 1001c984 f   PhysX3Common_x86:PhysX3Common_x86.dll
 0001:0001b98a       ?distanceSegmentBoxSquared@Gu@physx@@YAMABVPxVec3@2@000ABVPxMat33@2@PAMPAV32@@Z 1001c98a f   PhysX3Common_x86:PhysX3Common_x86.dll
 0001:0001b990       ?sweep@PxMeshQuery@physx@@SA_NABVPxVec3@2@MABVPxGeometry@2@ABVPxTransform@2@IPBVPxTriangle@2@AAUPxSweepHit@2@V?$PxFlags@W4Enum@PxHitFlag@physx@@G@2@PBIM_N@Z 1001c990 f   PhysX3Common_x86:PhysX3Common_x86.dll
 0001:0001b996       ?getTriangle@PxMeshQuery@physx@@SAXABVPxTriangleMeshGeometry@2@ABVPxTransform@2@IAAVPxTriangle@2@PAI3@Z 1001c996 f   PhysX3Common_x86:PhysX3Common_x86.dll
 0001:0001b99c       ?getTriangle@PxMeshQuery@physx@@SAXABVPxHeightFieldGeometry@2@ABVPxTransform@2@IAAVPxTriangle@2@PAI3@Z 1001c99c f   PhysX3Common_x86:PhysX3Common_x86.dll
 0001:0001b9a2       ??6RenderOutput@Cm@physx@@QAEAAV012@W4Primitive@012@@Z 1001c9a2 f   PhysX3Common_x86:PhysX3Common_x86.dll
 0001:0001b9a8       ??6RenderOutput@Cm@physx@@QAEAAV012@VPxVec3@2@@Z 1001c9a8 f   PhysX3Common_x86:PhysX3Common_x86.dll
 0001:0001b9ae       ?intersectTriangleBox@Gu@physx@@YAHABVPxVec3@2@0000@Z 1001c9ae f   PhysX3Common_x86:PhysX3Common_x86.dll
 0001:0001b9b4       ?allocate@Allocator@shdfnd@physx@@QAEPAXIPBDH@Z 1001c9b4 f   PhysX3Common_x86:PhysX3Common_x86.dll
 0001:0001b9ba       ?getInstance@Foundation@shdfnd@physx@@SAAAV123@XZ 1001c9ba f   PhysX3Common_x86:PhysX3Common_x86.dll
 0001:0001b9c0       ?incRefCount@Foundation@shdfnd@physx@@SAXXZ 1001c9c0 f   PhysX3Common_x86:PhysX3Common_x86.dll
 0001:0001b9c6       ?decRefCount@Foundation@shdfnd@physx@@SAXXZ 1001c9c6 f   PhysX3Common_x86:PhysX3Common_x86.dll
 0001:0001b9cc       ?error@Foundation@shdfnd@physx@@QAAXW4Enum@PxErrorCode@3@PBDH1ZZ 1001c9cc f   PhysX3Common_x86:PhysX3Common_x86.dll
 0001:0001b9d2       ?CompleteBoxPruning@Gu@physx@@YA_NPBVPxBounds3@2@IAAV?$Array@IV?$ReflectionAllocator@I@shdfnd@physx@@@shdfnd@2@ABVAxes@12@@Z 1001c9d2 f   PhysX3Common_x86:PhysX3Common_x86.dll
 0001:0001b9d8       ?distanceSegmentSegmentSquaredOLD@Gu@physx@@YAMABVPxVec3@2@000PAM1@Z 1001c9d8 f   PhysX3Common_x86:PhysX3Common_x86.dll
 0001:0001b9de       ?GetRaycastFuncTable@Gu@physx@@YAAAY06P6AIABVPxGeometry@2@ABVPxTransform@2@ABVPxVec3@2@2MV?$PxFlags@W4Enum@PxHitFlag@physx@@G@2@IPIAUPxRaycastHit@2@_NP6A_NAAU72@PAX@Z7@ZXZ 1001c9de f   PhysX3Common_x86:PhysX3Common_x86.dll
 0001:0001b9f0       ??0PxMeshOverlapUtil@physx@@QAE@XZ 1001c9f0 f   PhysX3Extensions:ExtTriangleMeshExt.obj
 0001:0001ba10       ??1PxMeshOverlapUtil@physx@@QAE@XZ 1001ca10 f   PhysX3Extensions:ExtTriangleMeshExt.obj
 0001:0001ba30       ?findOverlap@PxMeshOverlapUtil@physx@@QAEIABVPxGeometry@2@ABVPxTransform@2@ABVPxTriangleMeshGeometry@2@1@Z 1001ca30 f   PhysX3Extensions:ExtTriangleMeshExt.obj
 0001:0001baf0       ?findOverlap@PxMeshOverlapUtil@physx@@QAEIABVPxGeometry@2@ABVPxTransform@2@ABVPxHeightFieldGeometry@2@1@Z 1001caf0 f   PhysX3Extensions:ExtTriangleMeshExt.obj
 0001:0001bb80       ?PxComputeMeshPenetration@physx@@YA?AVPxVec3@1@IABVPxGeometry@1@ABVPxTransform@1@ABVPxTriangleMeshGeometry@1@1AAI@Z 1001cb80 f   PhysX3Extensions:ExtTriangleMeshExt.obj
 0001:0001bc60       ?PxComputeHeightFieldPenetration@physx@@YA?AVPxVec3@1@IABVPxGeometry@1@ABVPxTransform@1@ABVPxHeightFieldGeometry@1@1AAI@Z 1001cc60 f   PhysX3Extensions:ExtTriangleMeshExt.obj
 0001:0001bd40       ??0PxTransform@physx@@QAE@ABV01@@Z 1001cd40 f i PhysX3Extensions:ExtTriangleMeshExt.obj
 0001:0001bd90       ?updateMassAndInertia@PxRigidBodyExt@physx@@SA_NAAVPxRigidBody@2@PBMIPBVPxVec3@2@_N@Z 1001cd90 f   PhysX3Extensions:ExtRigidBodyExt.obj
 0001:0001bdb0       ?updateMassAndInertia@PxRigidBodyExt@physx@@SA_NAAVPxRigidBody@2@MPBVPxVec3@2@_N@Z 1001cdb0 f   PhysX3Extensions:ExtRigidBodyExt.obj
 0001:0001bdd0       ?setMassAndUpdateInertia@PxRigidBodyExt@physx@@SA_NAAVPxRigidBody@2@PBMIPBVPxVec3@2@_N@Z 1001cdd0 f   PhysX3Extensions:ExtRigidBodyExt.obj
 0001:0001bdf0       ?setMassAndUpdateInertia@PxRigidBodyExt@physx@@SA_NAAVPxRigidBody@2@MPBVPxVec3@2@_N@Z 1001cdf0 f   PhysX3Extensions:ExtRigidBodyExt.obj
 0001:0001be10       ?addForceAtPos@PxRigidBodyExt@physx@@SAXAAVPxRigidBody@2@ABVPxVec3@2@1W4Enum@PxForceMode@2@_N@Z 1001ce10 f   PhysX3Extensions:ExtRigidBodyExt.obj
 0001:0001be20       ?addForceAtLocalPos@PxRigidBodyExt@physx@@SAXAAVPxRigidBody@2@ABVPxVec3@2@1W4Enum@PxForceMode@2@_N@Z 1001ce20 f   PhysX3Extensions:ExtRigidBodyExt.obj
 0001:0001bf80       ?addLocalForceAtPos@PxRigidBodyExt@physx@@SAXAAVPxRigidBody@2@ABVPxVec3@2@1W4Enum@PxForceMode@2@_N@Z 1001cf80 f   PhysX3Extensions:ExtRigidBodyExt.obj
 0001:0001c0d0       ?addLocalForceAtLocalPos@PxRigidBodyExt@physx@@SAXAAVPxRigidBody@2@ABVPxVec3@2@1W4Enum@PxForceMode@2@_N@Z 1001d0d0 f   PhysX3Extensions:ExtRigidBodyExt.obj
 0001:0001c310       ?getVelocityAtPos@PxRigidBodyExt@physx@@SA?AVPxVec3@2@ABVPxRigidBody@2@ABV32@@Z 1001d310 f   PhysX3Extensions:ExtRigidBodyExt.obj
 0001:0001c510       ?getLocalVelocityAtLocalPos@PxRigidBodyExt@physx@@SA?AVPxVec3@2@ABVPxRigidBody@2@ABV32@@Z 1001d510 f   PhysX3Extensions:ExtRigidBodyExt.obj
 0001:0001c820       ?getVelocityAtOffset@PxRigidBodyExt@physx@@SA?AVPxVec3@2@ABVPxRigidBody@2@ABV32@@Z 1001d820 f   PhysX3Extensions:ExtRigidBodyExt.obj
 0001:0001ca00       ?linearSweepSingle@PxRigidBodyExt@physx@@SA_NAAVPxRigidBody@2@AAVPxScene@2@ABVPxVec3@2@MV?$PxFlags@W4Enum@PxHitFlag@physx@@G@2@AAUPxSweepHit@2@AAIABUPxQueryFilterData@2@PAVPxQueryFilterCallback@2@PBUPxQueryCache@2@M@Z 1001da00 f   PhysX3Extensions:ExtRigidBodyExt.obj
 0001:0001ce10       ?linearSweepMultiple@PxRigidBodyExt@physx@@SAIAAVPxRigidBody@2@AAVPxScene@2@ABVPxVec3@2@MV?$PxFlags@W4Enum@PxHitFlag@physx@@G@2@PAUPxSweepHit@2@PAIIAAU72@AAHAA_NABUPxQueryFilterData@2@PAVPxQueryFilterCallback@2@PBUPxQueryCache@2@M@Z 1001de10 f   PhysX3Extensions:ExtRigidBodyExt.obj
 0001:0001d390       ?computeVelocityDeltaFromImpulse@PxRigidBodyExt@physx@@SAXABVPxRigidBody@2@ABVPxVec3@2@1AAV42@2@Z 1001e390 f   PhysX3Extensions:ExtRigidBodyExt.obj
 0001:0001d7e0       ?computeVelocityDeltaFromImpulse@PxRigidBodyExt@physx@@SAXABVPxRigidBody@2@ABVPxTransform@2@ABVPxVec3@2@2MMAAV52@3@Z 1001e7e0 f   PhysX3Extensions:ExtRigidBodyExt.obj
 0001:0001dcb0       ?computeLinearAngularImpulse@PxRigidBodyExt@physx@@SAXABVPxRigidBody@2@ABVPxTransform@2@ABVPxVec3@2@2MMAAV52@3@Z 1001ecb0 f   PhysX3Extensions:ExtRigidBodyExt.obj
 0001:0001de90       ??0InertiaTensorComputer@Ext@physx@@QAE@_N@Z 1001ee90 f   PhysX3Extensions:ExtRigidBodyExt.obj
 0001:0001deb0       ??0InertiaTensorComputer@Ext@physx@@QAE@ABVPxMat33@2@ABVPxVec3@2@M@Z 1001eeb0 f   PhysX3Extensions:ExtRigidBodyExt.obj
 0001:0001df20       ??1InertiaTensorComputer@Ext@physx@@QAE@XZ 1001ef20 f   PhysX3Extensions:ExtRigidBodyExt.obj
 0001:0001df30       ?translate@InertiaTensorComputer@Ext@physx@@QAEXABVPxVec3@3@@Z 1001ef30 f   PhysX3Extensions:ExtRigidBodyExt.obj
 0001:0001e530       ?setBox@InertiaTensorComputer@Ext@physx@@QAEXABVPxVec3@3@@Z 1001f530 f   PhysX3Extensions:ExtRigidBodyExt.obj
 0001:0001e610       ?setSphere@InertiaTensorComputer@Ext@physx@@QAEXM@Z 1001f610 f   PhysX3Extensions:ExtRigidBodyExt.obj
 0001:0001e6a0       ?setCylinder@InertiaTensorComputer@Ext@physx@@QAEXHMM@Z 1001f6a0 f   PhysX3Extensions:ExtRigidBodyExt.obj
 0001:0001e7a0       ?setCapsule@InertiaTensorComputer@Ext@physx@@QAEXHMM@Z 1001f7a0 f   PhysX3Extensions:ExtRigidBodyExt.obj
 0001:0001e910       ?setEllipsoid@InertiaTensorComputer@Ext@physx@@QAEXMMM@Z 1001f910 f   PhysX3Extensions:ExtRigidBodyExt.obj
 0001:0001e9e0       ?computeSphereMass@Ext@physx@@YAMMM@Z 1001f9e0 f   PhysX3Extensions:ExtRigidBodyExt.obj
 0001:0001ea10       ?computeSphereDensity@Ext@physx@@YAMMM@Z 1001fa10 f   PhysX3Extensions:ExtRigidBodyExt.obj
 0001:0001ea40       ?computeBoxMass@Ext@physx@@YAMABVPxVec3@2@M@Z 1001fa40 f   PhysX3Extensions:ExtRigidBodyExt.obj
 0001:0001eab0       ?computeBoxDensity@Ext@physx@@YAMABVPxVec3@2@M@Z 1001fab0 f   PhysX3Extensions:ExtRigidBodyExt.obj
 0001:0001eb20       ?computeEllipsoidMass@Ext@physx@@YAMABVPxVec3@2@M@Z 1001fb20 f   PhysX3Extensions:ExtRigidBodyExt.obj
 0001:0001eb90       ?computeEllipsoidDensity@Ext@physx@@YAMABVPxVec3@2@M@Z 1001fb90 f   PhysX3Extensions:ExtRigidBodyExt.obj
 0001:0001ec00       ?computeCylinderMass@Ext@physx@@YAMMMM@Z 1001fc00 f   PhysX3Extensions:ExtRigidBodyExt.obj
 0001:0001ec40       ?computeCylinderDensity@Ext@physx@@YAMMMM@Z 1001fc40 f   PhysX3Extensions:ExtRigidBodyExt.obj
 0001:0001ec80       ?computeCapsuleMass@Ext@physx@@YAMMMM@Z 1001fc80 f   PhysX3Extensions:ExtRigidBodyExt.obj
 0001:0001ecd0       ?computeCapsuleDensity@Ext@physx@@YAMMMM@Z 1001fcd0 f   PhysX3Extensions:ExtRigidBodyExt.obj
 0001:0001ed30       ?computeConeMass@Ext@physx@@YAMMMM@Z 1001fd30 f   PhysX3Extensions:ExtRigidBodyExt.obj
 0001:0001ed70       ?computeConeDensity@Ext@physx@@YAMMMM@Z 1001fd70 f   PhysX3Extensions:ExtRigidBodyExt.obj
 0001:0001edb0       ?computeBoxInertiaTensor@Ext@physx@@YAXAAVPxVec3@2@MMMM@Z 1001fdb0 f   PhysX3Extensions:ExtRigidBodyExt.obj
 0001:0001ee10       ?computeSphereInertiaTensor@Ext@physx@@YAXAAVPxVec3@2@MM_N@Z 1001fe10 f   PhysX3Extensions:ExtRigidBodyExt.obj
 0001:000202d0       ??$PX_UNUSED@PBUPxSweepHit@physx@@@@YAXABQBUPxSweepHit@physx@@@Z 100212d0 f i PhysX3Extensions:ExtRigidBodyExt.obj
 0001:000202e0       ??$PX_UNUSED@W4PxZERO@physx@@@@YAXABW4PxZERO@physx@@@Z 100212e0 f i PhysX3Extensions:ExtRigidBodyExt.obj
 0001:000202f0       ??$PxUnionCast@PAVPxGeometry@physx@@PAY03E@physx@@YAPAVPxGeometry@0@PAY03E@Z 100212f0 f i PhysX3Extensions:ExtRigidBodyExt.obj
 0001:00020300       ??0?$Array@PAVPxShape@physx@@V?$InlineAllocator@$0EA@V?$ReflectionAllocator@PAVPxShape@physx@@@shdfnd@physx@@@shdfnd@2@@shdfnd@physx@@QAE@ABV?$InlineAllocator@$0EA@V?$ReflectionAllocator@PAVPxShape@physx@@@shdfnd@physx@@@12@@Z 10021300 f i PhysX3Extensions:ExtRigidBodyExt.obj
 0001:00020320       ??0?$InlineAllocator@$0EA@V?$ReflectionAllocator@PAVPxShape@physx@@@shdfnd@physx@@@shdfnd@physx@@QAE@ABV012@@Z 10021320 f i PhysX3Extensions:ExtRigidBodyExt.obj
 0001:00020330       ??0?$InlineAllocator@$0EA@V?$ReflectionAllocator@PAVPxShape@physx@@@shdfnd@physx@@@shdfnd@physx@@QAE@ABV?$ReflectionAllocator@PAVPxShape@physx@@@12@@Z 10021330 f i PhysX3Extensions:ExtRigidBodyExt.obj
 0001:00020340       ??0?$InlineArray@PAVPxShape@physx@@$0BA@V?$ReflectionAllocator@PAVPxShape@physx@@@shdfnd@2@@shdfnd@physx@@QAE@ABV?$ReflectionAllocator@PAVPxShape@physx@@@12@@Z 10021340 f i PhysX3Extensions:ExtRigidBodyExt.obj
 0001:00020380       ??0?$PxHitBuffer@UPxSweepHit@physx@@@physx@@QAE@PAUPxSweepHit@1@I@Z 10021380 f i PhysX3Extensions:ExtRigidBodyExt.obj
 0001:000203e0       ??0?$PxHitCallback@UPxSweepHit@physx@@@physx@@QAE@PAUPxSweepHit@1@I@Z 100213e0 f i PhysX3Extensions:ExtRigidBodyExt.obj
 0001:00020440       ??0?$ReflectionAllocator@PAVPxShape@physx@@@shdfnd@physx@@QAE@ABV012@@Z 10021440 f i PhysX3Extensions:ExtRigidBodyExt.obj
 0001:00020450       ??0?$ReflectionAllocator@PAVPxShape@physx@@@shdfnd@physx@@QAE@PBD@Z 10021450 f i PhysX3Extensions:ExtRigidBodyExt.obj
 0001:00020460       ??0PxMat33@physx@@QAE@W4PxZERO@1@@Z 10021460 f i PhysX3Extensions:ExtRigidBodyExt.obj
 0001:000204b0       ??0PxMat33@physx@@QAE@XZ   100214b0 f i PhysX3Extensions:ExtRigidBodyExt.obj
 0001:000204c0       ??0PxQueryFilterData@physx@@QAE@XZ 100214c0 f i PhysX3Extensions:ExtRigidBodyExt.obj
 0001:000204f0       ??1?$Array@PAVPxShape@physx@@V?$InlineAllocator@$0EA@V?$ReflectionAllocator@PAVPxShape@physx@@@shdfnd@physx@@@shdfnd@2@@shdfnd@physx@@QAE@XZ 100214f0 f i PhysX3Extensions:ExtRigidBodyExt.obj
 0001:00020520       ??1?$InlineArray@PAVPxShape@physx@@$0BA@V?$ReflectionAllocator@PAVPxShape@physx@@@shdfnd@2@@shdfnd@physx@@QAE@XZ 10021520 f i PhysX3Extensions:ExtRigidBodyExt.obj
 0001:00020550       ??1?$PxHitBuffer@UPxSweepHit@physx@@@physx@@UAE@XZ 10021550 f i PhysX3Extensions:ExtRigidBodyExt.obj
 0001:00020560       ??1?$PxHitCallback@UPxSweepHit@physx@@@physx@@UAE@XZ 10021560 f i PhysX3Extensions:ExtRigidBodyExt.obj
 0001:00020570       ??4InertiaTensorComputer@Ext@physx@@QAEAAV012@ABV012@@Z 10021570 f i PhysX3Extensions:ExtRigidBodyExt.obj
 0001:000205d0       ??4PxMat33@physx@@QAEAAV01@ABV01@@Z 100215d0 f i PhysX3Extensions:ExtRigidBodyExt.obj
 0001:00020610       ??4PxSweepHit@physx@@QAEAAU01@ABU01@@Z 10021610 f i PhysX3Extensions:ExtRigidBodyExt.obj
 0001:00020670       ??A?$Array@PAVPxShape@physx@@V?$InlineAllocator@$0EA@V?$ReflectionAllocator@PAVPxShape@physx@@@shdfnd@physx@@@shdfnd@2@@shdfnd@physx@@QAEAAPAVPxShape@2@I@Z 10021670 f i PhysX3Extensions:ExtRigidBodyExt.obj
 0001:00020680       ??APxMat33@physx@@QAEAAVPxVec3@1@H@Z 10021680 f i PhysX3Extensions:ExtRigidBodyExt.obj
 0001:00020690       ??APxMat33@physx@@QAEAAVPxVec3@1@I@Z 10021690 f i PhysX3Extensions:ExtRigidBodyExt.obj
 0001:000206a0       ??APxVec3@physx@@QAEAAMH@Z 100216a0 f i PhysX3Extensions:ExtRigidBodyExt.obj
 0001:000206b0       ??APxVec3@physx@@QAEAAMI@Z 100216b0 f i PhysX3Extensions:ExtRigidBodyExt.obj
 0001:000206c0       ??DPxMat33@physx@@QBE?AV01@M@Z 100216c0 f i PhysX3Extensions:ExtRigidBodyExt.obj
 0001:00020740       ??DPxMat33@physx@@QBE?AVPxVec3@1@ABV21@@Z 10021740 f i PhysX3Extensions:ExtRigidBodyExt.obj
 0001:000207e0       ??GPxMat33@physx@@QBE?AV01@ABV01@@Z 100217e0 f i PhysX3Extensions:ExtRigidBodyExt.obj
 0001:00020880       ??KPxVec3@physx@@QBE?AV01@M@Z 10021880 f i PhysX3Extensions:ExtRigidBodyExt.obj
 0001:000208c0       ??RPxMat33@physx@@QAEAAMII@Z 100218c0 f i PhysX3Extensions:ExtRigidBodyExt.obj
 0001:000208e0       ??RPxMat33@physx@@QBEMII@Z 100218e0 f i PhysX3Extensions:ExtRigidBodyExt.obj
 0001:00020900       ??XPxMat33@physx@@QAEAAV01@M@Z 10021900 f i PhysX3Extensions:ExtRigidBodyExt.obj
 0001:00020940       ??YPxMat33@physx@@QAEAAV01@ABV01@@Z 10021940 f i PhysX3Extensions:ExtRigidBodyExt.obj
 0001:000209d0       ??_E?$PxHitBuffer@UPxSweepHit@physx@@@physx@@UAEPAXI@Z 100219d0 f i PhysX3Extensions:ExtRigidBodyExt.obj
 0001:000209d0       ??_G?$PxHitBuffer@UPxSweepHit@physx@@@physx@@UAEPAXI@Z 100219d0 f i PhysX3Extensions:ExtRigidBodyExt.obj
 0001:00020a00       ??_G?$PxHitCallback@UPxSweepHit@physx@@@physx@@UAEPAXI@Z 10021a00 f i PhysX3Extensions:ExtRigidBodyExt.obj
 0001:00020a00       ??_E?$PxHitCallback@UPxSweepHit@physx@@@physx@@UAEPAXI@Z 10021a00 f i PhysX3Extensions:ExtRigidBodyExt.obj
 0001:00020a30       ?PxIsFinite@physx@@YA_NM@Z 10021a30 f i PhysX3Extensions:ExtRigidBodyExt.obj
 0001:00020a60       ?add@InertiaTensorComputer@Ext@physx@@QAEXABV123@@Z 10021a60 f i PhysX3Extensions:ExtRigidBodyExt.obj
 0001:00020b80       ?addForceAtPosInternal@@YAXAAVPxRigidBody@physx@@ABVPxVec3@2@1W4Enum@PxForceMode@2@_N@Z 10021b80 f i PhysX3Extensions:ExtRigidBodyExt.obj
 0001:00020d90       ?allocate@?$Array@PAVPxShape@physx@@V?$InlineAllocator@$0EA@V?$ReflectionAllocator@PAVPxShape@physx@@@shdfnd@physx@@@shdfnd@2@@shdfnd@physx@@IAEPAPAVPxShape@3@I@Z 10021d90 f i PhysX3Extensions:ExtRigidBodyExt.obj
 0001:00020dc0       ?allocate@?$InlineAllocator@$0EA@V?$ReflectionAllocator@PAVPxShape@physx@@@shdfnd@physx@@@shdfnd@physx@@QAEPAXIPBDH@Z 10021dc0 f i PhysX3Extensions:ExtRigidBodyExt.obj
 0001:00020e30       ?allocate@?$ReflectionAllocator@PAVPxShape@physx@@@shdfnd@physx@@QAEPAXIPBDH@Z 10021e30 f i PhysX3Extensions:ExtRigidBodyExt.obj
 0001:00020e90       ?any@PxGeometryHolder@physx@@QAEAAVPxGeometry@2@XZ 10021e90 f i PhysX3Extensions:ExtRigidBodyExt.obj
 0001:00020ea0       ?basisExtent@PxBounds3@physx@@SA?AV12@ABVPxVec3@2@ABVPxMat33@2@0@Z 10021ea0 f i PhysX3Extensions:ExtRigidBodyExt.obj
 0001:00020fc0       ?begin@?$Array@PAVPxShape@physx@@V?$InlineAllocator@$0EA@V?$ReflectionAllocator@PAVPxShape@physx@@@shdfnd@physx@@@shdfnd@2@@shdfnd@physx@@QAEPAPAVPxShape@3@XZ 10021fc0 f i PhysX3Extensions:ExtRigidBodyExt.obj
 0001:00020fd0       ?capacity@?$Array@PAVPxShape@physx@@V?$InlineAllocator@$0EA@V?$ReflectionAllocator@PAVPxShape@physx@@@shdfnd@physx@@@shdfnd@2@@shdfnd@physx@@QBEIXZ 10021fd0 f i PhysX3Extensions:ExtRigidBodyExt.obj
 0001:00020fe0       ?center@InertiaTensorComputer@Ext@physx@@QAEXXZ 10021fe0 f i PhysX3Extensions:ExtRigidBodyExt.obj
 0001:00021030       ?computeBoxRatio@Ext@physx@@YAMABVPxVec3@2@@Z 10022030 f i PhysX3Extensions:ExtRigidBodyExt.obj
 0001:000210a0       ?computeCapsuleRatio@Ext@physx@@YAMMM@Z 100220a0 f i PhysX3Extensions:ExtRigidBodyExt.obj
 0001:000210f0       ?computeConeRatio@Ext@physx@@YAMMM@Z 100220f0 f i PhysX3Extensions:ExtRigidBodyExt.obj
 0001:00021130       ?computeCylinderRatio@Ext@physx@@YAMMM@Z 10022130 f i PhysX3Extensions:ExtRigidBodyExt.obj
 0001:00021160       ?computeEllipsoidRatio@Ext@physx@@YAMABVPxVec3@2@@Z 10022160 f i PhysX3Extensions:ExtRigidBodyExt.obj
 0001:000211d0       ?computeSphereRatio@Ext@physx@@YAMM@Z 100221d0 f i PhysX3Extensions:ExtRigidBodyExt.obj
 0001:00021200       ?copy@?$Array@PAVPxShape@physx@@V?$InlineAllocator@$0EA@V?$ReflectionAllocator@PAVPxShape@physx@@@shdfnd@physx@@@shdfnd@2@@shdfnd@physx@@KAXPAPAVPxShape@3@0PBQAV43@@Z 10022200 f i PhysX3Extensions:ExtRigidBodyExt.obj
 0001:00021230       ?create@?$Array@PAVPxShape@physx@@V?$InlineAllocator@$0EA@V?$ReflectionAllocator@PAVPxShape@physx@@@shdfnd@physx@@@shdfnd@2@@shdfnd@physx@@KAXPAPAVPxShape@3@0ABQAV43@@Z 10022230 f i PhysX3Extensions:ExtRigidBodyExt.obj
 0001:00021260       ?createDiagonal@PxMat33@physx@@SA?AV12@ABVPxVec3@2@@Z 10022260 f i PhysX3Extensions:ExtRigidBodyExt.obj
 0001:000212b0       ?deallocate@?$Array@PAVPxShape@physx@@V?$InlineAllocator@$0EA@V?$ReflectionAllocator@PAVPxShape@physx@@@shdfnd@physx@@@shdfnd@2@@shdfnd@physx@@IAEXPAX@Z 100222b0 f i PhysX3Extensions:ExtRigidBodyExt.obj
 0001:000212e0       ?deallocate@?$InlineAllocator@$0EA@V?$ReflectionAllocator@PAVPxShape@physx@@@shdfnd@physx@@@shdfnd@physx@@QAEXPAX@Z 100222e0 f i PhysX3Extensions:ExtRigidBodyExt.obj
 0001:00021310       ?deallocate@?$ReflectionAllocator@PAVPxShape@physx@@@shdfnd@physx@@QAEXPAX@Z 10022310 f i PhysX3Extensions:ExtRigidBodyExt.obj
 0001:00021330       ?destroy@?$Array@PAVPxShape@physx@@V?$InlineAllocator@$0EA@V?$ReflectionAllocator@PAVPxShape@physx@@@shdfnd@physx@@@shdfnd@2@@shdfnd@physx@@KAXPAPAVPxShape@3@0@Z 10022330 f i PhysX3Extensions:ExtRigidBodyExt.obj
 0001:00021340       ?finalizeQuery@?$PxHitCallback@UPxSweepHit@physx@@@physx@@UAEXXZ 10022340 f i PhysX3Extensions:ExtRigidBodyExt.obj
 0001:00021350       ?getCenterOfMass@InertiaTensorComputer@Ext@physx@@QBE?AVPxVec3@3@XZ 10022350 f i PhysX3Extensions:ExtRigidBodyExt.obj
 0001:00021370       ?getConjugate@PxQuat@physx@@QBE?AV12@XZ 10022370 f i PhysX3Extensions:ExtRigidBodyExt.obj
 0001:000213b0       ?getInertia@InertiaTensorComputer@Ext@physx@@QBE?AVPxMat33@3@XZ 100223b0 f i PhysX3Extensions:ExtRigidBodyExt.obj
 0001:00021400       ?getInverse@PxTransform@physx@@QBE?AV12@XZ 10022400 f i PhysX3Extensions:ExtRigidBodyExt.obj
 0001:00021580       ?getMass@InertiaTensorComputer@Ext@physx@@QBEMXZ 10022580 f i PhysX3Extensions:ExtRigidBodyExt.obj
 0001:00021590       ?getName@?$ReflectionAllocator@PAVPxShape@physx@@@shdfnd@physx@@CAPBDXZ 10022590 f i PhysX3Extensions:ExtRigidBodyExt.obj
 0001:000215c0       ?getNbTouches@?$PxHitBuffer@UPxSweepHit@physx@@@physx@@QBEIXZ 100225c0 f i PhysX3Extensions:ExtRigidBodyExt.obj
 0001:000215d0       ?getVelocityAtPosInternal@@YA?AVPxVec3@physx@@ABVPxRigidBody@2@ABV12@@Z 100225d0 f i PhysX3Extensions:ExtRigidBodyExt.obj
 0001:00021670       ?grow@?$Array@PAVPxShape@physx@@V?$InlineAllocator@$0EA@V?$ReflectionAllocator@PAVPxShape@physx@@@shdfnd@physx@@@shdfnd@2@@shdfnd@physx@@IAEXI@Z 10022670 f i PhysX3Extensions:ExtRigidBodyExt.obj
 0001:00021680       ?isFinite@intrinsics@physx@@YA_NM@Z 10022680 f i PhysX3Extensions:ExtRigidBodyExt.obj
 0001:000216b0       ?isIdentity@PxMeshScale@physx@@QBE_NXZ 100226b0 f i PhysX3Extensions:ExtRigidBodyExt.obj
 0001:000216f0       ?isInUserMemory@?$Array@PAVPxShape@physx@@V?$InlineAllocator@$0EA@V?$ReflectionAllocator@PAVPxShape@physx@@@shdfnd@physx@@@shdfnd@2@@shdfnd@physx@@QBEIXZ 100226f0 f i PhysX3Extensions:ExtRigidBodyExt.obj
 0001:00021700       ?multiply@PxVec3@physx@@QBE?AV12@ABV12@@Z 10022700 f i PhysX3Extensions:ExtRigidBodyExt.obj
 0001:00021740       ?processTouches@?$PxHitBuffer@UPxSweepHit@physx@@@physx@@MAE_NPBUPxSweepHit@2@I@Z 10022740 f i PhysX3Extensions:ExtRigidBodyExt.obj
 0001:00021750       ?recreate@?$Array@PAVPxShape@physx@@V?$InlineAllocator@$0EA@V?$ReflectionAllocator@PAVPxShape@physx@@@shdfnd@physx@@@shdfnd@2@@shdfnd@physx@@IAEXI@Z 10022750 f i PhysX3Extensions:ExtRigidBodyExt.obj
 0001:000217f0       ?reserve@?$Array@PAVPxShape@physx@@V?$InlineAllocator@$0EA@V?$ReflectionAllocator@PAVPxShape@physx@@@shdfnd@physx@@@shdfnd@2@@shdfnd@physx@@QAEXI@Z 100227f0 f i PhysX3Extensions:ExtRigidBodyExt.obj
 0001:00021810       ?resize@?$Array@PAVPxShape@physx@@V?$InlineAllocator@$0EA@V?$ReflectionAllocator@PAVPxShape@physx@@@shdfnd@physx@@@shdfnd@2@@shdfnd@physx@@QAEXIABQAVPxShape@3@@Z 10022810 f i PhysX3Extensions:ExtRigidBodyExt.obj
 0001:00021860       ?rotate@InertiaTensorComputer@Ext@physx@@QAEXABVPxMat33@3@@Z 10022860 f i PhysX3Extensions:ExtRigidBodyExt.obj
 0001:00021cc0       ?rotateInertia@MassProps@Ext@physx@@SA?AVPxMat33@3@ABV43@ABVPxQuat@3@@Z 10022cc0 f i PhysX3Extensions:ExtRigidBodyExt.obj
 0001:00022180       ?scaleDensity@InertiaTensorComputer@Ext@physx@@QAEXM@Z 10023180 f i PhysX3Extensions:ExtRigidBodyExt.obj
 0001:000221c0       ?scaleInertia@MassProps@Ext@physx@@SA?AVPxMat33@3@ABV43@ABVPxQuat@3@ABVPxVec3@3@@Z 100231c0 f i PhysX3Extensions:ExtRigidBodyExt.obj
 0001:00022350       ?setBox@InertiaTensorComputer@Ext@physx@@QAEXABVPxVec3@3@PBVPxTransform@3@@Z 10023350 f i PhysX3Extensions:ExtRigidBodyExt.obj
 0001:000224a0       ?setCapsule@InertiaTensorComputer@Ext@physx@@QAEXHMMPBVPxTransform@3@@Z 100234a0 f i PhysX3Extensions:ExtRigidBodyExt.obj
 0001:00022610       ?setDiagonal@InertiaTensorComputer@Ext@physx@@QAEXMABVPxVec3@3@@Z 10023610 f i PhysX3Extensions:ExtRigidBodyExt.obj
 0001:00022680       ?setSphere@InertiaTensorComputer@Ext@physx@@QAEXMPBVPxTransform@3@@Z 10023680 f i PhysX3Extensions:ExtRigidBodyExt.obj
 0001:00022850       ?size@?$Array@PAVPxShape@physx@@V?$InlineAllocator@$0EA@V?$ReflectionAllocator@PAVPxShape@physx@@@shdfnd@physx@@@shdfnd@2@@shdfnd@physx@@QBEIXZ 10023850 f i PhysX3Extensions:ExtRigidBodyExt.obj
 0001:00022860       ?transform@InertiaTensorComputer@Ext@physx@@QAEXABVPxTransform@3@@Z 10023860 f i PhysX3Extensions:ExtRigidBodyExt.obj
 0001:000229a0       ?transformFast@PxBounds3@physx@@SA?AV12@ABVPxTransform@2@ABV12@@Z 100239a0 f i PhysX3Extensions:ExtRigidBodyExt.obj
 0001:00022d40       ?volume@Ext@physx@@YAMABVPxVec3@2@@Z 10023d40 f i PhysX3Extensions:ExtRigidBodyExt.obj
 0001:00022db0       ?zero@InertiaTensorComputer@Ext@physx@@QAEXXZ 10023db0 f i PhysX3Extensions:ExtRigidBodyExt.obj
 0001:00022e0b       __get_purecall_handler     10023e0b f   LIBCMT:purevirt.obj
 0001:00022e18       __purecall                 10023e18 f   LIBCMT:purevirt.obj
 0001:00022e3a       __set_purecall_handler     10023e3a f   LIBCMT:purevirt.obj
 0001:00022e5f       ??3@YAXPAX@Z               10023e5f f   LIBCMT:delete.obj
 0001:00022e64       __fpmath                   10023e64 f   LIBCMT:fpinit.obj
 0001:00022e7b       ___setfflag                10023e7b f   LIBCMT:fpinit.obj
 0001:00022e8e       __cfltcvt_init             10023e8e f   LIBCMT:fpinit.obj
 0001:00022eee       ??0type_info@@AAE@ABV0@@Z  10023eee f   LIBCMT:typinfo.obj
 0001:00022ef9       ??1type_info@@UAE@XZ       10023ef9 f   LIBCMT:typinfo.obj
 0001:00022f07       ??4type_info@@AAEAAV0@ABV0@@Z 10023f07 f   LIBCMT:typinfo.obj
 0001:00022f0c       ??8type_info@@QBE_NABV0@@Z 10023f0c f   LIBCMT:typinfo.obj
 0001:00022f2a       ??9type_info@@QBE_NABV0@@Z 10023f2a f   LIBCMT:typinfo.obj
 0001:00022f49       ??_Gtype_info@@UAEPAXI@Z   10023f49 f i LIBCMT:typinfo.obj
 0001:00022f49       ??_Etype_info@@UAEPAXI@Z   10023f49 f i LIBCMT:typinfo.obj
 0001:00022f68       ?_name_internal_method@type_info@@QBEPBDPAU__type_info_node@@@Z 10023f68 f   LIBCMT:typinfo.obj
 0001:00022f7a       ?_type_info_dtor_internal_method@type_info@@QAEXXZ 10023f7a f   LIBCMT:typinfo.obj
 0001:00022f82       ?before@type_info@@QBE_NABV1@@Z 10023f82 f   LIBCMT:typinfo.obj
 0001:00022fa2       ?name@type_info@@QBEPBDPAU__type_info_node@@@Z 10023fa2 f   LIBCMT:typinfo.obj
 0001:00022fb4       ?raw_name@type_info@@QBEPBDXZ 10023fb4 f   LIBCMT:typinfo.obj
 0001:00022fb8       ??_V@YAXPAX@Z              10023fb8 f   LIBCMT:delete2.obj
 0001:00022fbd       ___clean_type_info_names   10023fbd f   LIBCMT:tncleanup.obj
 0001:00022fd0       __alloca_probe_16          10023fd0 f   LIBCMT:alloca16.obj
 0001:00022fe6       __alloca_probe_8           10023fe6     LIBCMT:alloca16.obj
 0001:00023000       __ftoui3                   10024000 f   LIBCMT:ftol3.obj
 0001:0002300f       __ftoul3                   1002400f f   LIBCMT:ftol3.obj
 0001:0002301e       __ftol3                    1002401e f   LIBCMT:ftol3.obj
 0001:0002302b       __ftol3_NaN                1002402b f   LIBCMT:ftol3.obj
 0001:00023043       __ftol3_work               10024043 f   LIBCMT:ftol3.obj
 0001:000230c9       __ftol3_common             100240c9 f   LIBCMT:ftol3.obj
 0001:0002318b       __ftol3_arg_error          1002418b f   LIBCMT:ftol3.obj
 0001:0002319d       __ftol3_except             1002419d f   LIBCMT:ftol3.obj
 0001:000231e1       __dtoui3                   100241e1 f   LIBCMT:ftol3.obj
 0001:000231f0       __dtoul3                   100241f0 f   LIBCMT:ftol3.obj
 0001:000231ff       __dtol3                    100241ff f   LIBCMT:ftol3.obj
 0001:0002320c       __dtol3_NaN                1002420c f   LIBCMT:ftol3.obj
 0001:00023229       __dtol3_work               10024229 f   LIBCMT:ftol3.obj
 0001:0002330e       __ultod3                   1002430e f   LIBCMT:ftol3.obj
 0001:0002339f       __ltod3                    1002439f f   LIBCMT:ftol3.obj
 0001:000233d0       _memcpy                    100243d0 f   LIBCMT:memcpy.obj
 0001:00023a20       _memset                    10024a20 f   LIBCMT:memset.obj
 0001:00023ab0       __CRT_INIT@12              10024ab0 f   LIBCMT:dllcrt0.obj
 0001:00023c22       __DllMainCRTStartup@12     10024c22 f   LIBCMT:dllcrt0.obj
 0001:00023d53       ___DllXcptFilter           10024d53 f   LIBCMT:dllcrt0.obj
 0001:00023d78       __chgsign                  10024d78 f   LIBCMT:ieeemisc.obj
 0001:00023da5       __chgsignf                 10024da5 f   LIBCMT:ieeemisc.obj
 0001:00023dc6       __copysign                 10024dc6 f   LIBCMT:ieeemisc.obj
 0001:00023dee       __copysignf                10024dee f   LIBCMT:ieeemisc.obj
 0001:00023e0a       __finite                   10024e0a f   LIBCMT:ieeemisc.obj
 0001:00023e22       __fpclass                  10024e22 f   LIBCMT:ieeemisc.obj
 0001:00023ebe       __isnan                    10024ebe f   LIBCMT:ieeemisc.obj
 0001:00023ef1       __logb                     10024ef1 f   LIBCMT:ieeemisc.obj
 0001:00023fd2       __nextafter                10024fd2 f   LIBCMT:ieeemisc.obj
 0001:00024272       __scalb                    10025272 f   LIBCMT:ieeemisc.obj
 0001:0002428a       __set_abort_behavior       1002528a f   LIBCMT:abort.obj
 0001:000242a9       _abort                     100252a9 f   LIBCMT:abort.obj
 0001:000242ec       ___getlocaleinfo           100252ec f   LIBCMT:inithelp.obj
 0001:000244c5       __initp_misc_purevirt      100254c5 f   LIBCMT:inithelp.obj
 0001:000244d2       __invoke_watson_if_error   100254d2 f i LIBCMT:inithelp.obj
 0001:000244f2       _free                      100254f2 f   LIBCMT:free.obj
 0001:0002452a       ??0_LocaleUpdate@@QAE@PAUlocaleinfo_struct@@@Z 1002552a f i LIBCMT:cvt.obj
 0001:000245b2       ??1_LocaleUpdate@@QAE@XZ   100255b2 f i LIBCMT:cvt.obj
 0001:000245c0       ?GetLocaleT@_LocaleUpdate@@QAEPAUlocaleinfo_struct@@XZ 100255c0 f i LIBCMT:cvt.obj
 0001:000245c3       ?strrchr@@YAPADPADH@Z      100255c3 f i LIBCMT:cvt.obj
 0001:000245cc       __cfltcvt                  100255cc f   LIBCMT:cvt.obj
 0001:000245ed       __cfltcvt_l                100255ed f   LIBCMT:cvt.obj
 0001:00024673       __cftoa                    10025673 f   LIBCMT:cvt.obj
 0001:00024691       __cftoa_l                  10025691 f   LIBCMT:cvt.obj
 0001:000249ed       __cftoe                    100259ed f   LIBCMT:cvt.obj
 0001:00024b5c       __cftoe_l                  10025b5c f   LIBCMT:cvt.obj
 0001:00024c2a       __cftof                    10025c2a f   LIBCMT:cvt.obj
 0001:00024d31       __cftof_l                  10025d31 f   LIBCMT:cvt.obj
 0001:00024df2       __cftog                    10025df2 f   LIBCMT:cvt.obj
 0001:00024e10       __cftog_l                  10025e10 f   LIBCMT:cvt.obj
 0001:00024f0f       __cropzeros                10025f0f f   LIBCMT:cvt.obj
 0001:00024f20       __cropzeros_l              10025f20 f   LIBCMT:cvt.obj
 0001:00024fa0       __fassign                  10025fa0 f   LIBCMT:cvt.obj
 0001:00024fb8       __fassign_l                10025fb8 f   LIBCMT:cvt.obj
 0001:00024ffa       __forcdecpt                10025ffa f   LIBCMT:cvt.obj
 0001:0002500b       __forcdecpt_l              1002600b f   LIBCMT:cvt.obj
 0001:0002507f       __positive                 1002607f f   LIBCMT:cvt.obj
 0001:000250c1       __setdefaultprecision      100260c1 f   LIBCMT:fp8.obj
 0001:000250e8       __initp_misc_cfltcvt_tab   100260e8 f   LIBCMT:cmiscdat.obj
 0001:00025110       _strcmp                    10026110 f   LIBCMT:strcmp.obj
 0001:0002519c       ?_Name_base@type_info@@CAPBDPBV1@PAU__type_info_node@@@Z 1002619c f   LIBCMT:typname.obj
 0001:0002528d       ?_Name_base_internal@type_info@@CAPBDPBV1@PAU__type_info_node@@@Z 1002628d f   LIBCMT:typname.obj
 0001:00025397       ?_Type_info_dtor@type_info@@CAXPAV1@@Z 10026397 f   LIBCMT:typname.obj
 0001:00025408       ?_Type_info_dtor_internal@type_info@@CAXPAV1@@Z 10026408 f   LIBCMT:typname.obj
 0001:00025479       ___clean_type_info_names_internal 10026479 f   LIBCMT:typname.obj
 0001:000254cc       ___unDNameHelper           100264cc f   LIBCMT:typname.obj
 0001:00025500       __chkstk                   10026500 f   LIBCMT:chkstk.obj
 0001:00025500       __alloca_probe             10026500 f   LIBCMT:chkstk.obj
 0001:0002552b       __errcode                  1002652b f   LIBCMT:fpexcept.obj
 0001:0002555d       __except1                  1002655d f   LIBCMT:fpexcept.obj
 0001:00025625       __except2                  10026625 f   LIBCMT:fpexcept.obj
 0001:00025725       __handle_exc               10026725 f   LIBCMT:fpexcept.obj
 0001:00025903       __handle_qnan1             10026903 f   LIBCMT:fpexcept.obj
 0001:00025953       __handle_qnan2             10026953 f   LIBCMT:fpexcept.obj
 0001:000259b3       __raise_exc                100269b3 f   LIBCMT:fpexcept.obj
 0001:000259d4       __raise_exc_ex             100269d4 f   LIBCMT:fpexcept.obj
 0001:00025cb9       __raise_excf               10026cb9 f   LIBCMT:fpexcept.obj
 0001:00025cda       __set_errno_from_matherr   10026cda f   LIBCMT:fpexcept.obj
 0001:00025d07       __umatherr                 10026d07 f   LIBCMT:fpexcept.obj
 0001:00025da7       ___isa_available_init      10026da7 f   LIBCMT:cpu_disp.obj
 0001:00025f20       __VEC_memset               10026f20 f   LIBCMT:p4_memset.obj
 0001:00025fe8       __XcptFilter               10026fe8 f   LIBCMT:winxfltr.obj
 0001:00026143       ___CppXcptFilter           10027143 f   LIBCMT:winxfltr.obj
 0001:00026195       ___get_flsindex            10027195 f   LIBCMT:tidtable.obj
 0001:0002619b       ___threadhandle            1002719b f   LIBCMT:tidtable.obj
 0001:000261a1       ___threadid                100271a1 f   LIBCMT:tidtable.obj
 0001:000261a7       __freefls@4                100271a7 f   LIBCMT:tidtable.obj
 0001:000262dc       __freeptd                  100272dc f   LIBCMT:tidtable.obj
 0001:00026312       __getptd                   10027312 f   LIBCMT:tidtable.obj
 0001:0002632a       __getptd_noexit            1002732a f   LIBCMT:tidtable.obj
 0001:00026399       __initptd                  10027399 f   LIBCMT:tidtable.obj
 0001:0002644c       __mtinit                   1002744c f   LIBCMT:tidtable.obj
 0001:000264c2       __mtterm                   100274c2 f   LIBCMT:tidtable.obj
 0001:000264df       ___copy_path_to_wide_string 100274df f   LIBCMT:crt0dat.obj
 0001:00026591       ___copy_to_char            10027591 f   LIBCMT:crt0dat.obj
 0001:00026646       ___crtCorExitProcess       10027646 f   LIBCMT:crt0dat.obj
 0001:0002667a       ___crtExitProcess          1002767a f   LIBCMT:crt0dat.obj
 0001:00026690       ___freeCrtMemory           10027690 f   LIBCMT:crt0dat.obj
 0001:0002679d       __amsg_exit                1002779d f   LIBCMT:crt0dat.obj
 0001:000267b9       __c_exit                   100277b9 f   LIBCMT:crt0dat.obj
 0001:000267c8       __cexit                    100277c8 f   LIBCMT:crt0dat.obj
 0001:000267d7       __cinit                    100277d7 f   LIBCMT:crt0dat.obj
 0001:0002685b       __exit                     1002785b f   LIBCMT:crt0dat.obj
 0001:0002686f       __exit_app                 1002786f f   LIBCMT:crt0dat.obj
 0001:0002687d       __get_pgmptr               1002787d f   LIBCMT:crt0dat.obj
 0001:000268ac       __get_wpgmptr              100278ac f   LIBCMT:crt0dat.obj
 0001:000268db       __init_pointers            100278db f   LIBCMT:crt0dat.obj
 0001:00026949       __initterm_e               10027949 f   LIBCMT:crt0dat.obj
 0001:0002696b       __lockexit                 1002796b f   LIBCMT:crt0dat.obj
 0001:00026974       __unlockexit               10027974 f   LIBCMT:crt0dat.obj
 0001:00026aac       _exit                      10027aac f   LIBCMT:crt0dat.obj
 0001:00026ac0       __get_heap_handle          10027ac0 f   LIBCMT:heapinit.obj
 0001:00026ac6       __heap_init                10027ac6 f   LIBCMT:heapinit.obj
 0001:00026adb       __heap_term                10027adb f   LIBCMT:heapinit.obj
 0001:00026ae3       __ioinit                   10027ae3 f   LIBCMT:ioinit.obj
 0001:00026d97       __ioterm                   10027d97 f   LIBCMT:ioinit.obj
 0001:00026de9       __set_pgmptr               10027de9 f i LIBCMT:stdargv.obj
 0001:00026df6       __setargv                  10027df6 f   LIBCMT:stdargv.obj
 0001:00027025       __setenvp                  10028025 f   LIBCMT:stdenvp.obj
 0001:00027106       ___security_init_cookie    10028106 f   LIBCMT:gs_support.obj
 0001:000271a2       _DllMain@12                100281a2 f   LIBCMT:dllmain.obj
 0001:000271a8       ___crtGetEnvironmentStringsA 100281a8 f   LIBCMT:a_env.obj
 0001:00027262       ___crtCloseThreadpoolTimer 10028262 f   LIBCMT:winapisupp.obj
 0001:00027279       ___crtCloseThreadpoolWait  10028279 f   LIBCMT:winapisupp.obj
 0001:00027290       ___crtCreateEventExW       10028290 f   LIBCMT:winapisupp.obj
 0001:000272cb       ___crtCreateSemaphoreExW   100282cb f   LIBCMT:winapisupp.obj
 0001:00027305       ___crtCreateSymbolicLinkW  10028305 f   LIBCMT:winapisupp.obj
 0001:0002732e       ___crtCreateThreadpoolTimer 1002832e f   LIBCMT:winapisupp.obj
 0001:0002734f       ___crtCreateThreadpoolWait 1002834f f   LIBCMT:winapisupp.obj
 0001:00027370       ___crtFlsAlloc             10028370 f   LIBCMT:winapisupp.obj
 0001:0002738e       ___crtFlsFree              1002838e f   LIBCMT:winapisupp.obj
 0001:000273ad       ___crtFlsGetValue          100283ad f   LIBCMT:winapisupp.obj
 0001:000273cc       ___crtFlsSetValue          100283cc f   LIBCMT:winapisupp.obj
 0001:000273ee       ___crtFlushProcessWriteBuffers 100283ee f   LIBCMT:winapisupp.obj
 0001:000273fe       ___crtFreeLibraryWhenCallbackReturns 100283fe f   LIBCMT:winapisupp.obj
 0001:00027418       ___crtGetCurrentProcessorNumber 10028418 f   LIBCMT:winapisupp.obj
 0001:0002742a       ___crtGetFileInformationByHandleEx 1002842a f   LIBCMT:winapisupp.obj
 0001:00027456       ___crtGetLogicalProcessorInformation 10028456 f   LIBCMT:winapisupp.obj
 0001:0002747c       ___crtGetShowWindowMode    1002847c f   LIBCMT:winapisupp.obj
 0001:0002749f       ___crtGetTickCount64       1002849f f   LIBCMT:winapisupp.obj
 0001:000274b7       ___crtInitializeCriticalSectionEx 100284b7 f   LIBCMT:winapisupp.obj
 0001:000274e5       ___crtIsPackagedApp        100284e5 f   LIBCMT:winapisupp.obj
 0001:00027525       ___crtLoadWinApiPointers   10028525 f   LIBCMT:winapisupp.obj
 0001:000277b0       ___crtSetFileInformationByHandle 100287b0 f   LIBCMT:winapisupp.obj
 0001:000277dc       ___crtSetThreadStackGuarantee 100287dc f   LIBCMT:winapisupp.obj
 0001:000277f7       ___crtSetThreadpoolTimer   100287f7 f   LIBCMT:winapisupp.obj
 0001:00027817       ___crtSetThreadpoolWait    10028817 f   LIBCMT:winapisupp.obj
 0001:00027834       ___crtSetUnhandledExceptionFilter 10028834 f   LIBCMT:winapisupp.obj
 0001:00027842       ___crtSleep                10028842 f   LIBCMT:winapisupp.obj
 0001:00027850       ___crtTerminateProcess     10028850 f   LIBCMT:winapisupp.obj
 0001:00027865       ___crtUnhandledException   10028865 f   LIBCMT:winapisupp.obj
 0001:0002787b       ___crtWaitForThreadpoolTimerCallbacks 1002887b f   LIBCMT:winapisupp.obj
 0001:00027895       __calloc_crt               10028895 f   LIBCMT:crtheap.obj
 0001:000278dd       __malloc_crt               100288dd f   LIBCMT:crtheap.obj
 0001:00027924       __realloc_crt              10028924 f   LIBCMT:crtheap.obj
 0001:0002796e       __recalloc_crt             1002896e f   LIBCMT:crtheap.obj
 0001:000279bc       __set_malloc_crt_max_wait  100289bc f   LIBCMT:crtheap.obj
 0001:000279cf       _wait_a_bit                100289cf f i LIBCMT:crtheap.obj
 0001:000279f3       __RTC_Initialize           100289f3 f   LIBCMT:initsect.obj
 0001:00027a13       __RTC_Terminate            10028a13 f   LIBCMT:initsect.obj
 0001:00027a40       __SEH_prolog4              10028a40 f   LIBCMT:sehprolg4.obj
 0001:00027a85       __SEH_epilog4              10028a85 f   LIBCMT:sehprolg4.obj
 0001:00027ae0       __except_handler4          10028ae0 f   LIBCMT:chandler4.obj
 0001:00027c74       __add_exp                  10028c74 f   LIBCMT:util.obj
 0001:00027ca3       __decomp                   10028ca3 f   LIBCMT:util.obj
 0001:00027d75       __get_exp                  10028d75 f   LIBCMT:util.obj
 0001:00027d8e       __set_bexp                 10028d8e f   LIBCMT:util.obj
 0001:00027db7       __set_exp                  10028db7 f   LIBCMT:util.obj
 0001:00027de6       __sptype                   10028de6 f   LIBCMT:util.obj
 0001:00027e41       ___clrfp_sse2              10028e41 f   LIBCMT:fpctrl.obj
 0001:00027e62       ___ctrlfp_sse2             10028e62 f   LIBCMT:fpctrl.obj
 0001:00027e9b       ___fclrf_sse2              10028e9b f   LIBCMT:fpctrl.obj
 0001:00027eb8       ___get_fpsr_sse2           10028eb8 f   LIBCMT:fpctrl.obj
 0001:00027ed4       ___set_fpsr_sse2           10028ed4 f   LIBCMT:fpctrl.obj
 0001:00027f4a       ___set_statfp_sse2         10028f4a f   LIBCMT:fpctrl.obj
 0001:00027f63       ___statfp_sse2             10028f63 f   LIBCMT:fpctrl.obj
 0001:00027f78       __clrfp                    10028f78 f   LIBCMT:fpctrl.obj
 0001:00027f89       __ctrlfp                   10028f89 f   LIBCMT:fpctrl.obj
 0001:00027fb4       __set_statfp               10028fb4 f   LIBCMT:fpctrl.obj
 0001:0002800c       __statfp                   1002900c f   LIBCMT:fpctrl.obj
 0001:0002801c       _ldexp                     1002901c f   LIBCMT:ldexp.obj
 0001:00028208       ___fpecode                 10029208 f   LIBCMT:winsig.obj
 0001:00028211       ___get_sigabrt             10029211 f   LIBCMT:winsig.obj
 0001:0002821e       ___pxcptinfoptrs           1002921e f   LIBCMT:winsig.obj
 0001:00028227       __initp_misc_winsig        10029227 f   LIBCMT:winsig.obj
 0001:000282e8       _raise                     100292e8 f   LIBCMT:winsig.obj
 0001:000284dd       _signal                    100294dd f   LIBCMT:winsig.obj
 0001:00028734       ?_invalid_parameter@@YAXPBG00II@Z 10029734 f   LIBCMT:invarg.obj
 0001:00028739       ?_invoke_watson@@YAXPBG00II@Z 10029739 f   LIBCMT:invarg.obj
 0001:00028751       __call_reportfault         10029751 f   LIBCMT:invarg.obj
 0001:00028876       __get_invalid_parameter_handler 10029876 f   LIBCMT:invarg.obj
 0001:00028883       __initp_misc_invarg        10029883 f   LIBCMT:invarg.obj
 0001:00028890       __invalid_parameter        10029890 f   LIBCMT:invarg.obj
 0001:000288bb       __invalid_parameter_noinfo 100298bb f   LIBCMT:invarg.obj
 0001:000288cb       __invalid_parameter_noinfo_noreturn 100298cb f   LIBCMT:invarg.obj
 0001:000288e6       __invoke_watson            100298e6 f   LIBCMT:invarg.obj
 0001:00028911       __set_invalid_parameter_handler 10029911 f   LIBCMT:invarg.obj
 0001:00028936       _strncpy_s                 10029936 f   LIBCMT:strncpy_s.obj
 0001:00028abe       __MallocaIsSizeInRange     10029abe f i LIBCMT:a_loc.obj
 0001:00028acf       __MarkAllocaS              10029acf f i LIBCMT:a_loc.obj
 0001:00028ae3       ___crtGetLocaleInfoA       10029ae3 f   LIBCMT:a_loc.obj
 0001:00028b1d       __freea                    10029b1d f i LIBCMT:a_loc.obj
 0001:00028b3b       _GetTableIndexFromLcid     10029b3b f   LIBCMT:winapinls.obj
 0001:00028b70       _GetTableIndexFromLocaleName 10029b70 f   LIBCMT:winapinls.obj
 0001:00028bbe       ___crtCompareStringEx      10029bbe f   LIBCMT:winapinls.obj
 0001:00028c0a       ___crtDownlevelLCIDToLocaleName 10029c0a f   LIBCMT:winapinls.obj
 0001:00028c86       ___crtDownlevelLocaleNameToLCID 10029c86 f   LIBCMT:winapinls.obj
 0001:00028cc4       ___crtEnumSystemLocalesEx  10029cc4 f   LIBCMT:winapinls.obj
 0001:00028d01       ___crtGetDateFormatEx      10029d01 f   LIBCMT:winapinls.obj
 0001:00028d4a       ___crtGetLocaleInfoEx      10029d4a f   LIBCMT:winapinls.obj
 0001:00028d79       ___crtGetTimeFormatEx      10029d79 f   LIBCMT:winapinls.obj
 0001:00028dae       ___crtGetUserDefaultLocaleName 10029dae f   LIBCMT:winapinls.obj
 0001:00028dd9       ___crtIsValidLocaleName    10029dd9 f   LIBCMT:winapinls.obj
 0001:00028e04       ___crtLCMapStringEx        10029e04 f   LIBCMT:winapinls.obj
 0001:00028e50       ___wcsnicmp_ascii          10029e50 f   LIBCMT:winapinls.obj
 0001:00028ebe       @__security_check_cookie@4 10029ebe f   LIBCMT:secchk.obj
 0001:00028ecd       ___doserrno                10029ecd f   LIBCMT:dosmap.obj
 0001:00028ee0       __dosmaperr                10029ee0 f   LIBCMT:dosmap.obj
 0001:00028f01       __errno                    10029f01 f   LIBCMT:dosmap.obj
 0001:00028f14       __get_doserrno             10029f14 f   LIBCMT:dosmap.obj
 0001:00028f37       __get_errno                10029f37 f   LIBCMT:dosmap.obj
 0001:00028f5a       __get_errno_from_oserr     10029f5a f   LIBCMT:dosmap.obj
 0001:00028f9b       __set_doserrno             10029f9b f   LIBCMT:dosmap.obj
 0001:00028fba       __set_errno                10029fba f   LIBCMT:dosmap.obj
 0001:00028fd9       ___addlocaleref            10029fd9 f   LIBCMT:localref.obj
 0001:0002906e       ___freetlocinfo            1002a06e f   LIBCMT:localref.obj
 0001:000291c8       ___removelocaleref         1002a1c8 f   LIBCMT:localref.obj
 0001:00029268       ___updatetlocinfo          1002a268 f   LIBCMT:localref.obj
 0001:000292e8       __updatetlocinfoEx_nolock  1002a2e8 f   LIBCMT:localref.obj
 0001:00029333       ___initmbctable            1002a333 f   LIBCMT:mbctype.obj
 0001:000295ea       ___updatetmbcinfo          1002a5ea f   LIBCMT:mbctype.obj
 0001:00029690       __getmbcp                  1002a690 f   LIBCMT:mbctype.obj
 0001:000296c1       __setmbcp                  1002a6c1 f   LIBCMT:mbctype.obj
 0001:00029869       __setmbcp_nolock           1002a869 f   LIBCMT:mbctype.obj
 0001:00029a54       ___isascii                 1002aa54 f i LIBCMT:_ctype.obj
 0001:00029a64       ___iscsym                  1002aa64 f i LIBCMT:_ctype.obj
 0001:00029a84       ___iscsymf                 1002aa84 f i LIBCMT:_ctype.obj
 0001:00029aa1       ___toascii                 1002aaa1 f i LIBCMT:_ctype.obj
 0001:00029aac       __isalnum_l                1002aaac f i LIBCMT:_ctype.obj
 0001:00029b04       __isalpha_l                1002ab04 f i LIBCMT:_ctype.obj
 0001:00029b5c       __isblank_l                1002ab5c f i LIBCMT:_ctype.obj
 0001:00029bb6       __iscntrl_l                1002abb6 f i LIBCMT:_ctype.obj
 0001:00029c08       __iscsym_l                 1002ac08 f i LIBCMT:_ctype.obj
 0001:00029c29       __iscsymf_l                1002ac29 f i LIBCMT:_ctype.obj
 0001:00029c4a       __isdigit_l                1002ac4a f i LIBCMT:_ctype.obj
 0001:00029c9c       __isgraph_l                1002ac9c f i LIBCMT:_ctype.obj
 0001:00029cf4       __islower_l                1002acf4 f i LIBCMT:_ctype.obj
 0001:00029d46       __isprint_l                1002ad46 f i LIBCMT:_ctype.obj
 0001:00029d9e       __ispunct_l                1002ad9e f i LIBCMT:_ctype.obj
 0001:00029df0       __isspace_l                1002adf0 f i LIBCMT:_ctype.obj
 0001:00029e42       __isupper_l                1002ae42 f i LIBCMT:_ctype.obj
 0001:00029e94       __isxdigit_l               1002ae94 f i LIBCMT:_ctype.obj
 0001:00029eec       _isalnum                   1002aeec f i LIBCMT:_ctype.obj
 0001:00029f19       _isalpha                   1002af19 f i LIBCMT:_ctype.obj
 0001:00029f46       _isblank                   1002af46 f i LIBCMT:_ctype.obj
 0001:00029f7b       _iscntrl                   1002af7b f i LIBCMT:_ctype.obj
 0001:00029fa6       _isdigit                   1002afa6 f i LIBCMT:_ctype.obj
 0001:00029fd1       _isgraph                   1002afd1 f i LIBCMT:_ctype.obj
 0001:00029ffe       _islower                   1002affe f i LIBCMT:_ctype.obj
 0001:0002a029       _isprint                   1002b029 f i LIBCMT:_ctype.obj
 0001:0002a056       _ispunct                   1002b056 f i LIBCMT:_ctype.obj
 0001:0002a081       _isspace                   1002b081 f i LIBCMT:_ctype.obj
 0001:0002a0ac       _isupper                   1002b0ac f i LIBCMT:_ctype.obj
 0001:0002a0d7       _isxdigit                  1002b0d7 f i LIBCMT:_ctype.obj
 0001:0002a104       __tolower                  1002b104 f   LIBCMT:tolower.obj
 0001:0002a10f       __tolower_l                1002b10f f   LIBCMT:tolower.obj
 0001:0002a252       _tolower                   1002b252 f   LIBCMT:tolower.obj
 0001:0002a27e       _strcpy_s                  1002b27e f   LIBCMT:strcpy_s.obj
 0001:0002a2e0       _strlen                    1002b2e0 f   LIBCMT:strlen.obj
 0001:0002a370       _memmove                   1002b370 f   LIBCMT:memmove.obj
 0001:0002a9c0       _strrchr                   1002b9c0 f   LIBCMT:strrchr.obj
 0001:0002aaf7       __fptostr                  1002baf7 f   LIBCMT:_fptostr.obj
 0001:0002aba7       ___crt_atoflt_l            1002bba7 f   LIBCMT:atodbl.obj
 0001:0002ac4b       __atodbl                   1002bc4b f   LIBCMT:atodbl.obj
 0001:0002ac60       __atodbl_l                 1002bc60 f   LIBCMT:atodbl.obj
 0001:0002acee       __atoflt                   1002bcee f   LIBCMT:atodbl.obj
 0001:0002ad03       __atoflt_l                 1002bd03 f   LIBCMT:atodbl.obj
 0001:0002ad1b       __atoldbl                  1002bd1b f   LIBCMT:atodbl.obj
 0001:0002ad30       __atoldbl_l                1002bd30 f   LIBCMT:atodbl.obj
 0001:0002adbf       ___dtold                   1002bdbf f   LIBCMT:cfout.obj
 0001:0002ae87       __fltout2                  1002be87 f   LIBCMT:cfout.obj
 0001:0002af20       __alldvrm                  1002bf20 f   LIBCMT:lldvrm.obj
 0001:0002b000       __aullshr                  1002c000 f   LIBCMT:ullshr.obj
 0001:0002b01f       __get_output_format        1002c01f f   LIBCMT:outputformat.obj
 0001:0002b025       __set_output_format        1002c025 f   LIBCMT:outputformat.obj
 0001:0002b057       __controlfp_s              1002c057 f   LIBCMT:contrlfp.obj
 0001:0002b0b4       __fptrap                   1002c0b4 f   LIBCMT:crt0fp.obj
 0001:0002b0bd       __lock                     1002c0bd f   LIBCMT:mlock.obj
 0001:0002b0f1       __lockerr_exit             1002c0f1 f   LIBCMT:mlock.obj
 0001:0002b111       __mtdeletelocks            1002c111 f   LIBCMT:mlock.obj
 0001:0002b165       __mtinitlocknum            1002c165 f   LIBCMT:mlock.obj
 0001:0002b20e       __mtinitlocks              1002c20e f   LIBCMT:mlock.obj
 0001:0002b247       __unlock                   1002c247 f   LIBCMT:mlock.obj
 0001:0002b25c       __heap_alloc               1002c25c f i LIBCMT:malloc.obj
 0001:0002b299       _malloc                    1002c299 f   LIBCMT:malloc.obj
 0001:0002b32b       ??0Block@_HeapManager@@QAE@XZ 1002c32b f i LIBCMT:undname.obj
 0001:0002b331       ??0DName@@QAE@AAPBDD@Z     1002c331 f   LIBCMT:undname.obj
 0001:0002b3ea       ??0DName@@QAE@ABV0@@Z      1002c3ea f i LIBCMT:undname.obj
 0001:0002b400       ??0DName@@QAE@D@Z          1002c400 f   LIBCMT:undname.obj
 0001:0002b42c       ??0DName@@QAE@PAV0@@Z      1002c42c f   LIBCMT:undname.obj
 0001:0002b479       ??0DName@@QAE@PBD@Z        1002c479 f   LIBCMT:undname.obj
 0001:0002b4b3       ??0DName@@QAE@W4DNameStatus@@@Z 1002c4b3 f   LIBCMT:undname.obj
 0001:0002b4f6       ??0DName@@QAE@XZ           1002c4f6 f i LIBCMT:undname.obj
 0001:0002b507       ??0DName@@QAE@_J@Z         1002c507 f   LIBCMT:undname.obj
 0001:0002b59a       ??0DName@@QAE@_K@Z         1002c59a f   LIBCMT:undname.obj
 0001:0002b607       ??0DNameNode@@IAE@XZ       1002c607 f   LIBCMT:undname.obj
 0001:0002b610       ??0DNameStatusNode@@AAE@W4DNameStatus@@@Z 1002c610 f   LIBCMT:undname.obj
 0001:0002b633       ??0Replicator@@QAE@XZ      1002c633 f i LIBCMT:undname.obj
 0001:0002b639       ??0UnDecorator@@QAE@PADPBDHP6APADJ@ZK@Z 1002c639 f i LIBCMT:undname.obj
 0001:0002b6a2       ??0charNode@@QAE@D@Z       1002c6a2 f   LIBCMT:undname.obj
 0001:0002b6b7       ??0pDNameNode@@QAE@PAVDName@@@Z 1002c6b7 f   LIBCMT:undname.obj
 0001:0002b6df       ??0pairNode@@QAE@PAVDNameNode@@0@Z 1002c6df f   LIBCMT:undname.obj
 0001:0002b6fe       ??0pcharNode@@QAE@PBDH@Z   1002c6fe f   LIBCMT:undname.obj
 0001:0002b755       ??2@YAPAXIAAV_HeapManager@@H@Z 1002c755 f i LIBCMT:undname.obj
 0001:0002b76a       ??4DName@@QAEAAV0@ABV0@@Z  1002c76a f   LIBCMT:undname.obj
 0001:0002b780       ??4DName@@QAEAAV0@D@Z      1002c780 f i LIBCMT:undname.obj
 0001:0002b7ac       ??4DName@@QAEAAV0@PAV0@@Z  1002c7ac f   LIBCMT:undname.obj
 0001:0002b7f5       ??4DName@@QAEAAV0@PBD@Z    1002c7f5 f   LIBCMT:undname.obj
 0001:0002b827       ??4DName@@QAEAAV0@W4DNameStatus@@@Z 1002c827 f   LIBCMT:undname.obj
 0001:0002b85c       ??AReplicator@@QBE?AVDName@@H@Z 1002c85c f   LIBCMT:undname.obj
 0001:0002b898       ??BUnDecorator@@QAEPADXZ   1002c898 f i LIBCMT:undname.obj
 0001:0002ba17       ??H@YA?AVDName@@DABV0@@Z   1002ca17 f i LIBCMT:undname.obj
 0001:0002ba3b       ??H@YA?AVDName@@PBDABV0@@Z 1002ca3b f i LIBCMT:undname.obj
 0001:0002ba5f       ??H@YA?AVDName@@W4DNameStatus@@ABV0@@Z 1002ca5f f i LIBCMT:undname.obj
 0001:0002ba83       ??HDName@@QBE?AV0@ABV0@@Z  1002ca83 f   LIBCMT:undname.obj
 0001:0002baa5       ??HDName@@QBE?AV0@D@Z      1002caa5 f   LIBCMT:undname.obj
 0001:0002bac7       ??HDName@@QBE?AV0@PAV0@@Z  1002cac7 f   LIBCMT:undname.obj
 0001:0002bae9       ??HDName@@QBE?AV0@PBD@Z    1002cae9 f   LIBCMT:undname.obj
 0001:0002bb0b       ??HDName@@QBE?AV0@W4DNameStatus@@@Z 1002cb0b f   LIBCMT:undname.obj
 0001:0002bb2d       ??YDName@@QAEAAV0@ABV0@@Z  1002cb2d f   LIBCMT:undname.obj
 0001:0002bb70       ??YDName@@QAEAAV0@D@Z      1002cb70 f   LIBCMT:undname.obj
 0001:0002bbc0       ??YDName@@QAEAAV0@PAV0@@Z  1002cbc0 f   LIBCMT:undname.obj
 0001:0002bc25       ??YDName@@QAEAAV0@PBD@Z    1002cc25 f   LIBCMT:undname.obj
 0001:0002bc86       ??YDName@@QAEAAV0@W4DNameStatus@@@Z 1002cc86 f   LIBCMT:undname.obj
 0001:0002bcc6       ??YReplicator@@QAEAAV0@ABVDName@@@Z 1002ccc6 f   LIBCMT:undname.obj
 0001:0002bd10       ??_5DName@@QAEAAV0@ABV0@@Z 1002cd10 f   LIBCMT:undname.obj
 0001:0002bd2c       ?Constructor@_HeapManager@@QAEXP6APAXI@ZP6AXPAX@Z@Z 1002cd2c f i LIBCMT:undname.obj
 0001:0002bd49       ?Destructor@_HeapManager@@QAEXXZ 1002cd49 f i LIBCMT:undname.obj
 0001:0002bd6f       ?UScore@UnDecorator@@SAPBDW4Tokens@@@Z 1002cd6f f   LIBCMT:undname.obj
 0001:0002bd8c       ?append@DName@@AAEXPAVDNameNode@@@Z 1002cd8c f   LIBCMT:undname.obj
 0001:0002bdd2       ?composeDeclaration@UnDecorator@@CA?AVDName@@ABV2@@Z 1002cdd2 f i LIBCMT:undname.obj
 0001:0002cb08       ?doAccessSpecifiers@UnDecorator@@SAHXZ 1002db08 f i LIBCMT:undname.obj
 0001:0002cb16       ?doAllocationLanguage@UnDecorator@@SAHXZ 1002db16 f i LIBCMT:undname.obj
 0001:0002cb24       ?doAllocationModel@UnDecorator@@SAHXZ 1002db24 f i LIBCMT:undname.obj
 0001:0002cb32       ?doEcsu@UnDecorator@@SAHXZ 1002db32 f i LIBCMT:undname.obj
 0001:0002cb40       ?doEllipsis@UnDecorator@@SAHXZ 1002db40 f i LIBCMT:undname.obj
 0001:0002cb4e       ?doFunctionReturns@UnDecorator@@SAHXZ 1002db4e f i LIBCMT:undname.obj
 0001:0002cb5c       ?doMSKeywords@UnDecorator@@SAHXZ 1002db5c f i LIBCMT:undname.obj
 0001:0002cb69       ?doMemberTypes@UnDecorator@@SAHXZ 1002db69 f i LIBCMT:undname.obj
 0001:0002cb77       ?doNameOnly@UnDecorator@@SAHXZ 1002db77 f i LIBCMT:undname.obj
 0001:0002cb82       ?doNoIdentCharCheck@UnDecorator@@SAHXZ 1002db82 f i LIBCMT:undname.obj
 0001:0002cb8d       ?doPchar@DName@@AAEXPBDH@Z 1002db8d f   LIBCMT:undname.obj
 0001:0002cc15       ?doPtr64@UnDecorator@@SAHXZ 1002dc15 f i LIBCMT:undname.obj
 0001:0002cc23       ?doRestrictionSpec@UnDecorator@@SAHXZ 1002dc23 f i LIBCMT:undname.obj
 0001:0002cc31       ?doThisTypes@UnDecorator@@SAHXZ 1002dc31 f i LIBCMT:undname.obj
 0001:0002cc43       ?doThrowTypes@UnDecorator@@SAHXZ 1002dc43 f i LIBCMT:undname.obj
 0001:0002cc51       ?doTypeOnly@UnDecorator@@SAHXZ 1002dc51 f i LIBCMT:undname.obj
 0001:0002cc5c       ?doUnderScore@UnDecorator@@SAHXZ 1002dc5c f i LIBCMT:undname.obj
 0001:0002cc67       ?getArgumentList@UnDecorator@@CA?AVDName@@XZ 1002dc67 f   LIBCMT:undname.obj
 0001:0002cd73       ?getArgumentTypes@UnDecorator@@CA?AVDName@@XZ 1002dd73 f   LIBCMT:undname.obj
 0001:0002ce51       ?getArrayType@UnDecorator@@CA?AVDName@@ABV2@@Z 1002de51 f i LIBCMT:undname.obj
 0001:0002d053       ?getBasedType@UnDecorator@@CA?AVDName@@XZ 1002e053 f   LIBCMT:undname.obj
 0001:0002d0ea       ?getBasicDataType@UnDecorator@@CA?AVDName@@ABV2@@Z 1002e0ea f   LIBCMT:undname.obj
 0001:0002d4c1       ?getCallIndex@UnDecorator@@CA?AVDName@@XZ 1002e4c1 f i LIBCMT:undname.obj
 0001:0002d4d5       ?getCallingConvention@UnDecorator@@CA?AVDName@@XZ 1002e4d5 f   LIBCMT:undname.obj
 0001:0002d594       ?getDataIndirectType@UnDecorator@@CA?AVDName@@ABV2@PBD0H@Z 1002e594 f   LIBCMT:undname.obj
 0001:0002db31       ?getDataIndirectType@UnDecorator@@CA?AVDName@@XZ 1002eb31 f i LIBCMT:undname.obj
 0001:0002db6a       ?getDataType@UnDecorator@@CA?AVDName@@PAV2@@Z 1002eb6a f   LIBCMT:undname.obj
 0001:0002dc3c       ?getDecoratedName@UnDecorator@@CA?AVDName@@XZ 1002ec3c f   LIBCMT:undname.obj
 0001:0002de88       ?getDimension@UnDecorator@@CA?AVDName@@_N@Z 1002ee88 f   LIBCMT:undname.obj
 0001:0002dfbf       ?getDispatchTarget@UnDecorator@@CA?AVDName@@XZ 1002efbf f   LIBCMT:undname.obj
 0001:0002e01a       ?getDisplacement@UnDecorator@@CA?AVDName@@XZ 1002f01a f i LIBCMT:undname.obj
 0001:0002e02e       ?getECSUDataType@UnDecorator@@CA?AVDName@@XZ 1002f02e f   LIBCMT:undname.obj
 0001:0002e141       ?getECSUName@UnDecorator@@CA?AVDName@@XZ 1002f141 f i LIBCMT:undname.obj
 0001:0002e152       ?getEnumType@UnDecorator@@CA?AVDName@@XZ 1002f152 f i LIBCMT:undname.obj
 0001:0002e236       ?getExtendedDataIndirectType@UnDecorator@@CA?AVDName@@AAPBDAA_NH@Z 1002f236 f   LIBCMT:undname.obj
 0001:0002e3db       ?getExternalDataType@UnDecorator@@CA?AVDName@@ABV2@@Z 1002f3db f i LIBCMT:undname.obj
 0001:0002e454       ?getFunctionIndirectType@UnDecorator@@CA?AVDName@@ABV2@@Z 1002f454 f   LIBCMT:undname.obj
 0001:0002e84a       ?getGuardNumber@UnDecorator@@CA?AVDName@@XZ 1002f84a f i LIBCMT:undname.obj
 0001:0002e85e       ?getLastChar@DName@@QBEDXZ 1002f85e f i LIBCMT:undname.obj
 0001:0002e86c       ?getLastChar@DNameStatusNode@@UBEDXZ 1002f86c f i LIBCMT:undname.obj
 0001:0002e878       ?getLastChar@charNode@@UBEDXZ 1002f878 f i LIBCMT:undname.obj
 0001:0002e87c       ?getLastChar@pDNameNode@@UBEDXZ 1002f87c f i LIBCMT:undname.obj
 0001:0002e891       ?getLastChar@pairNode@@UBEDXZ 1002f891 f i LIBCMT:undname.obj
 0001:0002e8ab       ?getLastChar@pcharNode@@UBEDXZ 1002f8ab f i LIBCMT:undname.obj
 0001:0002e8bd       ?getLexicalFrame@UnDecorator@@CA?AVDName@@XZ 1002f8bd f i LIBCMT:undname.obj
 0001:0002e8fa       ?getMemory@_HeapManager@@QAEPAXIH@Z 1002f8fa f   LIBCMT:undname.obj
 0001:0002e97f       ?getNumberOfDimensions@UnDecorator@@CAHXZ 1002f97f f   LIBCMT:undname.obj
 0001:0002e9e0       ?getOperatorName@UnDecorator@@CA?AVDName@@_NPA_N@Z 1002f9e0 f i LIBCMT:undname.obj
 0001:0002efba       ?getPointerType@UnDecorator@@CA?AVDName@@ABV2@0@Z 1002ffba f i LIBCMT:undname.obj
 0001:0002efd8       ?getPointerTypeArray@UnDecorator@@CA?AVDName@@ABV2@0@Z 1002ffd8 f i LIBCMT:undname.obj
 0001:0002eff8       ?getPrimaryDataType@UnDecorator@@CA?AVDName@@ABV2@@Z 1002fff8 f   LIBCMT:undname.obj
 0001:0002f1b0       ?getPtrRefDataType@UnDecorator@@CA?AVDName@@ABV2@H@Z 100301b0 f i LIBCMT:undname.obj
 0001:0002f29a       ?getPtrRefType@UnDecorator@@CA?AVDName@@ABV2@0PBD@Z 1003029a f   LIBCMT:undname.obj
 0001:0002f396       ?getReferenceType@UnDecorator@@CA?AVDName@@ABV2@0PBD@Z 10030396 f i LIBCMT:undname.obj
 0001:0002f3b2       ?getRestrictionSpec@UnDecorator@@CA?AVDName@@XZ 100303b2 f   LIBCMT:undname.obj
 0001:0002f4a0       ?getReturnType@UnDecorator@@CA?AVDName@@PAV2@@Z 100304a0 f   LIBCMT:undname.obj
 0001:0002f4cf       ?getScope@UnDecorator@@CA?AVDName@@XZ 100304cf f   LIBCMT:undname.obj
 0001:0002f8a6       ?getScopedName@UnDecorator@@CA?AVDName@@XZ 100308a6 f   LIBCMT:undname.obj
 0001:0002f9a1       ?getSignedDimension@UnDecorator@@CA?AVDName@@XZ 100309a1 f   LIBCMT:undname.obj
 0001:0002f9f4       ?getStorageConvention@UnDecorator@@CA?AVDName@@XZ 100309f4 f i LIBCMT:undname.obj
 0001:0002fa05       ?getString@DName@@QBEPADPAD0@Z 10030a05 f i LIBCMT:undname.obj
 0001:0002fa1b       ?getString@DName@@QBEPADPADH@Z 10030a1b f i LIBCMT:undname.obj
 0001:0002fa79       ?getString@DNameStatusNode@@UBEPADPAD0@Z 10030a79 f i LIBCMT:undname.obj
 0001:0002faa0       ?getString@charNode@@UBEPADPAD0@Z 10030aa0 f i LIBCMT:undname.obj
 0001:0002fab5       ?getString@pDNameNode@@UBEPADPAD0@Z 10030ab5 f i LIBCMT:undname.obj
 0001:0002fad2       ?getString@pairNode@@UBEPADPAD0@Z 10030ad2 f i LIBCMT:undname.obj
 0001:0002fafc       ?getString@pcharNode@@UBEPADPAD0@Z 10030afc f i LIBCMT:undname.obj
 0001:0002fb17       ?getStringEncoding@UnDecorator@@CA?AVDName@@PADH@Z 10030b17 f   LIBCMT:undname.obj
 0001:0002fbba       ?getStringHelper@@YAPADPAD00H@Z 10030bba f i LIBCMT:undname.obj
 0001:0002fbef       ?getSymbolName@UnDecorator@@CA?AVDName@@XZ 10030bef f i LIBCMT:undname.obj
 0001:0002fc37       ?getTemplateArgumentList@UnDecorator@@CA?AVDName@@XZ 10030c37 f   LIBCMT:undname.obj
 0001:0002feb0       ?getTemplateConstant@UnDecorator@@CA?AVDName@@XZ 10030eb0 f   LIBCMT:undname.obj
 0001:000301b0       ?getTemplateName@UnDecorator@@CA?AVDName@@_N@Z 100311b0 f   LIBCMT:undname.obj
 0001:0003030a       ?getThisType@UnDecorator@@CA?AVDName@@XZ 1003130a f i LIBCMT:undname.obj
 0001:00030344       ?getThrowTypes@UnDecorator@@CA?AVDName@@XZ 10031344 f   LIBCMT:undname.obj
 0001:000303ce       ?getTypeEncoding@UnDecorator@@CAHXZ 100313ce f i LIBCMT:undname.obj
 0001:000308be       ?getVCallThunkType@UnDecorator@@CA?AVDName@@XZ 100318be f i LIBCMT:undname.obj
 0001:000308f9       ?getVbTableType@UnDecorator@@CA?AVDName@@ABV2@@Z 100318f9 f i LIBCMT:undname.obj
 0001:0003090e       ?getVdispMapType@UnDecorator@@CA?AVDName@@ABV2@@Z 1003190e f i LIBCMT:undname.obj
 0001:00030964       ?getVfTableType@UnDecorator@@CA?AVDName@@ABV2@@Z 10031964 f i LIBCMT:undname.obj
 0001:00030ac9       ?getZName@UnDecorator@@CA?AVDName@@_N0@Z 10031ac9 f   LIBCMT:undname.obj
 0001:00030cf3       ?haveTemplateParameters@UnDecorator@@SAHXZ 10031cf3 f i LIBCMT:undname.obj
 0001:00030cfe       ?isArray@DName@@QBEHXZ     10031cfe f i LIBCMT:undname.obj
 0001:00030d08       ?isComArray@DName@@QBEHXZ  10031d08 f i LIBCMT:undname.obj
 0001:00030d12       ?isEmpty@DName@@QBEHXZ     10031d12 f i LIBCMT:undname.obj
 0001:00030d1a       ?isFull@Replicator@@QBEHXZ 10031d1a f i LIBCMT:undname.obj
 0001:00030d23       ?isNoTE@DName@@QBEHXZ      10031d23 f i LIBCMT:undname.obj
 0001:00030d2d       ?isPinPtr@DName@@QBEHXZ    10031d2d f i LIBCMT:undname.obj
 0001:00030d37       ?isPtrRef@DName@@QBEHXZ    10031d37 f i LIBCMT:undname.obj
 0001:00030d41       ?isUDC@DName@@QBEHXZ       10031d41 f i LIBCMT:undname.obj
 0001:00030d52       ?isUDTThunk@DName@@QBEHXZ  10031d52 f i LIBCMT:undname.obj
 0001:00030d63       ?isVCallThunk@DName@@QBEHXZ 10031d63 f i LIBCMT:undname.obj
 0001:00030d6d       ?isValid@DName@@QBEHXZ     10031d6d f i LIBCMT:undname.obj
 0001:00030d77       ?length@DName@@QBEHXZ      10031d77 f i LIBCMT:undname.obj
 0001:00030d84       ?length@DNameStatusNode@@UBEHXZ 10031d84 f i LIBCMT:undname.obj
 0001:00030d88       ?length@charNode@@UBEHXZ   10031d88 f i LIBCMT:undname.obj
 0001:00030d8c       ?length@pDNameNode@@UBEHXZ 10031d8c f i LIBCMT:undname.obj
 0001:00030da0       ?length@pairNode@@UBEHXZ   10031da0 f i LIBCMT:undname.obj
 0001:00030dc9       ?length@pcharNode@@UBEHXZ  10031dc9 f i LIBCMT:undname.obj
 0001:00030dcd       ?make@DNameStatusNode@@SAPAV1@W4DNameStatus@@@Z 10031dcd f i LIBCMT:undname.obj
 0001:00030e53       ?setIsArray@DName@@QAEXXZ  10031e53 f i LIBCMT:undname.obj
 0001:00030e5b       ?setIsComArray@DName@@QAEXXZ 10031e5b f i LIBCMT:undname.obj
 0001:00030e63       ?setIsNoTE@DName@@QAEXXZ   10031e63 f i LIBCMT:undname.obj
 0001:00030e6b       ?setIsPinPtr@DName@@QAEXXZ 10031e6b f i LIBCMT:undname.obj
 0001:00030e73       ?setIsUDC@DName@@QAEXXZ    10031e73 f i LIBCMT:undname.obj
 0001:00030e80       ?setIsVCallThunk@DName@@QAEXXZ 10031e80 f i LIBCMT:undname.obj
 0001:00030e88       ?setPtrRef@DName@@QAEAAV1@XZ 10031e88 f i LIBCMT:undname.obj
 0001:00030e92       ?status@DName@@QBE?AW4DNameStatus@@XZ 10031e92 f i LIBCMT:undname.obj
 0001:00030efa       ___unDName                 10031efa f   LIBCMT:undname.obj
 0001:00030f9d       ___unDNameEx               10031f9d f   LIBCMT:undname.obj
 0001:00031040       __local_unwind4            10032040 f   LIBCMT:exsup4.obj
 0001:00031116       __seh_longjmp_unwind4@4    10032116 f   LIBCMT:exsup4.obj
 0001:00031132       @_EH4_CallFilterFunc@8     10032132 f   LIBCMT:exsup4.obj
 0001:00031149       @_EH4_TransferToHandler@8  10032149 f   LIBCMT:exsup4.obj
 0001:00031162       @_EH4_GlobalUnwind2@8      10032162 f   LIBCMT:exsup4.obj
 0001:0003117b       @_EH4_LocalUnwind@16       1003217b f   LIBCMT:exsup4.obj
 0001:00031192       __matherr                  10032192 f   LIBCMT:matherr.obj
 0001:00031195       __FF_MSGBANNER             10032195 f   LIBCMT:crt0msg.obj
 0001:000311ce       __GET_RTERRMSG             100321ce f   LIBCMT:crt0msg.obj
 0001:000311f2       __NMSG_WRITE               100321f2 f   LIBCMT:crt0msg.obj
 0001:000313b0       __FindPESection            100323b0 f   LIBCMT:pesect.obj
 0001:00031400       __IsNonwritableInCurrentImage 10032400 f   LIBCMT:pesect.obj
 0001:000314c0       __ValidateImageBase        100324c0 f   LIBCMT:pesect.obj
 0001:000314f1       ___onexitinit              100324f1 f   LIBCMT:onexit.obj
 0001:00031520       __onexit                   10032520 f   LIBCMT:onexit.obj
 0001:0003161c       _atexit                    1003261c f   LIBCMT:onexit.obj
 0001:00031631       ?_inconsistency@@YAXXZ     10032631 f   LIBCMT:hooks.obj
 0001:00031669       ?terminate@@YAXXZ          10032669 f   LIBCMT:hooks.obj
 0001:0003169d       ?unexpected@@YAXXZ         1003269d f   LIBCMT:hooks.obj
 0001:000316b0       __initp_eh_hooks           100326b0 f   LIBCMT:hooks.obj
 0001:000316c1       ?_query_new_handler@@YAP6AHI@ZXZ 100326c1 f   LIBCMT:handler.obj
 0001:000316ce       ?_set_new_handler@@YAP6AHI@ZH@Z 100326ce f   LIBCMT:handler.obj
 0001:000316d7       ?_set_new_handler@@YAP6AHI@ZP6AHI@Z@Z 100326d7 f   LIBCMT:handler.obj
 0001:0003170c       __callnewh                 1003270c f   LIBCMT:handler.obj
 0001:00031732       __initp_heap_handler       10032732 f   LIBCMT:handler.obj
 0001:0003173f       __initp_misc_rand_s        1003273f f   LIBCMT:rand_s.obj
 0001:0003174c       _rand_s                    1003274c f   LIBCMT:rand_s.obj
 0001:00031852       __ftbuf                    10032852 f   LIBCMT:_sftbuf.obj
 0001:00031883       __stbuf                    10032883 f   LIBCMT:_sftbuf.obj
 0001:00031929       ___initstdio               10032929 f   LIBCMT:_file.obj
 0001:0003199c       ___endstdio                1003299c f   LIBCMT:_file.obj
 0001:000319c3       ___iob_func                100329c3 f   LIBCMT:_file.obj
 0001:000319c9       __lock_file                100329c9 f   LIBCMT:_file.obj
 0001:00031a08       __lock_file2               10032a08 f   LIBCMT:_file.obj
 0001:00031a38       __unlock_file              10032a38 f   LIBCMT:_file.obj
 0001:00031a72       __unlock_file2             10032a72 f   LIBCMT:_file.obj
 0001:00031af9       __ismbbalnum               10032af9 f   LIBCMT:ismbbyte.obj
 0001:00031b12       __ismbbalnum_l             10032b12 f   LIBCMT:ismbbyte.obj
 0001:00031b2c       __ismbbalpha               10032b2c f   LIBCMT:ismbbyte.obj
 0001:00031b45       __ismbbalpha_l             10032b45 f   LIBCMT:ismbbyte.obj
 0001:00031b5f       __ismbbblank               10032b5f f   LIBCMT:ismbbyte.obj
 0001:00031b80       __ismbbblank_l             10032b80 f   LIBCMT:ismbbyte.obj
 0001:00031ba2       __ismbbgraph               10032ba2 f   LIBCMT:ismbbyte.obj
 0001:00031bbb       __ismbbgraph_l             10032bbb f   LIBCMT:ismbbyte.obj
 0001:00031bd5       __ismbbkalnum              10032bd5 f   LIBCMT:ismbbyte.obj
 0001:00031beb       __ismbbkalnum_l            10032beb f   LIBCMT:ismbbyte.obj
 0001:00031c02       __ismbbkana                10032c02 f   LIBCMT:ismbbyte.obj
 0001:00031c13       __ismbbkana_l              10032c13 f   LIBCMT:ismbbyte.obj
 0001:00031c5f       __ismbbkprint              10032c5f f   LIBCMT:ismbbyte.obj
 0001:00031c75       __ismbbkprint_l            10032c75 f   LIBCMT:ismbbyte.obj
 0001:00031c8c       __ismbbkpunct              10032c8c f   LIBCMT:ismbbyte.obj
 0001:00031ca2       __ismbbkpunct_l            10032ca2 f   LIBCMT:ismbbyte.obj
 0001:00031cb9       __ismbblead                10032cb9 f   LIBCMT:ismbbyte.obj
 0001:00031ccf       __ismbblead_l              10032ccf f   LIBCMT:ismbbyte.obj
 0001:00031ce6       __ismbbprint               10032ce6 f   LIBCMT:ismbbyte.obj
 0001:00031cff       __ismbbprint_l             10032cff f   LIBCMT:ismbbyte.obj
 0001:00031d19       __ismbbpunct               10032d19 f   LIBCMT:ismbbyte.obj
 0001:00031d2f       __ismbbpunct_l             10032d2f f   LIBCMT:ismbbyte.obj
 0001:00031d46       __ismbbtrail               10032d46 f   LIBCMT:ismbbyte.obj
 0001:00031d5c       __ismbbtrail_l             10032d5c f   LIBCMT:ismbbyte.obj
 0001:00031d73       _realloc                   10032d73 f   LIBCMT:realloc.obj
 0001:00031e1e       __recalloc                 10032e1e f   LIBCMT:recalloc.obj
 0001:00031e87       __calloc_impl              10032e87 f   LIBCMT:calloc_impl.obj
 0001:00031f01       __crt_debugger_hook        10032f01 f   LIBCMT:dbghook.obj
 0001:00031f09       _wcscpy_s                  10032f09 f   LIBCMT:wcscpy_s.obj
 0001:00031f65       _wcsnlen                   10032f65 f   LIBCMT:wcslen_s.obj
 0001:00031f84       ___raise_securityfailure   10032f84 f   LIBCMT:gs_report.obj
 0001:00031fc1       ___report_gsfailure        10032fc1 f   LIBCMT:gs_report.obj
 0001:000320bc       ___report_rangecheckfailure 100330bc f   LIBCMT:gs_report.obj
 0001:000320c8       ___report_securityfailure  100330c8 f   LIBCMT:gs_report.obj
 0001:00032198       ___report_securityfailureEx 10033198 f   LIBCMT:gs_report.obj
 0001:000322ae       ___free_lconv_mon          100332ae f   LIBCMT:initmon.obj
 0001:000323aa       ___init_monetary           100333aa f   LIBCMT:initmon.obj
 0001:00032783       ___free_lconv_num          10033783 f   LIBCMT:initnum.obj
 0001:000327ea       ___init_numeric            100337ea f   LIBCMT:initnum.obj
 0001:00032a28       ___free_lc_time            10033a28 f   LIBCMT:inittime.obj
 0001:00032da8       ___init_time               10033da8 f   LIBCMT:inittime.obj
 0001:00033617       _localeconv                10034617 f   LIBCMT:lconv.obj
 0001:00033861       ___crtLCMapStringA         10034861 f   LIBCMT:a_map.obj
 0001:0003399f       ___crtGetStringTypeA       1003499f f   LIBCMT:a_str.obj
 0001:000339df       __isctype                  100349df f   LIBCMT:isctype.obj
 0001:00033a0e       __isctype_l                10034a0e f   LIBCMT:isctype.obj
 0001:00033abf       ___init_dummy              10034abf f   LIBCMT:wsetloca.obj
 0001:00033ac2       __locterm                  10034ac2 f   LIBCMT:wsetloca.obj
 0001:00033b14       ____setlc_active_func      10034b14 f   LIBCMT:wsetloca.obj
 0001:00033b1a       ____unguarded_readlc_active_add_func 10034b1a f   LIBCMT:wsetloca.obj
 0001:00033b20       ___copy_locale_name        10034b20 f   LIBCMT:wsetloca.obj
 0001:00033b84       ___create_locale           10034b84 f   LIBCMT:wsetloca.obj
 0001:00033b8d       ___free_locale             10034b8d f   LIBCMT:wsetloca.obj
 0001:00033b92       ___get_current_locale      10034b92 f   LIBCMT:wsetloca.obj
 0001:00033b97       ___lc_lctowcs              10034b97 f   LIBCMT:wsetloca.obj
 0001:00033c05       ___lc_wcstolc              10034c05 f   LIBCMT:wsetloca.obj
 0001:00033d31       __configthreadlocale       10034d31 f   LIBCMT:wsetloca.obj
 0001:00033db7       __create_locale            10034db7 f   LIBCMT:wsetloca.obj
 0001:00033e19       __expandlocale             10034e19 f   LIBCMT:wsetloca.obj
 0001:00034110       __free_locale              10035110 f   LIBCMT:wsetloca.obj
 0001:000341c7       __get_current_locale       100351c7 f   LIBCMT:wsetloca.obj
 0001:00034276       __wcreate_locale           10035276 f   LIBCMT:wsetloca.obj
 0001:0003434d       __wcscats                  1003534d f   LIBCMT:wsetloca.obj
 0001:0003438c       __wsetlocale               1003538c f   LIBCMT:wsetloca.obj
 0001:00034cce       ___iswcsym                 10035cce f i LIBCMT:_wctype.obj
 0001:00034cf2       ___iswcsymf                10035cf2 f i LIBCMT:_wctype.obj
 0001:00034d16       __isleadbyte_l             10035d16 f i LIBCMT:_wctype.obj
 0001:00034d50       __iswalnum_l               10035d50 f i LIBCMT:_wctype.obj
 0001:00034d64       __iswalpha_l               10035d64 f i LIBCMT:_wctype.obj
 0001:00034d78       __iswblank_l               10035d78 f i LIBCMT:_wctype.obj
 0001:00034d93       __iswcntrl_l               10035d93 f i LIBCMT:_wctype.obj
 0001:00034da4       __iswcsym_l                10035da4 f i LIBCMT:_wctype.obj
 0001:00034dc8       __iswcsymf_l               10035dc8 f i LIBCMT:_wctype.obj
 0001:00034dec       __iswdigit_l               10035dec f i LIBCMT:_wctype.obj
 0001:00034dfd       __iswgraph_l               10035dfd f i LIBCMT:_wctype.obj
 0001:00034e11       __iswlower_l               10035e11 f i LIBCMT:_wctype.obj
 0001:00034e22       __iswprint_l               10035e22 f i LIBCMT:_wctype.obj
 0001:00034e36       __iswpunct_l               10035e36 f i LIBCMT:_wctype.obj
 0001:00034e47       __iswspace_l               10035e47 f i LIBCMT:_wctype.obj
 0001:00034e58       __iswupper_l               10035e58 f i LIBCMT:_wctype.obj
 0001:00034e69       __iswxdigit_l              10035e69 f i LIBCMT:_wctype.obj
 0001:00034e7d       _isleadbyte                10035e7d f i LIBCMT:_wctype.obj
 0001:00034e8e       _iswalnum                  10035e8e f i LIBCMT:_wctype.obj
 0001:00034ea2       _iswalpha                  10035ea2 f i LIBCMT:_wctype.obj
 0001:00034eb6       _iswascii                  10035eb6 f i LIBCMT:_wctype.obj
 0001:00034ec8       _iswblank                  10035ec8 f i LIBCMT:_wctype.obj
 0001:00034ee3       _iswcntrl                  10035ee3 f i LIBCMT:_wctype.obj
 0001:00034ef4       _iswdigit                  10035ef4 f i LIBCMT:_wctype.obj
 0001:00034f05       _iswgraph                  10035f05 f i LIBCMT:_wctype.obj
 0001:00034f19       _iswlower                  10035f19 f i LIBCMT:_wctype.obj
 0001:00034f2a       _iswprint                  10035f2a f i LIBCMT:_wctype.obj
 0001:00034f3e       _iswpunct                  10035f3e f i LIBCMT:_wctype.obj
 0001:00034f4f       _iswspace                  10035f4f f i LIBCMT:_wctype.obj
 0001:00034f60       _iswupper                  10035f60 f i LIBCMT:_wctype.obj
 0001:00034f71       _iswxdigit                 10035f71 f i LIBCMT:_wctype.obj
 0001:00034f85       __CopyMan                  10035f85 f i LIBCMT:intrncvt.obj
 0001:00034fa2       __FillZeroMan              10035fa2 f i LIBCMT:intrncvt.obj
 0001:00034fb1       __IncMan                   10035fb1 f i LIBCMT:intrncvt.obj
 0001:00035013       __IsZeroMan                10036013 f i LIBCMT:intrncvt.obj
 0001:00035030       __RoundMan                 10036030 f i LIBCMT:intrncvt.obj
 0001:00035131       __ShrMan                   10036131 f i LIBCMT:intrncvt.obj
 0001:000351bf       __ZeroTail                 100361bf f i LIBCMT:intrncvt.obj
 0001:00035207       ___addl                    10036207 f i LIBCMT:intrncvt.obj
 0001:0003522b       __ld12cvt                  1003622b f i LIBCMT:intrncvt.obj
 0001:00035796       __ld12tod                  10036796 f   LIBCMT:intrncvt.obj
 0001:00035d08       __ld12tof                  10036d08 f   LIBCMT:intrncvt.obj
 0001:0003627a       __ld12told                 1003727a f   LIBCMT:intrncvt.obj
 0001:00036349       ___STRINGTOLD_L            10037349 f   LIBCMT:strgtold.obj
 0001:000363a4       ___ld12mul                 100373a4 f i LIBCMT:strgtold.obj
 0001:00036670       ___multtenpow12            10037670 f i LIBCMT:strgtold.obj
 0001:000369c3       ___shl_12                  100379c3 f i LIBCMT:strgtold.obj
 0001:000369f4       ___shr_12                  100379f4 f i LIBCMT:strgtold.obj
 0001:00036a24       ___strgtold12_l            10037a24 f   LIBCMT:strgtold.obj
 0001:000371cc       _$I10_OUTPUT               100381cc f   LIBCMT:x10fout.obj
 0001:00037ba0       ___add_12                  10038ba0 f i LIBCMT:x10fout.obj
 0001:00037c12       ___pctype_func             10038c12 f   LIBCMT:ctype.obj
 0001:00037c3b       ___pwctype_func            10038c3b f   LIBCMT:ctype.obj
 0001:00037d7b       ___control87_2             10038d7b f   LIBCMT:ieee87.obj
 0001:000383ef       __clearfp                  100393ef f   LIBCMT:ieee87.obj
 0001:000384cf       __control87                100394cf f i LIBCMT:ieee87.obj
 0001:000387d1       __controlfp                100397d1 f   LIBCMT:ieee87.obj
 0001:00038adc       __fpreset                  10039adc f   LIBCMT:ieee87.obj
 0001:00038ba9       __set_controlfp            10039ba9 f   LIBCMT:ieee87.obj
 0001:00038c1c       __statusfp                 10039c1c f   LIBCMT:ieee87.obj
 0001:00038cb6       __statusfp2                10039cb6 f   LIBCMT:ieee87.obj
 0001:00038d15       __atoi64                   10039d15 f   LIBCMT:atox.obj
 0001:00038d29       __atoi64_l                 10039d29 f   LIBCMT:atox.obj
 0001:00038d40       __atoi_l                   10039d40 f   LIBCMT:atox.obj
 0001:00038d49       __atol_l                   10039d49 f   LIBCMT:atox.obj
 0001:00038d60       __atoll_l                  10039d60 f   LIBCMT:atox.obj
 0001:00038d77       _atoi                      10039d77 f   LIBCMT:atox.obj
 0001:00038d80       _atol                      10039d80 f   LIBCMT:atox.obj
 0001:00038d94       _atoll                     10039d94 f   LIBCMT:atox.obj
 0001:00038db0       __aulldvrm                 10039db0 f   LIBCMT:ulldvrm.obj
 0001:00038e50       __global_unwind2           10039e50 f   LIBCMT:exsup.obj
 0001:00038eb5       __local_unwind2            10039eb5 f   LIBCMT:exsup.obj
 0001:00038f39       __abnormal_termination     10039f39 f   LIBCMT:exsup.obj
 0001:00038f5c       __NLG_Notify1              10039f5c f   LIBCMT:exsup.obj
 0001:00038f65       __NLG_Notify               10039f65 f   LIBCMT:exsup.obj
 0001:00038f7c       __NLG_Dispatch             10039f7c     LIBCMT:exsup.obj
 0001:00038f7c       __NLG_Dispatch2            10039f7c     LIBCMT:exsup.obj
 0001:00038f84       __NLG_Call                 10039f84 f   LIBCMT:exsup.obj
 0001:00038f86       __NLG_Return2              10039f86     LIBCMT:exsup.obj
 0001:00038f87       _wcscat_s                  10039f87 f   LIBCMT:wcscat_s.obj
 0001:00038ff3       _wcslen                    10039ff3 f   LIBCMT:wcslen.obj
 0001:0003900c       _wcsncpy_s                 1003a00c f   LIBCMT:wcsncpy_s.obj
 0001:000390ca       ___set_app_type            1003a0ca f   LIBCMT:errmode.obj
 0001:000390d7       __set_error_mode           1003a0d7 f   LIBCMT:errmode.obj
 0001:00039117       ___crtMessageBoxW          1003a117 f   LIBCMT:crtmboxw.obj
 0001:000392fd       ___crtMessageBoxWaitThreadW@4 1003a2fd f   LIBCMT:crtmboxw.obj
 0001:0003931b       __msize                    1003a31b f   LIBCMT:msize.obj
 0001:0003934c       __fileno                   1003a34c f   LIBCMT:fileno.obj
 0001:00039370       __isatty                   1003a370 f   LIBCMT:isatty.obj
 0001:000393c4       __fflush_nolock            1003a3c4 f   LIBCMT:fflush.obj
 0001:0003940a       __flush                    1003a40a f   LIBCMT:fflush.obj
 0001:0003946e       __flushall                 1003a46e f   LIBCMT:fflush.obj
 0001:00039477       _fflush                    1003a477 f   LIBCMT:fflush.obj
 0001:000395b4       __fcloseall                1003a5b4 f   LIBCMT:closeall.obj
 0001:00039651       ___init_collate            1003a651 f   LIBCMT:initcoll.obj
 0001:00039654       ____lc_codepage_func       1003a654 f   LIBCMT:initctyp.obj
 0001:0003967a       ____lc_collate_cp_func     1003a67a f   LIBCMT:initctyp.obj
 0001:000396a0       ____lc_locale_name_func    1003a6a0 f   LIBCMT:initctyp.obj
 0001:000396c8       ____mb_cur_max_func        1003a6c8 f   LIBCMT:initctyp.obj
 0001:000396ee       ____mb_cur_max_l_func      1003a6ee f   LIBCMT:initctyp.obj
 0001:00039705       ___init_ctype              1003a705 f   LIBCMT:initctyp.obj
 0001:00039bba       _memcmp                    1003abba f   LIBCMT:memcmp.obj
 0001:0003cace       _wcscmp                    1003dace f   LIBCMT:wcscmp.obj
 0001:0003cb0c       _wcscspn                   1003db0c f   LIBCMT:wcscspn.obj
 0001:0003cb57       _wcsncmp                   1003db57 f   LIBCMT:wcsncmp.obj
 0001:0003cb8d       _wcspbrk                   1003db8d f   LIBCMT:wcspbrk.obj
 0001:0003d191       ___get_qualified_locale    1003e191 f   LIBCMT:getqloc.obj
 0001:0003da01       ___get_qualified_locale_downlevel 1003ea01 f   LIBCMT:getqloc_downlevel.obj
 0001:0003dc1d       __iswctype_l               1003ec1d f   LIBCMT:iswctype.obj
 0001:0003dc2f       _is_wctype                 1003ec2f f   LIBCMT:iswctype.obj
 0001:0003dc38       _iswctype                  1003ec38 f   LIBCMT:iswctype.obj
 0001:0003dc8e       ___mtold12                 1003ec8e f   LIBCMT:mantold.obj
 0001:0003e0de       __strtof_l                 1003f0de f   LIBCMT:strtoq.obj
 0001:0003e0fe       __strtoi64                 1003f0fe f   LIBCMT:strtoq.obj
 0001:0003e128       __strtoi64_l               1003f128 f   LIBCMT:strtoq.obj
 0001:0003e143       __strtoimax_l              1003f143 f   LIBCMT:strtoq.obj
 0001:0003e14c       __strtold_l                1003f14c f   LIBCMT:strtoq.obj
 0001:0003e155       __strtoll_l                1003f155 f   LIBCMT:strtoq.obj
 0001:0003e15e       __strtoui64                1003f15e f   LIBCMT:strtoq.obj
 0001:0003e188       __strtoui64_l              1003f188 f   LIBCMT:strtoq.obj
 0001:0003e1a3       __strtoull_l               1003f1a3 f   LIBCMT:strtoq.obj
 0001:0003e1ac       __strtoumax_l              1003f1ac f   LIBCMT:strtoq.obj
 0001:0003e1b5       _strtof                    1003f1b5 f   LIBCMT:strtoq.obj
 0001:0003e1d4       _strtoimax                 1003f1d4 f   LIBCMT:strtoq.obj
 0001:0003e1dd       _strtold                   1003f1dd f   LIBCMT:strtoq.obj
 0001:0003e1e6       _strtoll                   1003f1e6 f   LIBCMT:strtoq.obj
 0001:0003e1ef       _strtoull                  1003f1ef f   LIBCMT:strtoq.obj
 0001:0003e1f8       _strtoumax                 1003f1f8 f   LIBCMT:strtoq.obj
 0001:0003e427       __strtol_l                 1003f427 f   LIBCMT:strtol.obj
 0001:0003e442       __strtoul_l                1003f442 f   LIBCMT:strtol.obj
 0001:0003e45d       _strtol                    1003f45d f   LIBCMT:strtol.obj
 0001:0003e487       _strtoul                   1003f487 f   LIBCMT:strtol.obj
 0001:0003e4b1       __commit                   1003f4b1 f   LIBCMT:commit.obj
 0001:0003e59a       __write                    1003f59a f   LIBCMT:write.obj
 0001:0003e689       __write_nolock             1003f689 f   LIBCMT:write.obj
 0001:0003eeee       __fclose_nolock            1003feee f   LIBCMT:fclose.obj
 0001:0003ef5a       _fclose                    1003ff5a f   LIBCMT:fclose.obj
 0001:0003f0ed       __i64tow_s                 100400ed f   LIBCMT:xtows.obj
 0001:0003f11e       __itow_s                   1004011e f   LIBCMT:xtows.obj
 0001:0003f147       __ltow_s                   10040147 f   LIBCMT:xtows.obj
 0001:0003f171       __ui64tow_s                10040171 f   LIBCMT:xtows.obj
 0001:0003f18c       __ultow_s                  1004018c f   LIBCMT:xtows.obj
 0001:0003f297       __wtoi                     10040297 f   LIBCMT:wtox.obj
 0001:0003f2a0       __wtoi64                   100402a0 f   LIBCMT:wtox.obj
 0001:0003f2b4       __wtoi64_l                 100402b4 f   LIBCMT:wtox.obj
 0001:0003f2cb       __wtoi_l                   100402cb f   LIBCMT:wtox.obj
 0001:0003f2d4       __wtol                     100402d4 f   LIBCMT:wtox.obj
 0001:0003f2e8       __wtol_l                   100402e8 f   LIBCMT:wtox.obj
 0001:0003f2ff       __wtoll                    100402ff f   LIBCMT:wtox.obj
 0001:0003f313       __wtoll_l                  10040313 f   LIBCMT:wtox.obj
 0001:0003f32a       _wcschr                    1004032a f   LIBCMT:wcschr.obj
 0001:0003f3d8       __wcsicmp                  100403d8 f   LIBCMT:wcsicmp.obj
 0001:0003f46b       __wcsicmp_l                1004046b f   LIBCMT:wcsicmp.obj
 0001:0003f546       __wcsnicmp                 10040546 f   LIBCMT:wcsnicmp.obj
 0001:0003f5fc       __wcsnicmp_l               100405fc f   LIBCMT:wcsnicmp.obj
 0001:0003f6f5       __strtod_l                 100406f5 f   LIBCMT:strtod.obj
 0001:0003f80c       _strtod                    1004080c f   LIBCMT:strtod.obj
 0001:0003f830       __allmul                   10040830 f   LIBCMT:llmul.obj
 0001:0003f864       ___lock_fhandle            10040864 f   LIBCMT:osfinfo.obj
 0001:0003f8f2       __alloc_osfhnd             100408f2 f   LIBCMT:osfinfo.obj
 0001:0003fa9b       __free_osfhnd              10040a9b f   LIBCMT:osfinfo.obj
 0001:0003fb21       __get_osfhandle            10040b21 f   LIBCMT:osfinfo.obj
 0001:0003fb88       __open_osfhandle           10040b88 f   LIBCMT:osfinfo.obj
 0001:0003fc9e       __set_osfhnd               10040c9e f   LIBCMT:osfinfo.obj
 0001:0003fd20       __unlock_fhandle           10040d20 f   LIBCMT:osfinfo.obj
 0001:0003fd46       __lseeki64                 10040d46 f   LIBCMT:lseeki64.obj
 0001:0003fe42       __lseeki64_nolock          10040e42 f   LIBCMT:lseeki64.obj
 0001:0003feb5       __mbtowc_l                 10040eb5 f   LIBCMT:mbtowc.obj
 0001:0003ffaa       _mbtowc                    10040faa f   LIBCMT:mbtowc.obj
 0001:0003ffc2       __putwch                   10040fc2 f   LIBCMT:putwch.obj
 0001:0004000e       __putwch_nolock            1004100e f   LIBCMT:putwch.obj
 0001:00040051       __close                    10041051 f   LIBCMT:close.obj
 0001:0004012c       __close_nolock             1004112c f   LIBCMT:close.obj
 0001:000401c6       __freebuf                  100411c6 f   LIBCMT:_freebuf.obj
 0001:000403d7       __wcstol_l                 100413d7 f   LIBCMT:wcstol.obj
 0001:000403ef       __wcstoul_l                100413ef f   LIBCMT:wcstol.obj
 0001:00040407       _wcstol                    10041407 f   LIBCMT:wcstol.obj
 0001:0004041f       _wcstoul                   1004141f f   LIBCMT:wcstol.obj
 0001:00040707       __wcstof_l                 10041707 f   LIBCMT:wcstoq.obj
 0001:000407ba       __wcstoi64                 100417ba f   LIBCMT:wcstoq.obj
 0001:000407e4       __wcstoi64_l               100417e4 f   LIBCMT:wcstoq.obj
 0001:000407ff       __wcstoimax_l              100417ff f   LIBCMT:wcstoq.obj
 0001:00040808       __wcstold_l                10041808 f   LIBCMT:wcstoq.obj
 0001:00040811       __wcstoll_l                10041811 f   LIBCMT:wcstoq.obj
 0001:0004081a       __wcstoui64                1004181a f   LIBCMT:wcstoq.obj
 0001:00040844       __wcstoui64_l              10041844 f   LIBCMT:wcstoq.obj
 0001:0004085f       __wcstoull_l               1004185f f   LIBCMT:wcstoq.obj
 0001:00040868       __wcstoumax_l              10041868 f   LIBCMT:wcstoq.obj
 0001:00040871       _wcstof                    10041871 f   LIBCMT:wcstoq.obj
 0001:00040886       _wcstoimax                 10041886 f   LIBCMT:wcstoq.obj
 0001:0004088f       _wcstold                   1004188f f   LIBCMT:wcstoq.obj
 0001:00040898       _wcstoll                   10041898 f   LIBCMT:wcstoq.obj
 0001:000408a1       _wcstoull                  100418a1 f   LIBCMT:wcstoq.obj
 0001:000408aa       _wcstoumax                 100418aa f   LIBCMT:wcstoq.obj
 0001:000408b3       __towlower_l               100418b3 f   LIBCMT:towlower.obj
 0001:00040964       _towlower                  10041964 f   LIBCMT:towlower.obj
 0001:00040975       __fltin2                   10041975 f   LIBCMT:cfin.obj
 0001:00040a20       ___termconout              10041a20 f   LIBCMT:initcon.obj
 0001:00040a37       ___initconout              10041a37 f   LIBCMT:initcon.obj
 0001:00040a56       __wchartodigit             10041a56 f   LIBCMT:wchtodig.obj
 0001:00040bf5       __wcstod_l                 10041bf5 f   LIBCMT:wcstod.obj
 0001:00040cf0       _wcstod                    10041cf0 f   LIBCMT:wcstod.obj
 0001:00040d05       ___crtLCMapStringW         10041d05 f   LIBCMT:w_map.obj
 0001:00040d34       __wfltin2                  10041d34 f   LIBCMT:wcfin.obj
 0001:00040ddd       ___WSTRINGTOLD_L           10041ddd f   LIBCMT:wstrgtold.obj
 0001:00040e38       ___wstrgtold12_l           10041e38 f   LIBCMT:wstrgtold.obj
 0001:00041688       _EncodePointer@4           10042688 f   kernel32:KERNEL32.dll
 0001:0004168e       _DecodePointer@4           1004268e f   kernel32:KERNEL32.dll
 0001:00041694       _GetCommandLineA@0         10042694 f   kernel32:KERNEL32.dll
 0001:0004169a       _GetCurrentThreadId@0      1004269a f   kernel32:KERNEL32.dll
 0001:000416a0       _IsProcessorFeaturePresent@4 100426a0 f   kernel32:KERNEL32.dll
 0001:000416a6       _GetLastError@0            100426a6 f   kernel32:KERNEL32.dll
 0001:000416ac       _HeapFree@12               100426ac f   kernel32:KERNEL32.dll
 0001:000416b2       _RaiseException@16         100426b2 f   kernel32:KERNEL32.dll
 0001:000416b8       _SetLastError@4            100426b8 f   kernel32:KERNEL32.dll
 0001:000416be       _GetCurrentThread@0        100426be f   kernel32:KERNEL32.dll
 0001:000416c4       _ExitProcess@4             100426c4 f   kernel32:KERNEL32.dll
 0001:000416ca       _GetModuleHandleExW@12     100426ca f   kernel32:KERNEL32.dll
 0001:000416d0       _GetProcAddress@8          100426d0 f   kernel32:KERNEL32.dll
 0001:000416d6       _AreFileApisANSI@0         100426d6 f   kernel32:KERNEL32.dll
 0001:000416dc       _MultiByteToWideChar@24    100426dc f   kernel32:KERNEL32.dll
 0001:000416e2       _WideCharToMultiByte@32    100426e2 f   kernel32:KERNEL32.dll
 0001:000416e8       _GetProcessHeap@0          100426e8 f   kernel32:KERNEL32.dll
 0001:000416ee       _GetStdHandle@4            100426ee f   kernel32:KERNEL32.dll
 0001:000416f4       _GetFileType@4             100426f4 f   kernel32:KERNEL32.dll
 0001:000416fa       _DeleteCriticalSection@4   100426fa f   kernel32:KERNEL32.dll
 0001:00041700       _GetStartupInfoW@4         10042700 f   kernel32:KERNEL32.dll
 0001:00041706       _GetModuleFileNameA@12     10042706 f   kernel32:KERNEL32.dll
 0001:0004170c       _QueryPerformanceCounter@4 1004270c f   kernel32:KERNEL32.dll
 0001:00041712       _GetCurrentProcessId@0     10042712 f   kernel32:KERNEL32.dll
 0001:00041718       _GetSystemTimeAsFileTime@4 10042718 f   kernel32:KERNEL32.dll
 0001:0004171e       _GetEnvironmentStringsW@0  1004271e f   kernel32:KERNEL32.dll
 0001:00041724       _FreeEnvironmentStringsW@4 10042724 f   kernel32:KERNEL32.dll
 0001:0004172a       _UnhandledExceptionFilter@4 1004272a f   kernel32:KERNEL32.dll
 0001:00041730       _SetUnhandledExceptionFilter@4 10042730 f   kernel32:KERNEL32.dll
 0001:00041736       _InitializeCriticalSectionAndSpinCount@8 10042736 f   kernel32:KERNEL32.dll
 0001:0004173c       _CreateEventW@16           1004273c f   kernel32:KERNEL32.dll
 0001:00041742       _Sleep@4                   10042742 f   kernel32:KERNEL32.dll
 0001:00041748       _GetCurrentProcess@0       10042748 f   kernel32:KERNEL32.dll
 0001:0004174e       _TerminateProcess@8        1004274e f   kernel32:KERNEL32.dll
 0001:00041754       _TlsAlloc@0                10042754 f   kernel32:KERNEL32.dll
 0001:0004175a       _TlsGetValue@4             1004275a f   kernel32:KERNEL32.dll
 0001:00041760       _TlsSetValue@8             10042760 f   kernel32:KERNEL32.dll
 0001:00041766       _TlsFree@4                 10042766 f   kernel32:KERNEL32.dll
 0001:0004176c       _GetTickCount@0            1004276c f   kernel32:KERNEL32.dll
 0001:00041772       _GetModuleHandleW@4        10042772 f   kernel32:KERNEL32.dll
 0001:00041778       _CreateSemaphoreW@16       10042778 f   kernel32:KERNEL32.dll
 0001:0004177e       _SetConsoleCtrlHandler@8   1004277e f   kernel32:KERNEL32.dll
 0001:00041784       _IsDebuggerPresent@0       10042784 f   kernel32:KERNEL32.dll
 0001:0004178a       _GetDateFormatW@24         1004278a f   kernel32:KERNEL32.dll
 0001:00041790       _GetTimeFormatW@24         10042790 f   kernel32:KERNEL32.dll
 0001:00041796       _CompareStringW@24         10042796 f   kernel32:KERNEL32.dll
 0001:0004179c       _LCMapStringW@24           1004279c f   kernel32:KERNEL32.dll
 0001:000417a2       _GetLocaleInfoW@16         100427a2 f   kernel32:KERNEL32.dll
 0001:000417a8       _IsValidLocale@8           100427a8 f   kernel32:KERNEL32.dll
 0001:000417ae       _GetUserDefaultLCID@0      100427ae f   kernel32:KERNEL32.dll
 0001:000417b4       _EnumSystemLocalesW@8      100427b4 f   kernel32:KERNEL32.dll
 0001:000417ba       _IsValidCodePage@4         100427ba f   kernel32:KERNEL32.dll
 0001:000417c0       _GetACP@0                  100427c0 f   kernel32:KERNEL32.dll
 0001:000417c6       _GetOEMCP@0                100427c6 f   kernel32:KERNEL32.dll
 0001:000417cc       _GetCPInfo@8               100427cc f   kernel32:KERNEL32.dll
 0001:000417d2       _EnterCriticalSection@4    100427d2 f   kernel32:KERNEL32.dll
 0001:000417d8       _LeaveCriticalSection@4    100427d8 f   kernel32:KERNEL32.dll
 0001:000417de       _FatalAppExitA@8           100427de f   kernel32:KERNEL32.dll
 0001:000417e4       _HeapAlloc@12              100427e4 f   kernel32:KERNEL32.dll
 0001:000417ea       _RtlUnwind@16              100427ea f   kernel32:KERNEL32.dll
 0001:000417f0       _WriteFile@20              100427f0 f   kernel32:KERNEL32.dll
 0001:000417f6       _GetModuleFileNameW@12     100427f6 f   kernel32:KERNEL32.dll
 0001:000417fc       _FreeLibrary@4             100427fc f   kernel32:KERNEL32.dll
 0001:00041802       _LoadLibraryExW@12         10042802 f   kernel32:KERNEL32.dll
 0001:00041808       _HeapReAlloc@16            10042808 f   kernel32:KERNEL32.dll
 0001:0004180e       _GetStringTypeW@16         1004280e f   kernel32:KERNEL32.dll
 0001:00041814       _OutputDebugStringW@4      10042814 f   kernel32:KERNEL32.dll
 0001:0004181a       _HeapSize@12               1004281a f   kernel32:KERNEL32.dll
 0001:00041820       _FlushFileBuffers@4        10042820 f   kernel32:KERNEL32.dll
 0001:00041826       _GetConsoleCP@0            10042826 f   kernel32:KERNEL32.dll
 0001:0004182c       _GetConsoleMode@8          1004282c f   kernel32:KERNEL32.dll
 0001:00041832       _SetStdHandle@8            10042832 f   kernel32:KERNEL32.dll
 0001:00041838       _SetFilePointerEx@20       10042838 f   kernel32:KERNEL32.dll
 0001:0004183e       _WriteConsoleW@20          1004283e f   kernel32:KERNEL32.dll
 0001:00041844       _CloseHandle@4             10042844 f   kernel32:KERNEL32.dll
 0001:0004184a       _CreateFileW@28            1004284a f   kernel32:KERNEL32.dll
 0001:00041850       ?findOverlapTriangleMesh@PxMeshQuery@physx@@SAIABVPxGeometry@2@ABVPxTransform@2@ABVPxTriangleMeshGeometry@2@1PAIIIAA_N@Z 10042850 f   PhysX3Common_x86:PhysX3Common_x86.dll
 0001:00041856       ?findOverlapHeightField@PxMeshQuery@physx@@SAIABVPxGeometry@2@ABVPxTransform@2@ABVPxHeightFieldGeometry@2@1PAIIIAA_N@Z 10042856 f   PhysX3Common_x86:PhysX3Common_x86.dll
 0001:0004185c       ?PxDiagonalize@physx@@YA?AVPxVec3@1@ABVPxMat33@1@AAVPxQuat@1@@Z 1004285c f   PhysX3Common_x86:PhysX3Common_x86.dll
 0002:00000000       __imp__FreeEnvironmentStringsW@4 10043000     kernel32:KERNEL32.dll
 0002:00000004       __imp__CreateFileW@28      10043004     kernel32:KERNEL32.dll
 0002:00000008       __imp__CloseHandle@4       10043008     kernel32:KERNEL32.dll
 0002:0000000c       __imp__WriteConsoleW@20    1004300c     kernel32:KERNEL32.dll
 0002:00000010       __imp__SetFilePointerEx@20 10043010     kernel32:KERNEL32.dll
 0002:00000014       __imp__SetStdHandle@8      10043014     kernel32:KERNEL32.dll
 0002:00000018       __imp__GetConsoleMode@8    10043018     kernel32:KERNEL32.dll
 0002:0000001c       __imp__GetConsoleCP@0      1004301c     kernel32:KERNEL32.dll
 0002:00000020       __imp__FlushFileBuffers@4  10043020     kernel32:KERNEL32.dll
 0002:00000024       __imp__HeapSize@12         10043024     kernel32:KERNEL32.dll
 0002:00000028       __imp__OutputDebugStringW@4 10043028     kernel32:KERNEL32.dll
 0002:0000002c       __imp__GetStringTypeW@16   1004302c     kernel32:KERNEL32.dll
 0002:00000030       __imp__HeapReAlloc@16      10043030     kernel32:KERNEL32.dll
 0002:00000034       __imp__LoadLibraryExW@12   10043034     kernel32:KERNEL32.dll
 0002:00000038       __imp__FreeLibrary@4       10043038     kernel32:KERNEL32.dll
 0002:0000003c       __imp__GetModuleFileNameW@12 1004303c     kernel32:KERNEL32.dll
 0002:00000040       __imp__WriteFile@20        10043040     kernel32:KERNEL32.dll
 0002:00000044       __imp__RtlUnwind@16        10043044     kernel32:KERNEL32.dll
 0002:00000048       __imp__HeapAlloc@12        10043048     kernel32:KERNEL32.dll
 0002:0000004c       __imp__FatalAppExitA@8     1004304c     kernel32:KERNEL32.dll
 0002:00000050       __imp__LeaveCriticalSection@4 10043050     kernel32:KERNEL32.dll
 0002:00000054       __imp__EnterCriticalSection@4 10043054     kernel32:KERNEL32.dll
 0002:00000058       __imp__GetCPInfo@8         10043058     kernel32:KERNEL32.dll
 0002:0000005c       __imp__GetOEMCP@0          1004305c     kernel32:KERNEL32.dll
 0002:00000060       __imp__GetACP@0            10043060     kernel32:KERNEL32.dll
 0002:00000064       __imp__IsValidCodePage@4   10043064     kernel32:KERNEL32.dll
 0002:00000068       __imp__EnumSystemLocalesW@8 10043068     kernel32:KERNEL32.dll
 0002:0000006c       __imp__GetUserDefaultLCID@0 1004306c     kernel32:KERNEL32.dll
 0002:00000070       __imp__EncodePointer@4     10043070     kernel32:KERNEL32.dll
 0002:00000074       __imp__DecodePointer@4     10043074     kernel32:KERNEL32.dll
 0002:00000078       __imp__GetCommandLineA@0   10043078     kernel32:KERNEL32.dll
 0002:0000007c       __imp__GetCurrentThreadId@0 1004307c     kernel32:KERNEL32.dll
 0002:00000080       __imp__IsProcessorFeaturePresent@4 10043080     kernel32:KERNEL32.dll
 0002:00000084       __imp__GetLastError@0      10043084     kernel32:KERNEL32.dll
 0002:00000088       __imp__HeapFree@12         10043088     kernel32:KERNEL32.dll
 0002:0000008c       __imp__RaiseException@16   1004308c     kernel32:KERNEL32.dll
 0002:00000090       __imp__SetLastError@4      10043090     kernel32:KERNEL32.dll
 0002:00000094       __imp__GetCurrentThread@0  10043094     kernel32:KERNEL32.dll
 0002:00000098       __imp__ExitProcess@4       10043098     kernel32:KERNEL32.dll
 0002:0000009c       __imp__GetModuleHandleExW@12 1004309c     kernel32:KERNEL32.dll
 0002:000000a0       __imp__GetProcAddress@8    100430a0     kernel32:KERNEL32.dll
 0002:000000a4       __imp__AreFileApisANSI@0   100430a4     kernel32:KERNEL32.dll
 0002:000000a8       __imp__MultiByteToWideChar@24 100430a8     kernel32:KERNEL32.dll
 0002:000000ac       __imp__WideCharToMultiByte@32 100430ac     kernel32:KERNEL32.dll
 0002:000000b0       __imp__GetProcessHeap@0    100430b0     kernel32:KERNEL32.dll
 0002:000000b4       __imp__GetStdHandle@4      100430b4     kernel32:KERNEL32.dll
 0002:000000b8       __imp__GetFileType@4       100430b8     kernel32:KERNEL32.dll
 0002:000000bc       __imp__DeleteCriticalSection@4 100430bc     kernel32:KERNEL32.dll
 0002:000000c0       __imp__GetStartupInfoW@4   100430c0     kernel32:KERNEL32.dll
 0002:000000c4       __imp__GetModuleFileNameA@12 100430c4     kernel32:KERNEL32.dll
 0002:000000c8       __imp__QueryPerformanceCounter@4 100430c8     kernel32:KERNEL32.dll
 0002:000000cc       __imp__GetCurrentProcessId@0 100430cc     kernel32:KERNEL32.dll
 0002:000000d0       __imp__GetSystemTimeAsFileTime@4 100430d0     kernel32:KERNEL32.dll
 0002:000000d4       __imp__GetEnvironmentStringsW@0 100430d4     kernel32:KERNEL32.dll
 0002:000000d8       __imp__IsValidLocale@8     100430d8     kernel32:KERNEL32.dll
 0002:000000dc       __imp__UnhandledExceptionFilter@4 100430dc     kernel32:KERNEL32.dll
 0002:000000e0       __imp__SetUnhandledExceptionFilter@4 100430e0     kernel32:KERNEL32.dll
 0002:000000e4       __imp__InitializeCriticalSectionAndSpinCount@8 100430e4     kernel32:KERNEL32.dll
 0002:000000e8       __imp__CreateEventW@16     100430e8     kernel32:KERNEL32.dll
 0002:000000ec       __imp__Sleep@4             100430ec     kernel32:KERNEL32.dll
 0002:000000f0       __imp__GetCurrentProcess@0 100430f0     kernel32:KERNEL32.dll
 0002:000000f4       __imp__TerminateProcess@8  100430f4     kernel32:KERNEL32.dll
 0002:000000f8       __imp__TlsAlloc@0          100430f8     kernel32:KERNEL32.dll
 0002:000000fc       __imp__TlsGetValue@4       100430fc     kernel32:KERNEL32.dll
 0002:00000100       __imp__TlsSetValue@8       10043100     kernel32:KERNEL32.dll
 0002:00000104       __imp__TlsFree@4           10043104     kernel32:KERNEL32.dll
 0002:00000108       __imp__GetTickCount@0      10043108     kernel32:KERNEL32.dll
 0002:0000010c       __imp__GetModuleHandleW@4  1004310c     kernel32:KERNEL32.dll
 0002:00000110       __imp__CreateSemaphoreW@16 10043110     kernel32:KERNEL32.dll
 0002:00000114       __imp__SetConsoleCtrlHandler@8 10043114     kernel32:KERNEL32.dll
 0002:00000118       __imp__IsDebuggerPresent@0 10043118     kernel32:KERNEL32.dll
 0002:0000011c       __imp__GetDateFormatW@24   1004311c     kernel32:KERNEL32.dll
 0002:00000120       __imp__GetTimeFormatW@24   10043120     kernel32:KERNEL32.dll
 0002:00000124       __imp__CompareStringW@24   10043124     kernel32:KERNEL32.dll
 0002:00000128       __imp__LCMapStringW@24     10043128     kernel32:KERNEL32.dll
 0002:0000012c       __imp__GetLocaleInfoW@16   1004312c     kernel32:KERNEL32.dll
 0002:00000130       \177KERNEL32_NULL_THUNK_DATA 10043130     kernel32:KERNEL32.dll
 0002:00000134       __imp_?GetRaycastFuncTable@Gu@physx@@YAAAY06P6AIABVPxGeometry@2@ABVPxTransform@2@ABVPxVec3@2@2MV?$PxFlags@W4Enum@PxHitFlag@physx@@G@2@IPIAUPxRaycastHit@2@_NP6A_NAAU72@PAX@Z7@ZXZ 10043134     PhysX3Common_x86:PhysX3Common_x86.dll
 0002:00000138       __imp_?distanceSegmentSegmentSquaredOLD@Gu@physx@@YAMABVPxVec3@2@000PAM1@Z 10043138     PhysX3Common_x86:PhysX3Common_x86.dll
 0002:0000013c       __imp_?CompleteBoxPruning@Gu@physx@@YA_NPBVPxBounds3@2@IAAV?$Array@IV?$ReflectionAllocator@I@shdfnd@physx@@@shdfnd@2@ABVAxes@12@@Z 1004313c     PhysX3Common_x86:PhysX3Common_x86.dll
 0002:00000140       __imp_?error@Foundation@shdfnd@physx@@QAAXW4Enum@PxErrorCode@3@PBDH1ZZ 10043140     PhysX3Common_x86:PhysX3Common_x86.dll
 0002:00000144       __imp_?decRefCount@Foundation@shdfnd@physx@@SAXXZ 10043144     PhysX3Common_x86:PhysX3Common_x86.dll
 0002:00000148       __imp_?incRefCount@Foundation@shdfnd@physx@@SAXXZ 10043148     PhysX3Common_x86:PhysX3Common_x86.dll
 0002:0000014c       __imp_?getInstance@Foundation@shdfnd@physx@@SAAAV123@XZ 1004314c     PhysX3Common_x86:PhysX3Common_x86.dll
 0002:00000150       __imp_?allocate@Allocator@shdfnd@physx@@QAEPAXIPBDH@Z 10043150     PhysX3Common_x86:PhysX3Common_x86.dll
 0002:00000154       __imp_?intersectTriangleBox@Gu@physx@@YAHABVPxVec3@2@0000@Z 10043154     PhysX3Common_x86:PhysX3Common_x86.dll
 0002:00000158       __imp_??6RenderOutput@Cm@physx@@QAEAAV012@VPxVec3@2@@Z 10043158     PhysX3Common_x86:PhysX3Common_x86.dll
 0002:0000015c       __imp_??6RenderOutput@Cm@physx@@QAEAAV012@W4Primitive@012@@Z 1004315c     PhysX3Common_x86:PhysX3Common_x86.dll
 0002:00000160       __imp_?getTriangle@PxMeshQuery@physx@@SAXABVPxHeightFieldGeometry@2@ABVPxTransform@2@IAAVPxTriangle@2@PAI3@Z 10043160     PhysX3Common_x86:PhysX3Common_x86.dll
 0002:00000164       __imp_?getTriangle@PxMeshQuery@physx@@SAXABVPxTriangleMeshGeometry@2@ABVPxTransform@2@IAAVPxTriangle@2@PAI3@Z 10043164     PhysX3Common_x86:PhysX3Common_x86.dll
 0002:00000168       __imp_?sweep@PxMeshQuery@physx@@SA_NABVPxVec3@2@MABVPxGeometry@2@ABVPxTransform@2@IPBVPxTriangle@2@AAUPxSweepHit@2@V?$PxFlags@W4Enum@PxHitFlag@physx@@G@2@PBIM_N@Z 10043168     PhysX3Common_x86:PhysX3Common_x86.dll
 0002:0000016c       __imp_?distanceSegmentBoxSquared@Gu@physx@@YAMABVPxVec3@2@000ABVPxMat33@2@PAMPAV32@@Z 1004316c     PhysX3Common_x86:PhysX3Common_x86.dll
 0002:00000170       __imp_?intersectOBBOBB@Gu@physx@@YA_NABVPxVec3@2@0ABVPxMat33@2@001_N@Z 10043170     PhysX3Common_x86:PhysX3Common_x86.dll
 0002:00000174       __imp_??6Cm@physx@@YAAAVRenderOutput@01@AAV201@ABUDebugBox@01@@Z 10043174     PhysX3Common_x86:PhysX3Common_x86.dll
 0002:00000178       __imp_?outputCapsule@RenderOutput@Cm@physx@@QAEAAV123@MMABVMatrix34@23@@Z 10043178     PhysX3Common_x86:PhysX3Common_x86.dll
 0002:0000017c       __imp_??6RenderOutput@Cm@physx@@QAEAAV012@ABVPxTransform@2@@Z 1004317c     PhysX3Common_x86:PhysX3Common_x86.dll
 0002:00000180       __imp_??6RenderOutput@Cm@physx@@QAEAAV012@I@Z 10043180     PhysX3Common_x86:PhysX3Common_x86.dll
 0002:00000184       __imp_??0RenderOutput@Cm@physx@@QAE@AAVRenderBuffer@12@@Z 10043184     PhysX3Common_x86:PhysX3Common_x86.dll
 0002:00000188       __imp_?getAllocator@shdfnd@physx@@YAAAVPxAllocatorCallback@2@XZ 10043188     PhysX3Common_x86:PhysX3Common_x86.dll
 0002:0000018c       __imp_?computePenetration@PxGeometryQuery@physx@@SA_NAAVPxVec3@2@AAMABVPxGeometry@2@ABVPxTransform@2@23@Z 1004318c     PhysX3Common_x86:PhysX3Common_x86.dll
 0002:00000190       __imp_?sweep@PxGeometryQuery@physx@@SA_NABVPxVec3@2@MABVPxGeometry@2@ABVPxTransform@2@12AAUPxSweepHit@2@V?$PxFlags@W4Enum@PxHitFlag@physx@@G@2@M@Z 10043190     PhysX3Common_x86:PhysX3Common_x86.dll
 0002:00000194       __imp_?PxTransformFromSegment@physx@@YA?AVPxTransform@1@ABVPxVec3@1@0PAM@Z 10043194     PhysX3Common_x86:PhysX3Common_x86.dll
 0002:00000198       __imp__PxGetFoundation     10043198     PhysX3Common_x86:PhysX3Common_x86.dll
 0002:0000019c       __imp_?deallocate@Allocator@shdfnd@physx@@QAEXPAX@Z 1004319c     PhysX3Common_x86:PhysX3Common_x86.dll
 0002:000001a0       __imp_?findOverlapTriangleMesh@PxMeshQuery@physx@@SAIABVPxGeometry@2@ABVPxTransform@2@ABVPxTriangleMeshGeometry@2@1PAIIIAA_N@Z 100431a0     PhysX3Common_x86:PhysX3Common_x86.dll
 0002:000001a4       __imp_?findOverlapHeightField@PxMeshQuery@physx@@SAIABVPxGeometry@2@ABVPxTransform@2@ABVPxHeightFieldGeometry@2@1PAIIIAA_N@Z 100431a4     PhysX3Common_x86:PhysX3Common_x86.dll
 0002:000001a8       __imp_?PxDiagonalize@physx@@YA?AVPxVec3@1@ABVPxMat33@1@AAVPxQuat@1@@Z 100431a8     PhysX3Common_x86:PhysX3Common_x86.dll
 0002:000001ac       \177PhysX3Common_x86_NULL_THUNK_DATA 100431ac     PhysX3Common_x86:PhysX3Common_x86.dll
 0002:000001b0       ___xc_a                    100431b0     LIBCMT:crt0init.obj
 0002:000001e4       ___xc_z                    100431e4     LIBCMT:crt0init.obj
 0002:000001e8       ___xi_a                    100431e8     LIBCMT:crt0init.obj
 0002:000001fc       ___xi_z                    100431fc     LIBCMT:crt0init.obj
 0002:00000200       ___xp_a                    10043200     LIBCMT:crt0init.obj
 0002:00000210       ___xp_z                    10043210     LIBCMT:crt0init.obj
 0002:00000214       ___xt_a                    10043214     LIBCMT:crt0init.obj
 0002:00000218       ___xt_z                    10043218     LIBCMT:crt0init.obj
 0002:0000025c       ??_7PxController@physx@@6B@ 1004325c     CctBoxController.obj
 0002:000002c4       ??_7PxBoxController@physx@@6B@ 100432c4     CctBoxController.obj
 0002:00000344       ??_7BoxController@Cct@physx@@6BPxBoxController@2@@ 10043344     CctBoxController.obj
 0002:000003c4       ??_7BoxController@Cct@physx@@6BController@12@@ 100433c4     CctBoxController.obj
 0002:000003d8       __real@00000000            100433d8     CctBoxController.obj
 0002:000003dc       __real@3f000000            100433dc     CctBoxController.obj
 0002:000003e0       __xmm@3fe00000000000003fe0000000000000 100433e0     CctBoxController.obj
 0002:000003f4       ??_7PxCapsuleController@physx@@6B@ 100433f4     CctCapsuleController.obj
 0002:00000474       ??_7CapsuleController@Cct@physx@@6BPxCapsuleController@2@@ 10043474     CctCapsuleController.obj
 0002:000004f4       ??_7CapsuleController@Cct@physx@@6BController@12@@ 100434f4     CctCapsuleController.obj
 0002:00000550       ?g_PXSinCoefficients0@aos@shdfnd@physx@@3UPX_VECTORF32@123@B 10043550     CctCharacterController.obj
 0002:00000560       ?g_PXSinCoefficients1@aos@shdfnd@physx@@3UPX_VECTORF32@123@B 10043560     CctCharacterController.obj
 0002:00000570       ?g_PXSinCoefficients2@aos@shdfnd@physx@@3UPX_VECTORF32@123@B 10043570     CctCharacterController.obj
 0002:00000580       ?g_PXCosCoefficients0@aos@shdfnd@physx@@3UPX_VECTORF32@123@B 10043580     CctCharacterController.obj
 0002:00000590       ?g_PXCosCoefficients1@aos@shdfnd@physx@@3UPX_VECTORF32@123@B 10043590     CctCharacterController.obj
 0002:000005a0       ?g_PXCosCoefficients2@aos@shdfnd@physx@@3UPX_VECTORF32@123@B 100435a0     CctCharacterController.obj
 0002:000005b0       ?g_PXTanCoefficients0@aos@shdfnd@physx@@3UPX_VECTORF32@123@B 100435b0     CctCharacterController.obj
 0002:000005c0       ?g_PXTanCoefficients1@aos@shdfnd@physx@@3UPX_VECTORF32@123@B 100435c0     CctCharacterController.obj
 0002:000005d0       ?g_PXTanCoefficients2@aos@shdfnd@physx@@3UPX_VECTORF32@123@B 100435d0     CctCharacterController.obj
 0002:000005e0       ?g_PXASinCoefficients0@aos@shdfnd@physx@@3UPX_VECTORF32@123@B 100435e0     CctCharacterController.obj
 0002:000005f0       ?g_PXASinCoefficients1@aos@shdfnd@physx@@3UPX_VECTORF32@123@B 100435f0     CctCharacterController.obj
 0002:00000600       ?g_PXASinCoefficients2@aos@shdfnd@physx@@3UPX_VECTORF32@123@B 10043600     CctCharacterController.obj
 0002:00000610       ?g_PXATanCoefficients0@aos@shdfnd@physx@@3UPX_VECTORF32@123@B 10043610     CctCharacterController.obj
 0002:00000620       ?g_PXATanCoefficients1@aos@shdfnd@physx@@3UPX_VECTORF32@123@B 10043620     CctCharacterController.obj
 0002:00000630       ?g_PXATanCoefficients2@aos@shdfnd@physx@@3UPX_VECTORF32@123@B 10043630     CctCharacterController.obj
 0002:00000640       ?g_PXSinEstCoefficients@aos@shdfnd@physx@@3UPX_VECTORF32@123@B 10043640     CctCharacterController.obj
 0002:00000650       ?g_PXCosEstCoefficients@aos@shdfnd@physx@@3UPX_VECTORF32@123@B 10043650     CctCharacterController.obj
 0002:00000660       ?g_PXASinEstCoefficients@aos@shdfnd@physx@@3UPX_VECTORF32@123@B 10043660     CctCharacterController.obj
 0002:00000670       ??_7?$PxHitCallback@UPxRaycastHit@physx@@@physx@@6B@ 10043670     CctCharacterController.obj
 0002:0000067c       ??_7?$PxHitBuffer@UPxRaycastHit@physx@@@physx@@6B@ 1004367c     CctCharacterController.obj
 0002:00000688       ??_7PxQueryFilterCallback@physx@@6B@ 10043688     CctCharacterController.obj
 0002:00000694       ??_7PxControllerManager@physx@@6B@ 10043694     CctCharacterController.obj
 0002:000006e0       ??_C@_0FI@CHGNDKDL@C?3?2PhysX?5SDK?2PhysX?93?43?9master?2Ph@ 100436e0     CctCharacterController.obj
 0002:00000738       ??_C@_0FJ@PJMJBLIO@The?5PxControllerManager?3?3createC@ 10043738     CctCharacterController.obj
 0002:00000794       ??_7ControllerFilter@@6B@  10043794     CctCharacterController.obj
 0002:000007a0       ??_C@_0BM@OIFKLHDN@?$DMallocation?5names?5disabled?$DO?$AA@ 100437a0     CctCharacterController.obj
 0002:000007c0       ??_C@_0EL@BKMLHFN@C?3?2PhysX?5SDK?2PhysX?93?43?9master?2Ph@ 100437c0     CctCharacterController.obj
 0002:0000080c       __real@3a83126f            1004380c     CctCharacterController.obj
 0002:00000810       __real@3eb0c6f7a0b5ed8d    10043810     CctCharacterController.obj
 0002:00000818       __real@3ee66666            10043818     CctCharacterController.obj
 0002:0000081c       __real@3f800000            1004381c     CctCharacterController.obj
 0002:00000820       __real@3fb999999999999a    10043820     CctCharacterController.obj
 0002:00000828       __real@3fe0000000000000    10043828     CctCharacterController.obj
 0002:00000830       __real@40000000            10043830     CctCharacterController.obj
 0002:00000834       __real@ba83126f            10043834     CctCharacterController.obj
 0002:00000840       __xmm@0000000000000000000000003f800000 10043840     CctCharacterController.obj
 0002:00000850       __xmm@000000003a83126f3a83126f3a83126f 10043850     CctCharacterController.obj
 0002:00000860       __xmm@000000007f7fffff0000000000000000 10043860     CctCharacterController.obj
 0002:00000870       __xmm@00000000ba83126fba83126fba83126f 10043870     CctCharacterController.obj
 0002:00000880       __xmm@3f800000000000000000000000000000 10043880     CctCharacterController.obj
 0002:00000890       __xmm@7fefffffffffffff7fefffffffffffff 10043890     CctCharacterController.obj
 0002:000008a0       __xmm@7fffffff7fffffff7fffffff7fffffff 100438a0     CctCharacterController.obj
 0002:000008b0       __xmm@80000000800000008000000080000000 100438b0     CctCharacterController.obj
 0002:000008c0       __xmm@ffefffffffffffffffefffffffffffff 100438c0     CctCharacterController.obj
 0002:000008d8       ??_7?$PxHitCallback@UPxOverlapHit@physx@@@physx@@6B@ 100438d8     CctCharacterControllerCallbacks.obj
 0002:000008e4       ??_7?$PxHitBuffer@UPxOverlapHit@physx@@@physx@@6B@ 100438e4     CctCharacterControllerCallbacks.obj
 0002:000008f0       __real@3c23d70a            100438f0     CctCharacterControllerCallbacks.obj
 0002:000008f4       __real@3f7ff972            100438f4     CctCharacterControllerCallbacks.obj
 0002:00000900       __xmm@000000003f8000003f8000003f800000 10043900     CctCharacterControllerCallbacks.obj
 0002:00000910       __xmm@80000000000000008000000000000000 10043910     CctCharacterControllerCallbacks.obj
 0002:00000950       ??_7PxRenderBuffer@physx@@6B@ 10043950     CctCharacterControllerManager.obj
 0002:0000097c       ??_7RenderBuffer@Cm@physx@@6B@ 1004397c     CctCharacterControllerManager.obj
 0002:000009a8       ??_7CharacterControllerManager@Cct@physx@@6B@ 100439a8     CctCharacterControllerManager.obj
 0002:000009f8       ??_C@_0EE@IHHKBLHK@?4?4?2?4?4?2PhysXCharacterKinematic?2sr@ 100439f8     CctCharacterControllerManager.obj
 0002:00000a3c       ??_C@_0DJ@FJGFFNLM@PxControllerManager?3?3getControll@ 10043a3c     CctCharacterControllerManager.obj
 0002:00000a78       ??_C@_0DO@NLBEEDJJ@PxControllerManager?3?3getObstacle@ 10043a78     CctCharacterControllerManager.obj
 0002:00000ab8       ??_C@_0FD@HFOAEJAL@c?3?2physx?5sdk?2physx?93?43?9master?2ph@ 10043ab8     CctCharacterControllerManager.obj
 0002:00000b0c       __real@358637bd            10043b0c     CctCharacterControllerManager.obj
 0002:00000b10       __real@40800000            10043b10     CctCharacterControllerManager.obj
 0002:00000b20       __xmm@41f00000000000000000000000000000 10043b20     CctCharacterControllerManager.obj
 0002:00000b34       ??_7PxDeletionListener@physx@@6B@ 10043b34     CctController.obj
 0002:00000b3c       ??_7Controller@Cct@physx@@6B@ 10043b3c     CctController.obj
 0002:00000b50       __real@3dcccccd            10043b50     CctController.obj
 0002:00000b54       __real@bf7fff58            10043b54     CctController.obj
 0002:00000b5c       ??_7PxObstacleContext@physx@@6B@ 10043b5c     CctObstacleContext.obj
 0002:00000b80       ??_7ObstacleContext@Cct@physx@@6B@ 10043b80     CctObstacleContext.obj
 0002:00000ba4       ??_C@_0DJ@FPEJDNHL@?4?4?2?4?4?2PhysXCharacterKinematic?2sr@ 10043ba4     CctObstacleContext.obj
 0002:00000be0       ??_C@_0EL@IKKPJEFJ@c?3?2physx?5sdk?2physx?93?43?9master?2ph@ 10043be0     CctObstacleContext.obj
 0002:00000c2c       __real@7f7fffff            10043c2c     CctObstacleContext.obj
 0002:00000c34       ??_7SweptBox@Cct@physx@@6B@ 10043c34     CctSweptBox.obj
 0002:00000c40       ??_7SweptCapsule@Cct@physx@@6B@ 10043c40     CctSweptCapsule.obj
 0002:00000c4c       ??_7SweptVolume@Cct@physx@@6B@ 10043c4c     CctSweptVolume.obj
 0002:00000c58       ??_C@_0DB@HFONPIBD@?4?4?2?4?4?2PhysXExtensions?2src?2ExtTri@ 10043c58     PhysX3Extensions:ExtTriangleMeshExt.obj
 0002:00000c90       ??_7?$PxHitCallback@UPxSweepHit@physx@@@physx@@6B@ 10043c90     PhysX3Extensions:ExtRigidBodyExt.obj
 0002:00000c9c       ??_7?$PxHitBuffer@UPxSweepHit@physx@@@physx@@6B@ 10043c9c     PhysX3Extensions:ExtRigidBodyExt.obj
 0002:00000ca8       ??_C@_0IE@PMLMABKM@?$CFs?3?5inertia?5tensor?5has?5negative?5@ 10043ca8     PhysX3Extensions:ExtRigidBodyExt.obj
 0002:00000d2c       ??_C@_0CO@PEEEKJKP@?4?4?2?4?4?2PhysXExtensions?2src?2ExtRig@ 10043d2c     PhysX3Extensions:ExtRigidBodyExt.obj
 0002:00000d60       ??_C@_0ED@GFJAKEFC@computeMassAndInertia?3?5Provided?5@ 10043d60     PhysX3Extensions:ExtRigidBodyExt.obj
 0002:00000da8       ??_C@_0FL@MGPHIFPL@computeMassAndInertia?3?5Not?5enoug@ 10043da8     PhysX3Extensions:ExtRigidBodyExt.obj
 0002:00000e08       ??_C@_0ED@IINBLCPB@computeMassAndInertia?3?5Dynamic?5a@ 10043e08     PhysX3Extensions:ExtRigidBodyExt.obj
 0002:00000e4c       ??_C@_0CF@NFENOJIA@PxRigidBodyExt?3?3updateMassAndIne@ 10043e4c     PhysX3Extensions:ExtRigidBodyExt.obj
 0002:00000e78       ??_C@_0FC@JIKFFKAL@?$CFs?3?5Mass?5and?5inertia?5computation@ 10043e78     PhysX3Extensions:ExtRigidBodyExt.obj
 0002:00000ed0       ??_C@_0ED@BHIJHOEP@?$CFs?3?5No?5density?5specified?0?5settin@ 10043ed0     PhysX3Extensions:ExtRigidBodyExt.obj
 0002:00000f14       ??_C@_0CI@NNBNKKJG@PxRigidBodyExt?3?3setMassAndUpdate@ 10043f14     PhysX3Extensions:ExtRigidBodyExt.obj
 0002:00000f40       ??_C@_0EA@JNKKHEHF@?$CFs?3?5No?5mass?5specified?0?5setting?5m@ 10043f40     PhysX3Extensions:ExtRigidBodyExt.obj
 0002:00000f80       ??_C@_0FI@DKLFOMEB@PxRigidBodyExt?3?3addForce?5methods@ 10043f80     PhysX3Extensions:ExtRigidBodyExt.obj
 0002:00000fd8       __real@3d888889            10043fd8     PhysX3Extensions:ExtRigidBodyExt.obj
 0002:00000fdc       __real@3daaaaab            10043fdc     PhysX3Extensions:ExtRigidBodyExt.obj
 0002:00000fe0       __real@3eaaaaab            10043fe0     PhysX3Extensions:ExtRigidBodyExt.obj
 0002:00000fe4       __real@3ecccccd            10043fe4     PhysX3Extensions:ExtRigidBodyExt.obj
 0002:00000fe8       __real@3f2aaaab            10043fe8     PhysX3Extensions:ExtRigidBodyExt.obj
 0002:00000fec       __real@40400000            10043fec     PhysX3Extensions:ExtRigidBodyExt.obj
 0002:00000ff0       __real@40490fdb            10043ff0     PhysX3Extensions:ExtRigidBodyExt.obj
 0002:00000ff4       __real@40860a92            10043ff4     PhysX3Extensions:ExtRigidBodyExt.obj
 0002:00000ff8       __real@41000000            10043ff8     PhysX3Extensions:ExtRigidBodyExt.obj
 0002:00000ffc       __FPinit                   10043ffc     LIBCMT:fpinit.obj
 0002:00001000       ?value@?$integral_constant@_N$0A@@std@@2_NB 10044000     LIBCMT:typinfo.obj
 0002:00001001       ?value@?$integral_constant@_N$00@std@@2_NB 10044001     LIBCMT:typinfo.obj
 0002:00001008       ??_7type_info@@6B@         10044008     LIBCMT:typinfo.obj
 0002:0000100c       ?ProcessDetach@NativeDll@<CrtImplementationDetails>@@0IB 1004400c     LIBCMT:tncleanup.obj
 0002:00001010       ?ProcessAttach@NativeDll@<CrtImplementationDetails>@@0IB 10044010     LIBCMT:tncleanup.obj
 0002:00001014       ?ThreadAttach@NativeDll@<CrtImplementationDetails>@@0IB 10044014     LIBCMT:tncleanup.obj
 0002:00001018       ?ThreadDetach@NativeDll@<CrtImplementationDetails>@@0IB 10044018     LIBCMT:tncleanup.obj
 0002:0000101c       ?ProcessVerifier@NativeDll@<CrtImplementationDetails>@@0IB 1004401c     LIBCMT:tncleanup.obj
 0002:000010a4       __pDefaultRawDllMain       100440a4     LIBCMT:dllcrt0.obj
 0002:000010a4       __pRawDllMain              100440a4     LIBCMT:dllcrt0.obj
 0002:000010a8       __real@0000000000000000    100440a8     LIBCMT:ieeemisc.obj
 0002:000010b0       __real@3ff0000000000000    100440b0     LIBCMT:ieeemisc.obj
 0002:000010b8       ??_C@_05KLBDPFGC@e?$CL000?$AA@ 100440b8     LIBCMT:cvt.obj
 0002:000010c0       ??_C@_03KHJOGHMM@exp?$AA@  100440c0     LIBCMT:fpexcept.obj
 0002:000010c4       ??_C@_03JGHBODFD@pow?$AA@  100440c4     LIBCMT:fpexcept.obj
 0002:000010c8       ??_C@_03MGHMBJCF@log?$AA@  100440c8     LIBCMT:fpexcept.obj
 0002:000010cc       ??_C@_05HGHHAHAP@log10?$AA@ 100440cc     LIBCMT:fpexcept.obj
 0002:000010d4       ??_C@_04COOMCNPB@sinh?$AA@ 100440d4     LIBCMT:fpexcept.obj
 0002:000010dc       ??_C@_04HPJJNFIM@cosh?$AA@ 100440dc     LIBCMT:fpexcept.obj
 0002:000010e4       ??_C@_04FJHINJAO@tanh?$AA@ 100440e4     LIBCMT:fpexcept.obj
 0002:000010ec       ??_C@_04FIHNOPOL@asin?$AA@ 100440ec     LIBCMT:fpexcept.obj
 0002:000010f4       ??_C@_04PDIFKINK@acos?$AA@ 100440f4     LIBCMT:fpexcept.obj
 0002:000010fc       ??_C@_04MLLJIGOK@atan?$AA@ 100440fc     LIBCMT:fpexcept.obj
 0002:00001104       ??_C@_05KNGEOGJB@atan2?$AA@ 10044104     LIBCMT:fpexcept.obj
 0002:0000110c       ??_C@_04EIAKFFMI@sqrt?$AA@ 1004410c     LIBCMT:fpexcept.obj
 0002:00001114       ??_C@_03BLEJJJBH@sin?$AA@  10044114     LIBCMT:fpexcept.obj
 0002:00001118       ??_C@_03LALBNOCG@cos?$AA@  10044118     LIBCMT:fpexcept.obj
 0002:0000111c       ??_C@_03IIINPABG@tan?$AA@  1004411c     LIBCMT:fpexcept.obj
 0002:00001120       ??_C@_04GFPJNGEK@ceil?$AA@ 10044120     LIBCMT:fpexcept.obj
 0002:00001128       ??_C@_05PBJFFIGL@floor?$AA@ 10044128     LIBCMT:fpexcept.obj
 0002:00001130       ??_C@_04ODHECPBC@fabs?$AA@ 10044130     LIBCMT:fpexcept.obj
 0002:00001138       ??_C@_04EHEDPDJG@modf?$AA@ 10044138     LIBCMT:fpexcept.obj
 0002:00001140       ??_C@_05CEJMAHNP@ldexp?$AA@ 10044140     LIBCMT:fpexcept.obj
 0002:00001148       ??_C@_05KBKMEMPO@_cabs?$AA@ 10044148     LIBCMT:fpexcept.obj
 0002:00001150       ??_C@_06MEIMCGCF@_hypot?$AA@ 10044150     LIBCMT:fpexcept.obj
 0002:00001158       ??_C@_04KEPJIHGP@fmod?$AA@ 10044158     LIBCMT:fpexcept.obj
 0002:00001160       ??_C@_05GKKHEGJL@frexp?$AA@ 10044160     LIBCMT:fpexcept.obj
 0002:00001168       ??_C@_03MJLDFKDL@_y0?$AA@  10044168     LIBCMT:fpexcept.obj
 0002:0000116c       ??_C@_03NAKIGLHK@_y1?$AA@  1004416c     LIBCMT:fpexcept.obj
 0002:00001170       ??_C@_03ONILCKOB@_yn?$AA@  10044170     LIBCMT:fpexcept.obj
 0002:00001174       ??_C@_05JGDBENOH@_logb?$AA@ 10044174     LIBCMT:fpexcept.obj
 0002:0000117c       ??_C@_0L@KDOEJCKC@_nextafter?$AA@ 1004417c     LIBCMT:fpexcept.obj
 0002:00001188       __XcptActTab               10044188     LIBCMT:winxfltr.obj
 0002:00001218       __XcptActTabCount          10044218     LIBCMT:winxfltr.obj
 0002:0000121c       __XcptActTabSize           1004421c     LIBCMT:winxfltr.obj
 0002:00001220       __First_FPE_Indx           10044220     LIBCMT:winxfltr.obj
 0002:00001224       __Num_FPE                  10044224     LIBCMT:winxfltr.obj
 0002:00001228       ??_C@_1BI@BGOHAHKC@?$AAm?$AAs?$AAc?$AAo?$AAr?$AAe?$AAe?$AA?4?$AAd?$AAl?$AAl?$AA?$AA@ 10044228     LIBCMT:crt0dat.obj
 0002:00001240       ??_C@_0P@MIGLKIOC@CorExitProcess?$AA@ 10044240     LIBCMT:crt0dat.obj
 0002:00001250       ??_C@_1BK@MGMFAEKH@?$AAk?$AAe?$AAr?$AAn?$AAe?$AAl?$AA3?$AA2?$AA?4?$AAd?$AAl?$AAl?$AA?$AA@ 10044250     LIBCMT:winapisupp.obj
 0002:0000126c       ??_C@_08KNHFBNJ@FlsAlloc?$AA@ 1004426c     LIBCMT:winapisupp.obj
 0002:00001278       ??_C@_07PEJMOBNF@FlsFree?$AA@ 10044278     LIBCMT:winapisupp.obj
 0002:00001280       ??_C@_0M@GDNOONDI@FlsGetValue?$AA@ 10044280     LIBCMT:winapisupp.obj
 0002:0000128c       ??_C@_0M@JCPCPOEF@FlsSetValue?$AA@ 1004428c     LIBCMT:winapisupp.obj
 0002:00001298       ??_C@_0BM@HCFOFFN@InitializeCriticalSectionEx?$AA@ 10044298     LIBCMT:winapisupp.obj
 0002:000012b4       ??_C@_0P@DLHPPCNH@CreateEventExW?$AA@ 100442b4     LIBCMT:winapisupp.obj
 0002:000012c4       ??_C@_0BD@KIEEOEEH@CreateSemaphoreExW?$AA@ 100442c4     LIBCMT:winapisupp.obj
 0002:000012d8       ??_C@_0BI@BKLFFAPO@SetThreadStackGuarantee?$AA@ 100442d8     LIBCMT:winapisupp.obj
 0002:000012f0       ??_C@_0BG@OGFAJCKC@CreateThreadpoolTimer?$AA@ 100442f0     LIBCMT:winapisupp.obj
 0002:00001308       ??_C@_0BD@LPLEMMDI@SetThreadpoolTimer?$AA@ 10044308     LIBCMT:winapisupp.obj
 0002:0000131c       ??_C@_0CA@FMNJENH@WaitForThreadpoolTimerCallbacks?$AA@ 1004431c     LIBCMT:winapisupp.obj
 0002:0000133c       ??_C@_0BF@DCFCCNOC@CloseThreadpoolTimer?$AA@ 1004433c     LIBCMT:winapisupp.obj
 0002:00001354       ??_C@_0BF@FLABGKKM@CreateThreadpoolWait?$AA@ 10044354     LIBCMT:winapisupp.obj
 0002:0000136c       ??_C@_0BC@MGCOHNA@SetThreadpoolWait?$AA@ 1004436c     LIBCMT:winapisupp.obj
 0002:00001380       ??_C@_0BE@OCIOMIMP@CloseThreadpoolWait?$AA@ 10044380     LIBCMT:winapisupp.obj
 0002:00001394       ??_C@_0BJ@LKGHFHBO@FlushProcessWriteBuffers?$AA@ 10044394     LIBCMT:winapisupp.obj
 0002:000013b0       ??_C@_0BP@KALKKPMO@FreeLibraryWhenCallbackReturns?$AA@ 100443b0     LIBCMT:winapisupp.obj
 0002:000013d0       ??_C@_0BK@DFNBACLA@GetCurrentProcessorNumber?$AA@ 100443d0     LIBCMT:winapisupp.obj
 0002:000013ec       ??_C@_0BP@KHGALBC@GetLogicalProcessorInformation?$AA@ 100443ec     LIBCMT:winapisupp.obj
 0002:0000140c       ??_C@_0BE@FKKLLFLM@CreateSymbolicLinkW?$AA@ 1004440c     LIBCMT:winapisupp.obj
 0002:00001420       ??_C@_0BJ@OHNKDLIJ@SetDefaultDllDirectories?$AA@ 10044420     LIBCMT:winapisupp.obj
 0002:0000143c       ??_C@_0BE@LJANKFHF@EnumSystemLocalesEx?$AA@ 1004443c     LIBCMT:winapisupp.obj
 0002:00001450       ??_C@_0BA@IHGNDAEB@CompareStringEx?$AA@ 10044450     LIBCMT:winapisupp.obj
 0002:00001460       ??_C@_0BA@EPCJIIPD@GetDateFormatEx?$AA@ 10044460     LIBCMT:winapisupp.obj
 0002:00001470       ??_C@_0BA@ONOKGCMP@GetLocaleInfoEx?$AA@ 10044470     LIBCMT:winapisupp.obj
 0002:00001480       ??_C@_0BA@CIJJKCJJ@GetTimeFormatEx?$AA@ 10044480     LIBCMT:winapisupp.obj
 0002:00001490       ??_C@_0BJ@PBCCBIPI@GetUserDefaultLocaleName?$AA@ 10044490     LIBCMT:winapisupp.obj
 0002:000014ac       ??_C@_0BC@CELBKLLA@IsValidLocaleName?$AA@ 100444ac     LIBCMT:winapisupp.obj
 0002:000014c0       ??_C@_0O@KKBNKAPF@LCMapStringEx?$AA@ 100444c0     LIBCMT:winapisupp.obj
 0002:000014d0       ??_C@_0BE@JOGNEJCI@GetCurrentPackageId?$AA@ 100444d0     LIBCMT:winapisupp.obj
 0002:000014e4       ??_C@_0P@CDHHOHKP@GetTickCount64?$AA@ 100444e4     LIBCMT:winapisupp.obj
 0002:000014f4       ??_C@_0BO@KPCLFDJJ@GetFileInformationByHandleExW?$AA@ 100444f4     LIBCMT:winapisupp.obj
 0002:00001514       ??_C@_0BM@MHIDLABK@SetFileInformationByHandleW?$AA@ 10044514     LIBCMT:winapisupp.obj
 0002:00001530       _LcidToLocaleNameTable     10044530     LIBCMT:winapinls.obj
 0002:00001c50       _LocaleNameToIndexTable    10044c50     LIBCMT:winapinls.obj
 0002:00002370       ??_C@_15EMKDOKLE@?$AAa?$AAr?$AA?$AA@ 10045370     LIBCMT:winapinls.obj
 0002:00002378       ??_C@_15KNPADPLH@?$AAb?$AAg?$AA?$AA@ 10045378     LIBCMT:winapinls.obj
 0002:00002380       ??_C@_15EDMHLDMO@?$AAc?$AAa?$AA?$AA@ 10045380     LIBCMT:winapinls.obj
 0002:00002388       ??_C@_1O@BPEAJADD@?$AAz?$AAh?$AA?9?$AAC?$AAH?$AAS?$AA?$AA@ 10045388     LIBCMT:winapinls.obj
 0002:00002398       ??_C@_15LJNHCMNK@?$AAc?$AAs?$AA?$AA@ 10045398     LIBCMT:winapinls.obj
 0002:000023a0       ??_C@_15FOMCIDHG@?$AAd?$AAa?$AA?$AA@ 100453a0     LIBCMT:winapinls.obj
 0002:000023a8       ??_C@_15NBKABECB@?$AAd?$AAe?$AA?$AA@ 100453a8     LIBCMT:winapinls.obj
 0002:000023b0       ??_C@_15GHPEIIAO@?$AAe?$AAl?$AA?$AA@ 100453b0     LIBCMT:winapinls.obj
 0002:000023b8       ??_C@_15MNPNEAIF@?$AAe?$AAn?$AA?$AA@ 100453b8     LIBCMT:winapinls.obj
 0002:000023c0       ??_C@_15GPIOMPMH@?$AAe?$AAs?$AA?$AA@ 100453c0     LIBCMT:winapinls.obj
 0002:000023c8       ??_C@_15NGLOAKJC@?$AAf?$AAi?$AA?$AA@ 100453c8     LIBCMT:winapinls.obj
 0002:000023d0       ??_C@_15FBKGNKAM@?$AAf?$AAr?$AA?$AA@ 100453d0     LIBCMT:winapinls.obj
 0002:000023d8       ??_C@_15KGGCNEFK@?$AAh?$AAe?$AA?$AA@ 100453d8     LIBCMT:winapinls.obj
 0002:000023e0       ??_C@_15PGHLIDMF@?$AAh?$AAu?$AA?$AA@ 100453e0     LIBCMT:winapinls.obj
 0002:000023e8       ??_C@_15BIEMAPLM@?$AAi?$AAs?$AA?$AA@ 100453e8     LIBCMT:winapinls.obj
 0002:000023f0       ??_C@_15IFJLDHAF@?$AAi?$AAt?$AA?$AA@ 100453f0     LIBCMT:winapinls.obj
 0002:000023f8       ??_C@_15GEMIOCAG@?$AAj?$AAa?$AA?$AA@ 100453f8     LIBCMT:winapinls.obj
 0002:00002400       ??_C@_15EPELEGJA@?$AAk?$AAo?$AA?$AA@ 10045400     LIBCMT:winapinls.obj
 0002:00002408       ??_C@_15NDDHIMN@?$AAn?$AAl?$AA?$AA@ 10045408     LIBCMT:winapinls.obj
 0002:00002410       ??_C@_15BPIGNHCD@?$AAn?$AAo?$AA?$AA@ 10045410     LIBCMT:winapinls.obj
 0002:00002418       ??_C@_15DEOPBLCG@?$AAp?$AAl?$AA?$AA@ 10045418     LIBCMT:winapinls.obj
 0002:00002420       ??_C@_15KBECGEFG@?$AAp?$AAt?$AA?$AA@ 10045420     LIBCMT:winapinls.obj
 0002:00002428       ??_C@_15GLJCBFMD@?$AAr?$AAo?$AA?$AA@ 10045428     LIBCMT:winapinls.obj
 0002:00002430       ??_C@_15FEDGKCDI@?$AAr?$AAu?$AA?$AA@ 10045430     LIBCMT:winapinls.obj
 0002:00002438       ??_C@_15GLKMLLHM@?$AAh?$AAr?$AA?$AA@ 10045438     LIBCMT:winapinls.obj
 0002:00002440       ??_C@_15CPKMFBDB@?$AAs?$AAk?$AA?$AA@ 10045440     LIBCMT:winapinls.obj
 0002:00002448       ??_C@_15BAAIOGMK@?$AAs?$AAq?$AA?$AA@ 10045448     LIBCMT:winapinls.obj
 0002:00002450       ??_C@_15INNPNOHD@?$AAs?$AAv?$AA?$AA@ 10045450     LIBCMT:winapinls.obj
 0002:00002458       ??_C@_15CABMMOGH@?$AAt?$AAh?$AA?$AA@ 10045458     LIBCMT:winapinls.obj
 0002:00002460       ??_C@_15BPLIHJJM@?$AAt?$AAr?$AA?$AA@ 10045460     LIBCMT:winapinls.obj
 0002:00002468       ??_C@_15NEOEKKDJ@?$AAu?$AAr?$AA?$AA@ 10045468     LIBCMT:winapinls.obj
 0002:00002470       ??_C@_15NFICGAJK@?$AAi?$AAd?$AA?$AA@ 10045470     LIBCMT:winapinls.obj
 0002:00002478       ??_C@_15PJPFLCCM@?$AAu?$AAk?$AA?$AA@ 10045478     LIBCMT:winapinls.obj
 0002:00002480       ??_C@_15HPJPHDM@?$AAb?$AAe?$AA?$AA@ 10045480     LIBCMT:winapinls.obj
 0002:00002488       ??_C@_15LCHLGJII@?$AAs?$AAl?$AA?$AA@ 10045488     LIBCMT:winapinls.obj
 0002:00002490       ??_C@_15PCFJPHHO@?$AAe?$AAt?$AA?$AA@ 10045490     LIBCMT:winapinls.obj
 0002:00002498       ??_C@_15HPFPGODN@?$AAl?$AAv?$AA?$AA@ 10045498     LIBCMT:winapinls.obj
 0002:000024a0       ??_C@_15NFFGKGLG@?$AAl?$AAt?$AA?$AA@ 100454a0     LIBCMT:winapinls.obj
 0002:000024a8       ??_C@_15BDAKCCHN@?$AAf?$AAa?$AA?$AA@ 100454a8     LIBCMT:winapinls.obj
 0002:000024b0       ??_C@_15NFGIAIAJ@?$AAv?$AAi?$AA?$AA@ 100454b0     LIBCMT:winapinls.obj
 0002:000024b8       ??_C@_15LMKNDMHN@?$AAh?$AAy?$AA?$AA@ 100454b8     LIBCMT:winapinls.obj
 0002:000024c0       ??_C@_15IJBHMCFL@?$AAa?$AAz?$AA?$AA@ 100454c0     LIBCMT:winapinls.obj
 0002:000024c8       ??_C@_15EKOFJABL@?$AAe?$AAu?$AA?$AA@ 100454c8     LIBCMT:winapinls.obj
 0002:000024d0       ??_C@_15BGHADCNK@?$AAm?$AAk?$AA?$AA@ 100454d0     LIBCMT:winapinls.obj
 0002:000024d8       ??_C@_15JDNICKHM@?$AAa?$AAf?$AA?$AA@ 100454d8     LIBCMT:winapinls.obj
 0002:000024e0       ??_C@_15KPJEDBKD@?$AAk?$AAa?$AA?$AA@ 100454e0     LIBCMT:winapinls.obj
 0002:000024e8       ??_C@_15PDNFFFEO@?$AAf?$AAo?$AA?$AA@ 100454e8     LIBCMT:winapinls.obj
 0002:000024f0       ??_C@_15OMLEGLOC@?$AAh?$AAi?$AA?$AA@ 100454f0     LIBCMT:winapinls.obj
 0002:000024f8       ??_C@_15IDNNENKK@?$AAm?$AAs?$AA?$AA@ 100454f8     LIBCMT:winapinls.obj
 0002:00002500       ??_C@_15MACJNBMH@?$AAk?$AAk?$AA?$AA@ 10045500     LIBCMT:winapinls.obj
 0002:00002508       ??_C@_15DKDJEOND@?$AAk?$AAy?$AA?$AA@ 10045508     LIBCMT:winapinls.obj
 0002:00002510       ??_C@_15DFGDLJBG@?$AAs?$AAw?$AA?$AA@ 10045510     LIBCMT:winapinls.obj
 0002:00002518       ??_C@_15BBFAICNG@?$AAu?$AAz?$AA?$AA@ 10045518     LIBCMT:winapinls.obj
 0002:00002520       ??_C@_15DKNDCGEA@?$AAt?$AAt?$AA?$AA@ 10045520     LIBCMT:winapinls.obj
 0002:00002528       ??_C@_15MGIFMDPL@?$AAp?$AAa?$AA?$AA@ 10045528     LIBCMT:winapinls.obj
 0002:00002530       ??_C@_15HCNDBBA@?$AAg?$AAu?$AA?$AA@ 10045530     LIBCMT:winapinls.obj
 0002:00002538       ??_C@_15FNBEIBON@?$AAt?$AAa?$AA?$AA@ 10045538     LIBCMT:winapinls.obj
 0002:00002540       ??_C@_15NCHGBGLK@?$AAt?$AAe?$AA?$AA@ 10045540     LIBCMT:winapinls.obj
 0002:00002548       ??_C@_15PHPHCBPF@?$AAk?$AAn?$AA?$AA@ 10045548     LIBCMT:winapinls.obj
 0002:00002550       ??_C@_15DLGBCKMP@?$AAm?$AAr?$AA?$AA@ 10045550     LIBCMT:winapinls.obj
 0002:00002558       ??_C@_15EABBLBFF@?$AAs?$AAa?$AA?$AA@ 10045558     LIBCMT:winapinls.obj
 0002:00002560       ??_C@_15CBKOMCOI@?$AAm?$AAn?$AA?$AA@ 10045560     LIBCMT:winapinls.obj
 0002:00002568       ??_C@_15CKDMCJAF@?$AAg?$AAl?$AA?$AA@ 10045568     LIBCMT:winapinls.obj
 0002:00002570       ??_C@_17CNJFBPG@?$AAk?$AAo?$AAk?$AA?$AA@ 10045570     LIBCMT:winapinls.obj
 0002:00002578       ??_C@_17FFBJICPL@?$AAs?$AAy?$AAr?$AA?$AA@ 10045578     LIBCMT:winapinls.obj
 0002:00002580       ??_C@_17KPNDCPAF@?$AAd?$AAi?$AAv?$AA?$AA@ 10045580     LIBCMT:winapinls.obj
 0002:00002588       ??_C@_11LOCGONAA@?$AA?$AA@ 10045588     LIBCMT:winapinls.obj
 0002:0000258c       ??_C@_1M@OKAHONE@?$AAa?$AAr?$AA?9?$AAS?$AAA?$AA?$AA@ 1004558c     LIBCMT:winapinls.obj
 0002:00002598       ??_C@_1M@FFFIGIGK@?$AAb?$AAg?$AA?9?$AAB?$AAG?$AA?$AA@ 10045598     LIBCMT:winapinls.obj
 0002:000025a4       ??_C@_1M@BJNKEDC@?$AAc?$AAa?$AA?9?$AAE?$AAS?$AA?$AA@ 100455a4     LIBCMT:winapinls.obj
 0002:000025b0       ??_C@_1M@CLNBBOPM@?$AAz?$AAh?$AA?9?$AAT?$AAW?$AA?$AA@ 100455b0     LIBCMT:winapinls.obj
 0002:000025bc       ??_C@_1M@IJJHFJHA@?$AAc?$AAs?$AA?9?$AAC?$AAZ?$AA?$AA@ 100455bc     LIBCMT:winapinls.obj
 0002:000025c8       ??_C@_1M@CLPEOBGI@?$AAd?$AAa?$AA?9?$AAD?$AAK?$AA?$AA@ 100455c8     LIBCMT:winapinls.obj
 0002:000025d4       ??_C@_1M@MCMADGCB@?$AAd?$AAe?$AA?9?$AAD?$AAE?$AA?$AA@ 100455d4     LIBCMT:winapinls.obj
 0002:000025e0       ??_C@_1M@OOCKEMAM@?$AAe?$AAl?$AA?9?$AAG?$AAR?$AA?$AA@ 100455e0     LIBCMT:winapinls.obj
 0002:000025ec       ??_C@_1M@BMHNFIME@?$AAe?$AAn?$AA?9?$AAU?$AAS?$AA?$AA@ 100455ec     LIBCMT:winapinls.obj
 0002:000025f8       ??_C@_1M@DDNJFGID@?$AAf?$AAi?$AA?9?$AAF?$AAI?$AA?$AA@ 100455f8     LIBCMT:winapinls.obj
 0002:00002604       ??_C@_1M@GLIPPMAC@?$AAf?$AAr?$AA?9?$AAF?$AAR?$AA?$AA@ 10045604     LIBCMT:winapinls.obj
 0002:00002610       ??_C@_1M@GFMCHPE@?$AAh?$AAe?$AA?9?$AAI?$AAL?$AA?$AA@ 10045610     LIBCMT:winapinls.obj
 0002:0000261c       ??_C@_1M@MHLPGNKM@?$AAh?$AAu?$AA?9?$AAH?$AAU?$AA?$AA@ 1004561c     LIBCMT:winapinls.obj
 0002:00002628       ??_C@_1M@LPDDNNPN@?$AAi?$AAs?$AA?9?$AAI?$AAS?$AA?$AA@ 10045628     LIBCMT:winapinls.obj
 0002:00002634       ??_C@_1M@MADIPODN@?$AAi?$AAt?$AA?9?$AAI?$AAT?$AA?$AA@ 10045634     LIBCMT:winapinls.obj
 0002:00002640       ??_C@_1M@HPNHIDJI@?$AAj?$AAa?$AA?9?$AAJ?$AAP?$AA?$AA@ 10045640     LIBCMT:winapinls.obj
 0002:0000264c       ??_C@_1M@JLOOOEGK@?$AAk?$AAo?$AA?9?$AAK?$AAR?$AA?$AA@ 1004564c     LIBCMT:winapinls.obj
 0002:00002658       ??_C@_1M@IHBJJGG@?$AAn?$AAl?$AA?9?$AAN?$AAL?$AA?$AA@ 10045658     LIBCMT:winapinls.obj
 0002:00002664       ??_C@_1M@EANAGDL@?$AAn?$AAb?$AA?9?$AAN?$AAO?$AA?$AA@ 10045664     LIBCMT:winapinls.obj
 0002:00002670       ??_C@_1M@NEIEMEGP@?$AAp?$AAl?$AA?9?$AAP?$AAL?$AA?$AA@ 10045670     LIBCMT:winapinls.obj
 0002:0000267c       ??_C@_1M@BOCFIGEP@?$AAp?$AAt?$AA?9?$AAB?$AAR?$AA?$AA@ 1004567c     LIBCMT:winapinls.obj
 0002:00002688       ??_C@_1M@IMPFOPBG@?$AAr?$AAo?$AA?9?$AAR?$AAO?$AA?$AA@ 10045688     LIBCMT:winapinls.obj
 0002:00002694       ??_C@_1M@IDNNEJMM@?$AAr?$AAu?$AA?9?$AAR?$AAU?$AA?$AA@ 10045694     LIBCMT:winapinls.obj
 0002:000026a0       ??_C@_1M@LILEEOGM@?$AAh?$AAr?$AA?9?$AAH?$AAR?$AA?$AA@ 100456a0     LIBCMT:winapinls.obj
 0002:000026ac       ??_C@_1M@FKIFEHPB@?$AAs?$AAk?$AA?9?$AAS?$AAK?$AA?$AA@ 100456ac     LIBCMT:winapinls.obj
 0002:000026b8       ??_C@_1M@LJMAMNPJ@?$AAs?$AAq?$AA?9?$AAA?$AAL?$AA?$AA@ 100456b8     LIBCMT:winapinls.obj
 0002:000026c4       ??_C@_1M@GIAKDKJK@?$AAs?$AAv?$AA?9?$AAS?$AAE?$AA?$AA@ 100456c4     LIBCMT:winapinls.obj
 0002:000026d0       ??_C@_1M@MKJKIKCL@?$AAt?$AAh?$AA?9?$AAT?$AAH?$AA?$AA@ 100456d0     LIBCMT:winapinls.obj
 0002:000026dc       ??_C@_1M@MFLCCMPB@?$AAt?$AAr?$AA?9?$AAT?$AAR?$AA?$AA@ 100456dc     LIBCMT:winapinls.obj
 0002:000026e8       ??_C@_1M@OIJHDKJN@?$AAu?$AAr?$AA?9?$AAP?$AAK?$AA?$AA@ 100456e8     LIBCMT:winapinls.obj
 0002:000026f4       ??_C@_1M@LHIPCIEK@?$AAi?$AAd?$AA?9?$AAI?$AAD?$AA?$AA@ 100456f4     LIBCMT:winapinls.obj
 0002:00002700       ??_C@_1M@MFMOBGI@?$AAu?$AAk?$AA?9?$AAU?$AAA?$AA?$AA@ 10045700     LIBCMT:winapinls.obj
 0002:0000270c       ??_C@_1M@OBGLJIPL@?$AAb?$AAe?$AA?9?$AAB?$AAY?$AA?$AA@ 1004570c     LIBCMT:winapinls.obj
 0002:00002718       ??_C@_1M@BCFAJEAD@?$AAs?$AAl?$AA?9?$AAS?$AAI?$AA?$AA@ 10045718     LIBCMT:winapinls.obj
 0002:00002724       ??_C@_1M@FKFFEDDN@?$AAe?$AAt?$AA?9?$AAE?$AAE?$AA?$AA@ 10045724     LIBCMT:winapinls.obj
 0002:00002730       ??_C@_1M@KGKKAACI@?$AAl?$AAv?$AA?9?$AAL?$AAV?$AA?$AA@ 10045730     LIBCMT:winapinls.obj
 0002:0000273c       ??_C@_1M@IFGBIJO@?$AAl?$AAt?$AA?9?$AAL?$AAT?$AA?$AA@ 1004573c     LIBCMT:winapinls.obj
 0002:00002748       ??_C@_1M@FGEAHEDM@?$AAf?$AAa?$AA?9?$AAI?$AAR?$AA?$AA@ 10045748     LIBCMT:winapinls.obj
 0002:00002754       ??_C@_1M@KBMAIBFN@?$AAv?$AAi?$AA?9?$AAV?$AAN?$AA?$AA@ 10045754     LIBCMT:winapinls.obj
 0002:00002760       ??_C@_1M@GPCBKDJK@?$AAh?$AAy?$AA?9?$AAA?$AAM?$AA?$AA@ 10045760     LIBCMT:winapinls.obj
 0002:0000276c       ??_C@_1BG@BECMDDJB@?$AAa?$AAz?$AA?9?$AAA?$AAZ?$AA?9?$AAL?$AAa?$AAt?$AAn?$AA?$AA@ 1004576c     LIBCMT:winapinls.obj
 0002:00002784       ??_C@_1M@MAOFCAEA@?$AAe?$AAu?$AA?9?$AAE?$AAS?$AA?$AA@ 10045784     LIBCMT:winapinls.obj
 0002:00002790       ??_C@_1M@IGHABKPI@?$AAm?$AAk?$AA?9?$AAM?$AAK?$AA?$AA@ 10045790     LIBCMT:winapinls.obj
 0002:0000279c       ??_C@_1M@IAIGNEJG@?$AAt?$AAn?$AA?9?$AAZ?$AAA?$AA?$AA@ 1004579c     LIBCMT:winapinls.obj
 0002:000027a8       ??_C@_1M@IIJCOJFA@?$AAx?$AAh?$AA?9?$AAZ?$AAA?$AA?$AA@ 100457a8     LIBCMT:winapinls.obj
 0002:000027b4       ??_C@_1M@LGPJHNJH@?$AAz?$AAu?$AA?9?$AAZ?$AAA?$AA?$AA@ 100457b4     LIBCMT:winapinls.obj
 0002:000027c0       ??_C@_1M@HOKAOIO@?$AAa?$AAf?$AA?9?$AAZ?$AAA?$AA?$AA@ 100457c0     LIBCMT:winapinls.obj
 0002:000027cc       ??_C@_1M@DPCLHLIE@?$AAk?$AAa?$AA?9?$AAG?$AAE?$AA?$AA@ 100457cc     LIBCMT:winapinls.obj
 0002:000027d8       ??_C@_1M@BLKMHJBI@?$AAf?$AAo?$AA?9?$AAF?$AAO?$AA?$AA@ 100457d8     LIBCMT:winapinls.obj
 0002:000027e4       ??_C@_1M@LGGJAPPB@?$AAh?$AAi?$AA?9?$AAI?$AAN?$AA?$AA@ 100457e4     LIBCMT:winapinls.obj
 0002:000027f0       ??_C@_1M@FIKPIHFE@?$AAm?$AAt?$AA?9?$AAM?$AAT?$AA?$AA@ 100457f0     LIBCMT:winapinls.obj
 0002:000027fc       ??_C@_1M@HEGGPBFA@?$AAs?$AAe?$AA?9?$AAN?$AAO?$AA?$AA@ 100457fc     LIBCMT:winapinls.obj
 0002:00002808       ??_C@_1M@EIBJEEPA@?$AAm?$AAs?$AA?9?$AAM?$AAY?$AA?$AA@ 10045808     LIBCMT:winapinls.obj
 0002:00002814       ??_C@_1M@FHLBGMPP@?$AAk?$AAk?$AA?9?$AAK?$AAZ?$AA?$AA@ 10045814     LIBCMT:winapinls.obj
 0002:00002820       ??_C@_1M@NGJJLCGI@?$AAk?$AAy?$AA?9?$AAK?$AAG?$AA?$AA@ 10045820     LIBCMT:winapinls.obj
 0002:0000282c       ??_C@_1M@GIENNBFC@?$AAs?$AAw?$AA?9?$AAK?$AAE?$AA?$AA@ 1004582c     LIBCMT:winapinls.obj
 0002:00002838       ??_C@_1BG@NDGMJIMJ@?$AAu?$AAz?$AA?9?$AAU?$AAZ?$AA?9?$AAL?$AAa?$AAt?$AAn?$AA?$AA@ 10045838     LIBCMT:winapinls.obj
 0002:00002850       ??_C@_1M@IDCCIHBC@?$AAt?$AAt?$AA?9?$AAR?$AAU?$AA?$AA@ 10045850     LIBCMT:winapinls.obj
 0002:0000285c       ??_C@_1M@LOICPMOJ@?$AAb?$AAn?$AA?9?$AAI?$AAN?$AA?$AA@ 1004585c     LIBCMT:winapinls.obj
 0002:00002868       ??_C@_1M@KPKKNEAH@?$AAp?$AAa?$AA?9?$AAI?$AAN?$AA?$AA@ 10045868     LIBCMT:winapinls.obj
 0002:00002874       ??_C@_1M@PJGPPBOG@?$AAg?$AAu?$AA?9?$AAI?$AAN?$AA?$AA@ 10045874     LIBCMT:winapinls.obj
 0002:00002880       ??_C@_1M@KMKMOPHI@?$AAt?$AAa?$AA?9?$AAI?$AAN?$AA?$AA@ 10045880     LIBCMT:winapinls.obj
 0002:0000288c       ??_C@_1M@KFEHEPAC@?$AAt?$AAe?$AA?9?$AAI?$AAN?$AA?$AA@ 1004588c     LIBCMT:winapinls.obj
 0002:00002898       ??_C@_1M@CDCLMGHI@?$AAk?$AAn?$AA?9?$AAI?$AAN?$AA?$AA@ 10045898     LIBCMT:winapinls.obj
 0002:000028a4       ??_C@_1M@MIODLDKF@?$AAm?$AAl?$AA?9?$AAI?$AAN?$AA?$AA@ 100458a4     LIBCMT:winapinls.obj
 0002:000028b0       ??_C@_1M@PBIEACPO@?$AAm?$AAr?$AA?9?$AAI?$AAN?$AA?$AA@ 100458b0     LIBCMT:winapinls.obj
 0002:000028bc       ??_C@_1M@NIDEAGPH@?$AAs?$AAa?$AA?9?$AAI?$AAN?$AA?$AA@ 100458bc     LIBCMT:winapinls.obj
 0002:000028c8       ??_C@_1M@FHIHCBIO@?$AAm?$AAn?$AA?9?$AAM?$AAN?$AA?$AA@ 100458c8     LIBCMT:winapinls.obj
 0002:000028d4       ??_C@_1M@JAIJPENP@?$AAc?$AAy?$AA?9?$AAG?$AAB?$AA?$AA@ 100458d4     LIBCMT:winapinls.obj
 0002:000028e0       ??_C@_1M@PHGFBEPN@?$AAg?$AAl?$AA?9?$AAE?$AAS?$AA?$AA@ 100458e0     LIBCMT:winapinls.obj
 0002:000028ec       ??_C@_1O@KPIPDNCP@?$AAk?$AAo?$AAk?$AA?9?$AAI?$AAN?$AA?$AA@ 100458ec     LIBCMT:winapinls.obj
 0002:000028fc       ??_C@_1O@KNHJLDJA@?$AAs?$AAy?$AAr?$AA?9?$AAS?$AAY?$AA?$AA@ 100458fc     LIBCMT:winapinls.obj
 0002:0000290c       ??_C@_1O@MKEKBLAH@?$AAd?$AAi?$AAv?$AA?9?$AAM?$AAV?$AA?$AA@ 1004590c     LIBCMT:winapinls.obj
 0002:0000291c       ??_C@_1O@OHDCKDDF@?$AAq?$AAu?$AAz?$AA?9?$AAB?$AAO?$AA?$AA@ 1004591c     LIBCMT:winapinls.obj
 0002:0000292c       ??_C@_1M@LEPJNLFD@?$AAn?$AAs?$AA?9?$AAZ?$AAA?$AA?$AA@ 1004592c     LIBCMT:winapinls.obj
 0002:00002938       ??_C@_1M@OMLEIIJB@?$AAm?$AAi?$AA?9?$AAN?$AAZ?$AA?$AA@ 10045938     LIBCMT:winapinls.obj
 0002:00002944       ??_C@_1M@PMPEAILG@?$AAa?$AAr?$AA?9?$AAI?$AAQ?$AA?$AA@ 10045944     LIBCMT:winapinls.obj
 0002:00002950       ??_C@_1M@BIBDDEMK@?$AAz?$AAh?$AA?9?$AAC?$AAN?$AA?$AA@ 10045950     LIBCMT:winapinls.obj
 0002:0000295c       ??_C@_1M@CNKPNOEE@?$AAd?$AAe?$AA?9?$AAC?$AAH?$AA?$AA@ 1004595c     LIBCMT:winapinls.obj
 0002:00002968       ??_C@_1M@LKMGMLKO@?$AAe?$AAn?$AA?9?$AAG?$AAB?$AA?$AA@ 10045968     LIBCMT:winapinls.obj
 0002:00002974       ??_C@_1M@PGKJFFGL@?$AAe?$AAs?$AA?9?$AAM?$AAX?$AA?$AA@ 10045974     LIBCMT:winapinls.obj
 0002:00002980       ??_C@_1M@DNNANBDC@?$AAf?$AAr?$AA?9?$AAB?$AAE?$AA?$AA@ 10045980     LIBCMT:winapinls.obj
 0002:0000298c       ??_C@_1M@HLGMDFHM@?$AAi?$AAt?$AA?9?$AAC?$AAH?$AA?$AA@ 1004598c     LIBCMT:winapinls.obj
 0002:00002998       ??_C@_1M@CLLBGJH@?$AAn?$AAl?$AA?9?$AAB?$AAE?$AA?$AA@ 10045998     LIBCMT:winapinls.obj
 0002:000029a4       ??_C@_1M@BODBOGLF@?$AAn?$AAn?$AA?9?$AAN?$AAO?$AA?$AA@ 100459a4     LIBCMT:winapinls.obj
 0002:000029b0       ??_C@_1M@HFFAHKAD@?$AAp?$AAt?$AA?9?$AAP?$AAT?$AA?$AA@ 100459b0     LIBCMT:winapinls.obj
 0002:000029bc       ??_C@_1BG@LNOAKHIE@?$AAs?$AAr?$AA?9?$AAS?$AAP?$AA?9?$AAL?$AAa?$AAt?$AAn?$AA?$AA@ 100459bc     LIBCMT:winapinls.obj
 0002:000029d4       ??_C@_1M@HBMHBGAK@?$AAs?$AAv?$AA?9?$AAF?$AAI?$AA?$AA@ 100459d4     LIBCMT:winapinls.obj
 0002:000029e0       ??_C@_1BG@DGCJGJBE@?$AAa?$AAz?$AA?9?$AAA?$AAZ?$AA?9?$AAC?$AAy?$AAr?$AAl?$AA?$AA@ 100459e0     LIBCMT:winapinls.obj
 0002:000029f8       ??_C@_1M@KEJDAAHB@?$AAs?$AAe?$AA?9?$AAS?$AAE?$AA?$AA@ 100459f8     LIBCMT:winapinls.obj
 0002:00002a04       ??_C@_1M@HEIBJJAD@?$AAm?$AAs?$AA?9?$AAB?$AAN?$AA?$AA@ 10045a04     LIBCMT:winapinls.obj
 0002:00002a10       ??_C@_1BG@PBGJMCEM@?$AAu?$AAz?$AA?9?$AAU?$AAZ?$AA?9?$AAC?$AAy?$AAr?$AAl?$AA?$AA@ 10045a10     LIBCMT:winapinls.obj
 0002:00002a28       ??_C@_1O@LAOBCMDF@?$AAq?$AAu?$AAz?$AA?9?$AAE?$AAC?$AA?$AA@ 10045a28     LIBCMT:winapinls.obj
 0002:00002a38       ??_C@_1M@POEEMAIO@?$AAa?$AAr?$AA?9?$AAE?$AAG?$AA?$AA@ 10045a38     LIBCMT:winapinls.obj
 0002:00002a44       ??_C@_1M@EFAKDEDL@?$AAz?$AAh?$AA?9?$AAH?$AAK?$AA?$AA@ 10045a44     LIBCMT:winapinls.obj
 0002:00002a50       ??_C@_1M@HKKIJHGI@?$AAd?$AAe?$AA?9?$AAA?$AAT?$AA?$AA@ 10045a50     LIBCMT:winapinls.obj
 0002:00002a5c       ??_C@_1M@KBFBEHJF@?$AAe?$AAn?$AA?9?$AAA?$AAU?$AA?$AA@ 10045a5c     LIBCMT:winapinls.obj
 0002:00002a68       ??_C@_1M@MNPLFAAH@?$AAe?$AAs?$AA?9?$AAE?$AAS?$AA?$AA@ 10045a68     LIBCMT:winapinls.obj
 0002:00002a74       ??_C@_1M@HJOOJFMA@?$AAf?$AAr?$AA?9?$AAC?$AAA?$AA?$AA@ 10045a74     LIBCMT:winapinls.obj
 0002:00002a80       ??_C@_1BG@JPOFPNAB@?$AAs?$AAr?$AA?9?$AAS?$AAP?$AA?9?$AAC?$AAy?$AAr?$AAl?$AA?$AA@ 10045a80     LIBCMT:winapinls.obj
 0002:00002a98       ??_C@_1M@LNFOCMOB@?$AAs?$AAe?$AA?9?$AAF?$AAI?$AA?$AA@ 10045a98     LIBCMT:winapinls.obj
 0002:00002aa4       ??_C@_1O@MGJBOAMB@?$AAq?$AAu?$AAz?$AA?9?$AAP?$AAE?$AA?$AA@ 10045aa4     LIBCMT:winapinls.obj
 0002:00002ab4       ??_C@_1M@GJINLBOK@?$AAa?$AAr?$AA?9?$AAL?$AAY?$AA?$AA@ 10045ab4     LIBCMT:winapinls.obj
 0002:00002ac0       ??_C@_1M@GGMNHJNL@?$AAz?$AAh?$AA?9?$AAS?$AAG?$AA?$AA@ 10045ac0     LIBCMT:winapinls.obj
 0002:00002acc       ??_C@_1M@HOIKODND@?$AAd?$AAe?$AA?9?$AAL?$AAU?$AA?$AA@ 10045acc     LIBCMT:winapinls.obj
 0002:00002ad8       ??_C@_1M@DDOCCGFG@?$AAe?$AAn?$AA?9?$AAC?$AAA?$AA?$AA@ 10045ad8     LIBCMT:winapinls.obj
 0002:00002ae4       ??_C@_1M@BNOEMJLF@?$AAe?$AAs?$AA?9?$AAG?$AAT?$AA?$AA@ 10045ae4     LIBCMT:winapinls.obj
 0002:00002af0       ??_C@_1M@EOGNKEK@?$AAf?$AAr?$AA?9?$AAC?$AAH?$AA?$AA@ 10045af0     LIBCMT:winapinls.obj
 0002:00002afc       ??_C@_1M@FLIDJFHL@?$AAh?$AAr?$AA?9?$AAB?$AAA?$AA?$AA@ 10045afc     LIBCMT:winapinls.obj
 0002:00002b08       ??_C@_1O@FMCELNAJ@?$AAs?$AAm?$AAj?$AA?9?$AAN?$AAO?$AA?$AA@ 10045b08     LIBCMT:winapinls.obj
 0002:00002b18       ??_C@_1M@JHGLJMGJ@?$AAa?$AAr?$AA?9?$AAD?$AAZ?$AA?$AA@ 10045b18     LIBCMT:winapinls.obj
 0002:00002b24       ??_C@_1M@JKKFDCNP@?$AAz?$AAh?$AA?9?$AAM?$AAO?$AA?$AA@ 10045b24     LIBCMT:winapinls.obj
 0002:00002b30       ??_C@_1M@GEEFALPE@?$AAd?$AAe?$AA?9?$AAL?$AAI?$AA?$AA@ 10045b30     LIBCMT:winapinls.obj
 0002:00002b3c       ??_C@_1M@IGEOFBG@?$AAe?$AAn?$AA?9?$AAN?$AAZ?$AA?$AA@ 10045b3c     LIBCMT:winapinls.obj
 0002:00002b48       ??_C@_1M@KDBONEHP@?$AAe?$AAs?$AA?9?$AAC?$AAR?$AA?$AA@ 10045b48     LIBCMT:winapinls.obj
 0002:00002b54       ??_C@_1M@FHMDOHNN@?$AAf?$AAr?$AA?9?$AAL?$AAU?$AA?$AA@ 10045b54     LIBCMT:winapinls.obj
 0002:00002b60       ??_C@_1BG@NFKKMAFG@?$AAb?$AAs?$AA?9?$AAB?$AAA?$AA?9?$AAL?$AAa?$AAt?$AAn?$AA?$AA@ 10045b60     LIBCMT:winapinls.obj
 0002:00002b78       ??_C@_1O@IMNBEMCI@?$AAs?$AAm?$AAj?$AA?9?$AAS?$AAE?$AA?$AA@ 10045b78     LIBCMT:winapinls.obj
 0002:00002b88       ??_C@_1M@DHHMBNDP@?$AAa?$AAr?$AA?9?$AAM?$AAA?$AA?$AA@ 10045b88     LIBCMT:winapinls.obj
 0002:00002b94       ??_C@_1M@BNBLJCGH@?$AAe?$AAn?$AA?9?$AAI?$AAE?$AA?$AA@ 10045b94     LIBCMT:winapinls.obj
 0002:00002ba0       ??_C@_1M@GEPAFMDL@?$AAe?$AAs?$AA?9?$AAP?$AAA?$AA?$AA@ 10045ba0     LIBCMT:winapinls.obj
 0002:00002bac       ??_C@_1M@OJONDMDL@?$AAf?$AAr?$AA?9?$AAM?$AAC?$AA?$AA@ 10045bac     LIBCMT:winapinls.obj
 0002:00002bb8       ??_C@_1BG@OBCNFJB@?$AAs?$AAr?$AA?9?$AAB?$AAA?$AA?9?$AAL?$AAa?$AAt?$AAn?$AA?$AA@ 10045bb8     LIBCMT:winapinls.obj
 0002:00002bd0       ??_C@_1O@KEMEEGPO@?$AAs?$AAm?$AAa?$AA?9?$AAN?$AAO?$AA?$AA@ 10045bd0     LIBCMT:winapinls.obj
 0002:00002be0       ??_C@_1M@ELMGFODK@?$AAa?$AAr?$AA?9?$AAT?$AAN?$AA?$AA@ 10045be0     LIBCMT:winapinls.obj
 0002:00002bec       ??_C@_1M@BHDLHFAF@?$AAe?$AAn?$AA?9?$AAZ?$AAA?$AA?$AA@ 10045bec     LIBCMT:winapinls.obj
 0002:00002bf8       ??_C@_1M@BMGIGLIF@?$AAe?$AAs?$AA?9?$AAD?$AAO?$AA?$AA@ 10045bf8     LIBCMT:winapinls.obj
 0002:00002c04       ??_C@_1BG@CMBHIPBE@?$AAs?$AAr?$AA?9?$AAB?$AAA?$AA?9?$AAC?$AAy?$AAr?$AAl?$AA?$AA@ 10045c04     LIBCMT:winapinls.obj
 0002:00002c1c       ??_C@_1O@HEDBLHNP@?$AAs?$AAm?$AAa?$AA?9?$AAS?$AAE?$AA?$AA@ 10045c1c     LIBCMT:winapinls.obj
 0002:00002c2c       ??_C@_1M@DAGCADIM@?$AAa?$AAr?$AA?9?$AAO?$AAM?$AA?$AA@ 10045c2c     LIBCMT:winapinls.obj
 0002:00002c38       ??_C@_1M@FODLMICG@?$AAe?$AAn?$AA?9?$AAJ?$AAM?$AA?$AA@ 10045c38     LIBCMT:winapinls.obj
 0002:00002c44       ??_C@_1M@DNMLCIHB@?$AAe?$AAs?$AA?9?$AAV?$AAE?$AA?$AA@ 10045c44     LIBCMT:winapinls.obj
 0002:00002c50       ??_C@_1O@EOKHMKJK@?$AAs?$AAm?$AAs?$AA?9?$AAF?$AAI?$AA?$AA@ 10045c50     LIBCMT:winapinls.obj
 0002:00002c60       ??_C@_1M@CAFJMKOF@?$AAa?$AAr?$AA?9?$AAY?$AAE?$AA?$AA@ 10045c60     LIBCMT:winapinls.obj
 0002:00002c6c       ??_C@_1M@CBFHIJLI@?$AAe?$AAn?$AA?9?$AAC?$AAB?$AA?$AA@ 10045c6c     LIBCMT:winapinls.obj
 0002:00002c78       ??_C@_1M@BGNFLDN@?$AAe?$AAs?$AA?9?$AAC?$AAO?$AA?$AA@ 10045c78     LIBCMT:winapinls.obj
 0002:00002c84       ??_C@_1O@JMPHMAMC@?$AAs?$AAm?$AAn?$AA?9?$AAF?$AAI?$AA?$AA@ 10045c84     LIBCMT:winapinls.obj
 0002:00002c94       ??_C@_1M@JLANABKE@?$AAa?$AAr?$AA?9?$AAS?$AAY?$AA?$AA@ 10045c94     LIBCMT:winapinls.obj
 0002:00002ca0       ??_C@_1M@HPKGCFGN@?$AAe?$AAn?$AA?9?$AAB?$AAZ?$AA?$AA@ 10045ca0     LIBCMT:winapinls.obj
 0002:00002cac       ??_C@_1M@OLJCMLGM@?$AAe?$AAs?$AA?9?$AAP?$AAE?$AA?$AA@ 10045cac     LIBCMT:winapinls.obj
 0002:00002cb8       ??_C@_1M@MKKGFKLE@?$AAa?$AAr?$AA?9?$AAJ?$AAO?$AA?$AA@ 10045cb8     LIBCMT:winapinls.obj
 0002:00002cc4       ??_C@_1M@EKPGLDNI@?$AAe?$AAn?$AA?9?$AAT?$AAT?$AA?$AA@ 10045cc4     LIBCMT:winapinls.obj
 0002:00002cd0       ??_C@_1M@OONGHFHE@?$AAe?$AAs?$AA?9?$AAA?$AAR?$AA?$AA@ 10045cd0     LIBCMT:winapinls.obj
 0002:00002cdc       ??_C@_1M@OOJFGBHE@?$AAa?$AAr?$AA?9?$AAL?$AAB?$AA?$AA@ 10045cdc     LIBCMT:winapinls.obj
 0002:00002ce8       ??_C@_1M@GCEJHNEG@?$AAe?$AAn?$AA?9?$AAZ?$AAW?$AA?$AA@ 10045ce8     LIBCMT:winapinls.obj
 0002:00002cf4       ??_C@_1M@JNOCAHJI@?$AAe?$AAs?$AA?9?$AAE?$AAC?$AA?$AA@ 10045cf4     LIBCMT:winapinls.obj
 0002:00002d00       ??_C@_1M@JEFHPGGB@?$AAa?$AAr?$AA?9?$AAK?$AAW?$AA?$AA@ 10045d00     LIBCMT:winapinls.obj
 0002:00002d0c       ??_C@_1M@MLKIBJOJ@?$AAe?$AAn?$AA?9?$AAP?$AAH?$AA?$AA@ 10045d0c     LIBCMT:winapinls.obj
 0002:00002d18       ??_C@_1M@BDNIPEND@?$AAe?$AAs?$AA?9?$AAC?$AAL?$AA?$AA@ 10045d18     LIBCMT:winapinls.obj
 0002:00002d24       ??_C@_1M@MPNMEKBD@?$AAa?$AAr?$AA?9?$AAA?$AAE?$AA?$AA@ 10045d24     LIBCMT:winapinls.obj
 0002:00002d30       ??_C@_1M@KBJALCPI@?$AAe?$AAs?$AA?9?$AAU?$AAY?$AA?$AA@ 10045d30     LIBCMT:winapinls.obj
 0002:00002d3c       ??_C@_1M@LLCCOAGA@?$AAa?$AAr?$AA?9?$AAB?$AAH?$AA?$AA@ 10045d3c     LIBCMT:winapinls.obj
 0002:00002d48       ??_C@_1M@PBFNCDEL@?$AAe?$AAs?$AA?9?$AAP?$AAY?$AA?$AA@ 10045d48     LIBCMT:winapinls.obj
 0002:00002d54       ??_C@_1M@EDGINPNP@?$AAa?$AAr?$AA?9?$AAQ?$AAA?$AA?$AA@ 10045d54     LIBCMT:winapinls.obj
 0002:00002d60       ??_C@_1M@MKDBIIJI@?$AAe?$AAs?$AA?9?$AAB?$AAO?$AA?$AA@ 10045d60     LIBCMT:winapinls.obj
 0002:00002d6c       ??_C@_1M@CPKKEBLD@?$AAe?$AAs?$AA?9?$AAS?$AAV?$AA?$AA@ 10045d6c     LIBCMT:winapinls.obj
 0002:00002d78       ??_C@_1M@NDBGMMJL@?$AAe?$AAs?$AA?9?$AAH?$AAN?$AA?$AA@ 10045d78     LIBCMT:winapinls.obj
 0002:00002d84       ??_C@_1M@JIJIBHDP@?$AAe?$AAs?$AA?9?$AAN?$AAI?$AA?$AA@ 10045d84     LIBCMT:winapinls.obj
 0002:00002d90       ??_C@_1M@CGFMKEEK@?$AAe?$AAs?$AA?9?$AAP?$AAR?$AA?$AA@ 10045d90     LIBCMT:winapinls.obj
 0002:00002d9c       ??_C@_1O@ICJHKIIK@?$AAz?$AAh?$AA?9?$AAC?$AAH?$AAT?$AA?$AA@ 10045d9c     LIBCMT:winapinls.obj
 0002:00002dac       ??_C@_15CLNEJCE@?$AAs?$AAr?$AA?$AA@ 10045dac     LIBCMT:winapinls.obj
 0002:00002db4       ??_C@_1M@KAHEKEIG@?$AAa?$AAf?$AA?9?$AAz?$AAa?$AA?$AA@ 10045db4     LIBCMT:winapinls.obj
 0002:00002dc0       ??_C@_1M@GIECOABL@?$AAa?$AAr?$AA?9?$AAa?$AAe?$AA?$AA@ 10045dc0     LIBCMT:winapinls.obj
 0002:00002dcc       ??_C@_1M@BMLMEKGI@?$AAa?$AAr?$AA?9?$AAb?$AAh?$AA?$AA@ 10045dcc     LIBCMT:winapinls.obj
 0002:00002dd8       ??_C@_1M@DAPFDGGB@?$AAa?$AAr?$AA?9?$AAd?$AAz?$AA?$AA@ 10045dd8     LIBCMT:winapinls.obj
 0002:00002de4       ??_C@_1M@FJNKGKIG@?$AAa?$AAr?$AA?9?$AAe?$AAg?$AA?$AA@ 10045de4     LIBCMT:winapinls.obj
 0002:00002df0       ??_C@_1M@FLGKKCLO@?$AAa?$AAr?$AA?9?$AAi?$AAq?$AA?$AA@ 10045df0     LIBCMT:winapinls.obj
 0002:00002dfc       ??_C@_1M@GNDIPALM@?$AAa?$AAr?$AA?9?$AAj?$AAo?$AA?$AA@ 10045dfc     LIBCMT:winapinls.obj
 0002:00002e08       ??_C@_1M@DDMJFMGJ@?$AAa?$AAr?$AA?9?$AAk?$AAw?$AA?$AA@ 10045e08     LIBCMT:winapinls.obj
 0002:00002e14       ??_C@_1M@EJALMLHM@?$AAa?$AAr?$AA?9?$AAl?$AAb?$AA?$AA@ 10045e14     LIBCMT:winapinls.obj
 0002:00002e20       ??_C@_1M@MOBDBLOC@?$AAa?$AAr?$AA?9?$AAl?$AAy?$AA?$AA@ 10045e20     LIBCMT:winapinls.obj
 0002:00002e2c       ??_C@_1M@JAOCLHDH@?$AAa?$AAr?$AA?9?$AAm?$AAa?$AA?$AA@ 10045e2c     LIBCMT:winapinls.obj
 0002:00002e38       ??_C@_1M@JHPMKJIE@?$AAa?$AAr?$AA?9?$AAo?$AAm?$AA?$AA@ 10045e38     LIBCMT:winapinls.obj
 0002:00002e44       ??_C@_1M@OEPGHFNH@?$AAa?$AAr?$AA?9?$AAq?$AAa?$AA?$AA@ 10045e44     LIBCMT:winapinls.obj
 0002:00002e50       ??_C@_1M@KJDONENM@?$AAa?$AAr?$AA?9?$AAs?$AAa?$AA?$AA@ 10045e50     LIBCMT:winapinls.obj
 0002:00002e5c       ??_C@_1M@DMJDKLKM@?$AAa?$AAr?$AA?9?$AAs?$AAy?$AA?$AA@ 10045e5c     LIBCMT:winapinls.obj
 0002:00002e68       ??_C@_1M@OMFIPEDC@?$AAa?$AAr?$AA?9?$AAt?$AAn?$AA?$AA@ 10045e68     LIBCMT:winapinls.obj
 0002:00002e74       ??_C@_1M@IHMHGAON@?$AAa?$AAr?$AA?9?$AAy?$AAe?$AA?$AA@ 10045e74     LIBCMT:winapinls.obj
 0002:00002e80       ??_C@_1BG@KDCPGJGB@?$AAa?$AAz?$AA?9?$AAa?$AAz?$AA?9?$AAc?$AAy?$AAr?$AAl?$AA?$AA@ 10045e80     LIBCMT:winapinls.obj
 0002:00002e98       ??_C@_1BG@IBCKDDOE@?$AAa?$AAz?$AA?9?$AAa?$AAz?$AA?9?$AAl?$AAa?$AAt?$AAn?$AA?$AA@ 10045e98     LIBCMT:winapinls.obj
 0002:00002eb0       ??_C@_1M@EGPFDCPD@?$AAb?$AAe?$AA?9?$AAb?$AAy?$AA?$AA@ 10045eb0     LIBCMT:winapinls.obj
 0002:00002ebc       ??_C@_1M@PCMGMCGC@?$AAb?$AAg?$AA?9?$AAb?$AAg?$AA?$AA@ 10045ebc     LIBCMT:winapinls.obj
 0002:00002ec8       ??_C@_1M@BJBMFGOB@?$AAb?$AAn?$AA?9?$AAi?$AAn?$AA?$AA@ 10045ec8     LIBCMT:winapinls.obj
 0002:00002ed4       ??_C@_1BG@EAKMMACD@?$AAb?$AAs?$AA?9?$AAb?$AAa?$AA?9?$AAl?$AAa?$AAt?$AAn?$AA?$AA@ 10045ed4     LIBCMT:winapinls.obj
 0002:00002eec       ??_C@_1M@KGADAODK@?$AAc?$AAa?$AA?9?$AAe?$AAs?$AA?$AA@ 10045eec     LIBCMT:winapinls.obj
 0002:00002ef8       ??_C@_1M@COAJPDHI@?$AAc?$AAs?$AA?9?$AAc?$AAz?$AA?$AA@ 10045ef8     LIBCMT:winapinls.obj
 0002:00002f04       ??_C@_1M@DHBHFONH@?$AAc?$AAy?$AA?9?$AAg?$AAb?$AA?$AA@ 10045f04     LIBCMT:winapinls.obj
 0002:00002f10       ??_C@_1M@IMGKELGA@?$AAd?$AAa?$AA?9?$AAd?$AAk?$AA?$AA@ 10045f10     LIBCMT:winapinls.obj
 0002:00002f1c       ??_C@_1M@NNDGDNGA@?$AAd?$AAe?$AA?9?$AAa?$AAt?$AA?$AA@ 10045f1c     LIBCMT:winapinls.obj
 0002:00002f28       ??_C@_1M@IKDBHEEM@?$AAd?$AAe?$AA?9?$AAc?$AAh?$AA?$AA@ 10045f28     LIBCMT:winapinls.obj
 0002:00002f34       ??_C@_1M@GFFOJMCJ@?$AAd?$AAe?$AA?9?$AAd?$AAe?$AA?$AA@ 10045f34     LIBCMT:winapinls.obj
 0002:00002f40       ??_C@_1M@MDNLKBPM@?$AAd?$AAe?$AA?9?$AAl?$AAi?$AA?$AA@ 10045f40     LIBCMT:winapinls.obj
 0002:00002f4c       ??_C@_1M@NJBEEJNL@?$AAd?$AAe?$AA?9?$AAl?$AAu?$AA?$AA@ 10045f4c     LIBCMT:winapinls.obj
 0002:00002f58       ??_C@_1O@GNNELBAP@?$AAd?$AAi?$AAv?$AA?9?$AAm?$AAv?$AA?$AA@ 10045f58     LIBCMT:winapinls.obj
 0002:00002f68       ??_C@_1M@EJLEOGAE@?$AAe?$AAl?$AA?9?$AAg?$AAr?$AA?$AA@ 10045f68     LIBCMT:winapinls.obj
 0002:00002f74       ??_C@_1M@GMPONJN@?$AAe?$AAn?$AA?9?$AAa?$AAu?$AA?$AA@ 10045f74     LIBCMT:winapinls.obj
 0002:00002f80       ??_C@_1M@NIDIIPGF@?$AAe?$AAn?$AA?9?$AAb?$AAz?$AA?$AA@ 10045f80     LIBCMT:winapinls.obj
 0002:00002f8c       ??_C@_1M@JEHMIMFO@?$AAe?$AAn?$AA?9?$AAc?$AAa?$AA?$AA@ 10045f8c     LIBCMT:winapinls.obj
 0002:00002f98       ??_C@_1M@IGMJCDLA@?$AAe?$AAn?$AA?9?$AAc?$AAb?$AA?$AA@ 10045f98     LIBCMT:winapinls.obj
 0002:00002fa4       ??_C@_1M@BNFIGBKG@?$AAe?$AAn?$AA?9?$AAg?$AAb?$AA?$AA@ 10045fa4     LIBCMT:winapinls.obj
 0002:00002fb0       ??_C@_1M@LKIFDIGP@?$AAe?$AAn?$AA?9?$AAi?$AAe?$AA?$AA@ 10045fb0     LIBCMT:winapinls.obj
 0002:00002fbc       ??_C@_1M@PJKFGCCO@?$AAe?$AAn?$AA?9?$AAj?$AAm?$AA?$AA@ 10045fbc     LIBCMT:winapinls.obj
 0002:00002fc8       ??_C@_1M@KPPKEPBO@?$AAe?$AAn?$AA?9?$AAn?$AAz?$AA?$AA@ 10045fc8     LIBCMT:winapinls.obj
 0002:00002fd4       ??_C@_1M@GMDGLDOB@?$AAe?$AAn?$AA?9?$AAp?$AAh?$AA?$AA@ 10045fd4     LIBCMT:winapinls.obj
 0002:00002fe0       ??_C@_1M@ONGIBJNA@?$AAe?$AAn?$AA?9?$AAt?$AAt?$AA?$AA@ 10045fe0     LIBCMT:winapinls.obj
 0002:00002fec       ??_C@_1M@LLODPCMM@?$AAe?$AAn?$AA?9?$AAu?$AAs?$AA?$AA@ 10045fec     LIBCMT:winapinls.obj
 0002:00002ff8       ??_C@_1M@LAKFNPAN@?$AAe?$AAn?$AA?9?$AAz?$AAa?$AA?$AA@ 10045ff8     LIBCMT:winapinls.obj
 0002:00003004       ??_C@_1M@MFNHNHEO@?$AAe?$AAn?$AA?9?$AAz?$AAw?$AA?$AA@ 10046004     LIBCMT:winapinls.obj
 0002:00003010       ??_C@_1M@EJEINPHM@?$AAe?$AAs?$AA?9?$AAa?$AAr?$AA?$AA@ 10046010     LIBCMT:winapinls.obj
 0002:0000301c       ??_C@_1M@GNKPCCJA@?$AAe?$AAs?$AA?9?$AAb?$AAo?$AA?$AA@ 1004601c     LIBCMT:winapinls.obj
 0002:00003028       ??_C@_1M@LEEGFONL@?$AAe?$AAs?$AA?9?$AAc?$AAl?$AA?$AA@ 10046028     LIBCMT:winapinls.obj
 0002:00003034       ??_C@_1M@KGPDPBDF@?$AAe?$AAs?$AA?9?$AAc?$AAo?$AA?$AA@ 10046034     LIBCMT:winapinls.obj
 0002:00003040       ??_C@_1M@EIAHOHH@?$AAe?$AAs?$AA?9?$AAc?$AAr?$AA?$AA@ 10046040     LIBCMT:winapinls.obj
 0002:0000304c       ??_C@_1M@LLPGMBIN@?$AAe?$AAs?$AA?9?$AAd?$AAo?$AA?$AA@ 1004604c     LIBCMT:winapinls.obj
 0002:00003058       ??_C@_1M@DKHMKNJA@?$AAe?$AAs?$AA?9?$AAe?$AAc?$AA?$AA@ 10046058     LIBCMT:winapinls.obj
 0002:00003064       ??_C@_1M@GKGFPKAP@?$AAe?$AAs?$AA?9?$AAe?$AAs?$AA?$AA@ 10046064     LIBCMT:winapinls.obj
 0002:00003070       ??_C@_1M@LKHKGDLN@?$AAe?$AAs?$AA?9?$AAg?$AAt?$AA?$AA@ 10046070     LIBCMT:winapinls.obj
 0002:0000307c       ??_C@_1M@HEIIGGJD@?$AAe?$AAs?$AA?9?$AAh?$AAn?$AA?$AA@ 1004607c     LIBCMT:winapinls.obj
 0002:00003088       ??_C@_1M@FBDHPPGD@?$AAe?$AAs?$AA?9?$AAm?$AAx?$AA?$AA@ 10046088     LIBCMT:winapinls.obj
 0002:00003094       ??_C@_1M@DPAGLNDH@?$AAe?$AAs?$AA?9?$AAn?$AAi?$AA?$AA@ 10046094     LIBCMT:winapinls.obj
 0002:000030a0       ??_C@_1M@MDGOPGDD@?$AAe?$AAs?$AA?9?$AAp?$AAa?$AA?$AA@ 100460a0     LIBCMT:winapinls.obj
 0002:000030ac       ??_C@_1M@EMAMGBGE@?$AAe?$AAs?$AA?9?$AAp?$AAe?$AA?$AA@ 100460ac     LIBCMT:winapinls.obj
 0002:000030b8       ??_C@_1M@IBMCAOEC@?$AAe?$AAs?$AA?9?$AAp?$AAr?$AA?$AA@ 100460b8     LIBCMT:winapinls.obj
 0002:000030c4       ??_C@_1M@FGMDIJED@?$AAe?$AAs?$AA?9?$AAp?$AAy?$AA?$AA@ 100460c4     LIBCMT:winapinls.obj
 0002:000030d0       ??_C@_1M@IIDEOLLL@?$AAe?$AAs?$AA?9?$AAs?$AAv?$AA?$AA@ 100460d0     LIBCMT:winapinls.obj
 0002:000030dc       ??_C@_1M@GAOBIPA@?$AAe?$AAs?$AA?9?$AAu?$AAy?$AA?$AA@ 100460dc     LIBCMT:winapinls.obj
 0002:000030e8       ??_C@_1M@JKFFICHJ@?$AAe?$AAs?$AA?9?$AAv?$AAe?$AA?$AA@ 100460e8     LIBCMT:winapinls.obj
 0002:000030f4       ??_C@_1M@PNMLOJDF@?$AAe?$AAt?$AA?9?$AAe?$AAe?$AA?$AA@ 100460f4     LIBCMT:winapinls.obj
 0002:00003100       ??_C@_1M@GHHLIKEI@?$AAe?$AAu?$AA?9?$AAe?$AAs?$AA?$AA@ 10046100     LIBCMT:winapinls.obj
 0002:0000310c       ??_C@_1M@PBNONODE@?$AAf?$AAa?$AA?9?$AAi?$AAr?$AA?$AA@ 1004610c     LIBCMT:winapinls.obj
 0002:00003118       ??_C@_1M@JEEHPMIL@?$AAf?$AAi?$AA?9?$AAf?$AAi?$AA?$AA@ 10046118     LIBCMT:winapinls.obj
 0002:00003124       ??_C@_1M@LMDCNDBA@?$AAf?$AAo?$AA?9?$AAf?$AAo?$AA?$AA@ 10046124     LIBCMT:winapinls.obj
 0002:00003130       ??_C@_1M@JKEOHLDK@?$AAf?$AAr?$AA?9?$AAb?$AAe?$AA?$AA@ 10046130     LIBCMT:winapinls.obj
 0002:0000313c       ??_C@_1M@NOHADPMI@?$AAf?$AAr?$AA?9?$AAc?$AAa?$AA?$AA@ 1004613c     LIBCMT:winapinls.obj
 0002:00003148       ??_C@_1M@KDHIHAEC@?$AAf?$AAr?$AA?9?$AAc?$AAh?$AA?$AA@ 10046148     LIBCMT:winapinls.obj
 0002:00003154       ??_C@_1M@MMBBFGAK@?$AAf?$AAr?$AA?9?$AAf?$AAr?$AA?$AA@ 10046154     LIBCMT:winapinls.obj
 0002:00003160       ??_C@_1M@PAFNENNF@?$AAf?$AAr?$AA?9?$AAl?$AAu?$AA?$AA@ 10046160     LIBCMT:winapinls.obj
 0002:0000316c       ??_C@_1M@EOHDJGDD@?$AAf?$AAr?$AA?9?$AAm?$AAc?$AA?$AA@ 1004616c     LIBCMT:winapinls.obj
 0002:00003178       ??_C@_1M@FAPLLOPF@?$AAg?$AAl?$AA?9?$AAe?$AAs?$AA?$AA@ 10046178     LIBCMT:winapinls.obj
 0002:00003184       ??_C@_1M@FOPBFLOO@?$AAg?$AAu?$AA?9?$AAi?$AAn?$AA?$AA@ 10046184     LIBCMT:winapinls.obj
 0002:00003190       ??_C@_1M@KBMCINPM@?$AAh?$AAe?$AA?9?$AAi?$AAl?$AA?$AA@ 10046190     LIBCMT:winapinls.obj
 0002:0000319c       ??_C@_1M@BBPHKFPJ@?$AAh?$AAi?$AA?9?$AAi?$AAn?$AA?$AA@ 1004619c     LIBCMT:winapinls.obj
 0002:000031a8       ??_C@_1M@PMBNDPHD@?$AAh?$AAr?$AA?9?$AAb?$AAa?$AA?$AA@ 100461a8     LIBCMT:winapinls.obj
 0002:000031b4       ??_C@_1M@BPCKOEGE@?$AAh?$AAr?$AA?9?$AAh?$AAr?$AA?$AA@ 100461b4     LIBCMT:winapinls.obj
 0002:000031c0       ??_C@_1M@GACBMHKE@?$AAh?$AAu?$AA?9?$AAh?$AAu?$AA?$AA@ 100461c0     LIBCMT:winapinls.obj
 0002:000031cc       ??_C@_1M@MILPAJJC@?$AAh?$AAy?$AA?9?$AAa?$AAm?$AA?$AA@ 100461cc     LIBCMT:winapinls.obj
 0002:000031d8       ??_C@_1M@BABBICEC@?$AAi?$AAd?$AA?9?$AAi?$AAd?$AA?$AA@ 100461d8     LIBCMT:winapinls.obj
 0002:000031e4       ??_C@_1M@BIKNHHPF@?$AAi?$AAs?$AA?9?$AAi?$AAs?$AA?$AA@ 100461e4     LIBCMT:winapinls.obj
 0002:000031f0       ??_C@_1M@NMPCJPHE@?$AAi?$AAt?$AA?9?$AAc?$AAh?$AA?$AA@ 100461f0     LIBCMT:winapinls.obj
 0002:000031fc       ??_C@_1M@GHKGFEDF@?$AAi?$AAt?$AA?9?$AAi?$AAt?$AA?$AA@ 100461fc     LIBCMT:winapinls.obj
 0002:00003208       ??_C@_1M@NIEJCJJA@?$AAj?$AAa?$AA?9?$AAj?$AAp?$AA?$AA@ 10046208     LIBCMT:winapinls.obj
 0002:00003214       ??_C@_1M@JILFNBIM@?$AAk?$AAa?$AA?9?$AAg?$AAe?$AA?$AA@ 10046214     LIBCMT:winapinls.obj
 0002:00003220       ??_C@_1M@PACPMGPH@?$AAk?$AAk?$AA?9?$AAk?$AAz?$AA?$AA@ 10046220     LIBCMT:winapinls.obj
 0002:0000322c       ??_C@_1M@IELFGMHA@?$AAk?$AAn?$AA?9?$AAi?$AAn?$AA?$AA@ 1004622c     LIBCMT:winapinls.obj
 0002:00003238       ??_C@_1O@IBBJHCH@?$AAk?$AAo?$AAk?$AA?9?$AAi?$AAn?$AA?$AA@ 10046238     LIBCMT:winapinls.obj
 0002:00003248       ??_C@_1M@DMHAEOGC@?$AAk?$AAo?$AA?9?$AAk?$AAr?$AA?$AA@ 10046248     LIBCMT:winapinls.obj
 0002:00003254       ??_C@_1M@HBAHBIGA@?$AAk?$AAy?$AA?9?$AAk?$AAg?$AA?$AA@ 10046254     LIBCMT:winapinls.obj
 0002:00003260       ??_C@_1M@KPMILCJG@?$AAl?$AAt?$AA?9?$AAl?$AAt?$AA?$AA@ 10046260     LIBCMT:winapinls.obj
 0002:0000326c       ??_C@_1M@BDEKKCA@?$AAl?$AAv?$AA?9?$AAl?$AAv?$AA?$AA@ 1004626c     LIBCMT:winapinls.obj
 0002:00003278       ??_C@_1M@ELCKCCJJ@?$AAm?$AAi?$AA?9?$AAn?$AAz?$AA?$AA@ 10046278     LIBCMT:winapinls.obj
 0002:00003284       ??_C@_1M@CBOOLAPA@?$AAm?$AAk?$AA?9?$AAm?$AAk?$AA?$AA@ 10046284     LIBCMT:winapinls.obj
 0002:00003290       ??_C@_1M@GPHNBJKN@?$AAm?$AAl?$AA?9?$AAi?$AAn?$AA?$AA@ 10046290     LIBCMT:winapinls.obj
 0002:0000329c       ??_C@_1M@PABJILIG@?$AAm?$AAn?$AA?9?$AAm?$AAn?$AA?$AA@ 1004629c     LIBCMT:winapinls.obj
 0002:000032a8       ??_C@_1M@FGBKKIPG@?$AAm?$AAr?$AA?9?$AAi?$AAn?$AA?$AA@ 100462a8     LIBCMT:winapinls.obj
 0002:000032b4       ??_C@_1M@NDBPDDAL@?$AAm?$AAs?$AA?9?$AAb?$AAn?$AA?$AA@ 100462b4     LIBCMT:winapinls.obj
 0002:000032c0       ??_C@_1M@OPIHOOPI@?$AAm?$AAs?$AA?9?$AAm?$AAy?$AA?$AA@ 100462c0     LIBCMT:winapinls.obj
 0002:000032cc       ??_C@_1M@PPDBCNFM@?$AAm?$AAt?$AA?9?$AAm?$AAt?$AA?$AA@ 100462cc     LIBCMT:winapinls.obj
 0002:000032d8       ??_C@_1M@KDJDKMDD@?$AAn?$AAb?$AA?9?$AAn?$AAo?$AA?$AA@ 100462d8     LIBCMT:winapinls.obj
 0002:000032e4       ??_C@_1M@KFCFLMJP@?$AAn?$AAl?$AA?9?$AAb?$AAe?$AA?$AA@ 100462e4     LIBCMT:winapinls.obj
 0002:000032f0       ??_C@_1M@KPOPDDGO@?$AAn?$AAl?$AA?9?$AAn?$AAl?$AA?$AA@ 100462f0     LIBCMT:winapinls.obj
 0002:000032fc       ??_C@_1M@LJKPEMLN@?$AAn?$AAn?$AA?9?$AAn?$AAo?$AA?$AA@ 100462fc     LIBCMT:winapinls.obj
 0002:00003308       ??_C@_1M@BDGHHBFL@?$AAn?$AAs?$AA?9?$AAz?$AAa?$AA?$AA@ 10046308     LIBCMT:winapinls.obj
 0002:00003314       ??_C@_1M@IDEHOAP@?$AAp?$AAa?$AA?9?$AAi?$AAn?$AA?$AA@ 10046314     LIBCMT:winapinls.obj
 0002:00003320       ??_C@_1M@HDBKGOGH@?$AAp?$AAl?$AA?9?$AAp?$AAl?$AA?$AA@ 10046320     LIBCMT:winapinls.obj
 0002:0000332c       ??_C@_1M@LJLLCMEH@?$AAp?$AAt?$AA?9?$AAb?$AAr?$AA?$AA@ 1004632c     LIBCMT:winapinls.obj
 0002:00003338       ??_C@_1M@NCMONAAL@?$AAp?$AAt?$AA?9?$AAp?$AAt?$AA?$AA@ 10046338     LIBCMT:winapinls.obj
 0002:00003344       ??_C@_1O@EAKMAJDN@?$AAq?$AAu?$AAz?$AA?9?$AAb?$AAo?$AA?$AA@ 10046344     LIBCMT:winapinls.obj
 0002:00003354       ??_C@_1O@BHHPIGDN@?$AAq?$AAu?$AAz?$AA?9?$AAe?$AAc?$AA?$AA@ 10046354     LIBCMT:winapinls.obj
 0002:00003364       ??_C@_1O@GBAPEKMJ@?$AAq?$AAu?$AAz?$AA?9?$AAp?$AAe?$AA?$AA@ 10046364     LIBCMT:winapinls.obj
 0002:00003374       ??_C@_1M@CLGLEFBO@?$AAr?$AAo?$AA?9?$AAr?$AAo?$AA?$AA@ 10046374     LIBCMT:winapinls.obj
 0002:00003380       ??_C@_1M@CEEDODME@?$AAr?$AAu?$AA?9?$AAr?$AAu?$AA?$AA@ 10046380     LIBCMT:winapinls.obj
 0002:0000338c       ??_C@_1M@HPKKKMPP@?$AAs?$AAa?$AA?9?$AAi?$AAn?$AA?$AA@ 1004638c     LIBCMT:winapinls.obj
 0002:00003398       ??_C@_1M@BKMAIGOJ@?$AAs?$AAe?$AA?9?$AAf?$AAi?$AA?$AA@ 10046398     LIBCMT:winapinls.obj
 0002:000033a4       ??_C@_1M@NDPIFLFI@?$AAs?$AAe?$AA?9?$AAn?$AAo?$AA?$AA@ 100463a4     LIBCMT:winapinls.obj
 0002:000033b0       ??_C@_1M@DANKKHJ@?$AAs?$AAe?$AA?9?$AAs?$AAe?$AA?$AA@ 100463b0     LIBCMT:winapinls.obj
 0002:000033bc       ??_C@_1M@PNBLONPJ@?$AAs?$AAk?$AA?9?$AAs?$AAk?$AA?$AA@ 100463bc     LIBCMT:winapinls.obj
 0002:000033c8       ??_C@_1M@LFMODOAL@?$AAs?$AAl?$AA?9?$AAs?$AAi?$AA?$AA@ 100463c8     LIBCMT:winapinls.obj
 0002:000033d4       ??_C@_1O@DFKOMPG@?$AAs?$AAm?$AAa?$AA?9?$AAn?$AAo?$AA?$AA@ 100463d4     LIBCMT:winapinls.obj
 0002:000033e4       ??_C@_1O@NDKPBNNH@?$AAs?$AAm?$AAa?$AA?9?$AAs?$AAe?$AA?$AA@ 100463e4     LIBCMT:winapinls.obj
 0002:000033f4       ??_C@_1O@PLLKBHAB@?$AAs?$AAm?$AAj?$AA?9?$AAn?$AAo?$AA?$AA@ 100463f4     LIBCMT:winapinls.obj
 0002:00003404       ??_C@_1O@CLEPOGCA@?$AAs?$AAm?$AAj?$AA?9?$AAs?$AAe?$AA?$AA@ 10046404     LIBCMT:winapinls.obj
 0002:00003414       ??_C@_1O@DLGJGKMK@?$AAs?$AAm?$AAn?$AA?9?$AAf?$AAi?$AA?$AA@ 10046414     LIBCMT:winapinls.obj
 0002:00003424       ??_C@_1O@OJDJGAJC@?$AAs?$AAm?$AAs?$AA?9?$AAf?$AAi?$AA?$AA@ 10046424     LIBCMT:winapinls.obj
 0002:00003434       ??_C@_1M@BOFOGHPB@?$AAs?$AAq?$AA?9?$AAa?$AAl?$AA?$AA@ 10046434     LIBCMT:winapinls.obj
 0002:00003440       ??_C@_1BG@LJBBIPGB@?$AAs?$AAr?$AA?9?$AAb?$AAa?$AA?9?$AAc?$AAy?$AAr?$AAl?$AA?$AA@ 10046440     LIBCMT:winapinls.obj
 0002:00003458       ??_C@_1BG@JLBENFOE@?$AAs?$AAr?$AA?9?$AAb?$AAa?$AA?9?$AAl?$AAa?$AAt?$AAn?$AA?$AA@ 10046458     LIBCMT:winapinls.obj
 0002:00003470       ??_C@_1BG@KODPNHE@?$AAs?$AAr?$AA?9?$AAs?$AAp?$AA?9?$AAc?$AAy?$AAr?$AAl?$AA?$AA@ 10046470     LIBCMT:winapinls.obj
 0002:00003488       ??_C@_1BG@CIOGKHPB@?$AAs?$AAr?$AA?9?$AAs?$AAp?$AA?9?$AAl?$AAa?$AAt?$AAn?$AA?$AA@ 10046488     LIBCMT:winapinls.obj
 0002:000034a0       ??_C@_1M@NGFJLMAC@?$AAs?$AAv?$AA?9?$AAf?$AAi?$AA?$AA@ 100464a0     LIBCMT:winapinls.obj
 0002:000034ac       ??_C@_1M@MPJEJAJC@?$AAs?$AAv?$AA?9?$AAs?$AAe?$AA?$AA@ 100464ac     LIBCMT:winapinls.obj
 0002:000034b8       ??_C@_1M@MPNDHLFK@?$AAs?$AAw?$AA?9?$AAk?$AAe?$AA?$AA@ 100464b8     LIBCMT:winapinls.obj
 0002:000034c4       ??_C@_1O@KOHBJJI@?$AAs?$AAy?$AAr?$AA?9?$AAs?$AAy?$AA?$AA@ 100464c4     LIBCMT:winapinls.obj
 0002:000034d4       ??_C@_1M@LDCEFHA@?$AAt?$AAa?$AA?9?$AAi?$AAn?$AA?$AA@ 100464d4     LIBCMT:winapinls.obj
 0002:000034e0       ??_C@_1M@CNJOFAK@?$AAt?$AAe?$AA?9?$AAi?$AAn?$AA?$AA@ 100464e0     LIBCMT:winapinls.obj
 0002:000034ec       ??_C@_1M@GNAECACD@?$AAt?$AAh?$AA?9?$AAt?$AAh?$AA?$AA@ 100464ec     LIBCMT:winapinls.obj
 0002:000034f8       ??_C@_1M@CHBIHOJO@?$AAt?$AAn?$AA?9?$AAz?$AAa?$AA?$AA@ 100464f8     LIBCMT:winapinls.obj
 0002:00003504       ??_C@_1M@GCCMIGPJ@?$AAt?$AAr?$AA?9?$AAt?$AAr?$AA?$AA@ 10046504     LIBCMT:winapinls.obj
 0002:00003510       ??_C@_1M@CELMCNBK@?$AAt?$AAt?$AA?9?$AAr?$AAu?$AA?$AA@ 10046510     LIBCMT:winapinls.obj
 0002:0000351c       ??_C@_1M@KLMCELGA@?$AAu?$AAk?$AA?9?$AAu?$AAa?$AA?$AA@ 1004651c     LIBCMT:winapinls.obj
 0002:00003528       ??_C@_1M@EPAJJAJF@?$AAu?$AAr?$AA?9?$AAp?$AAk?$AA?$AA@ 10046528     LIBCMT:winapinls.obj
 0002:00003534       ??_C@_1BG@GEGPMCDJ@?$AAu?$AAz?$AA?9?$AAu?$AAz?$AA?9?$AAc?$AAy?$AAr?$AAl?$AA?$AA@ 10046534     LIBCMT:winapinls.obj
 0002:0000354c       ??_C@_1BG@EGGKJILM@?$AAu?$AAz?$AA?9?$AAu?$AAz?$AA?9?$AAl?$AAa?$AAt?$AAn?$AA?$AA@ 1004654c     LIBCMT:winapinls.obj
 0002:00003564       ??_C@_1M@GFOCLFF@?$AAv?$AAi?$AA?9?$AAv?$AAn?$AA?$AA@ 10046564     LIBCMT:winapinls.obj
 0002:00003570       ??_C@_1M@CPAMEDFI@?$AAx?$AAh?$AA?9?$AAz?$AAa?$AA?$AA@ 10046570     LIBCMT:winapinls.obj
 0002:0000357c       ??_C@_1O@EBKIFIGN@?$AAz?$AAh?$AA?9?$AAc?$AAh?$AAs?$AA?$AA@ 1004657c     LIBCMT:winapinls.obj
 0002:0000358c       ??_C@_1O@NMHPGANE@?$AAz?$AAh?$AA?9?$AAc?$AAh?$AAt?$AA?$AA@ 1004658c     LIBCMT:winapinls.obj
 0002:0000359c       ??_C@_1M@LPINJOMC@?$AAz?$AAh?$AA?9?$AAc?$AAn?$AA?$AA@ 1004659c     LIBCMT:winapinls.obj
 0002:000035a8       ??_C@_1M@OCJEJODD@?$AAz?$AAh?$AA?9?$AAh?$AAk?$AA?$AA@ 100465a8     LIBCMT:winapinls.obj
 0002:000035b4       ??_C@_1M@DNDLJINH@?$AAz?$AAh?$AA?9?$AAm?$AAo?$AA?$AA@ 100465b4     LIBCMT:winapinls.obj
 0002:000035c0       ??_C@_1M@MBFDNDND@?$AAz?$AAh?$AA?9?$AAs?$AAg?$AA?$AA@ 100465c0     LIBCMT:winapinls.obj
 0002:000035cc       ??_C@_1M@IMEPLEPE@?$AAz?$AAh?$AA?9?$AAt?$AAw?$AA?$AA@ 100465cc     LIBCMT:winapinls.obj
 0002:000035d8       ??_C@_1M@BBGHNHJP@?$AAz?$AAu?$AA?9?$AAz?$AAa?$AA?$AA@ 100465d8     LIBCMT:winapinls.obj
 0002:000035f4       ??_C@_03KOEHGMDN@Sun?$AA@  100465f4     LIBCMT:nlsdata.obj
 0002:000035f8       ??_C@_03PDAGKDH@Mon?$AA@   100465f8     LIBCMT:nlsdata.obj
 0002:000035fc       ??_C@_03NAGEINEP@Tue?$AA@  100465fc     LIBCMT:nlsdata.obj
 0002:00003600       ??_C@_03MHOMLAJA@Wed?$AA@  10046600     LIBCMT:nlsdata.obj
 0002:00003604       ??_C@_03IOFIKPDN@Thu?$AA@  10046604     LIBCMT:nlsdata.obj
 0002:00003608       ??_C@_03IDIOELNC@Fri?$AA@  10046608     LIBCMT:nlsdata.obj
 0002:0000360c       ??_C@_03FEFJNEK@Sat?$AA@   1004660c     LIBCMT:nlsdata.obj
 0002:00003610       ??_C@_06OOPIFAJ@Sunday?$AA@ 10046610     LIBCMT:nlsdata.obj
 0002:00003618       ??_C@_06JLEDEDGH@Monday?$AA@ 10046618     LIBCMT:nlsdata.obj
 0002:00003620       ??_C@_07BAAGCFCM@Tuesday?$AA@ 10046620     LIBCMT:nlsdata.obj
 0002:00003628       ??_C@_09DLIGFAKA@Wednesday?$AA@ 10046628     LIBCMT:nlsdata.obj
 0002:00003634       ??_C@_08HACCIKIA@Thursday?$AA@ 10046634     LIBCMT:nlsdata.obj
 0002:00003640       ??_C@_06JECMNKMI@Friday?$AA@ 10046640     LIBCMT:nlsdata.obj
 0002:00003648       ??_C@_08INBOOONO@Saturday?$AA@ 10046648     LIBCMT:nlsdata.obj
 0002:00003654       ??_C@_03JIHJHPIE@Jan?$AA@  10046654     LIBCMT:nlsdata.obj
 0002:00003658       ??_C@_03HJBDCHOM@Feb?$AA@  10046658     LIBCMT:nlsdata.obj
 0002:0000365c       ??_C@_03ODNJBKGA@Mar?$AA@  1004665c     LIBCMT:nlsdata.obj
 0002:00003660       ??_C@_03LEOLGMJP@Apr?$AA@  10046660     LIBCMT:nlsdata.obj
 0002:00003664       ??_C@_03CNMDKL@May?$AA@    10046664     LIBCMT:nlsdata.obj
 0002:00003668       ??_C@_03IDFGHECI@Jun?$AA@  10046668     LIBCMT:nlsdata.obj
 0002:0000366c       ??_C@_03LBGABGKK@Jul?$AA@  1004666c     LIBCMT:nlsdata.obj
 0002:00003670       ??_C@_03IFJFEIGA@Aug?$AA@  10046670     LIBCMT:nlsdata.obj
 0002:00003674       ??_C@_03GGCAPAJC@Sep?$AA@  10046674     LIBCMT:nlsdata.obj
 0002:00003678       ??_C@_03BMAOKBAD@Oct?$AA@  10046678     LIBCMT:nlsdata.obj
 0002:0000367c       ??_C@_03JPJOFNIA@Nov?$AA@  1004667c     LIBCMT:nlsdata.obj
 0002:00003680       ??_C@_03MKABNOCG@Dec?$AA@  10046680     LIBCMT:nlsdata.obj
 0002:00003684       ??_C@_07CGJPFGJA@January?$AA@ 10046684     LIBCMT:nlsdata.obj
 0002:0000368c       ??_C@_08GNJGEPFN@February?$AA@ 1004668c     LIBCMT:nlsdata.obj
 0002:00003698       ??_C@_05HPCKOFNC@March?$AA@ 10046698     LIBCMT:nlsdata.obj
 0002:000036a0       ??_C@_05DMJDNLEJ@April?$AA@ 100466a0     LIBCMT:nlsdata.obj
 0002:000036a8       ??_C@_04CNLMGBGM@June?$AA@ 100466a8     LIBCMT:nlsdata.obj
 0002:000036b0       ??_C@_04MIEPOIFP@July?$AA@ 100466b0     LIBCMT:nlsdata.obj
 0002:000036b8       ??_C@_06LBBHFDDG@August?$AA@ 100466b8     LIBCMT:nlsdata.obj
 0002:000036c0       ??_C@_09BHHEALKD@September?$AA@ 100466c0     LIBCMT:nlsdata.obj
 0002:000036cc       ??_C@_07JJNFCEND@October?$AA@ 100466cc     LIBCMT:nlsdata.obj
 0002:000036d4       ??_C@_08HCHEGEOA@November?$AA@ 100466d4     LIBCMT:nlsdata.obj
 0002:000036e0       ??_C@_08EDHMEBNP@December?$AA@ 100466e0     LIBCMT:nlsdata.obj
 0002:000036ec       ??_C@_02DEDBPAFC@AM?$AA@   100466ec     LIBCMT:nlsdata.obj
 0002:000036f0       ??_C@_02CJNFDJBF@PM?$AA@   100466f0     LIBCMT:nlsdata.obj
 0002:000036f4       ??_C@_08BPBNCDIB@MM?1dd?1yy?$AA@ 100466f4     LIBCMT:nlsdata.obj
 0002:00003700       ??_C@_0BE@CKGJFCPC@dddd?0?5MMMM?5dd?0?5yyyy?$AA@ 10046700     LIBCMT:nlsdata.obj
 0002:00003714       ??_C@_08JCCMCCIL@HH?3mm?3ss?$AA@ 10046714     LIBCMT:nlsdata.obj
 0002:00003720       ??_C@_17MBGCMIPB@?$AAS?$AAu?$AAn?$AA?$AA@ 10046720     LIBCMT:nlsdata.obj
 0002:00003728       ??_C@_17KBOMKBF@?$AAM?$AAo?$AAn?$AA?$AA@ 10046728     LIBCMT:nlsdata.obj
 0002:00003730       ??_C@_17BMKGEGOJ@?$AAT?$AAu?$AAe?$AA?$AA@ 10046730     LIBCMT:nlsdata.obj
 0002:00003738       ??_C@_17CJEDCEPE@?$AAW?$AAe?$AAd?$AA?$AA@ 10046738     LIBCMT:nlsdata.obj
 0002:00003740       ??_C@_17PDPHAADD@?$AAT?$AAh?$AAu?$AA?$AA@ 10046740     LIBCMT:nlsdata.obj
 0002:00003748       ??_C@_17HFOLPPLP@?$AAF?$AAr?$AAi?$AA?$AA@ 10046748     LIBCMT:nlsdata.obj
 0002:00003750       ??_C@_17GGIBDPIH@?$AAS?$AAa?$AAt?$AA?$AA@ 10046750     LIBCMT:nlsdata.obj
 0002:00003758       ??_C@_1O@IHNHDHPB@?$AAS?$AAu?$AAn?$AAd?$AAa?$AAy?$AA?$AA@ 10046758     LIBCMT:nlsdata.obj
 0002:00003768       ??_C@_1O@MMNBFLIA@?$AAM?$AAo?$AAn?$AAd?$AAa?$AAy?$AA?$AA@ 10046768     LIBCMT:nlsdata.obj
 0002:00003778       ??_C@_1BA@ENFBFFEK@?$AAT?$AAu?$AAe?$AAs?$AAd?$AAa?$AAy?$AA?$AA@ 10046778     LIBCMT:nlsdata.obj
 0002:00003788       ??_C@_1BE@EBOGMDOH@?$AAW?$AAe?$AAd?$AAn?$AAe?$AAs?$AAd?$AAa?$AAy?$AA?$AA@ 10046788     LIBCMT:nlsdata.obj
 0002:0000379c       ??_C@_1BC@HHMNLIHE@?$AAT?$AAh?$AAu?$AAr?$AAs?$AAd?$AAa?$AAy?$AA?$AA@ 1004679c     LIBCMT:nlsdata.obj
 0002:000037b0       ??_C@_1O@PDICJHAG@?$AAF?$AAr?$AAi?$AAd?$AAa?$AAy?$AA?$AA@ 100467b0     LIBCMT:nlsdata.obj
 0002:000037c0       ??_C@_1BC@ENMNNPAJ@?$AAS?$AAa?$AAt?$AAu?$AAr?$AAd?$AAa?$AAy?$AA?$AA@ 100467c0     LIBCMT:nlsdata.obj
 0002:000037d4       ??_C@_17DKNBKCHM@?$AAJ?$AAa?$AAn?$AA?$AA@ 100467d4     LIBCMT:nlsdata.obj
 0002:000037dc       ??_C@_17LMDJEKJN@?$AAF?$AAe?$AAb?$AA?$AA@ 100467dc     LIBCMT:nlsdata.obj
 0002:000037e4       ??_C@_17CKNLEDEC@?$AAM?$AAa?$AAr?$AA?$AA@ 100467e4     LIBCMT:nlsdata.obj
 0002:000037ec       ??_C@_17LFPOIHDD@?$AAA?$AAp?$AAr?$AA?$AA@ 100467ec     LIBCMT:nlsdata.obj
 0002:000037f4       ??_C@_17PNNKMEED@?$AAM?$AAa?$AAy?$AA?$AA@ 100467f4     LIBCMT:nlsdata.obj
 0002:000037fc       ??_C@_17KCJGOCPB@?$AAJ?$AAu?$AAn?$AA?$AA@ 100467fc     LIBCMT:nlsdata.obj
 0002:00003804       ??_C@_17IJPCKHK@?$AAJ?$AAu?$AAl?$AA?$AA@ 10046804     LIBCMT:nlsdata.obj
 0002:0000380c       ??_C@_17ICPELBCN@?$AAA?$AAu?$AAg?$AA?$AA@ 1004680c     LIBCMT:nlsdata.obj
 0002:00003814       ??_C@_17HCHCOKMG@?$AAS?$AAe?$AAp?$AA?$AA@ 10046814     LIBCMT:nlsdata.obj
 0002:0000381c       ??_C@_17FNLKOI@?$AAO?$AAc?$AAt?$AA?$AA@ 1004681c     LIBCMT:nlsdata.obj
 0002:00003824       ??_C@_17BBDMLCIG@?$AAN?$AAo?$AAv?$AA?$AA@ 10046824     LIBCMT:nlsdata.obj
 0002:0000382c       ??_C@_17EGKACKIF@?$AAD?$AAe?$AAc?$AA?$AA@ 1004682c     LIBCMT:nlsdata.obj
 0002:00003834       ??_C@_1BA@EFMEIEBA@?$AAJ?$AAa?$AAn?$AAu?$AAa?$AAr?$AAy?$AA?$AA@ 10046834     LIBCMT:nlsdata.obj
 0002:00003844       ??_C@_1BC@JGDDFFAM@?$AAF?$AAe?$AAb?$AAr?$AAu?$AAa?$AAr?$AAy?$AA?$AA@ 10046844     LIBCMT:nlsdata.obj
 0002:00003858       ??_C@_1M@IKEENEDF@?$AAM?$AAa?$AAr?$AAc?$AAh?$AA?$AA@ 10046858     LIBCMT:nlsdata.obj
 0002:00003864       ??_C@_1M@GJNLMHFD@?$AAA?$AAp?$AAr?$AAi?$AAl?$AA?$AA@ 10046864     LIBCMT:nlsdata.obj
 0002:00003870       ??_C@_19EPFLPGAP@?$AAJ?$AAu?$AAn?$AAe?$AA?$AA@ 10046870     LIBCMT:nlsdata.obj
 0002:0000387c       ??_C@_19BIFMLPCD@?$AAJ?$AAu?$AAl?$AAy?$AA?$AA@ 1004687c     LIBCMT:nlsdata.obj
 0002:00003888       ??_C@_1O@PAHLKOAC@?$AAA?$AAu?$AAg?$AAu?$AAs?$AAt?$AA?$AA@ 10046888     LIBCMT:nlsdata.obj
 0002:00003898       ??_C@_1BE@DKAAMBJL@?$AAS?$AAe?$AAp?$AAt?$AAe?$AAm?$AAb?$AAe?$AAr?$AA?$AA@ 10046898     LIBCMT:nlsdata.obj
 0002:000038ac       ??_C@_1BA@EPANDLNG@?$AAO?$AAc?$AAt?$AAo?$AAb?$AAe?$AAr?$AA?$AA@ 100468ac     LIBCMT:nlsdata.obj
 0002:000038bc       ??_C@_1BC@BGLIFPF@?$AAN?$AAo?$AAv?$AAe?$AAm?$AAb?$AAe?$AAr?$AA?$AA@ 100468bc     LIBCMT:nlsdata.obj
 0002:000038d0       ??_C@_1BC@FEMKIFH@?$AAD?$AAe?$AAc?$AAe?$AAm?$AAb?$AAe?$AAr?$AA?$AA@ 100468d0     LIBCMT:nlsdata.obj
 0002:000038e4       ??_C@_15ODEHAHHF@?$AAA?$AAM?$AA?$AA@ 100468e4     LIBCMT:nlsdata.obj
 0002:000038ec       ??_C@_15CLMNNGEL@?$AAP?$AAM?$AA?$AA@ 100468ec     LIBCMT:nlsdata.obj
 0002:000038f4       ??_C@_1BC@IEBCMHCM@?$AAM?$AAM?$AA?1?$AAd?$AAd?$AA?1?$AAy?$AAy?$AA?$AA@ 100468f4     LIBCMT:nlsdata.obj
 0002:00003908       ??_C@_1CI@KNAKOEBC@?$AAd?$AAd?$AAd?$AAd?$AA?0?$AA?5?$AAM?$AAM?$AAM?$AAM?$AA?5?$AAd?$AAd?$AA?0?$AA?5?$AAy?$AAy?$AAy?$AAy?$AA?$AA@ 10046908     LIBCMT:nlsdata.obj
 0002:00003930       ??_C@_1BC@GDGBMEMK@?$AAH?$AAH?$AA?3?$AAm?$AAm?$AA?3?$AAs?$AAs?$AA?$AA@ 10046930     LIBCMT:nlsdata.obj
 0002:00003ad4       ??_C@_08EHJDFFNH@__based?$CI?$AA@ 10046ad4     LIBCMT:undname.obj
 0002:00003ae0       ??_C@_07KOLFKCDI@__cdecl?$AA@ 10046ae0     LIBCMT:undname.obj
 0002:00003ae8       ??_C@_08GHMPAG@__pascal?$AA@ 10046ae8     LIBCMT:undname.obj
 0002:00003af4       ??_C@_09IFJBGAPI@__stdcall?$AA@ 10046af4     LIBCMT:undname.obj
 0002:00003b00       ??_C@_0L@NPHFGOKO@__thiscall?$AA@ 10046b00     LIBCMT:undname.obj
 0002:00003b0c       ??_C@_0L@JMKHOMEK@__fastcall?$AA@ 10046b0c     LIBCMT:undname.obj
 0002:00003b18       ??_C@_0N@BCKKPABJ@__vectorcall?$AA@ 10046b18     LIBCMT:undname.obj
 0002:00003b28       ??_C@_09HIJEGCPM@__clrcall?$AA@ 10046b28     LIBCMT:undname.obj
 0002:00003b34       ??_C@_06GHPCKEAG@__eabi?$AA@ 10046b34     LIBCMT:undname.obj
 0002:00003b3c       ??_C@_07JOMMBBKO@__ptr64?$AA@ 10046b3c     LIBCMT:undname.obj
 0002:00003b44       ??_C@_0L@PILCLIHE@__restrict?$AA@ 10046b44     LIBCMT:undname.obj
 0002:00003b50       ??_C@_0M@GFIIJFMG@__unaligned?$AA@ 10046b50     LIBCMT:undname.obj
 0002:00003b5c       ??_C@_09DHDLOLLB@restrict?$CI?$AA@ 10046b5c     LIBCMT:undname.obj
 0002:00003b66       ??_C@_00CNPNBAHC@?$AA@     10046b66     LIBCMT:undname.obj
 0002:00003b68       ??_C@_04NIHEBCM@?5new?$AA@ 10046b68     LIBCMT:undname.obj
 0002:00003b70       ??_C@_07FPCDHGMM@?5delete?$AA@ 10046b70     LIBCMT:undname.obj
 0002:00003b78       ??_C@_01NEMOKFLO@?$DN?$AA@ 10046b78     LIBCMT:undname.obj
 0002:00003b7c       ??_C@_02GPIOPFAK@?$DO?$DO?$AA@ 10046b7c     LIBCMT:undname.obj
 0002:00003b80       ??_C@_02FODMEDOG@?$DM?$DM?$AA@ 10046b80     LIBCMT:undname.obj
 0002:00003b84       ??_C@_01DCLJPIOD@?$CB?$AA@ 10046b84     LIBCMT:undname.obj
 0002:00003b88       ??_C@_02EGOFBIJA@?$DN?$DN?$AA@ 10046b88     LIBCMT:undname.obj
 0002:00003b8c       ??_C@_02FDNJECIE@?$CB?$DN?$AA@ 10046b8c     LIBCMT:undname.obj
 0002:00003b90       ??_C@_02GPECMEKF@?$FL?$FN?$AA@ 10046b90     LIBCMT:undname.obj
 0002:00003b94       ??_C@_08LHJFAFGD@operator?$AA@ 10046b94     LIBCMT:undname.obj
 0002:00003ba0       ??_C@_02HBOOOICD@?9?$DO?$AA@ 10046ba0     LIBCMT:undname.obj
 0002:00003ba4       ??_C@_01NBENCBCI@?$CK?$AA@ 10046ba4     LIBCMT:undname.obj
 0002:00003ba8       ??_C@_02ECNGHCIF@?$CL?$CL?$AA@ 10046ba8     LIBCMT:undname.obj
 0002:00003bac       ??_C@_02BAABKJLB@?9?9?$AA@ 10046bac     LIBCMT:undname.obj
 0002:00003bb0       ??_C@_01JOAMLHOP@?9?$AA@   10046bb0     LIBCMT:undname.obj
 0002:00003bb4       ??_C@_01MIFGBAGJ@?$CL?$AA@ 10046bb4     LIBCMT:undname.obj
 0002:00003bb8       ??_C@_01HNPIGOCE@?$CG?$AA@ 10046bb8     LIBCMT:undname.obj
 0002:00003bbc       ??_C@_03MNHNFDLC@?9?$DO?$CK?$AA@ 10046bbc     LIBCMT:undname.obj
 0002:00003bc0       ??_C@_01KMDKNFGN@?1?$AA@   10046bc0     LIBCMT:undname.obj
 0002:00003bc4       ??_C@_01FGNFDNOH@?$CF?$AA@ 10046bc4     LIBCMT:undname.obj
 0002:00003bc8       ??_C@_01MNNFJEPP@?$DM?$AA@ 10046bc8     LIBCMT:undname.obj
 0002:00003bcc       ??_C@_02EHCHHCKH@?$DM?$DN?$AA@ 10046bcc     LIBCMT:undname.obj
 0002:00003bd0       ??_C@_01PPODPGHN@?$DO?$AA@ 10046bd0     LIBCMT:undname.obj
 0002:00003bd4       ??_C@_02EEKDKGMJ@?$DO?$DN?$AA@ 10046bd4     LIBCMT:undname.obj
 0002:00003bd8       ??_C@_01IHBHIGKO@?0?$AA@   10046bd8     LIBCMT:undname.obj
 0002:00003bdc       ??_C@_02HCKGKOFO@?$CI?$CJ?$AA@ 10046bdc     LIBCMT:undname.obj
 0002:00003be0       ??_C@_01PJKLJHI@?$HO?$AA@  10046be0     LIBCMT:undname.obj
 0002:00003be4       ??_C@_01JKBOJNNK@?$FO?$AA@ 10046be4     LIBCMT:undname.obj
 0002:00003be8       ??_C@_01DNKMNLPK@?$HM?$AA@ 10046be8     LIBCMT:undname.obj
 0002:00003bec       ??_C@_02PPKAJPJL@?$CG?$CG?$AA@ 10046bec     LIBCMT:undname.obj
 0002:00003bf0       ??_C@_02NONPIBCD@?$HM?$HM?$AA@ 10046bf0     LIBCMT:undname.obj
 0002:00003bf4       ??_C@_02FPIMKNGF@?$CK?$DN?$AA@ 10046bf4     LIBCMT:undname.obj
 0002:00003bf8       ??_C@_02FOEOMHFC@?$CL?$DN?$AA@ 10046bf8     LIBCMT:undname.obj
 0002:00003bfc       ??_C@_02FKMDLLOA@?9?$DN?$AA@ 10046bfc     LIBCMT:undname.obj
 0002:00003c00       ??_C@_02FJEHGPIO@?1?$DN?$AA@ 10046c00     LIBCMT:undname.obj
 0002:00003c04       ??_C@_02FENAOKFI@?$CF?$DN?$AA@ 10046c04     LIBCMT:undname.obj
 0002:00003c08       ??_C@_03IKFCCPFF@?$DO?$DO?$DN?$AA@ 10046c08     LIBCMT:undname.obj
 0002:00003c0c       ??_C@_03CDNPDDLA@?$DM?$DM?$DN?$AA@ 10046c0c     LIBCMT:undname.obj
 0002:00003c10       ??_C@_02FGJGFEAB@?$CG?$DN?$AA@ 10046c10     LIBCMT:undname.obj
 0002:00003c14       ??_C@_02DHLNPPGH@?$HM?$DN?$AA@ 10046c14     LIBCMT:undname.obj
 0002:00003c18       ??_C@_02MHEGNOJ@?$FO?$DN?$AA@ 10046c18     LIBCMT:undname.obj
 0002:00003c1c       ??_C@_09IFPLHPGF@?$GAvftable?8?$AA@ 10046c1c     LIBCMT:undname.obj
 0002:00003c28       ??_C@_09BLBHBJP@?$GAvbtable?8?$AA@ 10046c28     LIBCMT:undname.obj
 0002:00003c34       ??_C@_07FEEIOKP@?$GAvcall?8?$AA@ 10046c34     LIBCMT:undname.obj
 0002:00003c3c       ??_C@_08LLFFHHDJ@?$GAtypeof?8?$AA@ 10046c3c     LIBCMT:undname.obj
 0002:00003c48       ??_C@_0BF@KDPPACIK@?$GAlocal?5static?5guard?8?$AA@ 10046c48     LIBCMT:undname.obj
 0002:00003c60       ??_C@_08OBABFOLI@?$GAstring?8?$AA@ 10046c60     LIBCMT:undname.obj
 0002:00003c6c       ??_C@_0BD@JDLKDPAB@?$GAvbase?5destructor?8?$AA@ 10046c6c     LIBCMT:undname.obj
 0002:00003c80       ??_C@_0BN@DEGPLNFK@?$GAvector?5deleting?5destructor?8?$AA@ 10046c80     LIBCMT:undname.obj
 0002:00003ca0       ??_C@_0BO@OBMKPJIG@?$GAdefault?5constructor?5closure?8?$AA@ 10046ca0     LIBCMT:undname.obj
 0002:00003cc0       ??_C@_0BN@IMDCHIKM@?$GAscalar?5deleting?5destructor?8?$AA@ 10046cc0     LIBCMT:undname.obj
 0002:00003ce0       ??_C@_0BO@PFGOCPJJ@?$GAvector?5constructor?5iterator?8?$AA@ 10046ce0     LIBCMT:undname.obj
 0002:00003d00       ??_C@_0BN@LFPFMEDL@?$GAvector?5destructor?5iterator?8?$AA@ 10046d00     LIBCMT:undname.obj
 0002:00003d20       ??_C@_0CE@IKBNEHA@?$GAvector?5vbase?5constructor?5iterat@ 10046d20     LIBCMT:undname.obj
 0002:00003d44       ??_C@_0BL@NILFHHPC@?$GAvirtual?5displacement?5map?8?$AA@ 10046d44     LIBCMT:undname.obj
 0002:00003d60       ??_C@_0CB@JONCMFFK@?$GAeh?5vector?5constructor?5iterator?8@ 10046d60     LIBCMT:undname.obj
 0002:00003d84       ??_C@_0CA@GCEOPDGL@?$GAeh?5vector?5destructor?5iterator?8?$AA@ 10046d84     LIBCMT:undname.obj
 0002:00003da4       ??_C@_0CH@OOJPLCPH@?$GAeh?5vector?5vbase?5constructor?5ite@ 10046da4     LIBCMT:undname.obj
 0002:00003dcc       ??_C@_0BL@LLKPOHJI@?$GAcopy?5constructor?5closure?8?$AA@ 10046dcc     LIBCMT:undname.obj
 0002:00003de8       ??_C@_0BA@KBCDOMBN@?$GAudt?5returning?8?$AA@ 10046de8     LIBCMT:undname.obj
 0002:00003df8       ??_C@_03KLGMFNMG@?$GAEH?$AA@ 10046df8     LIBCMT:undname.obj
 0002:00003dfc       ??_C@_05KHLCHHI@?$GARTTI?$AA@ 10046dfc     LIBCMT:undname.obj
 0002:00003e04       ??_C@_0BA@KKLDJDLB@?$GAlocal?5vftable?8?$AA@ 10046e04     LIBCMT:undname.obj
 0002:00003e14       ??_C@_0CE@IIHCMGGL@?$GAlocal?5vftable?5constructor?5closu@ 10046e14     LIBCMT:undname.obj
 0002:00003e38       ??_C@_06FHBGPFGH@?5new?$FL?$FN?$AA@ 10046e38     LIBCMT:undname.obj
 0002:00003e40       ??_C@_09LBNFPBCA@?5delete?$FL?$FN?$AA@ 10046e40     LIBCMT:undname.obj
 0002:00003e4c       ??_C@_0P@HJKNJFNN@?$GAomni?5callsig?8?$AA@ 10046e4c     LIBCMT:undname.obj
 0002:00003e5c       ??_C@_0BL@CNOONJFP@?$GAplacement?5delete?5closure?8?$AA@ 10046e5c     LIBCMT:undname.obj
 0002:00003e78       ??_C@_0BN@CKNJLHMB@?$GAplacement?5delete?$FL?$FN?5closure?8?$AA@ 10046e78     LIBCMT:undname.obj
 0002:00003e98       ??_C@_0CG@CFDHKGGD@?$GAmanaged?5vector?5constructor?5iter@ 10046e98     LIBCMT:undname.obj
 0002:00003ec0       ??_C@_0CF@IMGKMJNO@?$GAmanaged?5vector?5destructor?5itera@ 10046ec0     LIBCMT:undname.obj
 0002:00003ee8       ??_C@_0CG@HLDDJMAG@?$GAeh?5vector?5copy?5constructor?5iter@ 10046ee8     LIBCMT:undname.obj
 0002:00003f10       ??_C@_0CM@FCBBDIGB@?$GAeh?5vector?5vbase?5copy?5constructo@ 10046f10     LIBCMT:undname.obj
 0002:00003f3c       ??_C@_0BL@CLIPGLGB@?$GAdynamic?5initializer?5for?5?8?$AA@ 10046f3c     LIBCMT:undname.obj
 0002:00003f58       ??_C@_0CB@PDBIFEP@?$GAdynamic?5atexit?5destructor?5for?5?8@ 10046f58     LIBCMT:undname.obj
 0002:00003f7c       ??_C@_0CD@CGAJBKEJ@?$GAvector?5copy?5constructor?5iterato@ 10046f7c     LIBCMT:undname.obj
 0002:00003fa0       ??_C@_0CJ@GJELGAMM@?$GAvector?5vbase?5copy?5constructor?5i@ 10046fa0     LIBCMT:undname.obj
 0002:00003fcc       ??_C@_0CL@FGIJHLCE@?$GAmanaged?5vector?5copy?5constructor@ 10046fcc     LIBCMT:undname.obj
 0002:00003ff8       ??_C@_0BM@PMGGMLDN@?$GAlocal?5static?5thread?5guard?8?$AA@ 10046ff8     LIBCMT:undname.obj
 0002:00004014       ??_C@_0BC@DAFEJGAK@?5Type?5Descriptor?8?$AA@ 10047014     LIBCMT:undname.obj
 0002:00004028       ??_C@_0BM@LDKODKLH@?5Base?5Class?5Descriptor?5at?5?$CI?$AA@ 10047028     LIBCMT:undname.obj
 0002:00004044       ??_C@_0BD@LGICGFMM@?5Base?5Class?5Array?8?$AA@ 10047044     LIBCMT:undname.obj
 0002:00004058       ??_C@_0BN@MECKDCOJ@?5Class?5Hierarchy?5Descriptor?8?$AA@ 10047058     LIBCMT:undname.obj
 0002:00004078       ??_C@_0BK@CFCOFLF@?5Complete?5Object?5Locator?8?$AA@ 10047078     LIBCMT:undname.obj
 0002:00004094       ??_C@_04HEJADOOB@CV?3?5?$AA@ 10047094     LIBCMT:undname.obj
 0002:0000409c       ??_C@_02MOLJINC@?3?3?$AA@  1004709c     LIBCMT:undname.obj
 0002:000040a0       ??_C@_0BE@JAEOCHPE@template?9parameter?9?$AA@ 100470a0     LIBCMT:undname.obj
 0002:000040b4       ??_C@_0O@KHGCOMHP@generic?9type?9?$AA@ 100470b4     LIBCMT:undname.obj
 0002:000040c4       ??_C@_01NLNLIGKH@?$GA?$AA@ 100470c4     LIBCMT:undname.obj
 0002:000040c8       ??_C@_01GEODFPGF@?8?$AA@   100470c8     LIBCMT:undname.obj
 0002:000040cc       ??_C@_0BG@JNJLAMPM@?$GAanonymous?5namespace?8?$AA@ 100470cc     LIBCMT:undname.obj
 0002:000040e4       ??_C@_02OHHJMEON@?8?8?$AA@ 100470e4     LIBCMT:undname.obj
 0002:000040e8       ??_C@_0BN@IBLMMFAP@?$GAnon?9type?9template?9parameter?$AA@ 100470e8     LIBCMT:undname.obj
 0002:00004108       ??_C@_04GKJNKENE@void?$AA@ 10047108     LIBCMT:undname.obj
 0002:00004110       ??_C@_0BE@EODMJLIF@?$GAtemplate?9parameter?$AA@ 10047110     LIBCMT:undname.obj
 0002:00004124       ??_C@_03KHICJKCI@?4?4?4?$AA@ 10047124     LIBCMT:undname.obj
 0002:00004128       ??_C@_04HIBGFPH@NULL?$AA@  10047128     LIBCMT:undname.obj
 0002:00004130       ??_C@_03OPGICMGF@?$HN?8?5?$AA@ 10047130     LIBCMT:undname.obj
 0002:00004134       ??_C@_02IGFCGPIL@?$HN?8?$AA@ 10047134     LIBCMT:undname.obj
 0002:00004138       ??_C@_01CLKCMJKC@?5?$AA@   10047138     LIBCMT:undname.obj
 0002:0000413c       ??_C@_0N@CBHHHENL@?$GAvtordispex?$HL?$AA@ 1004713c     LIBCMT:undname.obj
 0002:0000414c       ??_C@_0L@GHPFDFH@?$GAvtordisp?$HL?$AA@ 1004714c     LIBCMT:undname.obj
 0002:00004158       ??_C@_0L@HNGCOGAE@?$GAadjustor?$HL?$AA@ 10047158     LIBCMT:undname.obj
 0002:00004164       ??_C@_0CB@KJDOOODE@?$GAlocal?5static?5destructor?5helper?8@ 10047164     LIBCMT:undname.obj
 0002:00004188       ??_C@_0DB@ILEFOCIJ@?$GAtemplate?5static?5data?5member?5con@ 10047188     LIBCMT:undname.obj
 0002:000041bc       ??_C@_0DA@HGFJFBBE@?$GAtemplate?5static?5data?5member?5des@ 100471bc     LIBCMT:undname.obj
 0002:000041ec       ??_C@_07PGOEDBHP@static?5?$AA@ 100471ec     LIBCMT:undname.obj
 0002:000041f4       ??_C@_08NIEOINHE@virtual?5?$AA@ 100471f4     LIBCMT:undname.obj
 0002:00004200       ??_C@_09LAPHOOG@private?3?5?$AA@ 10047200     LIBCMT:undname.obj
 0002:0000420c       ??_C@_0M@GAIFPFIP@protected?3?5?$AA@ 1004720c     LIBCMT:undname.obj
 0002:00004218       ??_C@_08GPDDCMKI@public?3?5?$AA@ 10047218     LIBCMT:undname.obj
 0002:00004224       ??_C@_08KJLFOPNE@?$FLthunk?$FN?3?$AA@ 10047224     LIBCMT:undname.obj
 0002:00004230       ??_C@_0M@DHNBOJMP@extern?5?$CCC?$CC?5?$AA@ 10047230     LIBCMT:undname.obj
 0002:0000423c       ??_C@_02KCKGHPCA@?$CJ?5?$AA@ 1004723c     LIBCMT:undname.obj
 0002:00004240       ??_C@_05CIHEBHNO@char?5?$AA@ 10047240     LIBCMT:undname.obj
 0002:00004248       ??_C@_06EHJMALKF@short?5?$AA@ 10047248     LIBCMT:undname.obj
 0002:00004250       ??_C@_04LAHKHJMA@int?5?$AA@ 10047250     LIBCMT:undname.obj
 0002:00004258       ??_C@_05CJIMAING@long?5?$AA@ 10047258     LIBCMT:undname.obj
 0002:00004260       ??_C@_09EBBEKKIH@unsigned?5?$AA@ 10047260     LIBCMT:undname.obj
 0002:0000426c       ??_C@_05BEFAKPML@void?5?$AA@ 1004726c     LIBCMT:undname.obj
 0002:00004274       ??_C@_08PABEKFH@volatile?$AA@ 10047274     LIBCMT:undname.obj
 0002:00004280       ??_C@_0P@GCOCNKDM@std?3?3nullptr_t?$AA@ 10047280     LIBCMT:undname.obj
 0002:00004290       ??_C@_0L@EGPHHEKN@?$DMellipsis?$DO?$AA@ 10047290     LIBCMT:undname.obj
 0002:0000429c       ??_C@_04EENFHACM@?0?4?4?4?$AA@ 1004729c     LIBCMT:undname.obj
 0002:000042a4       ??_C@_0M@ELJOJFFH@?0?$DMellipsis?$DO?$AA@ 100472a4     LIBCMT:undname.obj
 0002:000042b0       ??_C@_07HDJPLPEK@?5throw?$CI?$AA@ 100472b0     LIBCMT:undname.obj
 0002:000042b8       ??_C@_03PBJBJNON@cpu?$AA@  100472b8     LIBCMT:undname.obj
 0002:000042bc       ??_C@_03DCBBJBAA@amp?$AA@  100472bc     LIBCMT:undname.obj
 0002:000042c0       ??_C@_02KEGNLNML@?0?5?$AA@ 100472c0     LIBCMT:undname.obj
 0002:000042c4       ??_C@_04ENMBGAPA@char?$AA@ 100472c4     LIBCMT:undname.obj
 0002:000042cc       ??_C@_05BFKKPKCG@short?$AA@ 100472cc     LIBCMT:undname.obj
 0002:000042d4       ??_C@_03JBIPMCLC@int?$AA@  100472d4     LIBCMT:undname.obj
 0002:000042d8       ??_C@_04GOKPGOLB@long?$AA@ 100472d8     LIBCMT:undname.obj
 0002:000042e0       ??_C@_05KNFBNCOH@float?$AA@ 100472e0     LIBCMT:undname.obj
 0002:000042e8       ??_C@_06BNJCAIGJ@double?$AA@ 100472e8     LIBCMT:undname.obj
 0002:000042f0       ??_C@_04DDKJGDCM@bool?$AA@ 100472f0     LIBCMT:undname.obj
 0002:000042f8       ??_C@_06EBGKOKIG@__int8?$AA@ 100472f8     LIBCMT:undname.obj
 0002:00004300       ??_C@_07ICFHOGAF@__int16?$AA@ 10047300     LIBCMT:undname.obj
 0002:00004308       ??_C@_07OFLPPHGP@__int32?$AA@ 10047308     LIBCMT:undname.obj
 0002:00004310       ??_C@_07LFCOJCAC@__int64?$AA@ 10047310     LIBCMT:undname.obj
 0002:00004318       ??_C@_08GAHOLHEO@__int128?$AA@ 10047318     LIBCMT:undname.obj
 0002:00004324       ??_C@_09EEKGDCPH@?$DMunknown?$DO?$AA@ 10047324     LIBCMT:undname.obj
 0002:00004330       ??_C@_07CLGGIAMF@wchar_t?$AA@ 10047330     LIBCMT:undname.obj
 0002:00004338       ??_C@_06GCICPBLB@__w64?5?$AA@ 10047338     LIBCMT:undname.obj
 0002:00004340       ??_C@_07NFANNNEC@UNKNOWN?$AA@ 10047340     LIBCMT:undname.obj
 0002:00004348       ??_C@_07EDHNAJHC@signed?5?$AA@ 10047348     LIBCMT:undname.obj
 0002:00004350       ??_C@_05BNCCCJPP@const?$AA@ 10047350     LIBCMT:undname.obj
 0002:00004358       ??_C@_09EFNPDFFP@?5volatile?$AA@ 10047358     LIBCMT:undname.obj
 0002:00004364       ??_C@_0P@GCIFDJCJ@?$GAunknown?5ecsu?8?$AA@ 10047364     LIBCMT:undname.obj
 0002:00004374       ??_C@_06MOJHIBMG@union?5?$AA@ 10047374     LIBCMT:undname.obj
 0002:0000437c       ??_C@_07DIBCDNGL@struct?5?$AA@ 1004737c     LIBCMT:undname.obj
 0002:00004384       ??_C@_06LJBABKPM@class?5?$AA@ 10047384     LIBCMT:undname.obj
 0002:0000438c       ??_C@_08KOFANOFK@coclass?5?$AA@ 1004738c     LIBCMT:undname.obj
 0002:00004398       ??_C@_0N@DLIEFKNA@cointerface?5?$AA@ 10047398     LIBCMT:undname.obj
 0002:000043a8       ??_C@_05LJGMCFOG@enum?5?$AA@ 100473a8     LIBCMT:undname.obj
 0002:000043b0       ??_C@_09GAIEOBLP@volatile?5?$AA@ 100473b0     LIBCMT:undname.obj
 0002:000043bc       ??_C@_06LIJLOJAG@const?5?$AA@ 100473bc     LIBCMT:undname.obj
 0002:000043c4       ??_C@_0M@EALIELKG@cli?3?3array?$DM?$AA@ 100473c4     LIBCMT:undname.obj
 0002:000043d0       ??_C@_0O@GKABPPIF@cli?3?3pin_ptr?$DM?$AA@ 100473d0     LIBCMT:undname.obj
 0002:000043e0       ??_C@_02GOGNNPBN@?$CJ?$FL?$AA@ 100473e0     LIBCMT:undname.obj
 0002:000043e4       ??_C@_06EEGAIFAK@?$HLflat?$HN?$AA@ 100473e4     LIBCMT:undname.obj
 0002:000043ec       ??_C@_05JIBOFOHK@?$HLfor?5?$AA@ 100473ec     LIBCMT:undname.obj
 0002:000043f4       ??_C@_02MDINNEEG@s?5?$AA@  100473f4     LIBCMT:undname.obj
 0002:000043fc       ??_7DNameNode@@6B@         100473fc     LIBCMT:undname.obj
 0002:0000440c       ??_7charNode@@6B@          1004740c     LIBCMT:undname.obj
 0002:0000441c       ??_7pcharNode@@6B@         1004741c     LIBCMT:undname.obj
 0002:0000442c       ??_7pDNameNode@@6B@        1004742c     LIBCMT:undname.obj
 0002:0000443c       ??_7DNameStatusNode@@6B@   1004743c     LIBCMT:undname.obj
 0002:0000444c       ??_7pairNode@@6B@          1004744c     LIBCMT:undname.obj
 0002:00004458       ??_C@_04OKOHEJBO@?5?$DP?$DP?5?$AA@ 10047458     LIBCMT:undname.obj
 0002:00004518       ??_C@_1FK@PGACCAFB@?$AAR?$AA6?$AA0?$AA0?$AA2?$AA?$AN?$AA?6?$AA?9?$AA?5?$AAf?$AAl?$AAo?$AAa?$AAt?$AAi?$AAn?$AAg?$AA?5?$AAp?$AAo?$AAi?$AAn?$AAt?$AA?5?$AAs?$AAu?$AAp?$AAp?$AAo?$AAr?$AAt?$AA?5@ 10047518     LIBCMT:crt0msg.obj
 0002:00004578       ??_C@_1FE@LLNEDJMD@?$AAR?$AA6?$AA0?$AA0?$AA8?$AA?$AN?$AA?6?$AA?9?$AA?5?$AAn?$AAo?$AAt?$AA?5?$AAe?$AAn?$AAo?$AAu?$AAg?$AAh?$AA?5?$AAs?$AAp?$AAa?$AAc?$AAe?$AA?5?$AAf?$AAo?$AAr?$AA?5?$AAa?$AAr@ 10047578     LIBCMT:crt0msg.obj
 0002:000045d0       ??_C@_1FI@HONFMGBI@?$AAR?$AA6?$AA0?$AA0?$AA9?$AA?$AN?$AA?6?$AA?9?$AA?5?$AAn?$AAo?$AAt?$AA?5?$AAe?$AAn?$AAo?$AAu?$AAg?$AAh?$AA?5?$AAs?$AAp?$AAa?$AAc?$AAe?$AA?5?$AAf?$AAo?$AAr?$AA?5?$AAe?$AAn@ 100475d0     LIBCMT:crt0msg.obj
 0002:00004628       ??_C@_1EG@BEHAGFJD@?$AAR?$AA6?$AA0?$AA1?$AA0?$AA?$AN?$AA?6?$AA?9?$AA?5?$AAa?$AAb?$AAo?$AAr?$AAt?$AA?$CI?$AA?$CJ?$AA?5?$AAh?$AAa?$AAs?$AA?5?$AAb?$AAe?$AAe?$AAn?$AA?5?$AAc?$AAa?$AAl?$AAl?$AAe?$AAd@ 10047628     LIBCMT:crt0msg.obj
 0002:00004670       ??_C@_1FI@LOGNIKDM@?$AAR?$AA6?$AA0?$AA1?$AA6?$AA?$AN?$AA?6?$AA?9?$AA?5?$AAn?$AAo?$AAt?$AA?5?$AAe?$AAn?$AAo?$AAu?$AAg?$AAh?$AA?5?$AAs?$AAp?$AAa?$AAc?$AAe?$AA?5?$AAf?$AAo?$AAr?$AA?5?$AAt?$AAh@ 10047670     LIBCMT:crt0msg.obj
 0002:000046c8       ??_C@_1FK@BEOGODMC@?$AAR?$AA6?$AA0?$AA1?$AA7?$AA?$AN?$AA?6?$AA?9?$AA?5?$AAu?$AAn?$AAe?$AAx?$AAp?$AAe?$AAc?$AAt?$AAe?$AAd?$AA?5?$AAm?$AAu?$AAl?$AAt?$AAi?$AAt?$AAh?$AAr?$AAe?$AAa?$AAd?$AA?5@ 100476c8     LIBCMT:crt0msg.obj
 0002:00004728       ??_C@_1EC@JIBHAOPH@?$AAR?$AA6?$AA0?$AA1?$AA8?$AA?$AN?$AA?6?$AA?9?$AA?5?$AAu?$AAn?$AAe?$AAx?$AAp?$AAe?$AAc?$AAt?$AAe?$AAd?$AA?5?$AAh?$AAe?$AAa?$AAp?$AA?5?$AAe?$AAr?$AAr?$AAo?$AAr?$AA?$AN?$AA?6@ 10047728     LIBCMT:crt0msg.obj
 0002:00004770       ??_C@_1FC@ECHBIFBC@?$AAR?$AA6?$AA0?$AA1?$AA9?$AA?$AN?$AA?6?$AA?9?$AA?5?$AAu?$AAn?$AAa?$AAb?$AAl?$AAe?$AA?5?$AAt?$AAo?$AA?5?$AAo?$AAp?$AAe?$AAn?$AA?5?$AAc?$AAo?$AAn?$AAs?$AAo?$AAl?$AAe?$AA?5@ 10047770     LIBCMT:crt0msg.obj
 0002:000047c8       ??_C@_1GK@FHCKBEFA@?$AAR?$AA6?$AA0?$AA2?$AA4?$AA?$AN?$AA?6?$AA?9?$AA?5?$AAn?$AAo?$AAt?$AA?5?$AAe?$AAn?$AAo?$AAu?$AAg?$AAh?$AA?5?$AAs?$AAp?$AAa?$AAc?$AAe?$AA?5?$AAf?$AAo?$AAr?$AA?5?$AA_?$AAo@ 100477c8     LIBCMT:crt0msg.obj
 0002:00004838       ??_C@_1EM@MAADIHMB@?$AAR?$AA6?$AA0?$AA2?$AA5?$AA?$AN?$AA?6?$AA?9?$AA?5?$AAp?$AAu?$AAr?$AAe?$AA?5?$AAv?$AAi?$AAr?$AAt?$AAu?$AAa?$AAl?$AA?5?$AAf?$AAu?$AAn?$AAc?$AAt?$AAi?$AAo?$AAn?$AA?5?$AAc@ 10047838     LIBCMT:crt0msg.obj
 0002:00004888       ??_C@_1GK@MCAAGJMO@?$AAR?$AA6?$AA0?$AA2?$AA6?$AA?$AN?$AA?6?$AA?9?$AA?5?$AAn?$AAo?$AAt?$AA?5?$AAe?$AAn?$AAo?$AAu?$AAg?$AAh?$AA?5?$AAs?$AAp?$AAa?$AAc?$AAe?$AA?5?$AAf?$AAo?$AAr?$AA?5?$AAs?$AAt@ 10047888     LIBCMT:crt0msg.obj
 0002:000048f8       ??_C@_1GK@MFGOKLAG@?$AAR?$AA6?$AA0?$AA2?$AA7?$AA?$AN?$AA?6?$AA?9?$AA?5?$AAn?$AAo?$AAt?$AA?5?$AAe?$AAn?$AAo?$AAu?$AAg?$AAh?$AA?5?$AAs?$AAp?$AAa?$AAc?$AAe?$AA?5?$AAf?$AAo?$AAr?$AA?5?$AAl?$AAo@ 100478f8     LIBCMT:crt0msg.obj
 0002:00004968       ??_C@_1EK@HHFLMAOL@?$AAR?$AA6?$AA0?$AA2?$AA8?$AA?$AN?$AA?6?$AA?9?$AA?5?$AAu?$AAn?$AAa?$AAb?$AAl?$AAe?$AA?5?$AAt?$AAo?$AA?5?$AAi?$AAn?$AAi?$AAt?$AAi?$AAa?$AAl?$AAi?$AAz?$AAe?$AA?5?$AAh?$AAe@ 10047968     LIBCMT:crt0msg.obj
 0002:000049b4       ??_C@_1DO@BMFCDCD@?$AAR?$AA6?$AA0?$AA3?$AA0?$AA?$AN?$AA?6?$AA?9?$AA?5?$AAC?$AAR?$AAT?$AA?5?$AAn?$AAo?$AAt?$AA?5?$AAi?$AAn?$AAi?$AAt?$AAi?$AAa?$AAl?$AAi?$AAz?$AAe?$AAd?$AA?$AN?$AA?6?$AA?$AA@ 100479b4     LIBCMT:crt0msg.obj
 0002:000049f8       ??_C@_1MG@ENCOOIDF@?$AAR?$AA6?$AA0?$AA3?$AA1?$AA?$AN?$AA?6?$AA?9?$AA?5?$AAA?$AAt?$AAt?$AAe?$AAm?$AAp?$AAt?$AA?5?$AAt?$AAo?$AA?5?$AAi?$AAn?$AAi?$AAt?$AAi?$AAa?$AAl?$AAi?$AAz?$AAe?$AA?5?$AAt@ 100479f8     LIBCMT:crt0msg.obj
 0002:00004ac0       ??_C@_1GG@GOPILAJP@?$AAR?$AA6?$AA0?$AA3?$AA2?$AA?$AN?$AA?6?$AA?9?$AA?5?$AAn?$AAo?$AAt?$AA?5?$AAe?$AAn?$AAo?$AAu?$AAg?$AAh?$AA?5?$AAs?$AAp?$AAa?$AAc?$AAe?$AA?5?$AAf?$AAo?$AAr?$AA?5?$AAl?$AAo@ 10047ac0     LIBCMT:crt0msg.obj
 0002:00004b28       ??_C@_1BOO@KGEDBGAJ@?$AAR?$AA6?$AA0?$AA3?$AA3?$AA?$AN?$AA?6?$AA?9?$AA?5?$AAA?$AAt?$AAt?$AAe?$AAm?$AAp?$AAt?$AA?5?$AAt?$AAo?$AA?5?$AAu?$AAs?$AAe?$AA?5?$AAM?$AAS?$AAI?$AAL?$AA?5?$AAc?$AAo?$AAd@ 10047b28     LIBCMT:crt0msg.obj
 0002:00004d18       ??_C@_1GG@MKFPEKFO@?$AAR?$AA6?$AA0?$AA3?$AA4?$AA?$AN?$AA?6?$AA?9?$AA?5?$AAi?$AAn?$AAc?$AAo?$AAn?$AAs?$AAi?$AAs?$AAt?$AAe?$AAn?$AAt?$AA?5?$AAo?$AAn?$AAe?$AAx?$AAi?$AAt?$AA?5?$AAb?$AAe?$AAg@ 10047d18     LIBCMT:crt0msg.obj
 0002:00004d80       ??_C@_1BO@BFCDCGC@?$AAD?$AAO?$AAM?$AAA?$AAI?$AAN?$AA?5?$AAe?$AAr?$AAr?$AAo?$AAr?$AA?$AN?$AA?6?$AA?$AA@ 10047d80     LIBCMT:crt0msg.obj
 0002:00004da0       ??_C@_1BK@KMOMNAAI@?$AAS?$AAI?$AAN?$AAG?$AA?5?$AAe?$AAr?$AAr?$AAo?$AAr?$AA?$AN?$AA?6?$AA?$AA@ 10047da0     LIBCMT:crt0msg.obj
 0002:00004dbc       ??_C@_1BM@JBBEPPHI@?$AAT?$AAL?$AAO?$AAS?$AAS?$AA?5?$AAe?$AAr?$AAr?$AAo?$AAr?$AA?$AN?$AA?6?$AA?$AA@ 10047dbc     LIBCMT:crt0msg.obj
 0002:00004dd8       ??_C@_15JNBOKNOG@?$AA?$AN?$AA?6?$AA?$AA@ 10047dd8     LIBCMT:crt0msg.obj
 0002:00004de0       ??_C@_1BO@BKOMIGKJ@?$AAr?$AAu?$AAn?$AAt?$AAi?$AAm?$AAe?$AA?5?$AAe?$AAr?$AAr?$AAo?$AAr?$AA?5?$AA?$AA@ 10047de0     LIBCMT:crt0msg.obj
 0002:00004e00       ??_C@_1DE@JNGNBFGO@?$AAR?$AAu?$AAn?$AAt?$AAi?$AAm?$AAe?$AA?5?$AAE?$AAr?$AAr?$AAo?$AAr?$AA?$CB?$AA?6?$AA?6?$AAP?$AAr?$AAo?$AAg?$AAr?$AAa?$AAm?$AA?3?$AA?5?$AA?$AA@ 10047e00     LIBCMT:crt0msg.obj
 0002:00004e34       ??_C@_1CO@EAEJAADC@?$AA?$DM?$AAp?$AAr?$AAo?$AAg?$AAr?$AAa?$AAm?$AA?5?$AAn?$AAa?$AAm?$AAe?$AA?5?$AAu?$AAn?$AAk?$AAn?$AAo?$AAw?$AAn?$AA?$DO?$AA?$AA@ 10047e34     LIBCMT:crt0msg.obj
 0002:00004e64       ??_C@_17LGKOMLJ@?$AA?4?$AA?4?$AA?4?$AA?$AA@ 10047e64     LIBCMT:crt0msg.obj
 0002:00004e6c       ??_C@_15IABLJNFO@?$AA?6?$AA?6?$AA?$AA@ 10047e6c     LIBCMT:crt0msg.obj
 0002:00004e78       ??_C@_1EK@MBDPDCGA@?$AAM?$AAi?$AAc?$AAr?$AAo?$AAs?$AAo?$AAf?$AAt?$AA?5?$AAV?$AAi?$AAs?$AAu?$AAa?$AAl?$AA?5?$AAC?$AA?$CL?$AA?$CL?$AA?5?$AAR?$AAu?$AAn?$AAt?$AAi?$AAm?$AAe?$AA?5?$AAL?$AAi?$AAb@ 10047e78     LIBCMT:crt0msg.obj
 0002:00004ec4       ??_C@_1BK@GAEMIDIL@?$AAA?$AAD?$AAV?$AAA?$AAP?$AAI?$AA3?$AA2?$AA?4?$AAD?$AAL?$AAL?$AA?$AA@ 10047ec4     LIBCMT:rand_s.obj
 0002:00004ee0       ??_C@_0BC@JEAENNKH@SystemFunction036?$AA@ 10047ee0     LIBCMT:rand_s.obj
 0002:00004f00       ___lc_category             10047f00     LIBCMT:wsetloca.obj
 0002:00004f48       ??_C@_1O@GIFLHMA@?$AAL?$AAC?$AA_?$AAA?$AAL?$AAL?$AA?$AA@ 10047f48     LIBCMT:wsetloca.obj
 0002:00004f58       ??_C@_1BG@PPOMIBNJ@?$AAL?$AAC?$AA_?$AAC?$AAO?$AAL?$AAL?$AAA?$AAT?$AAE?$AA?$AA@ 10047f58     LIBCMT:wsetloca.obj
 0002:00004f70       ??_C@_1BC@FFJGAPJM@?$AAL?$AAC?$AA_?$AAC?$AAT?$AAY?$AAP?$AAE?$AA?$AA@ 10047f70     LIBCMT:wsetloca.obj
 0002:00004f84       ??_C@_1BI@PCKFNJFB@?$AAL?$AAC?$AA_?$AAM?$AAO?$AAN?$AAE?$AAT?$AAA?$AAR?$AAY?$AA?$AA@ 10047f84     LIBCMT:wsetloca.obj
 0002:00004f9c       ??_C@_1BG@ENIEDKID@?$AAL?$AAC?$AA_?$AAN?$AAU?$AAM?$AAE?$AAR?$AAI?$AAC?$AA?$AA@ 10047f9c     LIBCMT:wsetloca.obj
 0002:00004fb4       ??_C@_1BA@HAAOMIIG@?$AAL?$AAC?$AA_?$AAT?$AAI?$AAM?$AAE?$AA?$AA@ 10047fb4     LIBCMT:wsetloca.obj
 0002:00005048       ??_C@_15NBPDDFIP@?$AA?$DN?$AA?$DL?$AA?$AA@ 10048048     LIBCMT:wsetloca.obj
 0002:00005050       ??_C@_13PJJBFPED@?$AA?$DL?$AA?$AA@ 10048050     LIBCMT:wsetloca.obj
 0002:00005054       ??_C@_13NMPKAAJP@?$AA?$DN?$AA?$AA@ 10048054     LIBCMT:wsetloca.obj
 0002:00005058       ??_C@_13FHBKNHDA@?$AAC?$AA?$AA@ 10048058     LIBCMT:wsetloca.obj
 0002:0000505c       ??_C@_17MBJJLFDM@?$AA_?$AA?4?$AA?0?$AA?$AA@ 1004805c     LIBCMT:wsetloca.obj
 0002:00005064       ??_C@_13ENNFDPBH@?$AA_?$AA?$AA@ 10048064     LIBCMT:wsetloca.obj
 0002:00005068       ??_C@_13JOFGPIOO@?$AA?4?$AA?$AA@ 10048068     LIBCMT:wsetloca.obj
 0002:0000506c       ??_C@_06PGGFOGJG@1?$CDSNAN?$AA@ 1004806c     LIBCMT:x10fout.obj
 0002:00005074       ??_C@_05PHHOCPM@1?$CDIND?$AA@ 10048074     LIBCMT:x10fout.obj
 0002:0000507c       ??_C@_05DNEBIAHO@1?$CDINF?$AA@ 1004807c     LIBCMT:x10fout.obj
 0002:00005084       ??_C@_06IMKFLFPG@1?$CDQNAN?$AA@ 10048084     LIBCMT:x10fout.obj
 0002:00005090       ___newctype                10048090     LIBCMT:ctype.obj
 0002:00005390       __wctype                   10048390     LIBCMT:ctype.obj
 0002:00005598       ___newclmap                10048598     LIBCMT:ctype.obj
 0002:00005718       ___newcumap                10048718     LIBCMT:ctype.obj
 0002:00005898       ??_C@_1BG@GOEBHBDC@?$AAU?$AAS?$AAE?$AAR?$AA3?$AA2?$AA?4?$AAD?$AAL?$AAL?$AA?$AA@ 10048898     LIBCMT:crtmboxw.obj
 0002:000058b0       ??_C@_0M@DLDCCGNP@MessageBoxW?$AA@ 100488b0     LIBCMT:crtmboxw.obj
 0002:000058bc       ??_C@_0BA@HNOPNCHB@GetActiveWindow?$AA@ 100488bc     LIBCMT:crtmboxw.obj
 0002:000058cc       ??_C@_0BD@HHGDFDBJ@GetLastActivePopup?$AA@ 100488cc     LIBCMT:crtmboxw.obj
 0002:000058e0       ??_C@_0BK@DEKFELLI@GetUserObjectInformationW?$AA@ 100488e0     LIBCMT:crtmboxw.obj
 0002:000058fc       ??_C@_0BI@DFKBFLJE@GetProcessWindowStation?$AA@ 100488fc     LIBCMT:crtmboxw.obj
 0002:00005918       ___rg_language             10048918     LIBCMT:getqloc.obj
 0002:00005c24       ??_C@_1BC@LLOKLNP@?$AAa?$AAm?$AAe?$AAr?$AAi?$AAc?$AAa?$AAn?$AA?$AA@ 10048c24     LIBCMT:getqloc.obj
 0002:00005c38       ??_C@_1CC@HEIGCDGG@?$AAa?$AAm?$AAe?$AAr?$AAi?$AAc?$AAa?$AAn?$AA?5?$AAe?$AAn?$AAg?$AAl?$AAi?$AAs?$AAh?$AA?$AA@ 10048c38     LIBCMT:getqloc.obj
 0002:00005c5c       ??_C@_1CC@IHCNOMIN@?$AAa?$AAm?$AAe?$AAr?$AAi?$AAc?$AAa?$AAn?$AA?9?$AAe?$AAn?$AAg?$AAl?$AAi?$AAs?$AAh?$AA?$AA@ 10048c5c     LIBCMT:getqloc.obj
 0002:00005c80       ??_C@_1BG@GKAGPCGG@?$AAa?$AAu?$AAs?$AAt?$AAr?$AAa?$AAl?$AAi?$AAa?$AAn?$AA?$AA@ 10048c80     LIBCMT:getqloc.obj
 0002:00005c98       ??_C@_1BA@GMENCENF@?$AAb?$AAe?$AAl?$AAg?$AAi?$AAa?$AAn?$AA?$AA@ 10048c98     LIBCMT:getqloc.obj
 0002:00005ca8       ??_C@_1BC@PJMIIAAN@?$AAc?$AAa?$AAn?$AAa?$AAd?$AAi?$AAa?$AAn?$AA?$AA@ 10048ca8     LIBCMT:getqloc.obj
 0002:00005cbc       ??_C@_17NOIMNFBF@?$AAc?$AAh?$AAh?$AA?$AA@ 10048cbc     LIBCMT:getqloc.obj
 0002:00005cc4       ??_C@_17GGDALCHA@?$AAc?$AAh?$AAi?$AA?$AA@ 10048cc4     LIBCMT:getqloc.obj
 0002:00005ccc       ??_C@_1BA@NPNJKIBL@?$AAc?$AAh?$AAi?$AAn?$AAe?$AAs?$AAe?$AA?$AA@ 10048ccc     LIBCMT:getqloc.obj
 0002:00005cdc       ??_C@_1CC@DINBAMMJ@?$AAc?$AAh?$AAi?$AAn?$AAe?$AAs?$AAe?$AA?9?$AAh?$AAo?$AAn?$AAg?$AAk?$AAo?$AAn?$AAg?$AA?$AA@ 10048cdc     LIBCMT:getqloc.obj
 0002:00005d00       ??_C@_1CG@IOBJPACO@?$AAc?$AAh?$AAi?$AAn?$AAe?$AAs?$AAe?$AA?9?$AAs?$AAi?$AAm?$AAp?$AAl?$AAi?$AAf?$AAi?$AAe?$AAd?$AA?$AA@ 10048d00     LIBCMT:getqloc.obj
 0002:00005d28       ??_C@_1CE@GAJNDCKG@?$AAc?$AAh?$AAi?$AAn?$AAe?$AAs?$AAe?$AA?9?$AAs?$AAi?$AAn?$AAg?$AAa?$AAp?$AAo?$AAr?$AAe?$AA?$AA@ 10048d28     LIBCMT:getqloc.obj
 0002:00005d4c       ??_C@_1CI@PAJPIOOD@?$AAc?$AAh?$AAi?$AAn?$AAe?$AAs?$AAe?$AA?9?$AAt?$AAr?$AAa?$AAd?$AAi?$AAt?$AAi?$AAo?$AAn?$AAa?$AAl?$AA?$AA@ 10048d4c     LIBCMT:getqloc.obj
 0002:00005d74       ??_C@_1BM@NILJBMMD@?$AAd?$AAu?$AAt?$AAc?$AAh?$AA?9?$AAb?$AAe?$AAl?$AAg?$AAi?$AAa?$AAn?$AA?$AA@ 10048d74     LIBCMT:getqloc.obj
 0002:00005d90       ??_C@_1CC@OOJPJNEJ@?$AAe?$AAn?$AAg?$AAl?$AAi?$AAs?$AAh?$AA?9?$AAa?$AAm?$AAe?$AAr?$AAi?$AAc?$AAa?$AAn?$AA?$AA@ 10048d90     LIBCMT:getqloc.obj
 0002:00005db4       ??_C@_1BI@IOLFEEM@?$AAe?$AAn?$AAg?$AAl?$AAi?$AAs?$AAh?$AA?9?$AAa?$AAu?$AAs?$AA?$AA@ 10048db4     LIBCMT:getqloc.obj
 0002:00005dcc       ??_C@_1BO@HFFNLENJ@?$AAe?$AAn?$AAg?$AAl?$AAi?$AAs?$AAh?$AA?9?$AAb?$AAe?$AAl?$AAi?$AAz?$AAe?$AA?$AA@ 10048dcc     LIBCMT:getqloc.obj
 0002:00005dec       ??_C@_1BI@HAPKJMPO@?$AAe?$AAn?$AAg?$AAl?$AAi?$AAs?$AAh?$AA?9?$AAc?$AAa?$AAn?$AA?$AA@ 10048dec     LIBCMT:getqloc.obj
 0002:00005e04       ??_C@_1CE@HLNDMIOJ@?$AAe?$AAn?$AAg?$AAl?$AAi?$AAs?$AAh?$AA?9?$AAc?$AAa?$AAr?$AAi?$AAb?$AAb?$AAe?$AAa?$AAn?$AA?$AA@ 10048e04     LIBCMT:getqloc.obj
 0002:00005e28       ??_C@_1BI@LDHJHHAC@?$AAe?$AAn?$AAg?$AAl?$AAi?$AAs?$AAh?$AA?9?$AAi?$AAr?$AAe?$AA?$AA@ 10048e28     LIBCMT:getqloc.obj
 0002:00005e40       ??_C@_1CA@NJMMCFOC@?$AAe?$AAn?$AAg?$AAl?$AAi?$AAs?$AAh?$AA?9?$AAj?$AAa?$AAm?$AAa?$AAi?$AAc?$AAa?$AA?$AA@ 10048e40     LIBCMT:getqloc.obj
 0002:00005e60       ??_C@_1BG@BHJEBBGG@?$AAe?$AAn?$AAg?$AAl?$AAi?$AAs?$AAh?$AA?9?$AAn?$AAz?$AA?$AA@ 10048e60     LIBCMT:getqloc.obj
 0002:00005e78       ??_C@_1CK@FGOEJJCO@?$AAe?$AAn?$AAg?$AAl?$AAi?$AAs?$AAh?$AA?9?$AAs?$AAo?$AAu?$AAt?$AAh?$AA?5?$AAa?$AAf?$AAr?$AAi?$AAc?$AAa?$AA?$AA@ 10048e78     LIBCMT:getqloc.obj
 0002:00005ea4       ??_C@_1DE@PDBJPCJ@?$AAe?$AAn?$AAg?$AAl?$AAi?$AAs?$AAh?$AA?9?$AAt?$AAr?$AAi?$AAn?$AAi?$AAd?$AAa?$AAd?$AA?5?$AAy?$AA?5?$AAt?$AAo?$AAb?$AAa?$AAg?$AAo?$AA?$AA@ 10048ea4     LIBCMT:getqloc.obj
 0002:00005ed8       ??_C@_1BG@JGCANDME@?$AAe?$AAn?$AAg?$AAl?$AAi?$AAs?$AAh?$AA?9?$AAu?$AAk?$AA?$AA@ 10048ed8     LIBCMT:getqloc.obj
 0002:00005ef0       ??_C@_1BG@DINKMLE@?$AAe?$AAn?$AAg?$AAl?$AAi?$AAs?$AAh?$AA?9?$AAu?$AAs?$AA?$AA@ 10048ef0     LIBCMT:getqloc.obj
 0002:00005f08       ??_C@_1BI@NMFDBHJE@?$AAe?$AAn?$AAg?$AAl?$AAi?$AAs?$AAh?$AA?9?$AAu?$AAs?$AAa?$AA?$AA@ 10048f08     LIBCMT:getqloc.obj
 0002:00005f20       ??_C@_1BO@OIHKJKII@?$AAf?$AAr?$AAe?$AAn?$AAc?$AAh?$AA?9?$AAb?$AAe?$AAl?$AAg?$AAi?$AAa?$AAn?$AA?$AA@ 10048f20     LIBCMT:getqloc.obj
 0002:00005f40       ??_C@_1CA@NKAELJKI@?$AAf?$AAr?$AAe?$AAn?$AAc?$AAh?$AA?9?$AAc?$AAa?$AAn?$AAa?$AAd?$AAi?$AAa?$AAn?$AA?$AA@ 10048f40     LIBCMT:getqloc.obj
 0002:00005f60       ??_C@_1CE@MGKCNLGN@?$AAf?$AAr?$AAe?$AAn?$AAc?$AAh?$AA?9?$AAl?$AAu?$AAx?$AAe?$AAm?$AAb?$AAo?$AAu?$AAr?$AAg?$AA?$AA@ 10048f60     LIBCMT:getqloc.obj
 0002:00005f84       ??_C@_1BK@CEGEAILM@?$AAf?$AAr?$AAe?$AAn?$AAc?$AAh?$AA?9?$AAs?$AAw?$AAi?$AAs?$AAs?$AA?$AA@ 10048f84     LIBCMT:getqloc.obj
 0002:00005fa0       ??_C@_1CA@PAFKEOCC@?$AAg?$AAe?$AAr?$AAm?$AAa?$AAn?$AA?9?$AAa?$AAu?$AAs?$AAt?$AAr?$AAi?$AAa?$AAn?$AA?$AA@ 10048fa0     LIBCMT:getqloc.obj
 0002:00005fc0       ??_C@_1CI@HCFHGOFD@?$AAg?$AAe?$AAr?$AAm?$AAa?$AAn?$AA?9?$AAl?$AAi?$AAc?$AAh?$AAt?$AAe?$AAn?$AAs?$AAt?$AAe?$AAi?$AAn?$AA?$AA@ 10048fc0     LIBCMT:getqloc.obj
 0002:00005fe8       ??_C@_1CE@FEDDNPDG@?$AAg?$AAe?$AAr?$AAm?$AAa?$AAn?$AA?9?$AAl?$AAu?$AAx?$AAe?$AAm?$AAb?$AAo?$AAu?$AAr?$AAg?$AA?$AA@ 10048fe8     LIBCMT:getqloc.obj
 0002:0000600c       ??_C@_1BK@LIMINNMN@?$AAg?$AAe?$AAr?$AAm?$AAa?$AAn?$AA?9?$AAs?$AAw?$AAi?$AAs?$AAs?$AA?$AA@ 1004900c     LIBCMT:getqloc.obj
 0002:00006028       ??_C@_1BM@LGMDBEPD@?$AAi?$AAr?$AAi?$AAs?$AAh?$AA?9?$AAe?$AAn?$AAg?$AAl?$AAi?$AAs?$AAh?$AA?$AA@ 10049028     LIBCMT:getqloc.obj
 0002:00006044       ??_C@_1BM@NNCFBAEE@?$AAi?$AAt?$AAa?$AAl?$AAi?$AAa?$AAn?$AA?9?$AAs?$AAw?$AAi?$AAs?$AAs?$AA?$AA@ 10049044     LIBCMT:getqloc.obj
 0002:00006060       ??_C@_1BE@FEDJNPIB@?$AAn?$AAo?$AAr?$AAw?$AAe?$AAg?$AAi?$AAa?$AAn?$AA?$AA@ 10049060     LIBCMT:getqloc.obj
 0002:00006074       ??_C@_1CC@CILKDEIE@?$AAn?$AAo?$AAr?$AAw?$AAe?$AAg?$AAi?$AAa?$AAn?$AA?9?$AAb?$AAo?$AAk?$AAm?$AAa?$AAl?$AA?$AA@ 10049074     LIBCMT:getqloc.obj
 0002:00006098       ??_C@_1CE@DHMMHEPL@?$AAn?$AAo?$AAr?$AAw?$AAe?$AAg?$AAi?$AAa?$AAn?$AA?9?$AAn?$AAy?$AAn?$AAo?$AAr?$AAs?$AAk?$AA?$AA@ 10049098     LIBCMT:getqloc.obj
 0002:000060bc       ??_C@_1CK@OPNMHECD@?$AAp?$AAo?$AAr?$AAt?$AAu?$AAg?$AAu?$AAe?$AAs?$AAe?$AA?9?$AAb?$AAr?$AAa?$AAz?$AAi?$AAl?$AAi?$AAa?$AAn?$AA?$AA@ 100490bc     LIBCMT:getqloc.obj
 0002:000060e8       ??_C@_1CE@KEEHCDB@?$AAs?$AAp?$AAa?$AAn?$AAi?$AAs?$AAh?$AA?9?$AAa?$AAr?$AAg?$AAe?$AAn?$AAt?$AAi?$AAn?$AAa?$AA?$AA@ 100490e8     LIBCMT:getqloc.obj
 0002:0000610c       ??_C@_1CA@GIAOLHJD@?$AAs?$AAp?$AAa?$AAn?$AAi?$AAs?$AAh?$AA?9?$AAb?$AAo?$AAl?$AAi?$AAv?$AAi?$AAa?$AA?$AA@ 1004910c     LIBCMT:getqloc.obj
 0002:0000612c       ??_C@_1BM@OJNDFNPD@?$AAs?$AAp?$AAa?$AAn?$AAi?$AAs?$AAh?$AA?9?$AAc?$AAh?$AAi?$AAl?$AAe?$AA?$AA@ 1004912c     LIBCMT:getqloc.obj
 0002:00006148       ??_C@_1CC@OCOLPALL@?$AAs?$AAp?$AAa?$AAn?$AAi?$AAs?$AAh?$AA?9?$AAc?$AAo?$AAl?$AAo?$AAm?$AAb?$AAi?$AAa?$AA?$AA@ 10049148     LIBCMT:getqloc.obj
 0002:0000616c       ??_C@_1CG@BPOFMKBB@?$AAs?$AAp?$AAa?$AAn?$AAi?$AAs?$AAh?$AA?9?$AAc?$AAo?$AAs?$AAt?$AAa?$AA?5?$AAr?$AAi?$AAc?$AAa?$AA?$AA@ 1004916c     LIBCMT:getqloc.obj
 0002:00006194       ??_C@_1DG@IGOBAPBB@?$AAs?$AAp?$AAa?$AAn?$AAi?$AAs?$AAh?$AA?9?$AAd?$AAo?$AAm?$AAi?$AAn?$AAi?$AAc?$AAa?$AAn?$AA?5?$AAr?$AAe?$AAp?$AAu?$AAb?$AAl?$AAi?$AAc?$AA?$AA@ 10049194     LIBCMT:getqloc.obj
 0002:000061cc       ??_C@_1CA@JHAPGEGI@?$AAs?$AAp?$AAa?$AAn?$AAi?$AAs?$AAh?$AA?9?$AAe?$AAc?$AAu?$AAa?$AAd?$AAo?$AAr?$AA?$AA@ 100491cc     LIBCMT:getqloc.obj
 0002:000061ec       ??_C@_1CI@LAPALJPP@?$AAs?$AAp?$AAa?$AAn?$AAi?$AAs?$AAh?$AA?9?$AAe?$AAl?$AA?5?$AAs?$AAa?$AAl?$AAv?$AAa?$AAd?$AAo?$AAr?$AA?$AA@ 100491ec     LIBCMT:getqloc.obj
 0002:00006214       ??_C@_1CE@PDGBOFOM@?$AAs?$AAp?$AAa?$AAn?$AAi?$AAs?$AAh?$AA?9?$AAg?$AAu?$AAa?$AAt?$AAe?$AAm?$AAa?$AAl?$AAa?$AA?$AA@ 10049214     LIBCMT:getqloc.obj
 0002:00006238       ??_C@_1CC@NBEBAODI@?$AAs?$AAp?$AAa?$AAn?$AAi?$AAs?$AAh?$AA?9?$AAh?$AAo?$AAn?$AAd?$AAu?$AAr?$AAa?$AAs?$AA?$AA@ 10049238     LIBCMT:getqloc.obj
 0002:0000625c       ??_C@_1CA@LLKGHBMF@?$AAs?$AAp?$AAa?$AAn?$AAi?$AAs?$AAh?$AA?9?$AAm?$AAe?$AAx?$AAi?$AAc?$AAa?$AAn?$AA?$AA@ 1004925c     LIBCMT:getqloc.obj
 0002:0000627c       ??_C@_1BO@LKNDOIGD@?$AAs?$AAp?$AAa?$AAn?$AAi?$AAs?$AAh?$AA?9?$AAm?$AAo?$AAd?$AAe?$AAr?$AAn?$AA?$AA@ 1004927c     LIBCMT:getqloc.obj
 0002:0000629c       ??_C@_1CE@NMDMOEEB@?$AAs?$AAp?$AAa?$AAn?$AAi?$AAs?$AAh?$AA?9?$AAn?$AAi?$AAc?$AAa?$AAr?$AAa?$AAg?$AAu?$AAa?$AA?$AA@ 1004929c     LIBCMT:getqloc.obj
 0002:000062c0       ??_C@_1BO@LLCBEJGB@?$AAs?$AAp?$AAa?$AAn?$AAi?$AAs?$AAh?$AA?9?$AAp?$AAa?$AAn?$AAa?$AAm?$AAa?$AA?$AA@ 100492c0     LIBCMT:getqloc.obj
 0002:000062e0       ??_C@_1CC@FKPGGIHO@?$AAs?$AAp?$AAa?$AAn?$AAi?$AAs?$AAh?$AA?9?$AAp?$AAa?$AAr?$AAa?$AAg?$AAu?$AAa?$AAy?$AA?$AA@ 100492e0     LIBCMT:getqloc.obj
 0002:00006304       ??_C@_1BK@CDEIHOOP@?$AAs?$AAp?$AAa?$AAn?$AAi?$AAs?$AAh?$AA?9?$AAp?$AAe?$AAr?$AAu?$AA?$AA@ 10049304     LIBCMT:getqloc.obj
 0002:00006320       ??_C@_1CI@GAHAKKGP@?$AAs?$AAp?$AAa?$AAn?$AAi?$AAs?$AAh?$AA?9?$AAp?$AAu?$AAe?$AAr?$AAt?$AAo?$AA?5?$AAr?$AAi?$AAc?$AAo?$AA?$AA@ 10049320     LIBCMT:getqloc.obj
 0002:00006348       ??_C@_1CA@NKJBCAGP@?$AAs?$AAp?$AAa?$AAn?$AAi?$AAs?$AAh?$AA?9?$AAu?$AAr?$AAu?$AAg?$AAu?$AAa?$AAy?$AA?$AA@ 10049348     LIBCMT:getqloc.obj
 0002:00006368       ??_C@_1CE@ODILCONM@?$AAs?$AAp?$AAa?$AAn?$AAi?$AAs?$AAh?$AA?9?$AAv?$AAe?$AAn?$AAe?$AAz?$AAu?$AAe?$AAl?$AAa?$AA?$AA@ 10049368     LIBCMT:getqloc.obj
 0002:0000638c       ??_C@_1CA@OBNMCGFO@?$AAs?$AAw?$AAe?$AAd?$AAi?$AAs?$AAh?$AA?9?$AAf?$AAi?$AAn?$AAl?$AAa?$AAn?$AAd?$AA?$AA@ 1004938c     LIBCMT:getqloc.obj
 0002:000063ac       ??_C@_1M@PIPDDPPI@?$AAs?$AAw?$AAi?$AAs?$AAs?$AA?$AA@ 100493ac     LIBCMT:getqloc.obj
 0002:000063b8       ??_C@_15GMFIMNFM@?$AAu?$AAs?$AA?$AA@ 100493b8     LIBCMT:getqloc.obj
 0002:000063c0       ??_C@_17HAEBFAGL@?$AAu?$AAs?$AAa?$AA?$AA@ 100493c0     LIBCMT:getqloc.obj
 0002:000063c8       ___rg_country              100493c8     LIBCMT:getqloc.obj
 0002:000064dc       ??_C@_1BA@DPFJEPHB@?$AAa?$AAm?$AAe?$AAr?$AAi?$AAc?$AAa?$AA?$AA@ 100494dc     LIBCMT:getqloc.obj
 0002:000064ec       ??_C@_1BA@ELOGGFK@?$AAb?$AAr?$AAi?$AAt?$AAa?$AAi?$AAn?$AA?$AA@ 100494ec     LIBCMT:getqloc.obj
 0002:000064fc       ??_C@_1M@GHBGIGDA@?$AAc?$AAh?$AAi?$AAn?$AAa?$AA?$AA@ 100494fc     LIBCMT:getqloc.obj
 0002:00006508       ??_C@_1M@NCHEJOPO@?$AAc?$AAz?$AAe?$AAc?$AAh?$AA?$AA@ 10049508     LIBCMT:getqloc.obj
 0002:00006514       ??_C@_1BA@BKPAPBLA@?$AAe?$AAn?$AAg?$AAl?$AAa?$AAn?$AAd?$AA?$AA@ 10049514     LIBCMT:getqloc.obj
 0002:00006524       ??_C@_1BM@HKBCKIPC@?$AAg?$AAr?$AAe?$AAa?$AAt?$AA?5?$AAb?$AAr?$AAi?$AAt?$AAa?$AAi?$AAn?$AA?$AA@ 10049524     LIBCMT:getqloc.obj
 0002:00006540       ??_C@_1BA@PPCHPGJB@?$AAh?$AAo?$AAl?$AAl?$AAa?$AAn?$AAd?$AA?$AA@ 10049540     LIBCMT:getqloc.obj
 0002:00006550       ??_C@_1BE@JBMPEGDG@?$AAh?$AAo?$AAn?$AAg?$AA?9?$AAk?$AAo?$AAn?$AAg?$AA?$AA@ 10049550     LIBCMT:getqloc.obj
 0002:00006564       ??_C@_1BI@KOELBBPJ@?$AAn?$AAe?$AAw?$AA?9?$AAz?$AAe?$AAa?$AAl?$AAa?$AAn?$AAd?$AA?$AA@ 10049564     LIBCMT:getqloc.obj
 0002:0000657c       ??_C@_15HIEBHAIO@?$AAn?$AAz?$AA?$AA@ 1004957c     LIBCMT:getqloc.obj
 0002:00006584       ??_C@_1BC@CHBCPFPI@?$AAp?$AAr?$AA?5?$AAc?$AAh?$AAi?$AAn?$AAa?$AA?$AA@ 10049584     LIBCMT:getqloc.obj
 0002:00006598       ??_C@_1BC@JAOIIFKD@?$AAp?$AAr?$AA?9?$AAc?$AAh?$AAi?$AAn?$AAa?$AA?$AA@ 10049598     LIBCMT:getqloc.obj
 0002:000065ac       ??_C@_1BI@BEHPPHKC@?$AAp?$AAu?$AAe?$AAr?$AAt?$AAo?$AA?9?$AAr?$AAi?$AAc?$AAo?$AA?$AA@ 100495ac     LIBCMT:getqloc.obj
 0002:000065c4       ??_C@_1O@PAEOFKDI@?$AAs?$AAl?$AAo?$AAv?$AAa?$AAk?$AA?$AA@ 100495c4     LIBCMT:getqloc.obj
 0002:000065d4       ??_C@_1BK@FIHMCKAM@?$AAs?$AAo?$AAu?$AAt?$AAh?$AA?5?$AAa?$AAf?$AAr?$AAi?$AAc?$AAa?$AA?$AA@ 100495d4     LIBCMT:getqloc.obj
 0002:000065f0       ??_C@_1BI@NAEOODKB@?$AAs?$AAo?$AAu?$AAt?$AAh?$AA?5?$AAk?$AAo?$AAr?$AAe?$AAa?$AA?$AA@ 100495f0     LIBCMT:getqloc.obj
 0002:00006608       ??_C@_1BK@FBDGGIFF@?$AAs?$AAo?$AAu?$AAt?$AAh?$AA?9?$AAa?$AAf?$AAr?$AAi?$AAc?$AAa?$AA?$AA@ 10049608     LIBCMT:getqloc.obj
 0002:00006624       ??_C@_1BI@GHLEJDPK@?$AAs?$AAo?$AAu?$AAt?$AAh?$AA?9?$AAk?$AAo?$AAr?$AAe?$AAa?$AA?$AA@ 10049624     LIBCMT:getqloc.obj
 0002:0000663c       ??_C@_1CE@PLHLOMJF@?$AAt?$AAr?$AAi?$AAn?$AAi?$AAd?$AAa?$AAd?$AA?5?$AA?$CG?$AA?5?$AAt?$AAo?$AAb?$AAa?$AAg?$AAo?$AA?$AA@ 1004963c     LIBCMT:getqloc.obj
 0002:00006660       ??_C@_1BO@MODIMHHI@?$AAu?$AAn?$AAi?$AAt?$AAe?$AAd?$AA?9?$AAk?$AAi?$AAn?$AAg?$AAd?$AAo?$AAm?$AA?$AA@ 10049660     LIBCMT:getqloc.obj
 0002:00006680       ??_C@_1BM@FFHJONBJ@?$AAu?$AAn?$AAi?$AAt?$AAe?$AAd?$AA?9?$AAs?$AAt?$AAa?$AAt?$AAe?$AAs?$AA?$AA@ 10049680     LIBCMT:getqloc.obj
 0002:0000669c       ___rg_language_count       1004969c     LIBCMT:getqloc.obj
 0002:000066a0       ___rg_country_count        100496a0     LIBCMT:getqloc.obj
 0002:000066a4       ??_C@_17DNCLJFIF@?$AAA?$AAC?$AAP?$AA?$AA@ 100496a4     LIBCMT:getqloc.obj
 0002:000066ac       ??_C@_17CIKBIHLH@?$AAO?$AAC?$AAP?$AA?$AA@ 100496ac     LIBCMT:getqloc.obj
 0002:000066b4       ___rglangidNotDefault      100496b4     LIBCMT:getqloc_downlevel.obj
 0002:000066c8       ??_C@_1BA@BALFACEM@?$AAC?$AAO?$AAN?$AAO?$AAU?$AAT?$AA$?$AA?$AA@ 100496c8     LIBCMT:initcon.obj
 0002:000066d8       __load_config_used         100496d8     LIBCMT:loadcfg.obj
 0002:000067a4       ??_R4type_info@@6B@        100497a4     LIBCMT:typinfo.obj
 0002:000067b8       ??_R3type_info@@8          100497b8     LIBCMT:typinfo.obj
 0002:000067c8       ??_R2type_info@@8          100497c8     LIBCMT:typinfo.obj
 0002:000067d0       ??_R1A@?0A@EA@type_info@@8 100497d0     LIBCMT:typinfo.obj
 0002:000067ec       ??_R4DNameNode@@6B@        100497ec     LIBCMT:undname.obj
 0002:00006800       ??_R3DNameNode@@8          10049800     LIBCMT:undname.obj
 0002:00006810       ??_R2DNameNode@@8          10049810     LIBCMT:undname.obj
 0002:00006818       ??_R1A@?0A@EA@DNameNode@@8 10049818     LIBCMT:undname.obj
 0002:00006834       ??_R4charNode@@6B@         10049834     LIBCMT:undname.obj
 0002:00006848       ??_R3charNode@@8           10049848     LIBCMT:undname.obj
 0002:00006858       ??_R2charNode@@8           10049858     LIBCMT:undname.obj
 0002:00006864       ??_R1A@?0A@EA@charNode@@8  10049864     LIBCMT:undname.obj
 0002:00006880       ??_R4pcharNode@@6B@        10049880     LIBCMT:undname.obj
 0002:00006894       ??_R3pcharNode@@8          10049894     LIBCMT:undname.obj
 0002:000068a4       ??_R2pcharNode@@8          100498a4     LIBCMT:undname.obj
 0002:000068b0       ??_R1A@?0A@EA@pcharNode@@8 100498b0     LIBCMT:undname.obj
 0002:000068cc       ??_R4pDNameNode@@6B@       100498cc     LIBCMT:undname.obj
 0002:000068e0       ??_R3pDNameNode@@8         100498e0     LIBCMT:undname.obj
 0002:000068f0       ??_R2pDNameNode@@8         100498f0     LIBCMT:undname.obj
 0002:000068fc       ??_R1A@?0A@EA@pDNameNode@@8 100498fc     LIBCMT:undname.obj
 0002:00006918       ??_R4DNameStatusNode@@6B@  10049918     LIBCMT:undname.obj
 0002:0000692c       ??_R3DNameStatusNode@@8    1004992c     LIBCMT:undname.obj
 0002:0000693c       ??_R2DNameStatusNode@@8    1004993c     LIBCMT:undname.obj
 0002:00006948       ??_R1A@?0A@EA@DNameStatusNode@@8 10049948     LIBCMT:undname.obj
 0002:00006964       ??_R4pairNode@@6B@         10049964     LIBCMT:undname.obj
 0002:00006978       ??_R3pairNode@@8           10049978     LIBCMT:undname.obj
 0002:00006988       ??_R2pairNode@@8           10049988     LIBCMT:undname.obj
 0002:00006994       ??_R1A@?0A@EA@pairNode@@8  10049994     LIBCMT:undname.obj
 0002:000069b0       ___safe_se_handler_table   100499b0     <linker-defined>
 0002:000069bc       ___rtc_iaa                 100499bc     LIBCMT:initsect.obj
 0002:000069c0       ___rtc_izz                 100499c0     LIBCMT:initsect.obj
 0002:000069c4       ___rtc_taa                 100499c4     LIBCMT:initsect.obj
 0002:000069c8       ___rtc_tzz                 100499c8     LIBCMT:initsect.obj
 0002:00007128       __IMPORT_DESCRIPTOR_PhysX3Common_x86 1004a128     PhysX3Common_x86:PhysX3Common_x86.dll
 0002:0000713c       __IMPORT_DESCRIPTOR_KERNEL32 1004a13c     kernel32:KERNEL32.dll
 0002:00007150       __NULL_IMPORT_DESCRIPTOR   1004a150     PhysX3Common_x86:PhysX3Common_x86.dll
 0003:00000030       ?g_PXTanEstCoefficients@aos@shdfnd@physx@@3UPX_VECTORF32@123@B 1004c030     CctCharacterController.obj
 0003:00000040       ?g_PXATanEstCoefficients@aos@shdfnd@physx@@3UPX_VECTORF32@123@B 1004c040     CctCharacterController.obj
 0003:00000050       ?g_PXASinEstConstants@aos@shdfnd@physx@@3UPX_VECTORF32@123@B 1004c050     CctCharacterController.obj
 0003:00000060       ?g_PXPiConstants0@aos@shdfnd@physx@@3UPX_VECTORF32@123@B 1004c060     CctCharacterController.obj
 0003:00000070       ?g_PXReciprocalTwoPi@aos@shdfnd@physx@@3UPX_VECTORF32@123@B 1004c070     CctCharacterController.obj
 0003:00000080       ?g_PXTwoPi@aos@shdfnd@physx@@3UPX_VECTORF32@123@B 1004c080     CctCharacterController.obj
 0003:00000090       __fltused                  1004c090     LIBCMT:fpinit.obj
 0003:00000094       __ldused                   1004c094     LIBCMT:fpinit.obj
 0003:000000a0       ___abort_behavior          1004c0a0     LIBCMT:abort.obj
 0003:000000a4       __cfltcvt_tab              1004c0a4     LIBCMT:cmiscdat.obj
 0003:000001b8       ___isa_enabled             1004c1b8     LIBCMT:cpu_disp.obj
 0003:000001bc       ___flsindex                1004c1bc     LIBCMT:tidtable.obj
 0003:000001c0       ___badioinfo               1004c1c0     LIBCMT:ioinit.obj
 0003:00000210       __d_inf                    1004c210     LIBCMT:util.obj
 0003:00000218       __d_ind                    1004c218     LIBCMT:util.obj
 0003:00000220       __d_max                    1004c220     LIBCMT:util.obj
 0003:00000228       __d_min                    1004c228     LIBCMT:util.obj
 0003:00000230       __d_mzero                  1004c230     LIBCMT:util.obj
 0003:00000254       ___security_cookie         1004c254     LIBCMT:gs_cookie.obj
 0003:00000258       ___security_cookie_complement 1004c258     LIBCMT:gs_cookie.obj
 0003:000003d0       __mbctype                  1004c3d0     LIBCMT:mbctype.obj
 0003:000004d8       __mbcasemap                1004c4d8     LIBCMT:mbctype.obj
 0003:000005d8       ___initialmbcinfo          1004c5d8     LIBCMT:mbctype.obj
 0003:000007fc       ___ptmbcinfo               1004c7fc     LIBCMT:mbctype.obj
 0003:000008f0       ___mb_cur_max              1004c8f0     LIBCMT:nlsdata.obj
 0003:000008f4       ___wclocalestr             1004c8f4     LIBCMT:nlsdata.obj
 0003:000008f8       ___lc_time_c               1004c8f8     LIBCMT:nlsdata.obj
 0003:00000a5c       ___ptlocinfo               1004ca5c     LIBCMT:nlsdata.obj
 0003:00000a60       ___initiallocinfo          1004ca60     LIBCMT:nlsdata.obj
 0003:00000b18       ___initiallocalestructinfo 1004cb18     LIBCMT:nlsdata.obj
 0003:00000b20       ___globallocalestatus      1004cb20     LIBCMT:glstatus.obj
 0003:00000c50       __matherr_flag             1004cc50     LIBCMT:matherr.obj
 0003:00000c58       __iob                      1004cc58     LIBCMT:_file.obj
 0003:00000ed8       ___lconv                   1004ced8     LIBCMT:lconv.obj
 0003:00000edc       ___lconv_static_decimal    1004cedc     LIBCMT:lconv.obj
 0003:00000ee0       ___lconv_c                 1004cee0     LIBCMT:lconv.obj
 0003:00000f30       ___lconv_static_W_decimal  1004cf30     LIBCMT:lconv.obj
 0003:00000f68       __pctype                   1004cf68     LIBCMT:ctype.obj
 0003:00000f6c       __pwctype                  1004cf6c     LIBCMT:ctype.obj
 0003:00000f70       __NLG_Destination          1004cf70     LIBCMT:exsup.obj
 0003:00000f80       __pow10pos                 1004cf80     LIBCMT:constpow.obj
 0003:000010e0       __pow10neg                 1004d0e0     LIBCMT:constpow.obj
 0003:00001240       __HUGE                     1004d240     LIBCMT:huge.obj
 0003:00001248       __confh                    1004d248     LIBCMT:initcon.obj
 0003:00001250       ??_R0PBX@8                 1004d250     CctCharacterController.obj
 0003:00001260       ??_R0?AVPxExtendedBox@physx@@@8 1004d260     CctCharacterController.obj
 0003:00001284       ??_R0?AUPxExtendedCapsule@physx@@@8 1004d284     CctCharacterController.obj
 0003:000012ac       ??_R0I@8                   1004d2ac     CctCharacterController.obj
 0003:000012b8       ??_R0?AVPxTriangle@physx@@@8 1004d2b8     CctCharacterControllerCallbacks.obj
 0003:000012d8       ??_R0?AVRenderBuffer@Cm@physx@@@8 1004d2d8     CctCharacterControllerManager.obj
 0003:000012fc       ??_R0?AVBoxController@Cct@physx@@@8 1004d2fc     CctCharacterControllerManager.obj
 0003:00001324       ??_R0?AVCapsuleController@Cct@physx@@@8 1004d324     CctCharacterControllerManager.obj
 0003:00001350       ??_R0?AVObstacleContext@Cct@physx@@@8 1004d350     CctCharacterControllerManager.obj
 0003:00001378       ??_R0?AVCharacterControllerManager@Cct@physx@@@8 1004d378     CctCharacterControllerManager.obj
 0003:000013ac       ??_R0?AUPxDebugLine@physx@@@8 1004d3ac     CctCharacterControllerManager.obj
 0003:000013cc       ??_R0PAVController@Cct@physx@@@8 1004d3cc     CctCharacterControllerManager.obj
 0003:000013f0       ??_R0PAVObstacleContext@Cct@physx@@@8 1004d3f0     CctCharacterControllerManager.obj
 0003:00001418       ??_R0?AUPxDebugPoint@physx@@@8 1004d418     CctCharacterControllerManager.obj
 0003:0000143c       ??_R0?AUPxDebugTriangle@physx@@@8 1004d43c     CctCharacterControllerManager.obj
 0003:00001460       ??_R0?AUPxDebugText@physx@@@8 1004d460     CctCharacterControllerManager.obj
 0003:00001480       ??_R0?AUInternalBoxObstacle@ObstacleContext@Cct@physx@@@8 1004d480     CctObstacleContext.obj
 0003:000014c0       ??_R0?AUInternalCapsuleObstacle@ObstacleContext@Cct@physx@@@8 1004d4c0     CctObstacleContext.obj
 0003:00001500       ??_R0PAVPxShape@physx@@@8  1004d500     PhysX3Extensions:ExtRigidBodyExt.obj
 0003:0000151c       ??_R0?AVtype_info@@@8      1004d51c     LIBCMT:typinfo.obj
 0003:00001534       ??_R0?AVDNameNode@@@8      1004d534     LIBCMT:undname.obj
 0003:0000154c       ??_R0?AVcharNode@@@8       1004d54c     LIBCMT:undname.obj
 0003:00001564       ??_R0?AVpcharNode@@@8      1004d564     LIBCMT:undname.obj
 0003:0000157c       ??_R0?AVpDNameNode@@@8     1004d57c     LIBCMT:undname.obj
 0003:00001598       ??_R0?AVDNameStatusNode@@@8 1004d598     LIBCMT:undname.obj
 0003:000015b8       ??_R0?AVpairNode@@@8       1004d5b8     LIBCMT:undname.obj
 0003:000016a0       ___fastflag                1004d6a0     LIBCMT:fpinit.obj
 0003:000016a4       ?__type_info_root_node@@3U__type_info_node@@A 1004d6a4     LIBCMT:tncleanup.obj
 0003:000016b0       __aenvptr                  1004d6b0     LIBCMT:dllcrt0.obj
 0003:000016b4       __wenvptr                  1004d6b4     LIBCMT:dllcrt0.obj
 0003:000016b8       ___pPurecall               1004d6b8     LIBCMT:inithelp.obj
 0003:000016c4       ___isa_available           1004d6c4     LIBCMT:cpu_disp.obj
 0003:000016c8       ___favor                   1004d6c8     LIBCMT:cpu_disp.obj
 0003:000016cc       __C_Exit_Done              1004d6cc     LIBCMT:crt0dat.obj
 0003:000016d0       ___argc                    1004d6d0     LIBCMT:crt0dat.obj
 0003:000016d4       ___argv                    1004d6d4     LIBCMT:crt0dat.obj
 0003:000016d8       ___wargv                   1004d6d8     LIBCMT:crt0dat.obj
 0003:000016dc       __environ                  1004d6dc     LIBCMT:crt0dat.obj
 0003:000016e0       __wenviron                 1004d6e0     LIBCMT:crt0dat.obj
 0003:000016e4       __pgmptr                   1004d6e4     LIBCMT:crt0dat.obj
 0003:000016e8       __wpgmptr                  1004d6e8     LIBCMT:crt0dat.obj
 0003:000016ec       __umaskval                 1004d6ec     LIBCMT:crt0dat.obj
 0003:000016f0       __exitflag                 1004d6f0     LIBCMT:crt0dat.obj
 0003:000016f4       __C_Termination_Done       1004d6f4     LIBCMT:crt0dat.obj
 0003:000016f8       ___winitenv                1004d6f8     LIBCMT:crt0dat.obj
 0003:000016fc       ___initenv                 1004d6fc     LIBCMT:crt0dat.obj
 0003:00001700       __crtheap                  1004d700     LIBCMT:heapinit.obj
 0003:00001708       ___pioinfo                 1004d708     LIBCMT:ioinit.obj
 0003:00001910       __maxwait                  1004d910     LIBCMT:crtheap.obj
 0003:00001928       ___pInvalidArgHandler      1004d928     LIBCMT:invarg.obj
 0003:00001930       ___mbcodepage              1004d930     LIBCMT:mbctype.obj
 0003:00001934       ___ismbcodepage            1004d934     LIBCMT:mbctype.obj
 0003:00001938       ___mbulinfo                1004d938     LIBCMT:mbctype.obj
 0003:00001944       ___mblocalename            1004d944     LIBCMT:mbctype.obj
 0003:0000194c       __outputformat             1004d94c     LIBCMT:outputformat.obj
 0003:00001aa0       ?pArgList@UnDecorator@@0PAVReplicator@@A 1004daa0     LIBCMT:undname.obj
 0003:00001aa4       ?pZNameList@UnDecorator@@0PAVReplicator@@A 1004daa4     LIBCMT:undname.obj
 0003:00001aa8       ?pTemplateArgList@UnDecorator@@0PAVReplicator@@A 1004daa8     LIBCMT:undname.obj
 0003:00001aac       ?gName@UnDecorator@@0PBDB  1004daac     LIBCMT:undname.obj
 0003:00001ab0       ?name@UnDecorator@@0PBDB   1004dab0     LIBCMT:undname.obj
 0003:00001ab4       ?outputString@UnDecorator@@0PADA 1004dab4     LIBCMT:undname.obj
 0003:00001ab8       ?maxStringLength@UnDecorator@@0HA 1004dab8     LIBCMT:undname.obj
 0003:00001abc       ?disableFlags@UnDecorator@@0KA 1004dabc     LIBCMT:undname.obj
 0003:00001ac0       ?fExplicitTemplateParams@UnDecorator@@0_NA 1004dac0     LIBCMT:undname.obj
 0003:00001ac1       ?fGetTemplateArgumentList@UnDecorator@@0_NA 1004dac1     LIBCMT:undname.obj
 0003:00001ac4       ?m_pGetParameter@UnDecorator@@0P6APADJ@ZA 1004dac4     LIBCMT:undname.obj
 0003:00001adc       ?nodes@?1??make@DNameStatusNode@@SAPAV2@W4DNameStatus@@@Z@4PAV2@A 1004dadc     LIBCMT:undname.obj
 0003:00001b0c       ??_B?1??make@DNameStatusNode@@SAPAV1@W4DNameStatus@@@Z@51 1004db0c     LIBCMT:undname.obj
 0003:00001b10       ___app_type                1004db10     LIBCMT:crt0msg.obj
 0003:00002140       ?__pInconsistency@@3P6AXXZA 1004e140     LIBCMT:hooks.obj
 0003:00002144       ?_pnhHeap@@3P6AHI@ZA       1004e144     LIBCMT:handler.obj
 0003:0000214c       __stdbuf                   1004e14c     LIBCMT:_sftbuf.obj
 0003:00002154       __cflush                   1004e154     LIBCMT:_file.obj
 0003:00002478       ___lconv_static_null       1004e478     LIBCMT:lconv.obj
 0003:0000247c       ___lconv_static_W_null     1004e47c     LIBCMT:lconv.obj
 0003:00002480       ___locale_changed          1004e480     LIBCMT:wsetloca.obj
 0003:00002484       __newmode                  1004e484     LIBCMT:_newmode.obj
 0003:00002488       ___error_mode              1004e488     LIBCMT:errmode.obj
 0003:000024a0       ___unguarded_readlc_active 1004e4a0     <common>
 0003:000024a4       ___setlc_active            1004e4a4     <common>
 0003:000024a8       __debugger_hook_dummy      1004e4a8     <common>
 0003:000024c0       __bufin                    1004e4c0     <common>
 0003:000034c0       ___piob                    1004f4c0     <common>
 0003:000034c4       __nstream                  1004f4c4     <common>
 0003:000034c8       __pDestructExceptionObject 1004f4c8     <common>
 0003:000034e0       _encodedKERNEL32Functions  1004f4e0     <common>
 0003:00003564       __nhandle                  1004f564     <common>
 0003:00003568       ___dyn_tls_init_callback   1004f568     <common>
 0003:0000356c       ___onexitend               1004f56c     <common>
 0003:00003570       ___onexitbegin             1004f570     <common>
 0003:00003574       ___mbctype_initialized     1004f574     <common>
 0003:00003578       ___env_initialized         1004f578     <common>
 0003:0000357c       __acmdln                   1004f57c     <common>

 entry point at        0001:00023c22

 Static symbols

 0000:fffac000       .debug$S                   10000000     PhysX3Common_x86:PhysX3Common_x86.dll
 0000:fffac000       .debug$S                   10000000     PhysX3Common_x86:PhysX3Common_x86.dll
 0000:fffac000       .debug$S                   10000000     PhysX3Common_x86:PhysX3Common_x86.dll
 0000:fffac000       .debug$S                   10000000     PhysX3Common_x86:PhysX3Common_x86.dll
 0000:fffac000       .debug$S                   10000000     PhysX3Common_x86:PhysX3Common_x86.dll
 0000:fffac000       .debug$S                   10000000     PhysX3Common_x86:PhysX3Common_x86.dll
 0000:fffac000       .debug$S                   10000000     PhysX3Common_x86:PhysX3Common_x86.dll
 0000:fffac000       .debug$S                   10000000     PhysX3Common_x86:PhysX3Common_x86.dll
 0000:fffac000       .debug$S                   10000000     PhysX3Common_x86:PhysX3Common_x86.dll
 0000:fffac000       .debug$S                   10000000     PhysX3Common_x86:PhysX3Common_x86.dll
 0000:fffac000       .debug$S                   10000000     PhysX3Common_x86:PhysX3Common_x86.dll
 0000:fffac000       .debug$S                   10000000     PhysX3Common_x86:PhysX3Common_x86.dll
 0000:fffac000       .debug$S                   10000000     PhysX3Common_x86:PhysX3Common_x86.dll
 0000:fffac000       .debug$S                   10000000     PhysX3Common_x86:PhysX3Common_x86.dll
 0000:fffac000       .debug$S                   10000000     PhysX3Common_x86:PhysX3Common_x86.dll
 0000:fffac000       .debug$S                   10000000     PhysX3Common_x86:PhysX3Common_x86.dll
 0000:fffac000       .debug$S                   10000000     PhysX3Common_x86:PhysX3Common_x86.dll
 0000:fffac000       .debug$S                   10000000     PhysX3Common_x86:PhysX3Common_x86.dll
 0000:fffac000       .debug$S                   10000000     PhysX3Common_x86:PhysX3Common_x86.dll
 0000:fffac000       .debug$S                   10000000     PhysX3Common_x86:PhysX3Common_x86.dll
 0000:fffac000       .debug$S                   10000000     PhysX3Common_x86:PhysX3Common_x86.dll
 0000:fffac000       .debug$S                   10000000     PhysX3Common_x86:PhysX3Common_x86.dll
 0000:fffac000       .debug$S                   10000000     PhysX3Common_x86:PhysX3Common_x86.dll
 0000:fffac000       .debug$S                   10000000     PhysX3Common_x86:PhysX3Common_x86.dll
 0000:fffac000       .debug$S                   10000000     PhysX3Common_x86:PhysX3Common_x86.dll
 0000:fffac000       .debug$S                   10000000     PhysX3Common_x86:PhysX3Common_x86.dll
 0000:fffac000       .debug$S                   10000000     PhysX3Common_x86:PhysX3Common_x86.dll
 0000:fffac000       .debug$S                   10000000     PhysX3Common_x86:PhysX3Common_x86.dll
 0000:fffac000       .debug$S                   10000000     PhysX3Common_x86:PhysX3Common_x86.dll
 0000:fffac000       .debug$S                   10000000     PhysX3Common_x86:PhysX3Common_x86.dll
 0000:fffac000       .debug$S                   10000000     kernel32:KERNEL32.dll
 0000:fffac000       .debug$S                   10000000     kernel32:KERNEL32.dll
 0000:fffac000       .debug$S                   10000000     kernel32:KERNEL32.dll
 0000:fffac000       .debug$S                   10000000     kernel32:KERNEL32.dll
 0000:fffac000       .debug$S                   10000000     kernel32:KERNEL32.dll
 0000:fffac000       .debug$S                   10000000     kernel32:KERNEL32.dll
 0000:fffac000       .debug$S                   10000000     kernel32:KERNEL32.dll
 0000:fffac000       .debug$S                   10000000     kernel32:KERNEL32.dll
 0000:fffac000       .debug$S                   10000000     kernel32:KERNEL32.dll
 0000:fffac000       .debug$S                   10000000     kernel32:KERNEL32.dll
 0000:fffac000       .debug$S                   10000000     kernel32:KERNEL32.dll
 0000:fffac000       .debug$S                   10000000     kernel32:KERNEL32.dll
 0000:fffac000       .debug$S                   10000000     kernel32:KERNEL32.dll
 0000:fffac000       .debug$S                   10000000     kernel32:KERNEL32.dll
 0000:fffac000       .debug$S                   10000000     kernel32:KERNEL32.dll
 0000:fffac000       .debug$S                   10000000     kernel32:KERNEL32.dll
 0000:fffac000       .debug$S                   10000000     kernel32:KERNEL32.dll
 0000:fffac000       .debug$S                   10000000     kernel32:KERNEL32.dll
 0000:fffac000       .debug$S                   10000000     kernel32:KERNEL32.dll
 0000:fffac000       .debug$S                   10000000     kernel32:KERNEL32.dll
 0000:fffac000       .debug$S                   10000000     kernel32:KERNEL32.dll
 0000:fffac000       .debug$S                   10000000     kernel32:KERNEL32.dll
 0000:fffac000       .debug$S                   10000000     kernel32:KERNEL32.dll
 0000:fffac000       .debug$S                   10000000     kernel32:KERNEL32.dll
 0000:fffac000       .debug$S                   10000000     kernel32:KERNEL32.dll
 0000:fffac000       .debug$S                   10000000     kernel32:KERNEL32.dll
 0000:fffac000       .debug$S                   10000000     kernel32:KERNEL32.dll
 0000:fffac000       .debug$S                   10000000     kernel32:KERNEL32.dll
 0000:fffac000       .debug$S                   10000000     kernel32:KERNEL32.dll
 0000:fffac000       .debug$S                   10000000     kernel32:KERNEL32.dll
 0000:fffac000       .debug$S                   10000000     kernel32:KERNEL32.dll
 0000:fffac000       .debug$S                   10000000     kernel32:KERNEL32.dll
 0000:fffac000       .debug$S                   10000000     kernel32:KERNEL32.dll
 0000:fffac000       .debug$S                   10000000     kernel32:KERNEL32.dll
 0000:fffac000       .debug$S                   10000000     kernel32:KERNEL32.dll
 0000:fffac000       .debug$S                   10000000     kernel32:KERNEL32.dll
 0000:fffac000       .debug$S                   10000000     kernel32:KERNEL32.dll
 0000:fffac000       .debug$S                   10000000     kernel32:KERNEL32.dll
 0000:fffac000       .debug$S                   10000000     kernel32:KERNEL32.dll
 0000:fffac000       .debug$S                   10000000     kernel32:KERNEL32.dll
 0000:fffac000       .debug$S                   10000000     kernel32:KERNEL32.dll
 0000:fffac000       .debug$S                   10000000     kernel32:KERNEL32.dll
 0000:fffac000       .debug$S                   10000000     kernel32:KERNEL32.dll
 0000:fffac000       .debug$S                   10000000     kernel32:KERNEL32.dll
 0000:fffac000       .debug$S                   10000000     kernel32:KERNEL32.dll
 0000:fffac000       .debug$S                   10000000     kernel32:KERNEL32.dll
 0000:fffac000       .debug$S                   10000000     kernel32:KERNEL32.dll
 0000:fffac000       .debug$S                   10000000     kernel32:KERNEL32.dll
 0000:fffac000       .debug$S                   10000000     kernel32:KERNEL32.dll
 0000:fffac000       .debug$S                   10000000     kernel32:KERNEL32.dll
 0000:fffac000       .debug$S                   10000000     kernel32:KERNEL32.dll
 0000:fffac000       .debug$S                   10000000     kernel32:KERNEL32.dll
 0000:fffac000       .debug$S                   10000000     kernel32:KERNEL32.dll
 0000:fffac000       .debug$S                   10000000     kernel32:KERNEL32.dll
 0000:fffac000       .debug$S                   10000000     kernel32:KERNEL32.dll
 0000:fffac000       .debug$S                   10000000     kernel32:KERNEL32.dll
 0000:fffac000       .debug$S                   10000000     kernel32:KERNEL32.dll
 0000:fffac000       .debug$S                   10000000     kernel32:KERNEL32.dll
 0000:fffac000       .debug$S                   10000000     kernel32:KERNEL32.dll
 0000:fffac000       .debug$S                   10000000     kernel32:KERNEL32.dll
 0000:fffac000       .debug$S                   10000000     kernel32:KERNEL32.dll
 0000:fffac000       .debug$S                   10000000     kernel32:KERNEL32.dll
 0000:fffac000       .debug$S                   10000000     kernel32:KERNEL32.dll
 0000:fffac000       .debug$S                   10000000     kernel32:KERNEL32.dll
 0000:fffac000       .debug$S                   10000000     kernel32:KERNEL32.dll
 0000:fffac000       .debug$S                   10000000     kernel32:KERNEL32.dll
 0000:fffac000       .debug$S                   10000000     kernel32:KERNEL32.dll
 0000:fffac000       .debug$S                   10000000     kernel32:KERNEL32.dll
 0000:fffac000       .debug$S                   10000000     kernel32:KERNEL32.dll
 0000:fffac000       .debug$S                   10000000     kernel32:KERNEL32.dll
 0000:fffac000       .debug$S                   10000000     kernel32:KERNEL32.dll
 0000:fffac000       .debug$S                   10000000     kernel32:KERNEL32.dll
 0000:fffac000       .debug$S                   10000000     kernel32:KERNEL32.dll
 0000:fffac000       .debug$S                   10000000     kernel32:KERNEL32.dll
 0000:fffac000       .debug$S                   10000000     kernel32:KERNEL32.dll
 0000:fffac000       .debug$S                   10000000     kernel32:KERNEL32.dll
 0001:00000000       ??__EmaxFError@_VecMathTests@aos@shdfnd@physx@@YAXXZ 10001000 f   CctCharacterController.obj
 0001:00000020       ??__EmaxV3Error@_VecMathTests@aos@shdfnd@physx@@YAXXZ 10001020 f   CctCharacterController.obj
 0001:00000030       ??__EmaxV4Error@_VecMathTests@aos@shdfnd@physx@@YAXXZ 10001030 f   CctCharacterController.obj
 0001:00000050       ??__EminFError@_VecMathTests@aos@shdfnd@physx@@YAXXZ 10001050 f   CctCharacterController.obj
 0001:00000070       ??__EminV3Error@_VecMathTests@aos@shdfnd@physx@@YAXXZ 10001070 f   CctCharacterController.obj
 0001:00000080       ??__EminV4Error@_VecMathTests@aos@shdfnd@physx@@YAXXZ 10001080 f   CctCharacterController.obj
 0001:000000a0       ??__EmaxFError@_VecMathTests@aos@shdfnd@physx@@YAXXZ 100010a0 f   CctCharacterControllerManager.obj
 0001:000000c0       ??__EmaxV3Error@_VecMathTests@aos@shdfnd@physx@@YAXXZ 100010c0 f   CctCharacterControllerManager.obj
 0001:000000d0       ??__EmaxV4Error@_VecMathTests@aos@shdfnd@physx@@YAXXZ 100010d0 f   CctCharacterControllerManager.obj
 0001:000000f0       ??__EminFError@_VecMathTests@aos@shdfnd@physx@@YAXXZ 100010f0 f   CctCharacterControllerManager.obj
 0001:00000110       ??__EminV3Error@_VecMathTests@aos@shdfnd@physx@@YAXXZ 10001110 f   CctCharacterControllerManager.obj
 0001:00000120       ??__EminV4Error@_VecMathTests@aos@shdfnd@physx@@YAXXZ 10001120 f   CctCharacterControllerManager.obj
 0001:000006a0       ?CCTtoProxyExtents@@YA?AVPxVec3@physx@@MMMM@Z 100016a0 f   CctBoxController.obj
 0001:000013a0       ?CCTtoProxyRadius@@YAMMM@Z 100023a0 f   CctCapsuleController.obj
 0001:000013b0       ?CCTtoProxyHeight@@YAMMM@Z 100023b0 f   CctCapsuleController.obj
 0001:000061d0       ?getSweepHintFlags@@YA?AV?$PxFlags@W4Enum@PxHitFlag@physx@@G@physx@@ABUCCTParams@Cct@2@@Z 100071d0 f   CctCharacterController.obj
 0001:00006200       ?worldToLocal@@YA?AVPxVec3@physx@@ABVPxObstacle@2@ABUPxExtendedVec3@2@@Z 10007200 f   CctCharacterController.obj
 0001:00006340       ?localToWorld@@YA?AVPxVec3@physx@@ABVPxObstacle@2@ABV12@@Z 10007340 f   CctCharacterController.obj
 0001:00006490       ?scale@@YAXAAUPxExtendedBounds3@physx@@ABVPxVec3@2@@Z 10007490 f   CctCharacterController.obj
 0001:000065b0       ?computeReflexionVector@@YAXAAVPxVec3@physx@@ABV12@1@Z 100075b0 f   CctCharacterController.obj
 0001:00006660       ?collisionResponse@@YAXAAUPxExtendedVec3@physx@@ABU12@ABVPxVec3@2@2MM_N@Z 10007660 f   CctCharacterController.obj
 0001:00006920       ?relocateBox@@YAXAAVPxBoxGeometry@physx@@AAVPxTransform@2@ABUPxExtendedVec3@2@ABVPxVec3@2@2ABVPxQuat@2@@Z 10007920 f   CctCharacterController.obj
 0001:000069a0       ?relocateBox@@YAXAAVPxBoxGeometry@physx@@AAVPxTransform@2@ABUTouchedUserBox@Cct@2@@Z 100079a0 f   CctCharacterController.obj
 0001:00006a10       ?relocateBox@@YAXAAVPxBoxGeometry@physx@@AAVPxTransform@2@ABUTouchedBox@Cct@2@@Z 10007a10 f   CctCharacterController.obj
 0001:00006a60       ?relocateCapsule@@YAXAAVPxCapsuleGeometry@physx@@AAVPxTransform@2@PBVSweptCapsule@Cct@2@ABVPxQuat@2@ABUPxExtendedVec3@2@4@Z 10007a60 f   CctCharacterController.obj
 0001:00006ae0       ?relocateCapsule@@YAXAAVPxCapsuleGeometry@physx@@AAVPxTransform@2@ABVPxVec3@2@2M@Z 10007ae0 f   CctCharacterController.obj
 0001:00006b40       ?relocateCapsule@@YAXAAVPxCapsuleGeometry@physx@@AAVPxTransform@2@ABUTouchedUserCapsule@Cct@2@@Z 10007b40 f   CctCharacterController.obj
 0001:00006c10       ?SweepBoxUserBox@@YA_NPBVSweepTest@Cct@physx@@PBVSweptVolume@23@PBUTouchedGeom@23@ABUPxExtendedVec3@3@ABVPxVec3@3@AAUSweptContact@23@@Z 10007c10 f   CctCharacterController.obj
 0001:00006e00       ?SweepBoxUserCapsule@@YA_NPBVSweepTest@Cct@physx@@PBVSweptVolume@23@PBUTouchedGeom@23@ABUPxExtendedVec3@3@ABVPxVec3@3@AAUSweptContact@23@@Z 10007e00 f   CctCharacterController.obj
 0001:00006fb0       ?sweepVolumeVsMesh@@YA_NPBVSweepTest@Cct@physx@@PBUTouchedMesh@23@AAUSweptContact@23@ABVPxVec3@3@ABVPxGeometry@3@ABVPxTransform@3@IPBVPxTriangle@3@I@Z 10007fb0 f   CctCharacterController.obj
 0001:000070e0       ?SweepBoxMesh@@YA_NPBVSweepTest@Cct@physx@@PBVSweptVolume@23@PBUTouchedGeom@23@ABUPxExtendedVec3@3@ABVPxVec3@3@AAUSweptContact@23@@Z 100080e0 f   CctCharacterController.obj
 0001:000071b0       ?SweepCapsuleMesh@@YA_NPBVSweepTest@Cct@physx@@PBVSweptVolume@23@PBUTouchedGeom@23@ABUPxExtendedVec3@3@ABVPxVec3@3@AAUSweptContact@23@@Z 100081b0 f   CctCharacterController.obj
 0001:00007280       ?SweepBoxBox@@YA_NPBVSweepTest@Cct@physx@@PBVSweptVolume@23@PBUTouchedGeom@23@ABUPxExtendedVec3@3@ABVPxVec3@3@AAUSweptContact@23@@Z 10008280 f   CctCharacterController.obj
 0001:00007460       ?SweepBoxSphere@@YA_NPBVSweepTest@Cct@physx@@PBVSweptVolume@23@PBUTouchedGeom@23@ABUPxExtendedVec3@3@ABVPxVec3@3@AAUSweptContact@23@@Z 10008460 f   CctCharacterController.obj
 0001:00007600       ?SweepBoxCapsule@@YA_NPBVSweepTest@Cct@physx@@PBVSweptVolume@23@PBUTouchedGeom@23@ABUPxExtendedVec3@3@ABVPxVec3@3@AAUSweptContact@23@@Z 10008600 f   CctCharacterController.obj
 0001:00007800       ?SweepCapsuleBox@@YA_NPBVSweepTest@Cct@physx@@PBVSweptVolume@23@PBUTouchedGeom@23@ABUPxExtendedVec3@3@ABVPxVec3@3@AAUSweptContact@23@@Z 10008800 f   CctCharacterController.obj
 0001:000079e0       ?SweepCapsuleSphere@@YA_NPBVSweepTest@Cct@physx@@PBVSweptVolume@23@PBUTouchedGeom@23@ABUPxExtendedVec3@3@ABVPxVec3@3@AAUSweptContact@23@@Z 100089e0 f   CctCharacterController.obj
 0001:00007be0       ?SweepCapsuleCapsule@@YA_NPBVSweepTest@Cct@physx@@PBVSweptVolume@23@PBUTouchedGeom@23@ABUPxExtendedVec3@3@ABVPxVec3@3@AAUSweptContact@23@@Z 10008be0 f   CctCharacterController.obj
 0001:00007de0       ?SweepCapsuleUserCapsule@@YA_NPBVSweepTest@Cct@physx@@PBVSweptVolume@23@PBUTouchedGeom@23@ABUPxExtendedVec3@3@ABVPxVec3@3@AAUSweptContact@23@@Z 10008de0 f   CctCharacterController.obj
 0001:00007f90       ?SweepCapsuleUserBox@@YA_NPBVSweepTest@Cct@physx@@PBVSweptVolume@23@PBUTouchedGeom@23@ABUPxExtendedVec3@3@ABVPxVec3@3@AAUSweptContact@23@@Z 10008f90 f   CctCharacterController.obj
 0001:00008180       ?CollideGeoms@@YAPAUTouchedGeom@Cct@physx@@PBVSweepTest@23@ABVSweptVolume@23@ABV?$Array@IV?$ReflectionAllocator@I@shdfnd@physx@@@shdfnd@3@ABUPxExtendedVec3@3@ABVPxVec3@3@AAUSweptContact@23@_N@Z 10009180 f   CctCharacterController.obj
 0001:00008310       ?computeMTD@@YA?AVPxVec3@physx@@PBVSweepTest@Cct@2@ABVSweptVolume@42@ABV?$Array@IV?$ReflectionAllocator@I@shdfnd@physx@@@shdfnd@2@ABUPxExtendedVec3@2@M@Z 10009310 f   CctCharacterController.obj
 0001:00008720       ?ParseGeomStream@@YA_NPBXABV?$Array@IV?$ReflectionAllocator@I@shdfnd@physx@@@shdfnd@physx@@@Z 10009720 f   CctCharacterController.obj
 0001:00008760       ?getBounds3@@YA?AVPxBounds3@physx@@ABUPxExtendedBounds3@2@@Z 10009760 f   CctCharacterController.obj
 0001:00008960       ??0AB@?1???$PxUnionCast@PBVPxGeometry@physx@@PAY03$$CBE@physx@@YAPBVPxGeometry@1@PAY03$$CBE@Z@QAE@0@Z 10009960 f   CctCharacterController.obj
 0001:0000c5e0       ??Dphysx@@YA?AVPxVec3@0@MABV10@@Z 1000d5e0 f   CctCharacterControllerCallbacks.obj
 0001:0000cf50       ?visualizeTouchedTriangles@@YAXIIPBVPxTriangle@physx@@PAVRenderBuffer@Cm@2@ABVPxVec3@2@2@Z 1000df50 f   CctCharacterControllerCallbacks.obj
 0001:0000d170       ?tessellateTriangle@@YAXPAUTessParams@@ABVPxVec3@physx@@11@Z 1000e170 f   CctCharacterControllerCallbacks.obj
 0001:0000d5e8       $LN113                     1000e5e8     CctCharacterControllerCallbacks.obj
 0001:0000d610       ?tessellateTriangle@@YAXAAIABVPxTriangle@physx@@IAAV?$Array@VPxTriangle@physx@@V?$ReflectionAllocator@VPxTriangle@physx@@@shdfnd@2@@shdfnd@2@AAV?$Array@IV?$ReflectionAllocator@I@shdfnd@physx@@@42@ABVPxBounds3@2@ABUCCTParams@Cct@2@AAG@Z 1000e610 f   CctCharacterControllerCallbacks.obj
 0001:0000d6f0       ?outputPlaneToStream@@YAXPAVPxShape@physx@@PBVPxRigidActor@2@ABVPxTransform@2@AAV?$Array@IV?$ReflectionAllocator@I@shdfnd@physx@@@shdfnd@2@AAV?$Array@VPxTriangle@physx@@V?$ReflectionAllocator@VPxTriangle@physx@@@shdfnd@2@@62@3ABUPxExtendedVec3@2@ABVPxBounds3@2@ABUCCTParams@Cct@2@PAVRenderBuffer@Cm@2@@Z 1000e6f0 f   CctCharacterControllerCallbacks.obj
 0001:0000dd40       ?outputSphereToStream@@YAXPAVPxShape@physx@@PBVPxRigidActor@2@ABVPxTransform@2@AAV?$Array@IV?$ReflectionAllocator@I@shdfnd@physx@@@shdfnd@2@ABUPxExtendedVec3@2@@Z 1000ed40 f   CctCharacterControllerCallbacks.obj
 0001:0000de20       ?outputCapsuleToStream@@YAXPAVPxShape@physx@@PBVPxRigidActor@2@ABVPxTransform@2@AAV?$Array@IV?$ReflectionAllocator@I@shdfnd@physx@@@shdfnd@2@ABUPxExtendedVec3@2@@Z 1000ee20 f   CctCharacterControllerCallbacks.obj
 0001:0000e010       ?outputBoxToStream@@YAXPAVPxShape@physx@@PBVPxRigidActor@2@ABVPxTransform@2@AAV?$Array@IV?$ReflectionAllocator@I@shdfnd@physx@@@shdfnd@2@AAV?$Array@VPxTriangle@physx@@V?$ReflectionAllocator@VPxTriangle@physx@@@shdfnd@2@@62@3ABUPxExtendedVec3@2@ABVPxBounds3@2@ABUCCTParams@Cct@2@AAG@Z 1000f010 f   CctCharacterControllerCallbacks.obj
 0001:0000eef0       ?createInvisibleWalls@@YAIABUCCTParams@Cct@physx@@ABVPxTriangle@3@AAV?$Array@VPxTriangle@physx@@V?$ReflectionAllocator@VPxTriangle@physx@@@shdfnd@2@@shdfnd@3@AAV?$Array@IV?$ReflectionAllocator@I@shdfnd@physx@@@63@@Z 1000fef0 f   CctCharacterControllerCallbacks.obj
 0001:0000f580       ?outputMeshToStream@@YAXPAVPxShape@physx@@PBVPxRigidActor@2@ABVPxTransform@2@AAV?$Array@IV?$ReflectionAllocator@I@shdfnd@physx@@@shdfnd@2@AAV?$Array@VPxTriangle@physx@@V?$ReflectionAllocator@VPxTriangle@physx@@@shdfnd@2@@62@3ABUPxExtendedVec3@2@ABVPxBounds3@2@ABUCCTParams@Cct@2@PAVRenderBuffer@Cm@2@AAG@Z 10010580 f   CctCharacterControllerCallbacks.obj
 0001:0000ff30       ?outputHeightFieldToStream@@YAXPAVPxShape@physx@@PBVPxRigidActor@2@ABVPxTransform@2@AAV?$Array@IV?$ReflectionAllocator@I@shdfnd@physx@@@shdfnd@2@AAV?$Array@VPxTriangle@physx@@V?$ReflectionAllocator@VPxTriangle@physx@@@shdfnd@2@@62@3ABUPxExtendedVec3@2@ABVPxBounds3@2@ABUCCTParams@Cct@2@PAVRenderBuffer@Cm@2@AAG@Z 10010f30 f   CctCharacterControllerCallbacks.obj
 0001:000108d0       ?outputConvexToStream@@YAXPAVPxShape@physx@@PBVPxRigidActor@2@ABVPxTransform@2@AAV?$Array@IV?$ReflectionAllocator@I@shdfnd@physx@@@shdfnd@2@AAV?$Array@VPxTriangle@physx@@V?$ReflectionAllocator@VPxTriangle@physx@@@shdfnd@2@@62@3ABUPxExtendedVec3@2@ABVPxBounds3@2@ABUCCTParams@Cct@2@PAVRenderBuffer@Cm@2@AAG@Z 100118d0 f   CctCharacterControllerCallbacks.obj
 0001:00011810       ?fillCCTHit@@YAXAAUPxControllerHit@physx@@ABUSweptContact@Cct@2@ABVPxVec3@2@MPAVController@42@@Z 10012810 f   CctCharacterControllerCallbacks.obj
 0001:00011870       ?handleObstacleHit@@YAIABVPxObstacle@physx@@ABIAAUPxControllerObstacleHit@2@PBUPxInternalCBData_OnHit@Cct@2@PAVController@52@@Z 10012870 f   CctCharacterControllerCallbacks.obj
 0001:00013340       ??Dphysx@@YA?AVPxVec3@0@MABV10@@Z 10014340 f   CctCharacterControllerManager.obj
 0001:00014160       ?computeMTD@@YA_NAAVPxVec3@physx@@AAMABV12@2ABVPxMat33@2@223@Z 10015160 f   CctCharacterControllerManager.obj
 0001:00014670       $LN359                     10015670     CctCharacterControllerManager.obj
 0001:00014690       ?fixDir@@YA?AVPxVec3@physx@@ABV12@0@Z 10015690 f   CctCharacterControllerManager.obj
 0001:00014780       ?InteractionCharacterCharacter@@YAXPAVController@Cct@physx@@0M@Z 10015780 f   CctCharacterControllerManager.obj
 0001:0001a440       ?encodeInternalHandle@@YAPAXIW4Enum@PxGeometryType@physx@@@Z 1001b440 f   CctObstacleContext.obj
 0001:0001a460       ?decodeInternalType@@YA?AW4Enum@PxGeometryType@physx@@PAX@Z 1001b460 f   CctObstacleContext.obj
 0001:0001a470       ?decodeInternalIndex@@YAIPAX@Z 1001b470 f   CctObstacleContext.obj
 0001:0001a480       ??$remove@UInternalBoxObstacle@ObstacleContext@Cct@physx@@@@YAXAAVHandleManager@Cct@physx@@PAXIIIABV?$Array@UInternalBoxObstacle@ObstacleContext@Cct@physx@@V?$ReflectionAllocator@UInternalBoxObstacle@ObstacleContext@Cct@physx@@@shdfnd@4@@shdfnd@2@@Z 1001b480 f   CctObstacleContext.obj
 0001:0001a4f0       ??$remove@UInternalCapsuleObstacle@ObstacleContext@Cct@physx@@@@YAXAAVHandleManager@Cct@physx@@PAXIIIABV?$Array@UInternalCapsuleObstacle@ObstacleContext@Cct@physx@@V?$ReflectionAllocator@UInternalCapsuleObstacle@ObstacleContext@Cct@physx@@@shdfnd@4@@shdfnd@2@@Z 1001b4f0 f   CctObstacleContext.obj
 0001:0001ee70       ?computeMassAndDiagInertia@@YA_NAAVInertiaTensorComputer@Ext@physx@@AAVPxVec3@3@AAVPxQuat@3@AAM1_NABVPxRigidBody@3@PBD@Z 1001fe70 f   PhysX3Extensions:ExtRigidBodyExt.obj
 0001:0001f210       ?computeMassAndInertia@@YA_N_NAAVPxRigidBody@physx@@PBM2I0AAVInertiaTensorComputer@Ext@2@@Z 10020210 f   PhysX3Extensions:ExtRigidBodyExt.obj
 0001:0001fd40       $LN321                     10020d40     PhysX3Extensions:ExtRigidBodyExt.obj
 0001:0001fd60       ?updateMassAndInertia@@YA_N_NAAVPxRigidBody@physx@@PBMIPBVPxVec3@2@0@Z 10020d60 f   PhysX3Extensions:ExtRigidBodyExt.obj
 0001:0001ff20       ?setMassAndUpdateInertia@@YA_N_NAAVPxRigidBody@physx@@PBMIPBVPxVec3@2@0@Z 10020f20 f   PhysX3Extensions:ExtRigidBodyExt.obj
 0001:00020140       ?transformInertiaTensor@@YAXABVPxVec3@physx@@ABVPxMat33@2@AAV32@@Z 10021140 f   PhysX3Extensions:ExtRigidBodyExt.obj
 0001:000202c0       ??0AB@?1???$PxUnionCast@PAVPxGeometry@physx@@PAY03E@physx@@YAPAVPxGeometry@1@PAY03E@Z@QAE@0@Z 100212c0 f   PhysX3Extensions:ExtRigidBodyExt.obj
 0001:00022fd0       $$000000                   10023fd0     LIBCMT:alloca16.obj
 0001:00023000       $$000000                   10024000     LIBCMT:ftol3.obj
 0001:000233d0       $$000000                   100243d0     LIBCMT:memcpy.obj
 0001:00023620       LeadUpVec                  10024620     LIBCMT:memcpy.obj
 0001:0002369c       UnwindUpVec                1002469c     LIBCMT:memcpy.obj
 0001:00023708       TrailUpVec                 10024708     LIBCMT:memcpy.obj
 0001:000237ac       LeadDownVec                100247ac     LIBCMT:memcpy.obj
 0001:00023838       UnwindDownVec              10024838     LIBCMT:memcpy.obj
 0001:000238a4       TrailDownVec               100248a4     LIBCMT:memcpy.obj
 0001:00023a20       $$000000                   10024a20     LIBCMT:memset.obj
 0001:00023c45       ___DllMainCRTStartup       10024c45 f   LIBCMT:dllcrt0.obj
 0001:00024a0b       __cftoe2_l                 10025a0b f   LIBCMT:cvt.obj
 0001:00024c45       __cftof2_l                 10025c45 f   LIBCMT:cvt.obj
 0001:00025099       __shift                    10026099 f   LIBCMT:cvt.obj
 0001:00025110       $$000000                   10026110     LIBCMT:strcmp.obj
 0001:00025500       $$000000                   10026500     LIBCMT:chkstk.obj
 0001:00025701       __get_fname                10026701 f   LIBCMT:fpexcept.obj
 0001:00026161       _xcptlookup                10027161 f   LIBCMT:winxfltr.obj
 0001:00026913       __initterm                 10027913 f   LIBCMT:crt0dat.obj
 0001:0002697d       _doexit                    1002797d f   LIBCMT:crt0dat.obj
 0001:00026ea9       _parse_cmdline             10027ea9 f   LIBCMT:stdargv.obj
 0001:00027235       ___IsPackagedAppHelper     10028235 f   LIBCMT:winapisupp.obj
 0001:00027a40       $$000000                   10028a40     LIBCMT:sehprolg4.obj
 0001:00027aa0       _ValidateLocalCookies      10028aa0 f   LIBCMT:chandler4.obj
 0001:00028243       _ctrlevent_capture@4       10029243 f   LIBCMT:winsig.obj
 0001:000284a3       _siglookup                 100294a3 f   LIBCMT:winsig.obj
 0001:000289da       ?__crtGetLocaleInfoA_stat@@YAHPAUlocaleinfo_struct@@PB_WKPADH@Z 100299da f   LIBCMT:a_loc.obj
 0001:00028cb0       ___crtEnumLocalesProc@4    10029cb0 f   LIBCMT:winapinls.obj
 0001:00029351       ?CPtoLocaleName@@YAPB_WH@Z 1002a351 f   LIBCMT:mbctype.obj
 0001:0002938b       ?getSystemCP@@YAHH@Z       1002a38b f   LIBCMT:mbctype.obj
 0001:000293f9       ?setSBCS@@YAXPAUthreadmbcinfostruct@@@Z 1002a3f9 f   LIBCMT:mbctype.obj
 0001:00029458       ?setSBUpLow@@YAXPAUthreadmbcinfostruct@@@Z 1002a458 f   LIBCMT:mbctype.obj
 0001:0002a2e0       $$000000                   1002b2e0     LIBCMT:strlen.obj
 0001:0002a370       $$000000                   1002b370     LIBCMT:memmove.obj
 0001:0002a5c0       LeadUpVec                  1002b5c0     LIBCMT:memmove.obj
 0001:0002a63c       UnwindUpVec                1002b63c     LIBCMT:memmove.obj
 0001:0002a6a8       TrailUpVec                 1002b6a8     LIBCMT:memmove.obj
 0001:0002a74c       LeadDownVec                1002b74c     LIBCMT:memmove.obj
 0001:0002a7d8       UnwindDownVec              1002b7d8     LIBCMT:memmove.obj
 0001:0002a844       TrailDownVec               1002b844     LIBCMT:memmove.obj
 0001:0002a9c0       $$000000                   1002b9c0     LIBCMT:strrchr.obj
 0001:0002af20       $$000000                   1002bf20     LIBCMT:lldvrm.obj
 0001:0002b000       $$000000                   1002c000     LIBCMT:ullshr.obj
 0001:0002d49e       $LN113                     1002e49e     LIBCMT:undname.obj
 0001:0002d4b6       $LN105                     1002e4b6     LIBCMT:undname.obj
 0001:0002e216       $LN27                      1002f216     LIBCMT:undname.obj
 0001:0003089a       $LN129                     1003189a     LIBCMT:undname.obj
 0001:00030e97       ?und_memcpy@@YAXPADPBDI@Z  10031e97 f   LIBCMT:undname.obj
 0001:00030eb6       ?und_strlen@@YAIPBD@Z      10031eb6 f   LIBCMT:undname.obj
 0001:00030ecb       ?und_strncmp@@YAIPBD0I@Z   10031ecb f   LIBCMT:undname.obj
 0001:00031040       $$000000                   10032040     LIBCMT:exsup4.obj
 0001:000310d0       __unwind_handler4          100320d0 f   LIBCMT:exsup4.obj
 0001:00031564       __onexit_nolock            10032564 f   LIBCMT:onexit.obj
 0001:00031a9f       ?x_ismbbtype_l@@YAHPAUlocaleinfo_struct@@IHH@Z 10032a9f f   LIBCMT:ismbbyte.obj
 0001:0003274b       _fix_grouping              1003374b f   LIBCMT:initmon.obj
 0001:000329f0       _fix_grouping              100339f0 f   LIBCMT:initnum.obj
 0001:00032e24       __get_lc_time              10033e24 f   LIBCMT:inittime.obj
 0001:0003363d       ?__crtLCMapStringA_stat@@YAHPAUlocaleinfo_struct@@PB_WKPBDHPADHHH@Z 1003463d f   LIBCMT:a_map.obj
 0001:00033841       ?strncnt@@YAHPBDH@Z        10034841 f   LIBCMT:a_map.obj
 0001:000338a7       ?__crtGetStringTypeA_stat@@YAHPAUlocaleinfo_struct@@KPBDHPAGHH@Z 100348a7 f   LIBCMT:a_str.obj
 0001:00033d8b       __copytlocinfo_nolock      10034d8b f   LIBCMT:wsetloca.obj
 0001:00034509       __wsetlocale_get_all       10035509 f   LIBCMT:wsetloca.obj
 0001:00034676       __wsetlocale_nolock        10035676 f   LIBCMT:wsetloca.obj
 0001:000348ff       __wsetlocale_set_cat       100358ff f   LIBCMT:wsetloca.obj
 0001:00034ca9       _sync_legacy_variables_lk  10035ca9 f   LIBCMT:wsetloca.obj
 0001:0003719c       $LN333                     1003819c     LIBCMT:strgtold.obj
 0001:00037c41       ___abstract_cw_sse2        10038c41 f   LIBCMT:ieee87.obj
 0001:00037cea       ___abstract_sw_sse2        10038cea f   LIBCMT:ieee87.obj
 0001:00037d2b       ___clearfp_sse2            10038d2b f   LIBCMT:ieee87.obj
 0001:00038095       ___control87_sse2          10039095 f   LIBCMT:ieee87.obj
 0001:00038218       ___fpreset_sse2            10039218 f   LIBCMT:ieee87.obj
 0001:00038224       ___hw_cw_sse2              10039224 f   LIBCMT:ieee87.obj
 0001:000382cd       ___statusfp_sse2           100392cd f   LIBCMT:ieee87.obj
 0001:0003830e       __abstract_cw              1003930e f   LIBCMT:ieee87.obj
 0001:000383ad       __abstract_sw              100393ad f   LIBCMT:ieee87.obj
 0001:00038b12       __hw_cw                    10039b12 f   LIBCMT:ieee87.obj
 0001:00038db0       $$000000                   10039db0     LIBCMT:ulldvrm.obj
 0001:00038e50       $$000000                   10039e50     LIBCMT:exsup.obj
 0001:00038e70       __unwind_handler           10039e70 f   LIBCMT:exsup.obj
 0001:000394d0       _flsall                    1003a4d0 f   LIBCMT:fflush.obj
 0001:00039a9d       _cmpBYTE                   1003aa9d f   LIBCMT:memcmp.obj
 0001:00039ac2       _cmpDWORD                  1003aac2 f   LIBCMT:memcmp.obj
 0001:00039b4d       _cmpResult                 1003ab4d f   LIBCMT:memcmp.obj
 0001:00039b69       _cmpWORD                   1003ab69 f   LIBCMT:memcmp.obj
 0001:0003b2b2       $LN1281                    1003c2b2     LIBCMT:memcmp.obj
 0001:0003b332       _unaligned_memcmp          1003c332 f   LIBCMT:memcmp.obj
 0001:0003ca4e       $LN1269                    1003da4e     LIBCMT:memcmp.obj
 0001:0003cbcf       _GetLocaleNameFromDefault  1003dbcf f   LIBCMT:getqloc.obj
 0001:0003cc48       _GetLocaleNameFromLangCountry 1003dc48 f   LIBCMT:getqloc.obj
 0001:0003ccbc       _GetLocaleNameFromLanguage 1003dcbc f   LIBCMT:getqloc.obj
 0001:0003cd06       _GetPrimaryLen             1003dd06 f   LIBCMT:getqloc.obj
 0001:0003cd38       _LangCountryEnumProcEx@12  1003dd38 f   LIBCMT:getqloc.obj
 0001:0003cf58       _LanguageEnumProcEx@12     1003df58 f   LIBCMT:getqloc.obj
 0001:0003d00b       _ProcessCodePage           1003e00b f   LIBCMT:getqloc.obj
 0001:0003d0a0       _TestDefaultCountry        1003e0a0 f   LIBCMT:getqloc.obj
 0001:0003d0ec       _TestDefaultLanguage       1003e0ec f   LIBCMT:getqloc.obj
 0001:0003d127       _TranslateName             1003e127 f   LIBCMT:getqloc.obj
 0001:0003d355       _CountryEnumProc@4         1003e355 f   LIBCMT:getqloc_downlevel.obj
 0001:0003d405       _GetLcidFromCountry        1003e405 f   LIBCMT:getqloc_downlevel.obj
 0001:0003d445       _GetLcidFromDefault        1003e445 f   LIBCMT:getqloc_downlevel.obj
 0001:0003d461       _GetLcidFromLangCountry    1003e461 f   LIBCMT:getqloc_downlevel.obj
 0001:0003d4de       _GetLcidFromLanguage       1003e4de f   LIBCMT:getqloc_downlevel.obj
 0001:0003d537       _GetPrimaryLen             1003e537 f   LIBCMT:getqloc_downlevel.obj
 0001:0003d561       _LangCountryEnumProc@4     1003e561 f   LIBCMT:getqloc_downlevel.obj
 0001:0003d756       _LanguageEnumProc@4        1003e756 f   LIBCMT:getqloc_downlevel.obj
 0001:0003d831       _LcidFromHexString         1003e831 f   LIBCMT:getqloc_downlevel.obj
 0001:0003d880       _ProcessCodePage           1003e880 f   LIBCMT:getqloc_downlevel.obj
 0001:0003d90b       _TestDefaultCountry        1003e90b f   LIBCMT:getqloc_downlevel.obj
 0001:0003d92d       _TestDefaultLanguage       1003e92d f   LIBCMT:getqloc_downlevel.obj
 0001:0003d997       _TranslateName             1003e997 f   LIBCMT:getqloc_downlevel.obj
 0001:0003de6e       ?strtoxq@@YA_KPAUlocaleinfo_struct@@PBDPAPBDHH@Z 1003ee6e f   LIBCMT:strtoq.obj
 0001:0003e201       ?strtoxl@@YAKPAUlocaleinfo_struct@@PBDPAPBDHH@Z 1003f201 f   LIBCMT:strtol.obj
 0001:0003efd1       @x64tow_s@24               1003ffd1 f   LIBCMT:xtows.obj
 0001:0003f1a4       _xtow_s@20                 100401a4 f   LIBCMT:xtows.obj
 0001:0003f830       $$000000                   10040830     LIBCMT:llmul.obj
 0001:000401f6       ?wcstoxl@@YAKPB_WPAPB_WHH@Z 100411f6 f   LIBCMT:wcstol.obj
 0001:00040437       ?wcstoxq@@YA_KPAUlocaleinfo_struct@@PB_WPAPB_WHH@Z 10041437 f   LIBCMT:wcstoq.obj
 0001:00041658       $LN323                     10042658     LIBCMT:wstrgtold.obj
 0002:000001b4       _minFError$initializer$    100431b4     CctCharacterController.obj
 0002:000001b8       _maxFError$initializer$    100431b8     CctCharacterController.obj
 0002:000001bc       _minV3Error$initializer$   100431bc     CctCharacterController.obj
 0002:000001c0       _maxV3Error$initializer$   100431c0     CctCharacterController.obj
 0002:000001c4       _minV4Error$initializer$   100431c4     CctCharacterController.obj
 0002:000001c8       _maxV4Error$initializer$   100431c8     CctCharacterController.obj
 0002:000001cc       _minFError$initializer$    100431cc     CctCharacterControllerManager.obj
 0002:000001d0       _maxFError$initializer$    100431d0     CctCharacterControllerManager.obj
 0002:000001d4       _minV3Error$initializer$   100431d4     CctCharacterControllerManager.obj
 0002:000001d8       _maxV3Error$initializer$   100431d8     CctCharacterControllerManager.obj
 0002:000001dc       _minV4Error$initializer$   100431dc     CctCharacterControllerManager.obj
 0002:000001e0       _maxV4Error$initializer$   100431e0     CctCharacterControllerManager.obj
 0002:000001ec       _pinit                     100431ec     LIBCMT:cpu_disp.obj
 0002:000001f0       _pinit                     100431f0     LIBCMT:mbctype.obj
 0002:000001f4       _pinit                     100431f4     LIBCMT:onexit.obj
 0002:000001f8       _pinit                     100431f8     LIBCMT:_file.obj
 0002:00000204       _pterm                     10043204     LIBCMT:wsetloca.obj
 0002:00000208       _pterm                     10043208     LIBCMT:initcon.obj
 0002:0000020c       _pterm                     1004320c     LIBCMT:_file.obj
 0002:00000258       _PxPi                      10043258     CctBoxController.obj
 0002:000003f0       _PxPi                      100433f0     CctCapsuleController.obj
 0002:00000510       _GeomSizes                 10043510     CctCharacterController.obj
 0002:00000528       _PxPi                      10043528     CctCharacterController.obj
 0002:0000052c       _PxTwoPi                   1004352c     CctCharacterController.obj
 0002:00000530       _gMaskXYZ                  10043530     CctCharacterController.obj
 0002:00000540       _PxInvPi                   10043540     CctCharacterController.obj
 0002:00000544       _PxInvTwoPi                10043544     CctCharacterController.obj
 0002:00000548       _PxPiDivTwo                10043548     CctCharacterController.obj
 0002:000008d0       _gDebugVisOffset           100438d0     CctCharacterControllerCallbacks.obj
 0002:000008d4       _PxPi                      100438d4     CctCharacterControllerCallbacks.obj
 0002:00000920       _PxPi                      10043920     CctCharacterControllerManager.obj
 0002:00000924       _PxTwoPi                   10043924     CctCharacterControllerManager.obj
 0002:00000928       _PxInvPi                   10043928     CctCharacterControllerManager.obj
 0002:0000092c       _PxInvTwoPi                1004392c     CctCharacterControllerManager.obj
 0002:00000930       _PxPiDivTwo                10043930     CctCharacterControllerManager.obj
 0002:00000934       _gMaxOverlapRecover        10043934     CctCharacterControllerManager.obj
 0002:00000940       _gMaskXYZ                  10043940     CctCharacterControllerManager.obj
 0002:00000b30       _PxPi                      10043b30     CctController.obj
 0002:00000b58       _PxPi                      10043b58     CctObstacleContext.obj
 0002:00000c30       _PxPi                      10043c30     CctSweptBox.obj
 0002:00000c3c       _PxPi                      10043c3c     CctSweptCapsule.obj
 0002:00000c48       _PxPi                      10043c48     CctSweptVolume.obj
 0002:00000c54       _PxPi                      10043c54     PhysX3Extensions:ExtTriangleMeshExt.obj
 0002:00000c8c       _PxPi                      10043c8c     PhysX3Extensions:ExtRigidBodyExt.obj
 0002:00001020       _Int32ToUInt32             10044020     LIBCMT:ftol3.obj
 0002:00001030       _MantissaMask              10044030     LIBCMT:ftol3.obj
 0002:00001038       _IntegerBit                10044038     LIBCMT:ftol3.obj
 0002:00001040       _SignBit64                 10044040     LIBCMT:ftol3.obj
 0002:00001048       _MinFP64                   10044048     LIBCMT:ftol3.obj
 0002:00001050       _MinInt64                  10044050     LIBCMT:ftol3.obj
 0002:00001058       _MaxInt64                  10044058     LIBCMT:ftol3.obj
 0002:00001060       _MaxUInt64                 10044060     LIBCMT:ftol3.obj
 0002:00001068       _MaxFP32                   10044068     LIBCMT:ftol3.obj
 0002:00001070       _MinFP32                   10044070     LIBCMT:ftol3.obj
 0002:00001078       _MinSubInexact             10044078     LIBCMT:ftol3.obj
 0002:00001080       _FpExcptTable              10044080     LIBCMT:ftol3.obj
 0002:00001090       _i1075                     10044090     LIBCMT:ftol3.obj
 0002:00001094       _i1087                     10044094     LIBCMT:ftol3.obj
 0002:00001098       _x0800                     10044098     LIBCMT:ftol3.obj
 0002:0000109c       _x17FF                     1004409c     LIBCMT:ftol3.obj
 0002:000010a0       _CWMask                    100440a0     LIBCMT:ftol3.obj
 0002:000035e4       __mb_locale_names          100465e4     LIBCMT:mbctype.obj
 0002:00003948       _tokenTable                10046948     LIBCMT:undname.obj
 0002:00003980       _nameTable                 10046980     LIBCMT:undname.obj
 0002:00003ac0       _rttiTable                 10046ac0     LIBCMT:undname.obj
 0002:00004460       _rterrs                    10047460     LIBCMT:crt0msg.obj
 0002:00004ef4       _GS_ExceptionPointers      10047ef4     LIBCMT:gs_report.obj
 0002:00004fc8       __first_127char            10047fc8     LIBCMT:wsetloca.obj
 0002:000069d0       __sehtable$__CRT_INIT@12   100499d0     LIBCMT:dllcrt0.obj
 0002:000069f0       __sehtable$___DllMainCRTStartup 100499f0     LIBCMT:dllcrt0.obj
 0002:00006a10       __sehtable$?_Name_base@type_info@@CAPBDPBV1@PAU__type_info_node@@@Z 10049a10     LIBCMT:typname.obj
 0002:00006a30       __sehtable$?_Type_info_dtor@type_info@@CAXPAV1@@Z 10049a30     LIBCMT:typname.obj
 0002:00006a50       __sehtable$?_Name_base_internal@type_info@@CAPBDPBV1@PAU__type_info_node@@@Z 10049a50     LIBCMT:typname.obj
 0002:00006a70       __sehtable$?_Type_info_dtor_internal@type_info@@CAXPAV1@@Z 10049a70     LIBCMT:typname.obj
 0002:00006a90       __sehtable$___clean_type_info_names_internal 10049a90     LIBCMT:typname.obj
 0002:00006ab0       __sehtable$__freefls@4     10049ab0     LIBCMT:tidtable.obj
 0002:00006ad8       __sehtable$__initptd       10049ad8     LIBCMT:tidtable.obj
 0002:00006b00       __sehtable$_doexit         10049b00     LIBCMT:crt0dat.obj
 0002:00006b20       __sehtable$__ioinit        10049b20     LIBCMT:ioinit.obj
 0002:00006b40       __sehtable$___set_fpsr_sse2 10049b40     LIBCMT:fpctrl.obj
 0002:00006b60       __sehtable$_signal         10049b60     LIBCMT:winsig.obj
 0002:00006b80       __sehtable$_raise          10049b80     LIBCMT:winsig.obj
 0002:00006ba0       __sehtable$_ctrlevent_capture@4 10049ba0     LIBCMT:winsig.obj
 0002:00006bc0       __sehtable$___updatetlocinfo 10049bc0     LIBCMT:localref.obj
 0002:00006be0       __sehtable$___updatetmbcinfo 10049be0     LIBCMT:mbctype.obj
 0002:00006c00       __sehtable$__setmbcp       10049c00     LIBCMT:mbctype.obj
 0002:00006c20       __sehtable$__mtinitlocknum 10049c20     LIBCMT:mlock.obj
 0002:00006c40       __sehtable$___unDName      10049c40     LIBCMT:undname.obj
 0002:00006c60       __sehtable$___unDNameEx    10049c60     LIBCMT:undname.obj
 0002:00006c80       __sehtable$__IsNonwritableInCurrentImage 10049c80     LIBCMT:pesect.obj
 0002:00006ca0       __sehtable$__onexit        10049ca0     LIBCMT:onexit.obj
 0002:00006cc0       __sehtable$?terminate@@YAXXZ 10049cc0     LIBCMT:hooks.obj
 0002:00006ce0       __sehtable$?_inconsistency@@YAXXZ 10049ce0     LIBCMT:hooks.obj
 0002:00006d00       __sehtable$__get_current_locale 10049d00     LIBCMT:wsetloca.obj
 0002:00006d28       __sehtable$__free_locale   10049d28     LIBCMT:wsetloca.obj
 0002:00006d50       __sehtable$__wsetlocale    10049d50     LIBCMT:wsetloca.obj
 0002:00006d88       __sehtable$__locterm       10049d88     LIBCMT:wsetloca.obj
 0002:00006da8       __sehtable$_fflush         10049da8     LIBCMT:fflush.obj
 0002:00006dc8       __sehtable$_flsall         10049dc8     LIBCMT:fflush.obj
 0002:00006df0       __sehtable$__fcloseall     10049df0     LIBCMT:closeall.obj
 0002:00006e10       __sehtable$__commit        10049e10     LIBCMT:commit.obj
 0002:00006e30       __sehtable$__write         10049e30     LIBCMT:write.obj
 0002:00006e50       __sehtable$_fclose         10049e50     LIBCMT:fclose.obj
 0002:00006e70       __sehtable$__alloc_osfhnd  10049e70     LIBCMT:osfinfo.obj
 0002:00006e98       __sehtable$___lock_fhandle 10049e98     LIBCMT:osfinfo.obj
 0002:00006eb8       __sehtable$__open_osfhandle 10049eb8     LIBCMT:osfinfo.obj
 0002:00006ed8       __sehtable$__lseeki64      10049ed8     LIBCMT:lseeki64.obj
 0002:00006ef8       __sehtable$__putwch        10049ef8     LIBCMT:putwch.obj
 0002:00006f18       __sehtable$__close         10049f18     LIBCMT:close.obj
 0002:00006f40       .edata                     10049f40     PhysX3CharacterKinematic_x86.exp
 0002:00006f68       rgpv                       10049f68     PhysX3CharacterKinematic_x86.exp
 0002:00006f84       rgszName                   10049f84     PhysX3CharacterKinematic_x86.exp
 0002:00006fa0       rgwOrd                     10049fa0     PhysX3CharacterKinematic_x86.exp
 0002:00006fae       szName                     10049fae     PhysX3CharacterKinematic_x86.exp
 0002:00006fcf       $N00001                    10049fcf     PhysX3CharacterKinematic_x86.exp
 0002:00006ff4       $N00002                    10049ff4     PhysX3CharacterKinematic_x86.exp
 0002:0000701f       $N00003                    1004a01f     PhysX3CharacterKinematic_x86.exp
 0002:00007044       $N00004                    1004a044     PhysX3CharacterKinematic_x86.exp
 0002:00007074       $N00005                    1004a074     PhysX3CharacterKinematic_x86.exp
 0002:00007097       $N00006                    1004a097     PhysX3CharacterKinematic_x86.exp
 0002:0000710e       $N00007                    1004a10e     PhysX3CharacterKinematic_x86.exp
 0002:00007b1a       .idata$6                   1004ab1a     PhysX3Common_x86:PhysX3Common_x86.dll
 0002:000080aa       .idata$6                   1004b0aa     kernel32:KERNEL32.dll
 0003:00000000       _gSweepMap                 1004c000     CctCharacterController.obj
 0003:000000d0       ?_names@?1??_get_fname@@9@9 1004c0d0     LIBCMT:fpexcept.obj
 0003:00000200       ?isPackaged@?1??__crtIsPackagedApp@@9@9 1004c200     LIBCMT:winapisupp.obj
 0003:00000238       _over                      1004c238     LIBCMT:fpctrl.obj
 0003:00000244       _under                     1004c244     LIBCMT:fpctrl.obj
 0003:00000250       ?__DAZ_ENABLED@?1??__set_fpsr_sse2@@9@9 1004c250     LIBCMT:fpctrl.obj
 0003:00000260       _errtable                  1004c260     LIBCMT:dosmap.obj
 0003:000003c8       _ErrnoNoMem                1004c3c8     LIBCMT:dosmap.obj
 0003:000003cc       _DoserrorNoMem             1004c3cc     LIBCMT:dosmap.obj
 0003:000007f8       ___rgctypeflag             1004c7f8     LIBCMT:mbctype.obj
 0003:00000800       ___rgcode_page_info        1004c800     LIBCMT:mbctype.obj
 0003:00000b28       __locktable                1004cb28     LIBCMT:mlock.obj
 0003:00000f34       __ctype_loc_style          1004cf34     LIBCMT:wsetloca.obj
 0003:00000f38       _DoubleFormat              1004cf38     LIBCMT:intrncvt.obj
 0003:00000f50       _FloatFormat               1004cf50     LIBCMT:intrncvt.obj
 0003:000015e0       _minV4Error                1004d5e0     CctCharacterController.obj
 0003:000015f0       _maxV4Error                1004d5f0     CctCharacterController.obj
 0003:00001600       _minFError                 1004d600     CctCharacterController.obj
 0003:00001610       _minV3Error                1004d610     CctCharacterController.obj
 0003:00001620       _maxV3Error                1004d620     CctCharacterController.obj
 0003:00001630       _maxFError                 1004d630     CctCharacterController.obj
 0003:00001640       _minV4Error                1004d640     CctCharacterControllerManager.obj
 0003:00001650       _maxV4Error                1004d650     CctCharacterControllerManager.obj
 0003:00001660       _minFError                 1004d660     CctCharacterControllerManager.obj
 0003:00001670       _minV3Error                1004d670     CctCharacterControllerManager.obj
 0003:00001680       _maxV3Error                1004d680     CctCharacterControllerManager.obj
 0003:00001690       _maxFError                 1004d690     CctCharacterControllerManager.obj
 0003:000016ac       ___proc_attached           1004d6ac     LIBCMT:dllcrt0.obj
 0003:000016bc       ___type_info_root_node     1004d6bc     LIBCMT:typname.obj
 0003:00001808       ?_pgmname@?1??_setargv@@9@9 1004d808     LIBCMT:stdargv.obj
 0003:00001914       _ctrlc_action              1004d914     LIBCMT:winsig.obj
 0003:00001918       _ctrlbreak_action          1004d918     LIBCMT:winsig.obj
 0003:0000191c       _abort_action              1004d91c     LIBCMT:winsig.obj
 0003:00001920       _term_action               1004d920     LIBCMT:winsig.obj
 0003:00001924       _ConsoleCtrlHandler_Installed 1004d924     LIBCMT:winsig.obj
 0003:0000192c       ___crtCallProc             1004d92c     LIBCMT:winapinls.obj
 0003:00001948       _fSystemSet                1004d948     LIBCMT:mbctype.obj
 0003:00001950       _lclcritsects              1004d950     LIBCMT:mlock.obj
 0003:00001ac8       _heap                      1004dac8     LIBCMT:undname.obj
 0003:00001b18       ?outmsg@?9??_NMSG_WRITE@@9@9 1004db18     LIBCMT:crt0msg.obj
 0003:00002148       _g_pfnRtlGenRandom         1004e148     LIBCMT:rand_s.obj
 0003:00002158       _GS_ExceptionRecord        1004e158     LIBCMT:gs_report.obj
 0003:000021a8       _GS_ContextRecord          1004e1a8     LIBCMT:gs_report.obj
 0003:00002474       _DebuggerWasPresent        1004e474     LIBCMT:gs_report.obj
 0003:0000248c       ?pfnMessageBox@?1??__crtMessageBoxW@@9@9 1004e48c     LIBCMT:crtmboxw.obj
 0003:00002490       ?pfnGetActiveWindow@?1??__crtMessageBoxW@@9@9 1004e490     LIBCMT:crtmboxw.obj
 0003:00002494       ?pfnGetLastActivePopup@?1??__crtMessageBoxW@@9@9 1004e494     LIBCMT:crtmboxw.obj
 0003:00002498       ?pfnGetProcessWindowStation@?1??__crtMessageBoxW@@9@9 1004e498     LIBCMT:crtmboxw.obj
 0003:0000249c       ?pfnGetUserObjectInformation@?1??__crtMessageBoxW@@9@9 1004e49c     LIBCMT:crtmboxw.obj
 0004:000000a0       $R000000                   100500a0     PhysX3CharacterKinematic.res
 0004:00000420       $R000380                   10050420     PhysX3CharacterKinematic.res
