 PhysX3CommonDEBUG_x86

 Timestamp is 55b9b32f (Wed Jul 29 22:16:31 2015)

 Preferred load address is 10000000

 Start         Length     Name                   Class
 0001:00000000 0001fa86H .text$di                CODE
 0001:0001fa90 00146cd2H .text$mn                CODE
 0001:00166770 00001012H .text$yd                CODE
 0002:00000000 00000104H .CRT$XCA                DATA
 0002:00000104 00000d14H .CRT$XCU                DATA
 0002:00000e18 00000104H .CRT$XCZ                DATA
 0002:00000f1c 00000104H .CRT$XIA                DATA
 0002:00001020 00000104H .CRT$XIAA               DATA
 0002:00001124 00000109H .CRT$XIC                DATA
 0002:00001230 00000104H .CRT$XIZ                DATA
 0002:00001340 0000c774H .rdata                  DATA
 0002:0000dab4 00000194H .rdata$debug            DATA
 0002:0000dc48 00000156H .rdata$r                DATA
 0002:0000dda0 00000109H .rdata$sxdata           DATA
 0002:0000deac 00000104H .rtc$IAA                DATA
 0002:0000dfb0 00000383H .rtc$IMZ                DATA
 0002:0000e334 00000104H .rtc$IZZ                DATA
 0002:0000e438 00000104H .rtc$TAA                DATA
 0002:0000e53c 00000383H .rtc$TMZ                DATA
 0002:0000e8c0 00000104H .rtc$TZZ                DATA
 0002:0000e9c8 00000223H .xdata$x                DATA
 0002:0000ebf0 00016d21H .edata                  DATA
 0003:00000000 00000689H .data                   DATA
 0003:0000068c 00000392H .data$r                 DATA
 0003:00000a20 00003d84H .bss                    DATA
 0004:00000000 00000324H .idata$5                DATA
 0004:00000324 0000003cH .idata$2                DATA
 0004:00000360 00000014H .idata$3                DATA
 0004:00000374 00000324H .idata$4                DATA
 0004:00000698 000009deH .idata$6                DATA
 0005:00000000 000001c0H .rsrc$01                DATA
 0005:000001c0 000006a9H .rsrc$02                DATA

  Address         Publics by Value              Rva+Base       Lib:Object

 0000:00000000       __except_list              00000000     <absolute>
 0000:00000000       ___guard_fids_table        00000000     <absolute>
 0000:00000000       ___guard_flags             00000000     <absolute>
 0000:00000000       ___guard_fids_count        00000000     <absolute>
 0000:00000002       ___safe_se_handler_count   00000002     <absolute>
 0000:00009876       __fltused                  00009876     <absolute>
 0000:00009876       __ldused                   00009876     <absolute>
 0000:00000000       ___ImageBase               10000000     <linker-defined>
 0001:0001fa90       ?atomicExchange@shdfnd@physx@@YAHPCHH@Z 10020a90 f   PsWindowsAtomic.obj
 0001:0001faa0       ?atomicCompareExchange@shdfnd@physx@@YAHPCHHH@Z 10020aa0 f   PsWindowsAtomic.obj
 0001:0001fac0       ?atomicCompareExchangePointer@shdfnd@physx@@YAPAXPAPCXPAX1@Z 10020ac0 f   PsWindowsAtomic.obj
 0001:0001fae0       ?atomicIncrement@shdfnd@physx@@YAHPCH@Z 10020ae0 f   PsWindowsAtomic.obj
 0001:0001fb00       ?atomicDecrement@shdfnd@physx@@YAHPCH@Z 10020b00 f   PsWindowsAtomic.obj
 0001:0001fb20       ?atomicAdd@shdfnd@physx@@YAHPCHH@Z 10020b20 f   PsWindowsAtomic.obj
 0001:0001fb50       ?atomicMax@shdfnd@physx@@YAHPCHH@Z 10020b50 f   PsWindowsAtomic.obj
 0001:0001fbd0       __InlineInterlockedCompareExchangePointer 10020bd0 f i PsWindowsAtomic.obj
 0001:0001fbf0       ?getCpuId@Cpu@shdfnd@physx@@SAEXZ 10020bf0 f   PsWindowsCpu.obj
 0001:0001fc40       ??0FPUGuard@shdfnd@physx@@QAE@XZ 10020c40 f   PsWindowsFPU.obj
 0001:0001fc90       ??1FPUGuard@shdfnd@physx@@QAE@XZ 10020c90 f   PsWindowsFPU.obj
 0001:0001fcf0       ?enableFPExceptions@shdfnd@physx@@YAXXZ 10020cf0 f   PsWindowsFPU.obj
 0001:0001fd10       ?disableFPExceptions@shdfnd@physx@@YAXXZ 10020d10 f   PsWindowsFPU.obj
 0001:0001fd70       ??4FPUGuard@shdfnd@physx@@QAEAAV012@ABV012@@Z 10020d70 f i PsWindowsFPU.obj
 0001:0001fda0       ??0MemoryMappedFile@shdfnd@physx@@QAE@PBDI@Z 10020da0 f   PsWindowsMemoryMappedFile.obj
 0001:0001fe60       ??1MemoryMappedFile@shdfnd@physx@@QAE@XZ 10020e60 f   PsWindowsMemoryMappedFile.obj
 0001:0001fec0       ?getBaseAddress@MemoryMappedFile@shdfnd@physx@@QAEPAXXZ 10020ec0 f   PsWindowsMemoryMappedFile.obj
 0001:0001ff20       ??0Allocator@shdfnd@physx@@QAE@PBD@Z 10020f20 f i PsWindowsMemoryMappedFile.obj
 0001:0001ff40       ??0PxFoundation@physx@@QAE@ABV01@@Z 10020f40 f i PsWindowsMemoryMappedFile.obj
 0001:0001ff60       ??0PxFoundation@physx@@QAE@XZ 10020f60 f i PsWindowsMemoryMappedFile.obj
 0001:0001ff80       ??1PxFoundation@physx@@MAE@XZ 10020f80 f i PsWindowsMemoryMappedFile.obj
 0001:0001ffa0       ??4Allocator@shdfnd@physx@@QAEAAV012@ABV012@@Z 10020fa0 f i PsWindowsMemoryMappedFile.obj
 0001:0001ffc0       ??4ErrorHandler@shdfnd@physx@@QAEAAV012@ABV012@@Z 10020fc0 f i PsWindowsMemoryMappedFile.obj
 0001:00020000       ??4MutexImpl@shdfnd@physx@@QAEAAV012@ABV012@@Z 10021000 f i PsWindowsMemoryMappedFile.obj
 0001:00020020       ??4PAUtils@shdfnd@physx@@QAEAAV012@ABV012@@Z 10021020 f i PsWindowsMemoryMappedFile.obj
 0001:00020040       ??4PxFoundation@physx@@QAEAAV01@ABV01@@Z 10021040 f i PsWindowsMemoryMappedFile.obj
 0001:00020060       ??_EPxFoundation@physx@@MAEPAXI@Z 10021060 f i PsWindowsMemoryMappedFile.obj
 0001:000200f0       ??_FAllocator@shdfnd@physx@@QAEXXZ 100210f0 f i PsWindowsMemoryMappedFile.obj
 0001:00020110       ??_FNamedAllocator@shdfnd@physx@@QAEXXZ 10021110 f i PsWindowsMemoryMappedFile.obj
 0001:00020130       ??_GPxFoundation@physx@@MAEPAXI@Z 10021130 f i PsWindowsMemoryMappedFile.obj
 0001:00020170       ??_I@YGXPAXIHP6EX0@Z@Z     10021170 f i PsWindowsMemoryMappedFile.obj
 0001:000201b0       ?getAllocator@Foundation@shdfnd@physx@@UBEAAVPxBroadcastingAllocator@3@XZ 100211b0 f i PsWindowsMemoryMappedFile.obj
 0001:000201d0       ?getCallbackCount@ErrorHandler@shdfnd@physx@@QBEIXZ 100211d0 f i PsWindowsMemoryMappedFile.obj
 0001:000201f0       ?getCheckedAllocator@Foundation@shdfnd@physx@@QAEAAVPxAllocatorCallback@3@XZ 100211f0 f i PsWindowsMemoryMappedFile.obj
 0001:00020210       ?getErrorCallback@ErrorHandler@shdfnd@physx@@QBEPAVPxErrorCallback@3@H@Z 10021210 f i PsWindowsMemoryMappedFile.obj
 0001:00020230       ?getErrorHandler@Foundation@shdfnd@physx@@QAEAAVErrorHandler@23@XZ 10021230 f i PsWindowsMemoryMappedFile.obj
 0001:00020250       ?getErrorMutex@Foundation@shdfnd@physx@@QAEAAV?$MutexT@VAllocator@shdfnd@physx@@@23@XZ 10021250 f i PsWindowsMemoryMappedFile.obj
 0001:00020270       ?getMaxCallbackNum@ErrorHandler@shdfnd@physx@@QBEIXZ 10021270 f i PsWindowsMemoryMappedFile.obj
 0001:00020290       ?getNamedAllocMap@Foundation@shdfnd@physx@@QAEAAV?$HashMap@PBVNamedAllocator@shdfnd@physx@@PBDU?$Hash@PBVNamedAllocator@shdfnd@physx@@@23@VNonTrackingAllocator@23@@23@XZ 10021290 f i PsWindowsMemoryMappedFile.obj
 0001:000202b0       ?getNamedAllocMutex@Foundation@shdfnd@physx@@QAEAAV?$MutexT@VAllocator@shdfnd@physx@@@23@XZ 100212b0 f i PsWindowsMemoryMappedFile.obj
 0001:000202d0       ?getPAUtils@Foundation@shdfnd@physx@@QAEAAVPAUtils@23@XZ 100212d0 f i PsWindowsMemoryMappedFile.obj
 0001:000202f0       ?getReportAllocationNames@Foundation@shdfnd@physx@@UBE_NXZ 100212f0 f i PsWindowsMemoryMappedFile.obj
 0001:00020310       ?getTempAllocFreeTable@Foundation@shdfnd@physx@@QAEAAV?$Array@PATTempAllocatorChunk@shdfnd@physx@@VAllocator@23@@23@XZ 10021310 f i PsWindowsMemoryMappedFile.obj
 0001:00020330       ?getTempAllocMutex@Foundation@shdfnd@physx@@QAEAAV?$MutexT@VAllocator@shdfnd@physx@@@23@XZ 10021330 f i PsWindowsMemoryMappedFile.obj
 0001:00020350       ?setReportAllocationNames@Foundation@shdfnd@physx@@UAEX_N@Z 10021350 f i PsWindowsMemoryMappedFile.obj
 0001:00020370       ??0PsModuleUpdateLoader@shdfnd@physx@@QAE@PBD@Z 10021370 f   PsWindowsModuleUpdateLoader.obj
 0001:000203c0       ??1PsModuleUpdateLoader@shdfnd@physx@@QAE@XZ 100213c0 f   PsWindowsModuleUpdateLoader.obj
 0001:000203f0       ?LoadModule@PsModuleUpdateLoader@shdfnd@physx@@QAEPAUHINSTANCE__@@PBD0@Z 100213f0 f   PsWindowsModuleUpdateLoader.obj
 0001:00020470       ??4PsModuleUpdateLoader@shdfnd@physx@@QAEAAV012@ABV012@@Z 10021470 f i PsWindowsModuleUpdateLoader.obj
 0001:000204a0       ?loadLibrary@shdfnd@physx@@YGPAUHINSTANCE__@@PBD@Z 100214a0 f i PsWindowsModuleUpdateLoader.obj
 0001:000204c0       ??0MutexImpl@shdfnd@physx@@QAE@XZ 100214c0 f   PsWindowsMutex.obj
 0001:00020500       ??1MutexImpl@shdfnd@physx@@QAE@XZ 10021500 f   PsWindowsMutex.obj
 0001:00020520       ?lock@MutexImpl@shdfnd@physx@@QAEXXZ 10021520 f   PsWindowsMutex.obj
 0001:00020560       ?trylock@MutexImpl@shdfnd@physx@@QAE_NXZ 10021560 f   PsWindowsMutex.obj
 0001:000205c0       ?unlock@MutexImpl@shdfnd@physx@@QAEXXZ 100215c0 f   PsWindowsMutex.obj
 0001:00020620       ?getSize@MutexImpl@shdfnd@physx@@SAABIXZ 10021620 f   PsWindowsMutex.obj
 0001:00020630       ??0ReadWriteLock@shdfnd@physx@@QAE@XZ 10021630 f   PsWindowsMutex.obj
 0001:000206b0       ??1ReadWriteLock@shdfnd@physx@@QAE@XZ 100216b0 f   PsWindowsMutex.obj
 0001:000206e0       ?lockReader@ReadWriteLock@shdfnd@physx@@QAEXXZ 100216e0 f   PsWindowsMutex.obj
 0001:00020710       ?lockWriter@ReadWriteLock@shdfnd@physx@@QAEXXZ 10021710 f   PsWindowsMutex.obj
 0001:00020740       ?unlockReader@ReadWriteLock@shdfnd@physx@@QAEXXZ 10021740 f   PsWindowsMutex.obj
 0001:00020760       ?unlockWriter@ReadWriteLock@shdfnd@physx@@QAEXXZ 10021760 f   PsWindowsMutex.obj
 0001:00020780       ?getMutex@?A0xc8e00268@shdfnd@physx@@YAPAUMutexWinImpl@123@PAVMutexImpl@23@@Z 10021780 f   PsWindowsMutex.obj
 0001:00020840       ??0?$MutexT@V?$ReflectionAllocator@VMutexImpl@shdfnd@physx@@@shdfnd@physx@@@shdfnd@physx@@QAE@ABV?$ReflectionAllocator@VMutexImpl@shdfnd@physx@@@12@@Z 10021840 f i PsWindowsMutex.obj
 0001:000208c0       ??0?$ReflectionAllocator@VMutexImpl@shdfnd@physx@@@shdfnd@physx@@QAE@ABV012@@Z 100218c0 f i PsWindowsMutex.obj
 0001:000208e0       ??0?$ReflectionAllocator@VMutexImpl@shdfnd@physx@@@shdfnd@physx@@QAE@PBD@Z 100218e0 f i PsWindowsMutex.obj
 0001:00020900       ??0ReadWriteLockImpl@shdfnd@physx@@QAE@XZ 10021900 f i PsWindowsMutex.obj
 0001:00020930       ??1?$MutexT@V?$ReflectionAllocator@VMutexImpl@shdfnd@physx@@@shdfnd@physx@@@shdfnd@physx@@QAE@XZ 10021930 f i PsWindowsMutex.obj
 0001:00020960       ??1ReadWriteLockImpl@shdfnd@physx@@QAE@XZ 10021960 f i PsWindowsMutex.obj
 0001:00020980       ??2@YAPAXIPAX@Z            10021980 f i PsWindowsMutex.obj
 0001:00020990       ??4ThreadImpl@shdfnd@physx@@QAEAAV012@ABV012@@Z 10021990 f i PsWindowsMutex.obj
 0001:000209b0       ??_GMutexImpl@shdfnd@physx@@QAEPAXI@Z 100219b0 f i PsWindowsMutex.obj
 0001:000209f0       ??_GReadWriteLockImpl@shdfnd@physx@@QAEPAXI@Z 100219f0 f i PsWindowsMutex.obj
 0001:00020a30       ?allocate@?$ReflectionAllocator@VMutexImpl@shdfnd@physx@@@shdfnd@physx@@QAEPAXIPBDH@Z 10021a30 f i PsWindowsMutex.obj
 0001:00020a90       ?deallocate@?$ReflectionAllocator@VMutexImpl@shdfnd@physx@@@shdfnd@physx@@QAEXPAX@Z 10021a90 f i PsWindowsMutex.obj
 0001:00020ad0       ?getFoundation@shdfnd@physx@@YAAAVFoundation@12@XZ 10021ad0 f i PsWindowsMutex.obj
 0001:00020ae0       ?getId@?$ThreadT@V?$ReflectionAllocator@VThreadImpl@shdfnd@physx@@@shdfnd@physx@@@shdfnd@physx@@SAIXZ 10021ae0 f i PsWindowsMutex.obj
 0001:00020af0       ?getName@?$ReflectionAllocator@VMutexImpl@shdfnd@physx@@@shdfnd@physx@@CAPBDXZ 10021af0 f i PsWindowsMutex.obj
 0001:00020b40       ?lock@?$MutexT@V?$ReflectionAllocator@VMutexImpl@shdfnd@physx@@@shdfnd@physx@@@shdfnd@physx@@QBEXXZ 10021b40 f i PsWindowsMutex.obj
 0001:00020b60       ?unlock@?$MutexT@V?$ReflectionAllocator@VMutexImpl@shdfnd@physx@@@shdfnd@physx@@@shdfnd@physx@@QBEXXZ 10021b60 f i PsWindowsMutex.obj
 0001:00020b80       ??0PAUtils@shdfnd@physx@@QAE@XZ 10021b80 f   PsWindowsPAEventSrc.obj
 0001:00020ba0       ??1PAUtils@shdfnd@physx@@QAE@XZ 10021ba0 f   PsWindowsPAEventSrc.obj
 0001:00020be0       ?isEnabled@PAUtils@shdfnd@physx@@QAE_NXZ 10021be0 f   PsWindowsPAEventSrc.obj
 0001:00020c10       ?isEventEnabled@PAUtils@shdfnd@physx@@QAE_NG@Z 10021c10 f   PsWindowsPAEventSrc.obj
 0001:00020c40       ?registerEvent@PAUtils@shdfnd@physx@@QAEGPBD@Z 10021c40 f   PsWindowsPAEventSrc.obj
 0001:00020cb0       ?startEvent@PAUtils@shdfnd@physx@@QAEXGG@Z 10021cb0 f   PsWindowsPAEventSrc.obj
 0001:00020d40       ?stopEvent@PAUtils@shdfnd@physx@@QAEXGG@Z 10021d40 f   PsWindowsPAEventSrc.obj
 0001:00020dd0       ?statEvent@PAUtils@shdfnd@physx@@QAEXGI@Z 10021dd0 f   PsWindowsPAEventSrc.obj
 0001:00020e10       ?statEvent@PAUtils@shdfnd@physx@@QAEXGII@Z 10021e10 f   PsWindowsPAEventSrc.obj
 0001:00020e40       ?debugEvent@PAUtils@shdfnd@physx@@QAEXGII@Z 10021e40 f   PsWindowsPAEventSrc.obj
 0001:00020e70       ?rawEvent@PAUtils@shdfnd@physx@@QAEXGIIE@Z 10021e70 f   PsWindowsPAEventSrc.obj
 0001:00020eb0       ?rawEventWithTimestamp@PAUtils@shdfnd@physx@@QAE_NG_KIIE@Z 10021eb0 f   PsWindowsPAEventSrc.obj
 0001:00020ef0       ?lock@PAUtils@shdfnd@physx@@QAE_NXZ 10021ef0 f   PsWindowsPAEventSrc.obj
 0001:00020f60       ?unlock@PAUtils@shdfnd@physx@@QAE_NXZ 10021f60 f   PsWindowsPAEventSrc.obj
 0001:00020f90       ??0ConnImpl@shdfnd@physx@@QAE@XZ 10021f90 f   PsWindowsPAEventSrc.obj
 0001:000211e0       ??1ConnImpl@shdfnd@physx@@QAE@XZ 100221e0 f   PsWindowsPAEventSrc.obj
 0001:000213f0       ??$?2V?$ReflectionAllocator@VConnImpl@shdfnd@physx@@@shdfnd@physx@@@UserAllocated@shdfnd@physx@@SAPAXIV?$ReflectionAllocator@VConnImpl@shdfnd@physx@@@12@PBDH@Z 100223f0 f i PsWindowsPAEventSrc.obj
 0001:00021410       ??0?$ReflectionAllocator@VConnImpl@shdfnd@physx@@@shdfnd@physx@@QAE@PBD@Z 10022410 f i PsWindowsPAEventSrc.obj
 0001:00021430       ??3UserAllocated@shdfnd@physx@@SAXPAX@Z 10022430 f i PsWindowsPAEventSrc.obj
 0001:00021460       ??_GConnImpl@shdfnd@physx@@QAEPAXI@Z 10022460 f i PsWindowsPAEventSrc.obj
 0001:000214a0       ?GetProcID@ConnImpl@shdfnd@physx@@QAEEXZ 100224a0 f i PsWindowsPAEventSrc.obj
 0001:000214d0       ?GetThreadPriority@ConnImpl@shdfnd@physx@@QAEIXZ 100224d0 f i PsWindowsPAEventSrc.obj
 0001:00021530       ?allocate@?$ReflectionAllocator@VConnImpl@shdfnd@physx@@@shdfnd@physx@@QAEPAXIPBDH@Z 10022530 f i PsWindowsPAEventSrc.obj
 0001:00021590       ?eventEnabled@ConnImpl@shdfnd@physx@@QAE_NG@Z 10022590 f i PsWindowsPAEventSrc.obj
 0001:000215d0       ?eventLoggingEnabled@ConnImpl@shdfnd@physx@@QAE_NXZ 100225d0 f i PsWindowsPAEventSrc.obj
 0001:00021610       ?getName@?$ReflectionAllocator@VConnImpl@shdfnd@physx@@@shdfnd@physx@@CAPBDXZ 10022610 f i PsWindowsPAEventSrc.obj
 0001:00021660       ?registerEvent@ConnImpl@shdfnd@physx@@QAEGPBD@Z 10022660 f i PsWindowsPAEventSrc.obj
 0001:000216a0       ?submitEvent@ConnImpl@shdfnd@physx@@QAE_NGIIE@Z 100226a0 f i PsWindowsPAEventSrc.obj
 0001:000216f0       ?printFormatted@shdfnd@physx@@YAXPBDZZ 100226f0 f   PsWindowsPrintString.obj
 0001:00021740       ?printString@shdfnd@physx@@YAXPBD@Z 10022740 f   PsWindowsPrintString.obj
 0001:00021790       ??0SListImpl@shdfnd@physx@@QAE@XZ 10022790 f   PsWindowsSList.obj
 0001:000217c0       ??1SListImpl@shdfnd@physx@@QAE@XZ 100227c0 f   PsWindowsSList.obj
 0001:000217d0       ?push@SListImpl@shdfnd@physx@@QAEXPAVSListEntry@23@@Z 100227d0 f   PsWindowsSList.obj
 0001:00021800       ?pop@SListImpl@shdfnd@physx@@QAEPAVSListEntry@23@XZ 10022800 f   PsWindowsSList.obj
 0001:00021820       ?flush@SListImpl@shdfnd@physx@@QAEPAVSListEntry@23@XZ 10022820 f   PsWindowsSList.obj
 0001:00021840       ?getSize@SListImpl@shdfnd@physx@@SAABIXZ 10022840 f   PsWindowsSList.obj
 0001:00021880       ??$getDetail@USListImpl@shdfnd@physx@@@?A0x65960a6c@shdfnd@physx@@YAPAT_SLIST_HEADER@@PAUSListImpl@12@@Z 10022880 f i PsWindowsSList.obj
 0001:00021890       ??4SListImpl@shdfnd@physx@@QAEAAU012@ABU012@@Z 10022890 f i PsWindowsSList.obj
 0001:000218b0       ??0Socket@shdfnd@physx@@QAE@_N@Z 100228b0 f   PsWindowsSocket.obj
 0001:000219a0       ??1Socket@shdfnd@physx@@UAE@XZ 100229a0 f   PsWindowsSocket.obj
 0001:00021a00       ?connect@Socket@shdfnd@physx@@QAE_NPBDGI@Z 10022a00 f   PsWindowsSocket.obj
 0001:00021a30       ?listen@Socket@shdfnd@physx@@QAE_NGPAVConnection@123@@Z 10022a30 f   PsWindowsSocket.obj
 0001:00021a60       ?disconnect@Socket@shdfnd@physx@@QAEXXZ 10022a60 f   PsWindowsSocket.obj
 0001:00021a80       ?isConnected@Socket@shdfnd@physx@@QBE_NXZ 10022a80 f   PsWindowsSocket.obj
 0001:00021aa0       ?getHost@Socket@shdfnd@physx@@QBEPBDXZ 10022aa0 f   PsWindowsSocket.obj
 0001:00021ac0       ?getPort@Socket@shdfnd@physx@@QBEGXZ 10022ac0 f   PsWindowsSocket.obj
 0001:00021ae0       ?flush@Socket@shdfnd@physx@@QAE_NXZ 10022ae0 f   PsWindowsSocket.obj
 0001:00021b20       ?write@Socket@shdfnd@physx@@QAEIPBEI@Z 10022b20 f   PsWindowsSocket.obj
 0001:00021b60       ?read@Socket@shdfnd@physx@@QAEIPAEI@Z 10022b60 f   PsWindowsSocket.obj
 0001:00021ba0       ?setBlocking@Socket@shdfnd@physx@@QAEX_N@Z 10022ba0 f   PsWindowsSocket.obj
 0001:00021be0       ?isBlocking@Socket@shdfnd@physx@@QBE_NXZ 10022be0 f   PsWindowsSocket.obj
 0001:00021c10       ??0SocketImpl@shdfnd@physx@@QAE@XZ 10022c10 f   PsWindowsSocket.obj
 0001:00021cd0       ??1SocketImpl@shdfnd@physx@@UAE@XZ 10022cd0 f   PsWindowsSocket.obj
 0001:00021d00       ?connect@SocketImpl@shdfnd@physx@@QAE_NPBDGI@Z 10022d00 f   PsWindowsSocket.obj
 0001:00021fa0       ?listen@SocketImpl@shdfnd@physx@@QAE_NGPAVConnection@Socket@23@@Z 10022fa0 f   PsWindowsSocket.obj
 0001:00022070       ?disconnect@SocketImpl@shdfnd@physx@@QAEXXZ 10023070 f   PsWindowsSocket.obj
 0001:00022100       ?setBlocking@SocketImpl@shdfnd@physx@@QAEX_N@Z 10023100 f   PsWindowsSocket.obj
 0001:00022160       ?write@SocketImpl@shdfnd@physx@@UAEIPBEI@Z 10023160 f   PsWindowsSocket.obj
 0001:000221c0       ?flush@SocketImpl@shdfnd@physx@@UAE_NXZ 100231c0 f   PsWindowsSocket.obj
 0001:000221d0       ?read@SocketImpl@shdfnd@physx@@QAEIPAEI@Z 100231d0 f   PsWindowsSocket.obj
 0001:00022290       ?execute@SocketImpl@shdfnd@physx@@UAEXXZ 10023290 f   PsWindowsSocket.obj
 0001:00022300       ??0BufferedSocketImpl@shdfnd@physx@@QAE@XZ 10023300 f   PsWindowsSocket.obj
 0001:00022330       ?flush@BufferedSocketImpl@shdfnd@physx@@UAE_NXZ 10023330 f   PsWindowsSocket.obj
 0001:000223c0       ?write@BufferedSocketImpl@shdfnd@physx@@UAEIPBEI@Z 100233c0 f   PsWindowsSocket.obj
 0001:000227d0       ??0?$ReflectionAllocator@VThreadImpl@shdfnd@physx@@@shdfnd@physx@@QAE@ABV012@@Z 100237d0 f i PsWindowsSocket.obj
 0001:000227f0       ??0?$ReflectionAllocator@VThreadImpl@shdfnd@physx@@@shdfnd@physx@@QAE@PBD@Z 100237f0 f i PsWindowsSocket.obj
 0001:00022810       ??0?$ThreadT@V?$ReflectionAllocator@VThreadImpl@shdfnd@physx@@@shdfnd@physx@@@shdfnd@physx@@QAE@ABV?$ReflectionAllocator@VThreadImpl@shdfnd@physx@@@12@@Z 10023810 f i PsWindowsSocket.obj
 0001:000228c0       ??0Runnable@shdfnd@physx@@QAE@XZ 100238c0 f i PsWindowsSocket.obj
 0001:000228e0       ??0Socket@shdfnd@physx@@QAE@ABV012@@Z 100238e0 f i PsWindowsSocket.obj
 0001:00022930       ??1?$ThreadT@V?$ReflectionAllocator@VThreadImpl@shdfnd@physx@@@shdfnd@physx@@@shdfnd@physx@@UAE@XZ 10023930 f i PsWindowsSocket.obj
 0001:00022980       ??1BufferedSocketImpl@shdfnd@physx@@UAE@XZ 10023980 f i PsWindowsSocket.obj
 0001:000229b0       ??1Runnable@shdfnd@physx@@UAE@XZ 100239b0 f i PsWindowsSocket.obj
 0001:000229d0       ??2UserAllocated@shdfnd@physx@@SAPAXIPAX@Z 100239d0 f i PsWindowsSocket.obj
 0001:000229e0       ??4Socket@shdfnd@physx@@QAEAAV012@ABV012@@Z 100239e0 f i PsWindowsSocket.obj
 0001:00022a10       ??_ESocket@shdfnd@physx@@UAEPAXI@Z 10023a10 f i PsWindowsSocket.obj
 0001:00022aa0       ??_FSocket@shdfnd@physx@@QAEXXZ 10023aa0 f i PsWindowsSocket.obj
 0001:00022ac0       ??_E?$ThreadT@V?$ReflectionAllocator@VThreadImpl@shdfnd@physx@@@shdfnd@physx@@@shdfnd@physx@@UAEPAXI@Z 10023ac0 f i PsWindowsSocket.obj
 0001:00022ac0       ??_G?$ThreadT@V?$ReflectionAllocator@VThreadImpl@shdfnd@physx@@@shdfnd@physx@@@shdfnd@physx@@UAEPAXI@Z 10023ac0 f i PsWindowsSocket.obj
 0001:00022b00       ??_GBufferedSocketImpl@shdfnd@physx@@UAEPAXI@Z 10023b00 f i PsWindowsSocket.obj
 0001:00022b00       ??_EBufferedSocketImpl@shdfnd@physx@@UAEPAXI@Z 10023b00 f i PsWindowsSocket.obj
 0001:00022b40       ??_ERunnable@shdfnd@physx@@UAEPAXI@Z 10023b40 f i PsWindowsSocket.obj
 0001:00022b40       ??_GRunnable@shdfnd@physx@@UAEPAXI@Z 10023b40 f i PsWindowsSocket.obj
 0001:00022b80       ??_GSocket@shdfnd@physx@@UAEPAXI@Z 10023b80 f i PsWindowsSocket.obj
 0001:00022bc0       ??_GSocketImpl@shdfnd@physx@@UAEPAXI@Z 10023bc0 f i PsWindowsSocket.obj
 0001:00022bc0       ??_ESocketImpl@shdfnd@physx@@UAEPAXI@Z 10023bc0 f i PsWindowsSocket.obj
 0001:00022c00       ??_GThreadImpl@shdfnd@physx@@QAEPAXI@Z 10023c00 f i PsWindowsSocket.obj
 0001:00022c40       ??_VUserAllocated@shdfnd@physx@@SAXPAX@Z 10023c40 f i PsWindowsSocket.obj
 0001:00022c70       ?PxMemCopy@physx@@YAPAXPIAXPIBXI@Z 10023c70 f i PsWindowsSocket.obj
 0001:00022c90       ?PxMemSet@physx@@YAPAXPIAXHI@Z 10023c90 f i PsWindowsSocket.obj
 0001:00022cb0       ?allocate@?$ReflectionAllocator@VThreadImpl@shdfnd@physx@@@shdfnd@physx@@QAEPAXIPBDH@Z 10023cb0 f i PsWindowsSocket.obj
 0001:00022d10       ?deallocate@?$ReflectionAllocator@VThreadImpl@shdfnd@physx@@@shdfnd@physx@@QAEXPAX@Z 10023d10 f i PsWindowsSocket.obj
 0001:00022d50       ?execute@?$ThreadT@V?$ReflectionAllocator@VThreadImpl@shdfnd@physx@@@shdfnd@physx@@@shdfnd@physx@@UAEXXZ 10023d50 f i PsWindowsSocket.obj
 0001:00022d60       ?execute@Runnable@shdfnd@physx@@UAEXXZ 10023d60 f i PsWindowsSocket.obj
 0001:00022d70       ?getDefaultStackSize@?$ThreadT@V?$ReflectionAllocator@VThreadImpl@shdfnd@physx@@@shdfnd@physx@@@shdfnd@physx@@SAIXZ 10023d70 f i PsWindowsSocket.obj
 0001:00022d80       ?getHost@SocketImpl@shdfnd@physx@@QBEPBDXZ 10023d80 f i PsWindowsSocket.obj
 0001:00022da0       ?getName@?$ReflectionAllocator@VThreadImpl@shdfnd@physx@@@shdfnd@physx@@CAPBDXZ 10023da0 f i PsWindowsSocket.obj
 0001:00022df0       ?getPort@SocketImpl@shdfnd@physx@@QBEGXZ 10023df0 f i PsWindowsSocket.obj
 0001:00022e10       ?isBlocking@SocketImpl@shdfnd@physx@@QBE_NXZ 10023e10 f i PsWindowsSocket.obj
 0001:00022e30       ?isConnected@SocketImpl@shdfnd@physx@@QBE_NXZ 10023e30 f i PsWindowsSocket.obj
 0001:00022e50       ?memCopy@intrinsics@physx@@YAPAXPIAXPIBXI@Z 10023e50 f i PsWindowsSocket.obj
 0001:00022e70       ?memSet@intrinsics@physx@@YAPAXPIAXHI@Z 10023e70 f i PsWindowsSocket.obj
 0001:00022e90       ?quit@?$ThreadT@V?$ReflectionAllocator@VThreadImpl@shdfnd@physx@@@shdfnd@physx@@@shdfnd@physx@@QAEXXZ 10023e90 f i PsWindowsSocket.obj
 0001:00022eb0       ?quitIsSignalled@?$ThreadT@V?$ReflectionAllocator@VThreadImpl@shdfnd@physx@@@shdfnd@physx@@@shdfnd@physx@@QAE_NXZ 10023eb0 f i PsWindowsSocket.obj
 0001:00022ed0       ?signalQuit@?$ThreadT@V?$ReflectionAllocator@VThreadImpl@shdfnd@physx@@@shdfnd@physx@@@shdfnd@physx@@QAEXXZ 10023ed0 f i PsWindowsSocket.obj
 0001:00022ef0       ?sleep@?$ThreadT@V?$ReflectionAllocator@VThreadImpl@shdfnd@physx@@@shdfnd@physx@@@shdfnd@physx@@SAXI@Z 10023ef0 f i PsWindowsSocket.obj
 0001:00022f10       ?start@?$ThreadT@V?$ReflectionAllocator@VThreadImpl@shdfnd@physx@@@shdfnd@physx@@@shdfnd@physx@@QAEXI@Z 10023f10 f i PsWindowsSocket.obj
 0001:00022f40       ?waitForQuit@?$ThreadT@V?$ReflectionAllocator@VThreadImpl@shdfnd@physx@@@shdfnd@physx@@@shdfnd@physx@@QAE_NXZ 10023f40 f i PsWindowsSocket.obj
 0001:00022f60       ??0SyncImpl@shdfnd@physx@@QAE@XZ 10023f60 f   PsWindowsSync.obj
 0001:00022f90       ??1SyncImpl@shdfnd@physx@@QAE@XZ 10023f90 f   PsWindowsSync.obj
 0001:00022fb0       ?wait@SyncImpl@shdfnd@physx@@QAE_NI@Z 10023fb0 f   PsWindowsSync.obj
 0001:00023000       ?set@SyncImpl@shdfnd@physx@@QAEXXZ 10024000 f   PsWindowsSync.obj
 0001:00023020       ?reset@SyncImpl@shdfnd@physx@@QAEXXZ 10024020 f   PsWindowsSync.obj
 0001:00023040       ?getSize@SyncImpl@shdfnd@physx@@SAABIXZ 10024040 f   PsWindowsSync.obj
 0001:00023050       ?getSync@?A0x8141929d@shdfnd@physx@@YAAAPAXPAVSyncImpl@23@@Z 10024050 f   PsWindowsSync.obj
 0001:000230a0       ??4SyncImpl@shdfnd@physx@@QAEAAV012@ABV012@@Z 100240a0 f i PsWindowsSync.obj
 0001:000230c0       ?getDefaultStackSize@ThreadImpl@shdfnd@physx@@SAIXZ 100240c0 f   PsWindowsThread.obj
 0001:000230d0       ?getId@ThreadImpl@shdfnd@physx@@SAIXZ 100240d0 f   PsWindowsThread.obj
 0001:000230e0       ??0ThreadImpl@shdfnd@physx@@QAE@XZ 100240e0 f   PsWindowsThread.obj
 0001:00023160       ??0ThreadImpl@shdfnd@physx@@QAE@P6APAXPAX@Z0@Z 10024160 f   PsWindowsThread.obj
 0001:000231f0       ??1ThreadImpl@shdfnd@physx@@QAE@XZ 100241f0 f   PsWindowsThread.obj
 0001:00023230       ?start@ThreadImpl@shdfnd@physx@@QAEXIPAVRunnable@23@@Z 10024230 f   PsWindowsThread.obj
 0001:00023320       ?kill@ThreadImpl@shdfnd@physx@@QAEXXZ 10024320 f   PsWindowsThread.obj
 0001:00023370       ?signalQuit@ThreadImpl@shdfnd@physx@@QAEXXZ 10024370 f   PsWindowsThread.obj
 0001:000233a0       ?waitForQuit@ThreadImpl@shdfnd@physx@@QAE_NXZ 100243a0 f   PsWindowsThread.obj
 0001:000233e0       ?quitIsSignalled@ThreadImpl@shdfnd@physx@@QAE_NXZ 100243e0 f   PsWindowsThread.obj
 0001:00023420       ?quit@ThreadImpl@shdfnd@physx@@QAEXXZ 10024420 f   PsWindowsThread.obj
 0001:00023450       ?setAffinityMask@ThreadImpl@shdfnd@physx@@QAEII@Z 10024450 f   PsWindowsThread.obj
 0001:000234b0       ?getPriority@ThreadImpl@shdfnd@physx@@SA?AW4Enum@ThreadPriority@23@I@Z 100244b0 f   PsWindowsThread.obj
 0001:00023510       ?setPriority@ThreadImpl@shdfnd@physx@@QAEXW4Enum@ThreadPriority@23@@Z 10024510 f   PsWindowsThread.obj
 0001:000235d0       ?setName@ThreadImpl@shdfnd@physx@@QAEXPBD@Z 100245d0 f   PsWindowsThread.obj
 0001:00023670       ?sleep@ThreadImpl@shdfnd@physx@@SAXI@Z 10024670 f   PsWindowsThread.obj
 0001:00023680       ?yield@ThreadImpl@shdfnd@physx@@SAXXZ 10024680 f   PsWindowsThread.obj
 0001:00023690       ?getNbPhysicalCores@ThreadImpl@shdfnd@physx@@SAIXZ 10024690 f   PsWindowsThread.obj
 0001:00023810       ?getSize@ThreadImpl@shdfnd@physx@@SAABIXZ 10024810 f   PsWindowsThread.obj
 0001:00023820       ?TlsAlloc@shdfnd@physx@@YAIXZ 10024820 f   PsWindowsThread.obj
 0001:00023880       ?TlsFree@shdfnd@physx@@YAXI@Z 10024880 f   PsWindowsThread.obj
 0001:00023890       ?TlsGet@shdfnd@physx@@YAPAXI@Z 10024890 f   PsWindowsThread.obj
 0001:000238a0       ?TlsSet@shdfnd@physx@@YAIIPAX@Z 100248a0 f   PsWindowsThread.obj
 0001:000238c0       ?getThread@?A0xa6256d9c@shdfnd@physx@@YAPAV_ThreadImpl@123@PAVThreadImpl@23@@Z 100248c0 f   PsWindowsThread.obj
 0001:000238d0       ?PxThreadStart@?A0xa6256d9c@shdfnd@physx@@YGKPAX@Z 100248d0 f   PsWindowsThread.obj
 0001:00023b40       ??$PX_UNUSED@K@@YAXABK@Z   10024b40 f i PsWindowsThread.obj
 0001:00023b50       ?getBootCounterFrequency@Time@shdfnd@physx@@SAABUCounterFrequencyToTensOfNanos@23@XZ 10024b50 f   PsWindowsTime.obj
 0001:00023b60       ?getCounterFrequency@Time@shdfnd@physx@@SA?AUCounterFrequencyToTensOfNanos@23@XZ 10024b60 f   PsWindowsTime.obj
 0001:00023b90       ?getCurrentCounterValue@Time@shdfnd@physx@@SA_KXZ 10024b90 f   PsWindowsTime.obj
 0001:00023bb0       ??0Time@shdfnd@physx@@QAE@XZ 10024bb0 f   PsWindowsTime.obj
 0001:00023be0       ?getElapsedSeconds@Time@shdfnd@physx@@QAENXZ 10024be0 f   PsWindowsTime.obj
 0001:00023c30       ?peekElapsedSeconds@Time@shdfnd@physx@@QAENXZ 10024c30 f   PsWindowsTime.obj
 0001:00023c70       ?getLastTime@Time@shdfnd@physx@@QBENXZ 10024c70 f   PsWindowsTime.obj
 0001:00023ca0       ?getTimeTicks@?A0x7e2a37ff@@YA_JXZ 10024ca0 f   PsWindowsTime.obj
 0001:00023cc0       ?getTickDuration@?A0x7e2a37ff@@YANXZ 10024cc0 f   PsWindowsTime.obj
 0001:00023d60       ??0CounterFrequencyToTensOfNanos@shdfnd@physx@@QAE@_K0@Z 10024d60 f i PsWindowsTime.obj
 0001:00023da0       ??4Time@shdfnd@physx@@QAEAAV012@ABV012@@Z 10024da0 f i PsWindowsTime.obj
 0001:00023dd0       ?getCurrentTimeInTensOfNanoSeconds@Time@shdfnd@physx@@SA_KXZ 10024dd0 f i PsWindowsTime.obj
 0001:00023e10       ?toTensOfNanos@CounterFrequencyToTensOfNanos@shdfnd@physx@@QBE_K_K@Z 10024e10 f i PsWindowsTime.obj
 0001:00023e60       ?allocate@Allocator@shdfnd@physx@@QAEPAXIPBDH@Z 10024e60 f   PsAllocator.obj
 0001:00023ea0       ?deallocate@Allocator@shdfnd@physx@@QAEXPAX@Z 10024ea0 f   PsAllocator.obj
 0001:00023ed0       ??0NamedAllocator@shdfnd@physx@@QAE@ABW4PxEMPTY@2@@Z 10024ed0 f   PsAllocator.obj
 0001:00023f10       ??0NamedAllocator@shdfnd@physx@@QAE@PBD@Z 10024f10 f   PsAllocator.obj
 0001:00023f50       ??0NamedAllocator@shdfnd@physx@@QAE@ABV012@@Z 10024f50 f   PsAllocator.obj
 0001:00023fe0       ??1NamedAllocator@shdfnd@physx@@QAE@XZ 10024fe0 f   PsAllocator.obj
 0001:00024070       ??4NamedAllocator@shdfnd@physx@@QAEAAV012@ABV012@@Z 10025070 f   PsAllocator.obj
 0001:00024110       ?allocate@NamedAllocator@shdfnd@physx@@QAEPAXIPBDH@Z 10025110 f   PsAllocator.obj
 0001:000241c0       ?deallocate@NamedAllocator@shdfnd@physx@@QAEXPAX@Z 100251c0 f   PsAllocator.obj
 0001:000242e0       ??$PX_UNUSED@_N@@YAXAB_N@Z 100252e0 f i PsAllocator.obj
 0001:000242f0       ??0?$Pair@QBVNamedAllocator@shdfnd@physx@@PBD@shdfnd@physx@@QAE@ABQBVNamedAllocator@12@ABQBD@Z 100252f0 f i PsAllocator.obj
 0001:00024320       ??0?$Pair@QBVNamedAllocator@shdfnd@physx@@PBD@shdfnd@physx@@QAE@ABV012@@Z 10025320 f i PsAllocator.obj
 0001:00024350       ??0ScopedLock@?$MutexT@VAllocator@shdfnd@physx@@@shdfnd@physx@@QAE@AAV123@@Z 10025350 f i PsAllocator.obj
 0001:00024380       ??1ScopedLock@?$MutexT@VAllocator@shdfnd@physx@@@shdfnd@physx@@QAE@XZ 10025380 f i PsAllocator.obj
 0001:000243a0       ??A?$HashMapBase@PBVNamedAllocator@shdfnd@physx@@PBDU?$Hash@PBVNamedAllocator@shdfnd@physx@@@23@VNonTrackingAllocator@23@@internal@shdfnd@physx@@QAEAAPBDABQBVNamedAllocator@23@@Z 100253a0 f i PsAllocator.obj
 0001:00024430       ??R?$Hash@PBVNamedAllocator@shdfnd@physx@@@shdfnd@physx@@QBEIABQBVNamedAllocator@12@@Z 10025430 f i PsAllocator.obj
 0001:00024460       ??R?$Hash@PBVNamedAllocator@shdfnd@physx@@@shdfnd@physx@@QBE_NABQBVNamedAllocator@12@0@Z 10025460 f i PsAllocator.obj
 0001:000244a0       ??RGetKey@?$HashMapBase@PBVNamedAllocator@shdfnd@physx@@PBDU?$Hash@PBVNamedAllocator@shdfnd@physx@@@23@VNonTrackingAllocator@23@@internal@shdfnd@physx@@QAEABQBVNamedAllocator@34@ABV?$Pair@QBVNamedAllocator@shdfnd@physx@@PBD@34@@Z 100254a0 f i PsAllocator.obj
 0001:000244c0       ?allocate@NonTrackingAllocator@shdfnd@physx@@QAEPAXIPBDH@Z 100254c0 f i PsAllocator.obj
 0001:00024520       ?create@?$HashBase@V?$Pair@QBVNamedAllocator@shdfnd@physx@@PBD@shdfnd@physx@@PBVNamedAllocator@23@U?$Hash@PBVNamedAllocator@shdfnd@physx@@@23@UGetKey@?$HashMapBase@PBVNamedAllocator@shdfnd@physx@@PBDU?$Hash@PBVNamedAllocator@shdfnd@physx@@@23@VNonTrackingAllocator@23@@internal@23@VNonTrackingAllocator@23@$00@internal@shdfnd@physx@@QAEPAV?$Pair@QBVNamedAllocator@shdfnd@physx@@PBD@34@ABQBVNamedAllocator@34@AA_N@Z 10025520 f i PsAllocator.obj
 0001:000246d0       ?deallocate@NonTrackingAllocator@shdfnd@physx@@QAEXPAX@Z 100256d0 f i PsAllocator.obj
 0001:00024720       ?erase@?$HashBase@V?$Pair@QBVNamedAllocator@shdfnd@physx@@PBD@shdfnd@physx@@PBVNamedAllocator@23@U?$Hash@PBVNamedAllocator@shdfnd@physx@@@23@UGetKey@?$HashMapBase@PBVNamedAllocator@shdfnd@physx@@PBDU?$Hash@PBVNamedAllocator@shdfnd@physx@@@23@VNonTrackingAllocator@23@@internal@23@VNonTrackingAllocator@23@$00@internal@shdfnd@physx@@QAE_NABQBVNamedAllocator@34@@Z 10025720 f i PsAllocator.obj
 0001:00024860       ?erase@?$HashMapBase@PBVNamedAllocator@shdfnd@physx@@PBDU?$Hash@PBVNamedAllocator@shdfnd@physx@@@23@VNonTrackingAllocator@23@@internal@shdfnd@physx@@QAE_NABQBVNamedAllocator@34@@Z 10025860 f i PsAllocator.obj
 0001:00024880       ?find@?$HashBase@V?$Pair@QBVNamedAllocator@shdfnd@physx@@PBD@shdfnd@physx@@PBVNamedAllocator@23@U?$Hash@PBVNamedAllocator@shdfnd@physx@@@23@UGetKey@?$HashMapBase@PBVNamedAllocator@shdfnd@physx@@PBDU?$Hash@PBVNamedAllocator@shdfnd@physx@@@23@VNonTrackingAllocator@23@@internal@23@VNonTrackingAllocator@23@$00@internal@shdfnd@physx@@QBEPBV?$Pair@QBVNamedAllocator@shdfnd@physx@@PBD@34@ABQBVNamedAllocator@34@@Z 10025880 f i PsAllocator.obj
 0001:00024960       ?find@?$HashMapBase@PBVNamedAllocator@shdfnd@physx@@PBDU?$Hash@PBVNamedAllocator@shdfnd@physx@@@23@VNonTrackingAllocator@23@@internal@shdfnd@physx@@QBEPBV?$Pair@QBVNamedAllocator@shdfnd@physx@@PBD@34@ABQBVNamedAllocator@34@@Z 10025960 f i PsAllocator.obj
 0001:00024980       ?freeListAdd@?$HashBase@V?$Pair@QBVNamedAllocator@shdfnd@physx@@PBD@shdfnd@physx@@PBVNamedAllocator@23@U?$Hash@PBVNamedAllocator@shdfnd@physx@@@23@UGetKey@?$HashMapBase@PBVNamedAllocator@shdfnd@physx@@PBDU?$Hash@PBVNamedAllocator@shdfnd@physx@@@23@VNonTrackingAllocator@23@@internal@23@VNonTrackingAllocator@23@$00@internal@shdfnd@physx@@AAEXI@Z 10025980 f i PsAllocator.obj
 0001:00024a30       ?freeListAdd@?$HashBase@V?$Pair@QBVNamedAllocator@shdfnd@physx@@PBD@shdfnd@physx@@PBVNamedAllocator@23@U?$Hash@PBVNamedAllocator@shdfnd@physx@@@23@UGetKey@?$HashMapBase@PBVNamedAllocator@shdfnd@physx@@PBDU?$Hash@PBVNamedAllocator@shdfnd@physx@@@23@VNonTrackingAllocator@23@@internal@23@VNonTrackingAllocator@23@$00@internal@shdfnd@physx@@AAEXII@Z 10025a30 f i PsAllocator.obj
 0001:00024b20       ?freeListEmpty@?$HashBase@V?$Pair@QBVNamedAllocator@shdfnd@physx@@PBD@shdfnd@physx@@PBVNamedAllocator@23@U?$Hash@PBVNamedAllocator@shdfnd@physx@@@23@UGetKey@?$HashMapBase@PBVNamedAllocator@shdfnd@physx@@PBDU?$Hash@PBVNamedAllocator@shdfnd@physx@@@23@VNonTrackingAllocator@23@@internal@23@VNonTrackingAllocator@23@$00@internal@shdfnd@physx@@ABE_NXZ 10025b20 f i PsAllocator.obj
 0001:00024b90       ?freeListGetNext@?$HashBase@V?$Pair@QBVNamedAllocator@shdfnd@physx@@PBD@shdfnd@physx@@PBVNamedAllocator@23@U?$Hash@PBVNamedAllocator@shdfnd@physx@@@23@UGetKey@?$HashMapBase@PBVNamedAllocator@shdfnd@physx@@PBDU?$Hash@PBVNamedAllocator@shdfnd@physx@@@23@VNonTrackingAllocator@23@@internal@23@VNonTrackingAllocator@23@$00@internal@shdfnd@physx@@AAEIXZ 10025b90 f i PsAllocator.obj
 0001:00024cb0       ?getMap@?A0xaba39963@shdfnd@physx@@YAAAV?$HashMap@PBVNamedAllocator@shdfnd@physx@@PBDU?$Hash@PBVNamedAllocator@shdfnd@physx@@@23@VNonTrackingAllocator@23@@23@XZ 10025cb0 f i PsAllocator.obj
 0001:00024cd0       ?getMutex@?A0xaba39963@shdfnd@physx@@YAAAV?$MutexT@VAllocator@shdfnd@physx@@@23@XZ 10025cd0 f i PsAllocator.obj
 0001:00024cf0       ?grow@?$HashBase@V?$Pair@QBVNamedAllocator@shdfnd@physx@@PBD@shdfnd@physx@@PBVNamedAllocator@23@U?$Hash@PBVNamedAllocator@shdfnd@physx@@@23@UGetKey@?$HashMapBase@PBVNamedAllocator@shdfnd@physx@@PBDU?$Hash@PBVNamedAllocator@shdfnd@physx@@@23@VNonTrackingAllocator@23@@internal@23@VNonTrackingAllocator@23@$00@internal@shdfnd@physx@@AAEXXZ 10025cf0 f i PsAllocator.obj
 0001:00024db0       ?hash@?$HashBase@V?$Pair@QBVNamedAllocator@shdfnd@physx@@PBD@shdfnd@physx@@PBVNamedAllocator@23@U?$Hash@PBVNamedAllocator@shdfnd@physx@@@23@UGetKey@?$HashMapBase@PBVNamedAllocator@shdfnd@physx@@PBDU?$Hash@PBVNamedAllocator@shdfnd@physx@@@23@VNonTrackingAllocator@23@@internal@23@VNonTrackingAllocator@23@$00@internal@shdfnd@physx@@ABEIABQBVNamedAllocator@34@@Z 10025db0 f i PsAllocator.obj
 0001:00024de0       ?hash@?$HashBase@V?$Pair@QBVNamedAllocator@shdfnd@physx@@PBD@shdfnd@physx@@PBVNamedAllocator@23@U?$Hash@PBVNamedAllocator@shdfnd@physx@@@23@UGetKey@?$HashMapBase@PBVNamedAllocator@shdfnd@physx@@PBDU?$Hash@PBVNamedAllocator@shdfnd@physx@@@23@VNonTrackingAllocator@23@@internal@23@VNonTrackingAllocator@23@$00@internal@shdfnd@physx@@ABEIABQBVNamedAllocator@34@I@Z 10025de0 f i PsAllocator.obj
 0001:00024e20       ?hash@shdfnd@physx@@YAII@Z 10025e20 f i PsAllocator.obj
 0001:00024ea0       ?hash@shdfnd@physx@@YAIPBX@Z 10025ea0 f i PsAllocator.obj
 0001:00024ec0       ?insert@?$HashMapBase@PBVNamedAllocator@shdfnd@physx@@PBDU?$Hash@PBVNamedAllocator@shdfnd@physx@@@23@VNonTrackingAllocator@23@@internal@shdfnd@physx@@QAE_NQBVNamedAllocator@34@QBD@Z 10025ec0 f i PsAllocator.obj
 0001:00024f60       ?isPowerOfTwo@shdfnd@physx@@YA_NI@Z 10025f60 f i PsAllocator.obj
 0001:00024fa0       ?lock@?$MutexT@VAllocator@shdfnd@physx@@@shdfnd@physx@@QBEXXZ 10025fa0 f i PsAllocator.obj
 0001:00024fc0       ?nextPowerOfTwo@shdfnd@physx@@YAII@Z 10025fc0 f i PsAllocator.obj
 0001:00025020       ?replaceWithLast@?$HashBase@V?$Pair@QBVNamedAllocator@shdfnd@physx@@PBD@shdfnd@physx@@PBVNamedAllocator@23@U?$Hash@PBVNamedAllocator@shdfnd@physx@@@23@UGetKey@?$HashMapBase@PBVNamedAllocator@shdfnd@physx@@PBDU?$Hash@PBVNamedAllocator@shdfnd@physx@@@23@VNonTrackingAllocator@23@@internal@23@VNonTrackingAllocator@23@$00@internal@shdfnd@physx@@AAEXI@Z 10026020 f i PsAllocator.obj
 0001:00025170       ?reserve@?$HashBase@V?$Pair@QBVNamedAllocator@shdfnd@physx@@PBD@shdfnd@physx@@PBVNamedAllocator@23@U?$Hash@PBVNamedAllocator@shdfnd@physx@@@23@UGetKey@?$HashMapBase@PBVNamedAllocator@shdfnd@physx@@PBDU?$Hash@PBVNamedAllocator@shdfnd@physx@@@23@VNonTrackingAllocator@23@@internal@23@VNonTrackingAllocator@23@$00@internal@shdfnd@physx@@QAEXI@Z 10026170 f i PsAllocator.obj
 0001:000251a0       ?reserveInternal@?$HashBase@V?$Pair@QBVNamedAllocator@shdfnd@physx@@PBD@shdfnd@physx@@PBVNamedAllocator@23@U?$Hash@PBVNamedAllocator@shdfnd@physx@@@23@UGetKey@?$HashMapBase@PBVNamedAllocator@shdfnd@physx@@PBDU?$Hash@PBVNamedAllocator@shdfnd@physx@@@23@VNonTrackingAllocator@23@@internal@23@VNonTrackingAllocator@23@$00@internal@shdfnd@physx@@AAEXI@Z 100261a0 f i PsAllocator.obj
 0001:00025660       ?unlock@?$MutexT@VAllocator@shdfnd@physx@@@shdfnd@physx@@QBEXXZ 10026660 f i PsAllocator.obj
 0001:00025680       ?PxGetAssertHandler@physx@@YAAAVPxAssertHandler@1@XZ 10026680 f   PsAssert.obj
 0001:00025690       ?PxSetAssertHandler@physx@@YAXAAVPxAssertHandler@1@@Z 10026690 f   PsAssert.obj
 0001:000256b0       ??0DefaultAssertHandler@?A0x8c7671c9@@QAE@XZ 100266b0 f i PsAssert.obj
 0001:000256e0       ??0PxAssertHandler@physx@@QAE@XZ 100266e0 f i PsAssert.obj
 0001:00025700       ??1DefaultAssertHandler@?A0x8c7671c9@@UAE@XZ 10026700 f i PsAssert.obj
 0001:00025720       ??1PxAssertHandler@physx@@UAE@XZ 10026720 f i PsAssert.obj
 0001:00025740       ??RDefaultAssertHandler@?A0x8c7671c9@@EAEXPBD0HAA_N@Z 10026740 f i PsAssert.obj
 0001:00025820       ??_GDefaultAssertHandler@?A0x8c7671c9@@UAEPAXI@Z 10026820 f i PsAssert.obj
 0001:00025820       ??_EDefaultAssertHandler@?A0x8c7671c9@@UAEPAXI@Z 10026820 f i PsAssert.obj
 0001:00025860       ??_EPxAssertHandler@physx@@UAEPAXI@Z 10026860 f i PsAssert.obj
 0001:00025860       ??_GPxAssertHandler@physx@@UAEPAXI@Z 10026860 f i PsAssert.obj
 0001:000258a0       ??0ErrorHandler@shdfnd@physx@@QAE@XZ 100268a0 f   PsErrorHandler.obj
 0001:000258f0       ??1ErrorHandler@shdfnd@physx@@QAE@XZ 100268f0 f   PsErrorHandler.obj
 0001:00025950       ?reportError@ErrorHandler@shdfnd@physx@@QAEXW4Enum@PxErrorCode@3@PBD1H@Z 10026950 f   PsErrorHandler.obj
 0001:000259d0       ?registerErrorCallback@ErrorHandler@shdfnd@physx@@QAEHAAVPxErrorCallback@3@@Z 100269d0 f   PsErrorHandler.obj
 0001:00025aa0       ?unRegisterErrorCallback@ErrorHandler@shdfnd@physx@@QAEXAAVPxErrorCallback@3@@Z 10026aa0 f   PsErrorHandler.obj
 0001:00025af0       ?unRegisterErrorCallback@ErrorHandler@shdfnd@physx@@QAEXH@Z 10026af0 f   PsErrorHandler.obj
 0001:00025c10       ?getMutex@?A0x322ecad1@@YAAAV?$MutexT@VAllocator@shdfnd@physx@@@shdfnd@physx@@XZ 10026c10 f i PsErrorHandler.obj
 0001:00025c30       ?lowestSetBit@shdfnd@physx@@YAII@Z 10026c30 f i PsErrorHandler.obj
 0001:00025c90       ?lowestSetBitUnsafe@shdfnd@physx@@YAII@Z 10026c90 f i PsErrorHandler.obj
 0001:00025cb0       ?createFastIPC@shdfnd@physx@@YAPAVPxIPC@12@AAW4ErrorCode@312@W4ConnectionType@312@PBDII_N3I@Z 10026cb0 f   PsFastIPC.obj
 0001:00025da0       ??$?2V?$ReflectionAllocator@VFastIPC@shdfnd@physx@@@shdfnd@physx@@@UserAllocated@shdfnd@physx@@SAPAXIV?$ReflectionAllocator@VFastIPC@shdfnd@physx@@@12@PBDH@Z 10026da0 f i PsFastIPC.obj
 0001:00025dc0       ??$?2V?$ReflectionAllocator@VMemoryMappedFile@shdfnd@physx@@@shdfnd@physx@@@UserAllocated@shdfnd@physx@@SAPAXIV?$ReflectionAllocator@VMemoryMappedFile@shdfnd@physx@@@12@PBDH@Z 10026dc0 f i PsFastIPC.obj
 0001:00025de0       ??$?2V?$ReflectionAllocator@VMultiPartData@PxRingBuffer@shdfnd@physx@@@shdfnd@physx@@@UserAllocated@shdfnd@physx@@SAPAXIV?$ReflectionAllocator@VMultiPartData@PxRingBuffer@shdfnd@physx@@@12@PBDH@Z 10026de0 f i PsFastIPC.obj
 0001:00025e00       ??$?2V?$ReflectionAllocator@VMultiPartPacket@PxRingBuffer@shdfnd@physx@@@shdfnd@physx@@@UserAllocated@shdfnd@physx@@SAPAXIV?$ReflectionAllocator@VMultiPartPacket@PxRingBuffer@shdfnd@physx@@@12@PBDH@Z 10026e00 f i PsFastIPC.obj
 0001:00025e20       ??0?$ReflectionAllocator@VFastIPC@shdfnd@physx@@@shdfnd@physx@@QAE@PBD@Z 10026e20 f i PsFastIPC.obj
 0001:00025e40       ??0?$ReflectionAllocator@VMemoryMappedFile@shdfnd@physx@@@shdfnd@physx@@QAE@PBD@Z 10026e40 f i PsFastIPC.obj
 0001:00025e60       ??0?$ReflectionAllocator@VMultiPartData@PxRingBuffer@shdfnd@physx@@@shdfnd@physx@@QAE@PBD@Z 10026e60 f i PsFastIPC.obj
 0001:00025e80       ??0?$ReflectionAllocator@VMultiPartPacket@PxRingBuffer@shdfnd@physx@@@shdfnd@physx@@QAE@PBD@Z 10026e80 f i PsFastIPC.obj
 0001:00025ea0       ??0FastIPC@shdfnd@physx@@QAE@AAW4ErrorCode@PxIPC@12@W4ConnectionType@412@PBDII_N3I@Z 10026ea0 f i PsFastIPC.obj
 0001:000263c0       ??0MultiPartData@PxRingBuffer@shdfnd@physx@@QAE@PBVMultiPartPacketHeader@123@@Z 100273c0 f i PsFastIPC.obj
 0001:00026450       ??0MultiPartPacket@PxRingBuffer@shdfnd@physx@@QAE@W4MessageType@123@PBXIIPAV123@@Z 10027450 f i PsFastIPC.obj
 0001:00026530       ??0PxIPC@shdfnd@physx@@QAE@XZ 10027530 f i PsFastIPC.obj
 0001:00026550       ??0PxRingBuffer@shdfnd@physx@@QAE@XZ 10027550 f i PsFastIPC.obj
 0001:000265f0       ??1FastIPC@shdfnd@physx@@UAE@XZ 100275f0 f i PsFastIPC.obj
 0001:000266b0       ??1MultiPartData@PxRingBuffer@shdfnd@physx@@QAE@XZ 100276b0 f i PsFastIPC.obj
 0001:000266e0       ??1MultiPartPacket@PxRingBuffer@shdfnd@physx@@QAE@XZ 100276e0 f i PsFastIPC.obj
 0001:00026710       ??1PxIPC@shdfnd@physx@@MAE@XZ 10027710 f i PsFastIPC.obj
 0001:00026730       ??1PxRingBuffer@shdfnd@physx@@QAE@XZ 10027730 f i PsFastIPC.obj
 0001:00026800       ??_GFastIPC@shdfnd@physx@@UAEPAXI@Z 10027800 f i PsFastIPC.obj
 0001:00026800       ??_EFastIPC@shdfnd@physx@@UAEPAXI@Z 10027800 f i PsFastIPC.obj
 0001:00026840       ??_GMemoryMappedFile@shdfnd@physx@@QAEPAXI@Z 10027840 f i PsFastIPC.obj
 0001:00026880       ??_GMultiPartData@PxRingBuffer@shdfnd@physx@@QAEPAXI@Z 10027880 f i PsFastIPC.obj
 0001:000268c0       ??_GMultiPartPacket@PxRingBuffer@shdfnd@physx@@QAEPAXI@Z 100278c0 f i PsFastIPC.obj
 0001:00026900       ??_EPxIPC@shdfnd@physx@@MAEPAXI@Z 10027900 f i PsFastIPC.obj
 0001:00026900       ??_GPxIPC@shdfnd@physx@@MAEPAXI@Z 10027900 f i PsFastIPC.obj
 0001:00026940       ?acknowledgeInternal@PxRingBuffer@shdfnd@physx@@AAEXXZ 10027940 f i PsFastIPC.obj
 0001:00026a10       ?allocate@?$ReflectionAllocator@VFastIPC@shdfnd@physx@@@shdfnd@physx@@QAEPAXIPBDH@Z 10027a10 f i PsFastIPC.obj
 0001:00026a70       ?allocate@?$ReflectionAllocator@VMemoryMappedFile@shdfnd@physx@@@shdfnd@physx@@QAEPAXIPBDH@Z 10027a70 f i PsFastIPC.obj
 0001:00026ad0       ?allocate@?$ReflectionAllocator@VMultiPartData@PxRingBuffer@shdfnd@physx@@@shdfnd@physx@@QAEPAXIPBDH@Z 10027ad0 f i PsFastIPC.obj
 0001:00026b30       ?allocate@?$ReflectionAllocator@VMultiPartPacket@PxRingBuffer@shdfnd@physx@@@shdfnd@physx@@QAEPAXIPBDH@Z 10027b30 f i PsFastIPC.obj
 0001:00026b90       ?canSend@FastIPC@shdfnd@physx@@UAE_NI@Z 10027b90 f i PsFastIPC.obj
 0001:00026c00       ?canSend@PxRingBuffer@shdfnd@physx@@QBE?AW4ErrorCode@123@I@Z 10027c00 f i PsFastIPC.obj
 0001:00026d50       ?getData@MultiPartData@PxRingBuffer@shdfnd@physx@@QBEPBXXZ 10027d50 f i PsFastIPC.obj
 0001:00026d70       ?getDataLen@PacketHeader@PxRingBuffer@shdfnd@physx@@QBEIXZ 10027d70 f i PsFastIPC.obj
 0001:00026d90       ?getMessageSize@MultiPartData@PxRingBuffer@shdfnd@physx@@QBEIXZ 10027d90 f i PsFastIPC.obj
 0001:00026db0       ?getMessageSize@MultiPartPacket@PxRingBuffer@shdfnd@physx@@QBEIXZ 10027db0 f i PsFastIPC.obj
 0001:00026dd0       ?getMessageType@MultiPartData@PxRingBuffer@shdfnd@physx@@QBE?AW4MessageType@234@XZ 10027dd0 f i PsFastIPC.obj
 0001:00026df0       ?getMessageType@PacketHeader@PxRingBuffer@shdfnd@physx@@QBE?AW4MessageType@234@XZ 10027df0 f i PsFastIPC.obj
 0001:00026e10       ?getName@?$ReflectionAllocator@VFastIPC@shdfnd@physx@@@shdfnd@physx@@CAPBDXZ 10027e10 f i PsFastIPC.obj
 0001:00026e60       ?getName@?$ReflectionAllocator@VMemoryMappedFile@shdfnd@physx@@@shdfnd@physx@@CAPBDXZ 10027e60 f i PsFastIPC.obj
 0001:00026eb0       ?getName@?$ReflectionAllocator@VMultiPartData@PxRingBuffer@shdfnd@physx@@@shdfnd@physx@@CAPBDXZ 10027eb0 f i PsFastIPC.obj
 0001:00026f00       ?getName@?$ReflectionAllocator@VMultiPartPacket@PxRingBuffer@shdfnd@physx@@@shdfnd@physx@@CAPBDXZ 10027f00 f i PsFastIPC.obj
 0001:00026f50       ?getNext@MultiPartPacket@PxRingBuffer@shdfnd@physx@@QBEPAV1234@XZ 10027f50 f i PsFastIPC.obj
 0001:00026f70       ?getReadAddress@PxRingBuffer@shdfnd@physx@@ABEIXZ 10027f70 f i PsFastIPC.obj
 0001:00026fe0       ?getWriteAddress@PxRingBuffer@shdfnd@physx@@ABEIXZ 10027fe0 f i PsFastIPC.obj
 0001:00027050       ?haveConnection@FastIPC@shdfnd@physx@@UBE_NXZ 10028050 f i PsFastIPC.obj
 0001:000270b0       ?init@PacketHeader@PxRingBuffer@shdfnd@physx@@QAEXIII@Z 100280b0 f i PsFastIPC.obj
 0001:00027100       ?init@PxRingBuffer@shdfnd@physx@@QAEXPAXI_N1IPAI2@Z 10028100 f i PsFastIPC.obj
 0001:00027280       ?isFinished@MultiPartData@PxRingBuffer@shdfnd@physx@@QBE_NXZ 10028280 f i PsFastIPC.obj
 0001:000272c0       ?isPadded@PacketHeader@PxRingBuffer@shdfnd@physx@@QBE_NXZ 100282c0 f i PsFastIPC.obj
 0001:00027300       ?isServer@FastIPC@shdfnd@physx@@UBE_NXZ 10028300 f i PsFastIPC.obj
 0001:00027320       ?process@MultiPartData@PxRingBuffer@shdfnd@physx@@QAE_NPBXI@Z 10028320 f i PsFastIPC.obj
 0001:00027450       ?process@MultiPartPacket@PxRingBuffer@shdfnd@physx@@QAE?AW4ErrorCode@234@XZ 10028450 f i PsFastIPC.obj
 0001:00027580       ?pumpPendingSends@FastIPC@shdfnd@physx@@UAE_NXZ 10028580 f i PsFastIPC.obj
 0001:00027610       ?pumpPendingSends@PxRingBuffer@shdfnd@physx@@QAE_NXZ 10028610 f i PsFastIPC.obj
 0001:000276e0       ?readData@PxRingBuffer@shdfnd@physx@@AAEPBXAAII@Z 100286e0 f i PsFastIPC.obj
 0001:00027770       ?receiveAcknowledge@FastIPC@shdfnd@physx@@UAE?AW4ErrorCode@PxIPC@23@XZ 10028770 f i PsFastIPC.obj
 0001:00027820       ?receiveAcknowledge@PxRingBuffer@shdfnd@physx@@QAE?AW4ErrorCode@123@XZ 10028820 f i PsFastIPC.obj
 0001:00027930       ?receiveData@FastIPC@shdfnd@physx@@UAEPBXAAI@Z 10028930 f i PsFastIPC.obj
 0001:000279e0       ?receiveData@PxRingBuffer@shdfnd@physx@@QAE?AW4MessageType@123@AAPBXAAI@Z 100289e0 f i PsFastIPC.obj
 0001:00027e00       ?release@FastIPC@shdfnd@physx@@UAEXXZ 10028e00 f i PsFastIPC.obj
 0001:00027e50       ?sendData@FastIPC@shdfnd@physx@@UAE?AW4ErrorCode@PxIPC@23@PBXI_N@Z 10028e50 f i PsFastIPC.obj
 0001:00027f10       ?sendData@PxRingBuffer@shdfnd@physx@@QAE?AW4ErrorCode@123@W4MessageType@123@PBXI_N@Z 10028f10 f i PsFastIPC.obj
 0001:00028100       ?sendDataInternal@PxRingBuffer@shdfnd@physx@@AAE?AW4ErrorCode@123@W4MessageType@123@PBXI@Z 10029100 f i PsFastIPC.obj
 0001:00028190       ?sendHeader@MultiPartPacket@PxRingBuffer@shdfnd@physx@@QAE?AW4ErrorCode@234@XZ 10029190 f i PsFastIPC.obj
 0001:00028240       ?setNext@MultiPartPacket@PxRingBuffer@shdfnd@physx@@QAEXPAV1234@@Z 10029240 f i PsFastIPC.obj
 0001:00028260       ?setReadAddress@PxRingBuffer@shdfnd@physx@@AAEXI@Z 10029260 f i PsFastIPC.obj
 0001:00028330       ?setWriteAddress@PxRingBuffer@shdfnd@physx@@AAEXI@Z 10029330 f i PsFastIPC.obj
 0001:00028400       ?writeData@PxRingBuffer@shdfnd@physx@@AAEXW4MessageType@123@PBXI@Z 10029400 f i PsFastIPC.obj
 0001:00028660       ?createFastXml@shdfnd@physx@@YAPAVFastXml@12@PAVCallback@312@@Z 10029660 f   PsFastXml.obj
 0001:000286d0       ??0AttributePairs@FastXml@shdfnd@physx@@QAE@HPAPBD@Z 100296d0 f i PsFastXml.obj
 0001:00028700       ??0FastXml@shdfnd@physx@@QAE@XZ 10029700 f i PsFastXml.obj
 0001:00028720       ??0MyFastXml@?A0x376bbd1f@@QAE@PAVCallback@FastXml@shdfnd@physx@@@Z 10029720 f i PsFastXml.obj
 0001:00028910       ??1FastXml@shdfnd@physx@@MAE@XZ 10029910 f i PsFastXml.obj
 0001:00028930       ??1MyFastXml@?A0x376bbd1f@@EAE@XZ 10029930 f i PsFastXml.obj
 0001:00028960       ??_EFastXml@shdfnd@physx@@MAEPAXI@Z 10029960 f i PsFastXml.obj
 0001:00028960       ??_GFastXml@shdfnd@physx@@MAEPAXI@Z 10029960 f i PsFastXml.obj
 0001:000289a0       ??_EMyFastXml@?A0x376bbd1f@@EAEPAXI@Z 100299a0 f i PsFastXml.obj
 0001:000289a0       ??_GMyFastXml@?A0x376bbd1f@@EAEPAXI@Z 100299a0 f i PsFastXml.obj
 0001:000289e0       ?getCharType@MyFastXml@?A0x376bbd1f@@ABE?AW4CharType@12@PAD@Z 100299e0 f i PsFastXml.obj
 0001:00028a00       ?getError@MyFastXml@?A0x376bbd1f@@UAEPBDAAH@Z 10029a00 f i PsFastXml.obj
 0001:00028a50       ?nextSep@MyFastXml@?A0x376bbd1f@@AAEPADPAD@Z 10029a50 f i PsFastXml.obj
 0001:00028ab0       ?nextSoftOrClose@MyFastXml@?A0x376bbd1f@@AAEPADPADAA_N@Z 10029ab0 f i PsFastXml.obj
 0001:00028b30       ?popElement@MyFastXml@?A0x376bbd1f@@AAEPBDXZ 10029b30 f i PsFastXml.obj
 0001:00028c70       ?processClose@MyFastXml@?A0x376bbd1f@@QAEPADDPBDPADHPAPBDPAVCallback@FastXml@shdfnd@physx@@AA_N@Z 10029c70 f i PsFastXml.obj
 0001:00029610       ?processClose@MyFastXml@?A0x376bbd1f@@QAEPADPADPAVCallback@FastXml@shdfnd@physx@@AA_N@Z 1002a610 f i PsFastXml.obj
 0001:00029760       ?processXml@MyFastXml@?A0x376bbd1f@@QAE_NPAVCallback@FastXml@shdfnd@physx@@@Z 1002a760 f i PsFastXml.obj
 0001:0002a010       ?processXml@MyFastXml@?A0x376bbd1f@@UAE_NAAVPxInputData@physx@@_N@Z 1002b010 f i PsFastXml.obj
 0001:0002a060       ?pushElement@MyFastXml@?A0x376bbd1f@@AAEXPBD@Z 1002b060 f i PsFastXml.obj
 0001:0002a190       ?readData@MyFastXml@?A0x376bbd1f@@QAEPADPAD@Z 1002b190 f i PsFastXml.obj
 0001:0002a6a0       ?release@MyFastXml@?A0x376bbd1f@@UAEXXZ 1002b6a0 f i PsFastXml.obj
 0001:0002a6f0       ?releaseMemory@MyFastXml@?A0x376bbd1f@@AAEXXZ 1002b6f0 f i PsFastXml.obj
 0001:0002a840       ?skipNextData@MyFastXml@?A0x376bbd1f@@AAEPADPAD@Z 1002b840 f i PsFastXml.obj
 0001:0002a8c0       ?strchr@@YAPADPADH@Z       1002b8c0 f i PsFastXml.obj
 0001:0002a8e0       ?strstr@@YAPADPADPBD@Z     1002b8e0 f i PsFastXml.obj
 0001:0002a900       _PxCreateFoundation        1002b900 f   PsFoundation.obj
 0001:0002a920       _PxGetFoundation           1002b920 f   PsFoundation.obj
 0001:0002a930       ?getAllocator@shdfnd@physx@@YAAAVPxAllocatorCallback@2@XZ 1002b930 f   PsFoundation.obj
 0001:0002a950       ??0Foundation@shdfnd@physx@@AAE@AAVPxErrorCallback@2@AAVPxAllocatorCallback@2@@Z 1002b950 f   PsFoundation.obj
 0001:0002aa90       ??1Foundation@shdfnd@physx@@EAE@XZ 1002ba90 f   PsFoundation.obj
 0001:0002ab80       ?release@Foundation@shdfnd@physx@@UAEXXZ 1002bb80 f   PsFoundation.obj
 0001:0002ab90       ?createInstance@Foundation@shdfnd@physx@@SAPAV123@IAAVPxErrorCallback@3@AAVPxAllocatorCallback@3@@Z 1002bb90 f   PsFoundation.obj
 0001:0002ad30       ?destroyInstance@Foundation@shdfnd@physx@@SAXXZ 1002bd30 f   PsFoundation.obj
 0001:0002adf0       ?getInstance@Foundation@shdfnd@physx@@SAAAV123@XZ 1002bdf0 f   PsFoundation.obj
 0001:0002ae40       ?incRefCount@Foundation@shdfnd@physx@@SAXXZ 1002be40 f   PsFoundation.obj
 0001:0002aec0       ?decRefCount@Foundation@shdfnd@physx@@SAXXZ 1002bec0 f   PsFoundation.obj
 0001:0002af40       ?getErrorCallback@Foundation@shdfnd@physx@@UBEAAVPxErrorCallback@3@XZ 1002bf40 f   PsFoundation.obj
 0001:0002af60       ?setErrorLevel@Foundation@shdfnd@physx@@UAEXW4Enum@PxErrorCode@3@@Z 1002bf60 f   PsFoundation.obj
 0001:0002af80       ?getErrorLevel@Foundation@shdfnd@physx@@UBE?AW4Enum@PxErrorCode@3@XZ 1002bf80 f   PsFoundation.obj
 0001:0002afa0       ?getAllocatorCallback@Foundation@shdfnd@physx@@UBEAAVPxAllocatorCallback@3@XZ 1002bfa0 f   PsFoundation.obj
 0001:0002afc0       ?error@Foundation@shdfnd@physx@@QAAXW4Enum@PxErrorCode@3@PBDH1ZZ 1002bfc0 f   PsFoundation.obj
 0001:0002b000       ?errorImpl@Foundation@shdfnd@physx@@QAEXW4Enum@PxErrorCode@3@PBDH1PAD@Z 1002c000 f   PsFoundation.obj
 0001:0002b0c0       ?getWarnOnceTimestamp@Foundation@shdfnd@physx@@SAIXZ 1002c0c0 f   PsFoundation.obj
 0001:0002b110       ?allocate@AlignCheckAllocator@Foundation@shdfnd@physx@@UAEPAXIPBD0H@Z 1002c110 f   PsFoundation.obj
 0001:0002b430       ??$PX_UNUSED@H@@YAXABH@Z   1002c430 f i PsFoundation.obj
 0001:0002b440       ??0?$Array@PATTempAllocatorChunk@shdfnd@physx@@VAllocator@23@@shdfnd@physx@@QAE@ABVAllocator@12@@Z 1002c440 f i PsFoundation.obj
 0001:0002b480       ??0?$HashBase@V?$Pair@QBVNamedAllocator@shdfnd@physx@@PBD@shdfnd@physx@@PBVNamedAllocator@23@U?$Hash@PBVNamedAllocator@shdfnd@physx@@@23@UGetKey@?$HashMapBase@PBVNamedAllocator@shdfnd@physx@@PBDU?$Hash@PBVNamedAllocator@shdfnd@physx@@@23@VNonTrackingAllocator@23@@internal@23@VNonTrackingAllocator@23@$00@internal@shdfnd@physx@@QAE@IM@Z 1002c480 f i PsFoundation.obj
 0001:0002b4d0       ??0?$HashMap@PBVNamedAllocator@shdfnd@physx@@PBDU?$Hash@PBVNamedAllocator@shdfnd@physx@@@23@VNonTrackingAllocator@23@@shdfnd@physx@@QAE@IM@Z 1002c4d0 f i PsFoundation.obj
 0001:0002b500       ??0?$HashMapBase@PBVNamedAllocator@shdfnd@physx@@PBDU?$Hash@PBVNamedAllocator@shdfnd@physx@@@23@VNonTrackingAllocator@23@@internal@shdfnd@physx@@QAE@IM@Z 1002c500 f i PsFoundation.obj
 0001:0002b530       ??0?$MutexT@VAllocator@shdfnd@physx@@@shdfnd@physx@@QAE@ABVAllocator@12@@Z 1002c530 f i PsFoundation.obj
 0001:0002b5b0       ??0AlignCheckAllocator@Foundation@shdfnd@physx@@QAE@AAVPxAllocatorCallback@3@@Z 1002c5b0 f i PsFoundation.obj
 0001:0002b600       ??0NonTrackingAllocator@shdfnd@physx@@QAE@PBD@Z 1002c600 f i PsFoundation.obj
 0001:0002b620       ??0PxAllocatorCallback@physx@@QAE@XZ 1002c620 f i PsFoundation.obj
 0001:0002b640       ??0PxBroadcastingAllocator@physx@@QAE@XZ 1002c640 f i PsFoundation.obj
 0001:0002b670       ??0TempAllocator@shdfnd@physx@@QAE@PBD@Z 1002c670 f i PsFoundation.obj
 0001:0002b690       ??1?$Array@PATTempAllocatorChunk@shdfnd@physx@@VAllocator@23@@shdfnd@physx@@QAE@XZ 1002c690 f i PsFoundation.obj
 0001:0002b700       ??1?$HashBase@V?$Pair@QBVNamedAllocator@shdfnd@physx@@PBD@shdfnd@physx@@PBVNamedAllocator@23@U?$Hash@PBVNamedAllocator@shdfnd@physx@@@23@UGetKey@?$HashMapBase@PBVNamedAllocator@shdfnd@physx@@PBDU?$Hash@PBVNamedAllocator@shdfnd@physx@@@23@VNonTrackingAllocator@23@@internal@23@VNonTrackingAllocator@23@$00@internal@shdfnd@physx@@QAE@XZ 1002c700 f i PsFoundation.obj
 0001:0002b740       ??1?$HashMap@PBVNamedAllocator@shdfnd@physx@@PBDU?$Hash@PBVNamedAllocator@shdfnd@physx@@@23@VNonTrackingAllocator@23@@shdfnd@physx@@QAE@XZ 1002c740 f i PsFoundation.obj
 0001:0002b760       ??1?$HashMapBase@PBVNamedAllocator@shdfnd@physx@@PBDU?$Hash@PBVNamedAllocator@shdfnd@physx@@@23@VNonTrackingAllocator@23@@internal@shdfnd@physx@@QAE@XZ 1002c760 f i PsFoundation.obj
 0001:0002b780       ??1?$MutexT@VAllocator@shdfnd@physx@@@shdfnd@physx@@QAE@XZ 1002c780 f i PsFoundation.obj
 0001:0002b7b0       ??1AlignCheckAllocator@Foundation@shdfnd@physx@@UAE@XZ 1002c7b0 f i PsFoundation.obj
 0001:0002b7d0       ??1PxAllocatorCallback@physx@@UAE@XZ 1002c7d0 f i PsFoundation.obj
 0001:0002b7f0       ??1PxBroadcastingAllocator@physx@@MAE@XZ 1002c7f0 f i PsFoundation.obj
 0001:0002b820       ??4TempAllocator@shdfnd@physx@@QAEAAV012@ABV012@@Z 1002c820 f i PsFoundation.obj
 0001:0002b840       ??A?$Array@PATTempAllocatorChunk@shdfnd@physx@@VAllocator@23@@shdfnd@physx@@QAEAAPATTempAllocatorChunk@12@I@Z 1002c840 f i PsFoundation.obj
 0001:0002b8b0       ??_EFoundation@shdfnd@physx@@EAEPAXI@Z 1002c8b0 f i PsFoundation.obj
 0001:0002b940       ??_FTempAllocator@shdfnd@physx@@QAEXXZ 1002c940 f i PsFoundation.obj
 0001:0002b960       ??_EAlignCheckAllocator@Foundation@shdfnd@physx@@UAEPAXI@Z 1002c960 f i PsFoundation.obj
 0001:0002b960       ??_GAlignCheckAllocator@Foundation@shdfnd@physx@@UAEPAXI@Z 1002c960 f i PsFoundation.obj
 0001:0002b9a0       ??_GFoundation@shdfnd@physx@@EAEPAXI@Z 1002c9a0 f i PsFoundation.obj
 0001:0002b9e0       ??_GPxAllocatorCallback@physx@@UAEPAXI@Z 1002c9e0 f i PsFoundation.obj
 0001:0002b9e0       ??_EPxAllocatorCallback@physx@@UAEPAXI@Z 1002c9e0 f i PsFoundation.obj
 0001:0002ba20       ??_EPxBroadcastingAllocator@physx@@MAEPAXI@Z 1002ca20 f i PsFoundation.obj
 0001:0002ba20       ??_GPxBroadcastingAllocator@physx@@MAEPAXI@Z 1002ca20 f i PsFoundation.obj
 0001:0002ba60       ?allocate@?$Array@PATTempAllocatorChunk@shdfnd@physx@@VAllocator@23@@shdfnd@physx@@IAEPAPATTempAllocatorChunk@23@I@Z 1002ca60 f i PsFoundation.obj
 0001:0002bae0       ?capacity@?$Array@PATTempAllocatorChunk@shdfnd@physx@@VAllocator@23@@shdfnd@physx@@QBEIXZ 1002cae0 f i PsFoundation.obj
 0001:0002bb00       ?copy@?$Array@PATTempAllocatorChunk@shdfnd@physx@@VAllocator@23@@shdfnd@physx@@KAXPAPATTempAllocatorChunk@23@0PBQAT423@@Z 1002cb00 f i PsFoundation.obj
 0001:0002bb70       ?create@?$Array@PATTempAllocatorChunk@shdfnd@physx@@VAllocator@23@@shdfnd@physx@@KAXPAPATTempAllocatorChunk@23@0ABQAT423@@Z 1002cb70 f i PsFoundation.obj
 0001:0002bbe0       ?deallocate@?$Array@PATTempAllocatorChunk@shdfnd@physx@@VAllocator@23@@shdfnd@physx@@IAEXPAX@Z 1002cbe0 f i PsFoundation.obj
 0001:0002bc00       ?deallocate@AlignCheckAllocator@Foundation@shdfnd@physx@@UAEXPAX@Z 1002cc00 f i PsFoundation.obj
 0001:0002bc90       ?deregisterAllocationListener@AlignCheckAllocator@Foundation@shdfnd@physx@@UAEXAAVPxAllocationListener@4@@Z 1002cc90 f i PsFoundation.obj
 0001:0002bd10       ?destroy@?$Array@PATTempAllocatorChunk@shdfnd@physx@@VAllocator@23@@shdfnd@physx@@KAXPAPATTempAllocatorChunk@23@0@Z 1002cd10 f i PsFoundation.obj
 0001:0002bd30       ?destroy@?$HashBase@V?$Pair@QBVNamedAllocator@shdfnd@physx@@PBD@shdfnd@physx@@PBVNamedAllocator@23@U?$Hash@PBVNamedAllocator@shdfnd@physx@@@23@UGetKey@?$HashMapBase@PBVNamedAllocator@shdfnd@physx@@PBDU?$Hash@PBVNamedAllocator@shdfnd@physx@@@23@VNonTrackingAllocator@23@@internal@23@VNonTrackingAllocator@23@$00@internal@shdfnd@physx@@AAEXXZ 1002cd30 f i PsFoundation.obj
 0001:0002bda0       ?getBaseAllocator@AlignCheckAllocator@Foundation@shdfnd@physx@@QBEAAVPxAllocatorCallback@4@XZ 1002cda0 f i PsFoundation.obj
 0001:0002bdc0       ?grow@?$Array@PATTempAllocatorChunk@shdfnd@physx@@VAllocator@23@@shdfnd@physx@@IAEXI@Z 1002cdc0 f i PsFoundation.obj
 0001:0002be40       ?init@?$HashBase@V?$Pair@QBVNamedAllocator@shdfnd@physx@@PBD@shdfnd@physx@@PBVNamedAllocator@23@U?$Hash@PBVNamedAllocator@shdfnd@physx@@@23@UGetKey@?$HashMapBase@PBVNamedAllocator@shdfnd@physx@@PBDU?$Hash@PBVNamedAllocator@shdfnd@physx@@@23@VNonTrackingAllocator@23@@internal@23@VNonTrackingAllocator@23@$00@internal@shdfnd@physx@@AAEXIM@Z 1002ce40 f i PsFoundation.obj
 0001:0002bef0       ?isInUserMemory@?$Array@PATTempAllocatorChunk@shdfnd@physx@@VAllocator@23@@shdfnd@physx@@QBEIXZ 1002cef0 f i PsFoundation.obj
 0001:0002bf10       ?recreate@?$Array@PATTempAllocatorChunk@shdfnd@physx@@VAllocator@23@@shdfnd@physx@@IAEXI@Z 1002cf10 f i PsFoundation.obj
 0001:0002c020       ?registerAllocationListener@AlignCheckAllocator@Foundation@shdfnd@physx@@UAEXAAVPxAllocationListener@4@@Z 1002d020 f i PsFoundation.obj
 0001:0002c0c0       ?reserve@?$Array@PATTempAllocatorChunk@shdfnd@physx@@VAllocator@23@@shdfnd@physx@@QAEXI@Z 1002d0c0 f i PsFoundation.obj
 0001:0002c0f0       ?reset@?$Array@PATTempAllocatorChunk@shdfnd@physx@@VAllocator@23@@shdfnd@physx@@QAEXXZ 1002d0f0 f i PsFoundation.obj
 0001:0002c130       ?resize@?$Array@PATTempAllocatorChunk@shdfnd@physx@@VAllocator@23@@shdfnd@physx@@QAEXIABQATTempAllocatorChunk@23@@Z 1002d130 f i PsFoundation.obj
 0001:0002c1c0       ?shrink@?$Array@PATTempAllocatorChunk@shdfnd@physx@@VAllocator@23@@shdfnd@physx@@QAEXXZ 1002d1c0 f i PsFoundation.obj
 0001:0002c1e0       ?size@?$Array@PATTempAllocatorChunk@shdfnd@physx@@VAllocator@23@@shdfnd@physx@@QBEIXZ 1002d1e0 f i PsFoundation.obj
 0001:0002c200       ?sprintf_s@string@physx@@YAHPADIPBDZZ 1002d200 f i PsFoundation.obj
 0001:0002c250       ?computeQuatFromNormal@shdfnd@physx@@YA?AVPxQuat@2@ABVPxVec3@2@@Z 1002d250 f   PsMathUtils.obj
 0001:0002c3d0       ?optimizeBoundingBox@shdfnd@physx@@YA?AVPxVec3@2@AAVPxMat33@2@@Z 1002d3d0 f   PsMathUtils.obj
 0001:0002c6e0       ?slerp@shdfnd@physx@@YA?AVPxQuat@2@MABV32@0@Z 1002d6e0 f   PsMathUtils.obj
 0001:0002c870       ?integrateTransform@shdfnd@physx@@YAXABVPxTransform@2@ABVPxVec3@2@1MAAV32@@Z 1002d870 f   PsMathUtils.obj
 0001:0002cc30       ??$PX_UNUSED@W4PxIDENTITY@physx@@@@YAXABW4PxIDENTITY@physx@@@Z 1002dc30 f i PsMathUtils.obj
 0001:0002cc40       ??$PxClamp@M@physx@@YAMMMM@Z 1002dc40 f i PsMathUtils.obj
 0001:0002cce0       ??$PxMax@M@physx@@YAMMM@Z  1002dce0 f i PsMathUtils.obj
 0001:0002cd10       ??$PxMin@M@physx@@YAMMM@Z  1002dd10 f i PsMathUtils.obj
 0001:0002cd40       ??$swap@I@shdfnd@physx@@YAXAAI0@Z 1002dd40 f i PsMathUtils.obj
 0001:0002cd70       ??0PxQuat@physx@@QAE@ABV01@@Z 1002dd70 f i PsMathUtils.obj
 0001:0002cdc0       ??0PxQuat@physx@@QAE@MABVPxVec3@1@@Z 1002ddc0 f i PsMathUtils.obj
 0001:0002cf00       ??0PxQuat@physx@@QAE@MMMM@Z 1002df00 f i PsMathUtils.obj
 0001:0002cf60       ??0PxQuat@physx@@QAE@W4PxIDENTITY@1@@Z 1002df60 f i PsMathUtils.obj
 0001:0002cfe0       ??0PxQuat@physx@@QAE@XZ    1002dfe0 f i PsMathUtils.obj
 0001:0002d000       ??0PxVec3@physx@@QAE@ABV01@@Z 1002e000 f i PsMathUtils.obj
 0001:0002d040       ??0PxVec3@physx@@QAE@MMM@Z 1002e040 f i PsMathUtils.obj
 0001:0002d090       ??4PxQuat@physx@@QAEAAV01@ABV01@@Z 1002e090 f i PsMathUtils.obj
 0001:0002d0e0       ??4PxVec3@physx@@QAEAAV01@ABV01@@Z 1002e0e0 f i PsMathUtils.obj
 0001:0002d120       ??APxMat33@physx@@QAEAAVPxVec3@1@H@Z 1002e120 f i PsMathUtils.obj
 0001:0002d140       ??APxVec3@physx@@QAEAAMH@Z 1002e140 f i PsMathUtils.obj
 0001:0002d1b0       ??APxVec3@physx@@QAEAAMI@Z 1002e1b0 f i PsMathUtils.obj
 0001:0002d220       ??DPxQuat@physx@@QBE?AV01@ABV01@@Z 1002e220 f i PsMathUtils.obj
 0001:0002d3d0       ??DPxQuat@physx@@QBE?AV01@M@Z 1002e3d0 f i PsMathUtils.obj
 0001:0002d450       ??DPxVec3@physx@@QBE?AV01@M@Z 1002e450 f i PsMathUtils.obj
 0001:0002d4c0       ??HPxQuat@physx@@QBE?AV01@ABV01@@Z 1002e4c0 f i PsMathUtils.obj
 0001:0002d550       ??HPxVec3@physx@@QBE?AV01@ABV01@@Z 1002e550 f i PsMathUtils.obj
 0001:0002d5c0       ??XPxVec3@physx@@QAEAAV01@M@Z 1002e5c0 f i PsMathUtils.obj
 0001:0002d620       ??ZPxVec3@physx@@QAEAAV01@ABV01@@Z 1002e620 f i PsMathUtils.obj
 0001:0002d690       ??_0PxVec3@physx@@QAEAAV01@M@Z 1002e690 f i PsMathUtils.obj
 0001:0002d710       ?PxAbs@physx@@YAMM@Z       1002e710 f i PsMathUtils.obj
 0001:0002d730       ?PxAsin@physx@@YAMM@Z      1002e730 f i PsMathUtils.obj
 0001:0002d780       ?PxAtan2@physx@@YAMMM@Z    1002e780 f i PsMathUtils.obj
 0001:0002d7b0       ?PxCos@physx@@YAMM@Z       1002e7b0 f i PsMathUtils.obj
 0001:0002d7d0       ?PxRecipSqrt@physx@@YAMM@Z 1002e7d0 f i PsMathUtils.obj
 0001:0002d7f0       ?PxSin@physx@@YAMM@Z       1002e7f0 f i PsMathUtils.obj
 0001:0002d810       ?PxSqrt@physx@@YAMM@Z      1002e810 f i PsMathUtils.obj
 0001:0002d830       ?abs@intrinsics@physx@@YAMM@Z 1002e830 f i PsMathUtils.obj
 0001:0002d850       ?asin@@YAMM@Z              1002e850 f i PsMathUtils.obj
 0001:0002d870       ?atan2@@YAMMM@Z            1002e870 f i PsMathUtils.obj
 0001:0002d8a0       ?cos@intrinsics@physx@@YAMM@Z 1002e8a0 f i PsMathUtils.obj
 0001:0002d8c0       ?dot@PxQuat@physx@@QBEMABV12@@Z 1002e8c0 f i PsMathUtils.obj
 0001:0002d940       ?dot@PxVec3@physx@@QBEMABV12@@Z 1002e940 f i PsMathUtils.obj
 0001:0002d9a0       ?fabs@@YAMM@Z              1002e9a0 f i PsMathUtils.obj
 0001:0002d9c0       ?fsel@intrinsics@physx@@YAMMMM@Z 1002e9c0 f i PsMathUtils.obj
 0001:0002da00       ?magnitude@PxVec3@physx@@QBEMXZ 1002ea00 f i PsMathUtils.obj
 0001:0002da30       ?magnitudeSquared@PxVec3@physx@@QBEMXZ 1002ea30 f i PsMathUtils.obj
 0001:0002da90       ?normalize@PxVec3@physx@@QAEMXZ 1002ea90 f i PsMathUtils.obj
 0001:0002dae0       ?recipSqrt@intrinsics@physx@@YAMM@Z 1002eae0 f i PsMathUtils.obj
 0001:0002db30       ?selectMax@intrinsics@physx@@YAMMM@Z 1002eb30 f i PsMathUtils.obj
 0001:0002db70       ?selectMin@intrinsics@physx@@YAMMM@Z 1002eb70 f i PsMathUtils.obj
 0001:0002dbb0       ?sin@intrinsics@physx@@YAMM@Z 1002ebb0 f i PsMathUtils.obj
 0001:0002dbd0       ?sqrt@intrinsics@physx@@YAMM@Z 1002ebd0 f i PsMathUtils.obj
 0001:0002dbf0       _asinf                     1002ebf0 f i PsMathUtils.obj
 0001:0002dc20       _atan2f                    1002ec20 f i PsMathUtils.obj
 0001:0002dc60       _cosf                      1002ec60 f i PsMathUtils.obj
 0001:0002dc90       _fabsf                     1002ec90 f i PsMathUtils.obj
 0001:0002dcc0       _sinf                      1002ecc0 f i PsMathUtils.obj
 0001:0002dcf0       _sqrtf                     1002ecf0 f i PsMathUtils.obj
 0001:0002dd20       ?allocate@TempAllocator@shdfnd@physx@@QAEPAXIPBDH@Z 1002ed20 f   PsTempAllocator.obj
 0001:0002de90       ?deallocate@TempAllocator@shdfnd@physx@@QAEXPAX@Z 1002ee90 f   PsTempAllocator.obj
 0001:0002dfe0       ??$PxMax@I@physx@@YAIII@Z  1002efe0 f i PsTempAllocator.obj
 0001:0002e010       ??$PxMin@PAPATTempAllocatorChunk@shdfnd@physx@@@physx@@YAPAPATTempAllocatorChunk@shdfnd@0@PAPAT120@0@Z 1002f010 f i PsTempAllocator.obj
 0001:0002e040       ?begin@?$Array@PATTempAllocatorChunk@shdfnd@physx@@VAllocator@23@@shdfnd@physx@@QAEPAPATTempAllocatorChunk@23@XZ 1002f040 f i PsTempAllocator.obj
 0001:0002e060       ?end@?$Array@PATTempAllocatorChunk@shdfnd@physx@@VAllocator@23@@shdfnd@physx@@QAEPAPATTempAllocatorChunk@23@XZ 1002f060 f i PsTempAllocator.obj
 0001:0002e080       ?getFreeTable@?A0xe98f8e58@shdfnd@physx@@YAAAV?$Array@PATTempAllocatorChunk@shdfnd@physx@@VAllocator@23@@23@XZ 1002f080 f i PsTempAllocator.obj
 0001:0002e0a0       ?getMutex@?A0xe98f8e58@shdfnd@physx@@YAAAV?$MutexT@VAllocator@shdfnd@physx@@@23@XZ 1002f0a0 f i PsTempAllocator.obj
 0001:0002e0c0       ?highestSetBit@shdfnd@physx@@YAII@Z 1002f0c0 f i PsTempAllocator.obj
 0001:0002e120       ?highestSetBitUnsafe@shdfnd@physx@@YAII@Z 1002f120 f i PsTempAllocator.obj
 0001:0002e140       ?checkValid@shdfnd@physx@@YA_NABM@Z 1002f140 f   PsUtilities.obj
 0001:0002e160       ?checkValid@shdfnd@physx@@YA_NABVPxVec3@2@@Z 1002f160 f   PsUtilities.obj
 0001:0002e1e0       ?checkValid@shdfnd@physx@@YA_NABVPxQuat@2@@Z 1002f1e0 f   PsUtilities.obj
 0001:0002e270       ?checkValid@shdfnd@physx@@YA_NABVPxMat33@2@@Z 1002f270 f   PsUtilities.obj
 0001:0002e3c0       ?checkValid@shdfnd@physx@@YA_NABVPxTransform@2@@Z 1002f3c0 f   PsUtilities.obj
 0001:0002e410       ?checkValid@shdfnd@physx@@YA_NPBD@Z 1002f410 f   PsUtilities.obj
 0001:0002e510       ??APxMat33@physx@@QBEABVPxVec3@1@I@Z 1002f510 f i PsUtilities.obj
 0001:0002e530       ??APxVec3@physx@@QBEABMI@Z 1002f530 f i PsUtilities.obj
 0001:0002e5a0       ??RPxMat33@physx@@QBEMII@Z 1002f5a0 f i PsUtilities.obj
 0001:0002e5d0       ?PxIsFinite@physx@@YA_NM@Z 1002f5d0 f i PsUtilities.obj
 0001:0002e5f0       ?isFinite@intrinsics@physx@@YA_NM@Z 1002f5f0 f i PsUtilities.obj
 0001:0002e640       ?PxCreateCollection@@YAPAVPxCollection@physx@@XZ 1002f640 f   CmCollection.obj
 0001:0002e690       ?add@Collection@Cm@physx@@UAEXAAVPxBase@3@_K@Z 1002f690 f   CmCollection.obj
 0001:0002e750       ?remove@Collection@Cm@physx@@UAEXAAVPxBase@3@@Z 1002f750 f   CmCollection.obj
 0001:0002e7f0       ?contains@Collection@Cm@physx@@UBE_NAAVPxBase@3@@Z 1002f7f0 f   CmCollection.obj
 0001:0002e830       ?addId@Collection@Cm@physx@@UAEXAAVPxBase@3@_K@Z 1002f830 f   CmCollection.obj
 0001:0002e980       ?removeId@Collection@Cm@physx@@UAEX_K@Z 1002f980 f   CmCollection.obj
 0001:0002ea50       ?find@Collection@Cm@physx@@UBEPAVPxBase@3@_K@Z 1002fa50 f   CmCollection.obj
 0001:0002eac0       ?add@Collection@Cm@physx@@UAEXAAVPxCollection@3@@Z 1002fac0 f   CmCollection.obj
 0001:0002ec50       ?remove@Collection@Cm@physx@@UAEXAAVPxCollection@3@@Z 1002fc50 f   CmCollection.obj
 0001:0002ed10       ?getNbObjects@Collection@Cm@physx@@UBEIXZ 1002fd10 f   CmCollection.obj
 0001:0002ed30       ?getObject@Collection@Cm@physx@@UBEAAVPxBase@3@I@Z 1002fd30 f   CmCollection.obj
 0001:0002eda0       ?getObjects@Collection@Cm@physx@@UBEIPAPAVPxBase@3@II@Z 1002fda0 f   CmCollection.obj
 0001:0002ee80       ?getNbIds@Collection@Cm@physx@@UBEIXZ 1002fe80 f   CmCollection.obj
 0001:0002eea0       ?getId@Collection@Cm@physx@@UBE_KABVPxBase@3@@Z 1002fea0 f   CmCollection.obj
 0001:0002eef0       ?getIds@Collection@Cm@physx@@UBEIPA_KII@Z 1002fef0 f   CmCollection.obj
 0001:0002f260       ??$?2V?$ReflectionAllocator@VCollection@Cm@physx@@@shdfnd@physx@@@UserAllocated@shdfnd@physx@@SAPAXIV?$ReflectionAllocator@VCollection@Cm@physx@@@12@PBDH@Z 10030260 f i CmCollection.obj
 0001:0002f280       ??0?$CoalescedHashMap@PAVPxBase@physx@@_KU?$Hash@PAVPxBase@physx@@@shdfnd@2@VAllocator@42@@shdfnd@physx@@QAE@IM@Z 10030280 f i CmCollection.obj
 0001:0002f2b0       ??0?$CoalescedHashMap@_KPAVPxBase@physx@@U?$Hash@_K@shdfnd@2@VAllocator@42@@shdfnd@physx@@QAE@IM@Z 100302b0 f i CmCollection.obj
 0001:0002f2e0       ??0?$CollectionHashMap@PAVPxBase@physx@@_KU?$Hash@PAVPxBase@physx@@@shdfnd@2@VAllocator@42@@Cm@physx@@QAE@IM@Z 100302e0 f i CmCollection.obj
 0001:0002f310       ??0?$CollectionHashMap@_KPAVPxBase@physx@@U?$Hash@_K@shdfnd@2@VAllocator@42@@Cm@physx@@QAE@IM@Z 10030310 f i CmCollection.obj
 0001:0002f340       ??0?$HashBase@V?$Pair@$$CB_KPAVPxBase@physx@@@shdfnd@physx@@_KU?$Hash@_K@23@UGetKey@?$HashMapBase@_KPAVPxBase@physx@@U?$Hash@_K@shdfnd@2@VAllocator@42@@internal@23@VAllocator@23@$00@internal@shdfnd@physx@@QAE@IM@Z 10030340 f i CmCollection.obj
 0001:0002f390       ??0?$HashBase@V?$Pair@QAVPxBase@physx@@_K@shdfnd@physx@@PAVPxBase@3@U?$Hash@PAVPxBase@physx@@@23@UGetKey@?$HashMapBase@PAVPxBase@physx@@_KU?$Hash@PAVPxBase@physx@@@shdfnd@2@VAllocator@42@@internal@23@VAllocator@23@$00@internal@shdfnd@physx@@QAE@IM@Z 10030390 f i CmCollection.obj
 0001:0002f3e0       ??0?$HashMapBase@PAVPxBase@physx@@_KU?$Hash@PAVPxBase@physx@@@shdfnd@2@VAllocator@42@@internal@shdfnd@physx@@QAE@IM@Z 100303e0 f i CmCollection.obj
 0001:0002f410       ??0?$HashMapBase@_KPAVPxBase@physx@@U?$Hash@_K@shdfnd@2@VAllocator@42@@internal@shdfnd@physx@@QAE@IM@Z 10030410 f i CmCollection.obj
 0001:0002f440       ??0?$Pair@$$CB_KPAVPxBase@physx@@@shdfnd@physx@@QAE@ABV012@@Z 10030440 f i CmCollection.obj
 0001:0002f480       ??0?$Pair@$$CB_KPAVPxBase@physx@@@shdfnd@physx@@QAE@AB_KABQAVPxBase@2@@Z 10030480 f i CmCollection.obj
 0001:0002f4c0       ??0?$Pair@QAVPxBase@physx@@_K@shdfnd@physx@@QAE@ABQAVPxBase@2@AB_K@Z 100304c0 f i CmCollection.obj
 0001:0002f500       ??0?$Pair@QAVPxBase@physx@@_K@shdfnd@physx@@QAE@ABV012@@Z 10030500 f i CmCollection.obj
 0001:0002f540       ??0?$ReflectionAllocator@VCollection@Cm@physx@@@shdfnd@physx@@QAE@PBD@Z 10030540 f i CmCollection.obj
 0001:0002f560       ??0Collection@Cm@physx@@QAE@XZ 10030560 f i CmCollection.obj
 0001:0002f5d0       ??0Iter@?$HashBase@V?$Pair@$$CB_KPAVPxBase@physx@@@shdfnd@physx@@_KU?$Hash@_K@23@UGetKey@?$HashMapBase@_KPAVPxBase@physx@@U?$Hash@_K@shdfnd@2@VAllocator@42@@internal@23@VAllocator@23@$00@internal@shdfnd@physx@@QAE@AAV1234@@Z 100305d0 f i CmCollection.obj
 0001:0002f650       ??0PxCollection@physx@@IAE@XZ 10030650 f i CmCollection.obj
 0001:0002f670       ??1?$CoalescedHashMap@PAVPxBase@physx@@_KU?$Hash@PAVPxBase@physx@@@shdfnd@2@VAllocator@42@@shdfnd@physx@@QAE@XZ 10030670 f i CmCollection.obj
 0001:0002f690       ??1?$CoalescedHashMap@_KPAVPxBase@physx@@U?$Hash@_K@shdfnd@2@VAllocator@42@@shdfnd@physx@@QAE@XZ 10030690 f i CmCollection.obj
 0001:0002f6b0       ??1?$CollectionHashMap@PAVPxBase@physx@@_KU?$Hash@PAVPxBase@physx@@@shdfnd@2@VAllocator@42@@Cm@physx@@QAE@XZ 100306b0 f i CmCollection.obj
 0001:0002f6d0       ??1?$CollectionHashMap@_KPAVPxBase@physx@@U?$Hash@_K@shdfnd@2@VAllocator@42@@Cm@physx@@QAE@XZ 100306d0 f i CmCollection.obj
 0001:0002f6f0       ??1?$HashBase@V?$Pair@$$CB_KPAVPxBase@physx@@@shdfnd@physx@@_KU?$Hash@_K@23@UGetKey@?$HashMapBase@_KPAVPxBase@physx@@U?$Hash@_K@shdfnd@2@VAllocator@42@@internal@23@VAllocator@23@$00@internal@shdfnd@physx@@QAE@XZ 100306f0 f i CmCollection.obj
 0001:0002f730       ??1?$HashBase@V?$Pair@QAVPxBase@physx@@_K@shdfnd@physx@@PAVPxBase@3@U?$Hash@PAVPxBase@physx@@@23@UGetKey@?$HashMapBase@PAVPxBase@physx@@_KU?$Hash@PAVPxBase@physx@@@shdfnd@2@VAllocator@42@@internal@23@VAllocator@23@$00@internal@shdfnd@physx@@QAE@XZ 10030730 f i CmCollection.obj
 0001:0002f770       ??1?$HashMapBase@PAVPxBase@physx@@_KU?$Hash@PAVPxBase@physx@@@shdfnd@2@VAllocator@42@@internal@shdfnd@physx@@QAE@XZ 10030770 f i CmCollection.obj
 0001:0002f790       ??1?$HashMapBase@_KPAVPxBase@physx@@U?$Hash@_K@shdfnd@2@VAllocator@42@@internal@shdfnd@physx@@QAE@XZ 10030790 f i CmCollection.obj
 0001:0002f7b0       ??1Collection@Cm@physx@@UAE@XZ 100307b0 f i CmCollection.obj
 0001:0002f7f0       ??1PxCollection@physx@@MAE@XZ 100307f0 f i CmCollection.obj
 0001:0002f810       ??A?$HashMapBase@PAVPxBase@physx@@_KU?$Hash@PAVPxBase@physx@@@shdfnd@2@VAllocator@42@@internal@shdfnd@physx@@QAEAA_KABQAVPxBase@3@@Z 10030810 f i CmCollection.obj
 0001:0002f8a0       ??A?$HashMapBase@_KPAVPxBase@physx@@U?$Hash@_K@shdfnd@2@VAllocator@42@@internal@shdfnd@physx@@QAEAAPAVPxBase@3@AB_K@Z 100308a0 f i CmCollection.obj
 0001:0002f930       ??CIter@?$HashBase@V?$Pair@$$CB_KPAVPxBase@physx@@@shdfnd@physx@@_KU?$Hash@_K@23@UGetKey@?$HashMapBase@_KPAVPxBase@physx@@U?$Hash@_K@shdfnd@2@VAllocator@42@@internal@23@VAllocator@23@$00@internal@shdfnd@physx@@QBEPAV?$Pair@$$CB_KPAVPxBase@physx@@@34@XZ 10030930 f i CmCollection.obj
 0001:0002f960       ??EIter@?$HashBase@V?$Pair@$$CB_KPAVPxBase@physx@@@shdfnd@physx@@_KU?$Hash@_K@23@UGetKey@?$HashMapBase@_KPAVPxBase@physx@@U?$Hash@_K@shdfnd@2@VAllocator@42@@internal@23@VAllocator@23@$00@internal@shdfnd@physx@@QAE?AV01234@H@Z 10030960 f i CmCollection.obj
 0001:0002f9d0       ??R?$Hash@PAVPxBase@physx@@@shdfnd@physx@@QBEIABQAVPxBase@2@@Z 100309d0 f i CmCollection.obj
 0001:0002fa00       ??R?$Hash@PAVPxBase@physx@@@shdfnd@physx@@QBE_NABQAVPxBase@2@0@Z 10030a00 f i CmCollection.obj
 0001:0002fa40       ??R?$Hash@_K@shdfnd@physx@@QBEIAB_K@Z 10030a40 f i CmCollection.obj
 0001:0002fa70       ??R?$Hash@_K@shdfnd@physx@@QBE_NAB_K0@Z 10030a70 f i CmCollection.obj
 0001:0002fad0       ??RGetKey@?$HashMapBase@PAVPxBase@physx@@_KU?$Hash@PAVPxBase@physx@@@shdfnd@2@VAllocator@42@@internal@shdfnd@physx@@QAEABQAVPxBase@4@ABV?$Pair@QAVPxBase@physx@@_K@34@@Z 10030ad0 f i CmCollection.obj
 0001:0002faf0       ??RGetKey@?$HashMapBase@_KPAVPxBase@physx@@U?$Hash@_K@shdfnd@2@VAllocator@42@@internal@shdfnd@physx@@QAEAB_KABV?$Pair@$$CB_KPAVPxBase@physx@@@34@@Z 10030af0 f i CmCollection.obj
 0001:0002fb10       ??_ECollection@Cm@physx@@UAEPAXI@Z 10030b10 f i CmCollection.obj
 0001:0002fb10       ??_GCollection@Cm@physx@@UAEPAXI@Z 10030b10 f i CmCollection.obj
 0001:0002fb50       ??_EPxCollection@physx@@MAEPAXI@Z 10030b50 f i CmCollection.obj
 0001:0002fb50       ??_GPxCollection@physx@@MAEPAXI@Z 10030b50 f i CmCollection.obj
 0001:0002fb90       ?advance@Iter@?$HashBase@V?$Pair@$$CB_KPAVPxBase@physx@@@shdfnd@physx@@_KU?$Hash@_K@23@UGetKey@?$HashMapBase@_KPAVPxBase@physx@@U?$Hash@_K@shdfnd@2@VAllocator@42@@internal@23@VAllocator@23@$00@internal@shdfnd@physx@@AAEXXZ 10030b90 f i CmCollection.obj
 0001:0002fbd0       ?allocate@?$ReflectionAllocator@VCollection@Cm@physx@@@shdfnd@physx@@QAEPAXIPBDH@Z 10030bd0 f i CmCollection.obj
 0001:0002fc30       ?capacity@?$HashBase@V?$Pair@QAVPxBase@physx@@_K@shdfnd@physx@@PAVPxBase@3@U?$Hash@PAVPxBase@physx@@@23@UGetKey@?$HashMapBase@PAVPxBase@physx@@_KU?$Hash@PAVPxBase@physx@@@shdfnd@2@VAllocator@42@@internal@23@VAllocator@23@$00@internal@shdfnd@physx@@QBEIXZ 10030c30 f i CmCollection.obj
 0001:0002fc50       ?capacity@?$HashMapBase@PAVPxBase@physx@@_KU?$Hash@PAVPxBase@physx@@@shdfnd@2@VAllocator@42@@internal@shdfnd@physx@@QBEIXZ 10030c50 f i CmCollection.obj
 0001:0002fc70       ?check@Iter@?$HashBase@V?$Pair@$$CB_KPAVPxBase@physx@@@shdfnd@physx@@_KU?$Hash@_K@23@UGetKey@?$HashMapBase@_KPAVPxBase@physx@@U?$Hash@_K@shdfnd@2@VAllocator@42@@internal@23@VAllocator@23@$00@internal@shdfnd@physx@@QBEXXZ 10030c70 f i CmCollection.obj
 0001:0002fce0       ?create@?$HashBase@V?$Pair@$$CB_KPAVPxBase@physx@@@shdfnd@physx@@_KU?$Hash@_K@23@UGetKey@?$HashMapBase@_KPAVPxBase@physx@@U?$Hash@_K@shdfnd@2@VAllocator@42@@internal@23@VAllocator@23@$00@internal@shdfnd@physx@@QAEPAV?$Pair@$$CB_KPAVPxBase@physx@@@34@AB_KAA_N@Z 10030ce0 f i CmCollection.obj
 0001:0002fe90       ?create@?$HashBase@V?$Pair@QAVPxBase@physx@@_K@shdfnd@physx@@PAVPxBase@3@U?$Hash@PAVPxBase@physx@@@23@UGetKey@?$HashMapBase@PAVPxBase@physx@@_KU?$Hash@PAVPxBase@physx@@@shdfnd@2@VAllocator@42@@internal@23@VAllocator@23@$00@internal@shdfnd@physx@@QAEPAV?$Pair@QAVPxBase@physx@@_K@34@ABQAVPxBase@4@AA_N@Z 10030e90 f i CmCollection.obj
 0001:00030040       ?destroy@?$HashBase@V?$Pair@$$CB_KPAVPxBase@physx@@@shdfnd@physx@@_KU?$Hash@_K@23@UGetKey@?$HashMapBase@_KPAVPxBase@physx@@U?$Hash@_K@shdfnd@2@VAllocator@42@@internal@23@VAllocator@23@$00@internal@shdfnd@physx@@AAEXXZ 10031040 f i CmCollection.obj
 0001:000300b0       ?destroy@?$HashBase@V?$Pair@QAVPxBase@physx@@_K@shdfnd@physx@@PAVPxBase@3@U?$Hash@PAVPxBase@physx@@@23@UGetKey@?$HashMapBase@PAVPxBase@physx@@_KU?$Hash@PAVPxBase@physx@@@shdfnd@2@VAllocator@42@@internal@23@VAllocator@23@$00@internal@shdfnd@physx@@AAEXXZ 100310b0 f i CmCollection.obj
 0001:00030120       ?done@Iter@?$HashBase@V?$Pair@$$CB_KPAVPxBase@physx@@@shdfnd@physx@@_KU?$Hash@_K@23@UGetKey@?$HashMapBase@_KPAVPxBase@physx@@U?$Hash@_K@shdfnd@2@VAllocator@42@@internal@23@VAllocator@23@$00@internal@shdfnd@physx@@QBE_NXZ 10031120 f i CmCollection.obj
 0001:00030160       ?erase@?$HashBase@V?$Pair@$$CB_KPAVPxBase@physx@@@shdfnd@physx@@_KU?$Hash@_K@23@UGetKey@?$HashMapBase@_KPAVPxBase@physx@@U?$Hash@_K@shdfnd@2@VAllocator@42@@internal@23@VAllocator@23@$00@internal@shdfnd@physx@@QAE_NAB_K@Z 10031160 f i CmCollection.obj
 0001:000302a0       ?erase@?$HashBase@V?$Pair@QAVPxBase@physx@@_K@shdfnd@physx@@PAVPxBase@3@U?$Hash@PAVPxBase@physx@@@23@UGetKey@?$HashMapBase@PAVPxBase@physx@@_KU?$Hash@PAVPxBase@physx@@@shdfnd@2@VAllocator@42@@internal@23@VAllocator@23@$00@internal@shdfnd@physx@@QAE_NABQAVPxBase@4@@Z 100312a0 f i CmCollection.obj
 0001:000303e0       ?erase@?$HashMapBase@PAVPxBase@physx@@_KU?$Hash@PAVPxBase@physx@@@shdfnd@2@VAllocator@42@@internal@shdfnd@physx@@QAE_NABQAVPxBase@4@@Z 100313e0 f i CmCollection.obj
 0001:00030400       ?erase@?$HashMapBase@_KPAVPxBase@physx@@U?$Hash@_K@shdfnd@2@VAllocator@42@@internal@shdfnd@physx@@QAE_NAB_K@Z 10031400 f i CmCollection.obj
 0001:00030420       ?find@?$HashBase@V?$Pair@$$CB_KPAVPxBase@physx@@@shdfnd@physx@@_KU?$Hash@_K@23@UGetKey@?$HashMapBase@_KPAVPxBase@physx@@U?$Hash@_K@shdfnd@2@VAllocator@42@@internal@23@VAllocator@23@$00@internal@shdfnd@physx@@QBEPBV?$Pair@$$CB_KPAVPxBase@physx@@@34@AB_K@Z 10031420 f i CmCollection.obj
 0001:00030500       ?find@?$HashBase@V?$Pair@QAVPxBase@physx@@_K@shdfnd@physx@@PAVPxBase@3@U?$Hash@PAVPxBase@physx@@@23@UGetKey@?$HashMapBase@PAVPxBase@physx@@_KU?$Hash@PAVPxBase@physx@@@shdfnd@2@VAllocator@42@@internal@23@VAllocator@23@$00@internal@shdfnd@physx@@QBEPBV?$Pair@QAVPxBase@physx@@_K@34@ABQAVPxBase@4@@Z 10031500 f i CmCollection.obj
 0001:000305e0       ?find@?$HashMapBase@PAVPxBase@physx@@_KU?$Hash@PAVPxBase@physx@@@shdfnd@2@VAllocator@42@@internal@shdfnd@physx@@QBEPBV?$Pair@QAVPxBase@physx@@_K@34@ABQAVPxBase@4@@Z 100315e0 f i CmCollection.obj
 0001:00030600       ?find@?$HashMapBase@_KPAVPxBase@physx@@U?$Hash@_K@shdfnd@2@VAllocator@42@@internal@shdfnd@physx@@QBEPBV?$Pair@$$CB_KPAVPxBase@physx@@@34@AB_K@Z 10031600 f i CmCollection.obj
 0001:00030620       ?freeListAdd@?$HashBase@V?$Pair@$$CB_KPAVPxBase@physx@@@shdfnd@physx@@_KU?$Hash@_K@23@UGetKey@?$HashMapBase@_KPAVPxBase@physx@@U?$Hash@_K@shdfnd@2@VAllocator@42@@internal@23@VAllocator@23@$00@internal@shdfnd@physx@@AAEXI@Z 10031620 f i CmCollection.obj
 0001:000306d0       ?freeListAdd@?$HashBase@V?$Pair@$$CB_KPAVPxBase@physx@@@shdfnd@physx@@_KU?$Hash@_K@23@UGetKey@?$HashMapBase@_KPAVPxBase@physx@@U?$Hash@_K@shdfnd@2@VAllocator@42@@internal@23@VAllocator@23@$00@internal@shdfnd@physx@@AAEXII@Z 100316d0 f i CmCollection.obj
 0001:000307c0       ?freeListAdd@?$HashBase@V?$Pair@QAVPxBase@physx@@_K@shdfnd@physx@@PAVPxBase@3@U?$Hash@PAVPxBase@physx@@@23@UGetKey@?$HashMapBase@PAVPxBase@physx@@_KU?$Hash@PAVPxBase@physx@@@shdfnd@2@VAllocator@42@@internal@23@VAllocator@23@$00@internal@shdfnd@physx@@AAEXI@Z 100317c0 f i CmCollection.obj
 0001:00030870       ?freeListAdd@?$HashBase@V?$Pair@QAVPxBase@physx@@_K@shdfnd@physx@@PAVPxBase@3@U?$Hash@PAVPxBase@physx@@@23@UGetKey@?$HashMapBase@PAVPxBase@physx@@_KU?$Hash@PAVPxBase@physx@@@shdfnd@2@VAllocator@42@@internal@23@VAllocator@23@$00@internal@shdfnd@physx@@AAEXII@Z 10031870 f i CmCollection.obj
 0001:00030960       ?freeListEmpty@?$HashBase@V?$Pair@$$CB_KPAVPxBase@physx@@@shdfnd@physx@@_KU?$Hash@_K@23@UGetKey@?$HashMapBase@_KPAVPxBase@physx@@U?$Hash@_K@shdfnd@2@VAllocator@42@@internal@23@VAllocator@23@$00@internal@shdfnd@physx@@ABE_NXZ 10031960 f i CmCollection.obj
 0001:000309d0       ?freeListEmpty@?$HashBase@V?$Pair@QAVPxBase@physx@@_K@shdfnd@physx@@PAVPxBase@3@U?$Hash@PAVPxBase@physx@@@23@UGetKey@?$HashMapBase@PAVPxBase@physx@@_KU?$Hash@PAVPxBase@physx@@@shdfnd@2@VAllocator@42@@internal@23@VAllocator@23@$00@internal@shdfnd@physx@@ABE_NXZ 100319d0 f i CmCollection.obj
 0001:00030a40       ?freeListGetNext@?$HashBase@V?$Pair@$$CB_KPAVPxBase@physx@@@shdfnd@physx@@_KU?$Hash@_K@23@UGetKey@?$HashMapBase@_KPAVPxBase@physx@@U?$Hash@_K@shdfnd@2@VAllocator@42@@internal@23@VAllocator@23@$00@internal@shdfnd@physx@@AAEIXZ 10031a40 f i CmCollection.obj
 0001:00030b60       ?freeListGetNext@?$HashBase@V?$Pair@QAVPxBase@physx@@_K@shdfnd@physx@@PAVPxBase@3@U?$Hash@PAVPxBase@physx@@@23@UGetKey@?$HashMapBase@PAVPxBase@physx@@_KU?$Hash@PAVPxBase@physx@@@shdfnd@2@VAllocator@42@@internal@23@VAllocator@23@$00@internal@shdfnd@physx@@AAEIXZ 10031b60 f i CmCollection.obj
 0001:00030c80       ?getEntries@?$CoalescedHashMap@PAVPxBase@physx@@_KU?$Hash@PAVPxBase@physx@@@shdfnd@2@VAllocator@42@@shdfnd@physx@@QBEPBV?$Pair@QAVPxBase@physx@@_K@23@XZ 10031c80 f i CmCollection.obj
 0001:00030ca0       ?getEntries@?$HashBase@V?$Pair@QAVPxBase@physx@@_K@shdfnd@physx@@PAVPxBase@3@U?$Hash@PAVPxBase@physx@@@23@UGetKey@?$HashMapBase@PAVPxBase@physx@@_KU?$Hash@PAVPxBase@physx@@@shdfnd@2@VAllocator@42@@internal@23@VAllocator@23@$00@internal@shdfnd@physx@@QBEPBV?$Pair@QAVPxBase@physx@@_K@34@XZ 10031ca0 f i CmCollection.obj
 0001:00030cc0       ?getIterator@?$HashMapBase@_KPAVPxBase@physx@@U?$Hash@_K@shdfnd@2@VAllocator@42@@internal@shdfnd@physx@@QAE?AVIter@?$HashBase@V?$Pair@$$CB_KPAVPxBase@physx@@@shdfnd@physx@@_KU?$Hash@_K@23@UGetKey@?$HashMapBase@_KPAVPxBase@physx@@U?$Hash@_K@shdfnd@2@VAllocator@42@@internal@23@VAllocator@23@$00@234@XZ 10031cc0 f i CmCollection.obj
 0001:00030cf0       ?getName@?$ReflectionAllocator@VCollection@Cm@physx@@@shdfnd@physx@@CAPBDXZ 10031cf0 f i CmCollection.obj
 0001:00030d40       ?grow@?$HashBase@V?$Pair@$$CB_KPAVPxBase@physx@@@shdfnd@physx@@_KU?$Hash@_K@23@UGetKey@?$HashMapBase@_KPAVPxBase@physx@@U?$Hash@_K@shdfnd@2@VAllocator@42@@internal@23@VAllocator@23@$00@internal@shdfnd@physx@@AAEXXZ 10031d40 f i CmCollection.obj
 0001:00030e00       ?grow@?$HashBase@V?$Pair@QAVPxBase@physx@@_K@shdfnd@physx@@PAVPxBase@3@U?$Hash@PAVPxBase@physx@@@23@UGetKey@?$HashMapBase@PAVPxBase@physx@@_KU?$Hash@PAVPxBase@physx@@@shdfnd@2@VAllocator@42@@internal@23@VAllocator@23@$00@internal@shdfnd@physx@@AAEXXZ 10031e00 f i CmCollection.obj
 0001:00030ec0       ?hash@?$HashBase@V?$Pair@$$CB_KPAVPxBase@physx@@@shdfnd@physx@@_KU?$Hash@_K@23@UGetKey@?$HashMapBase@_KPAVPxBase@physx@@U?$Hash@_K@shdfnd@2@VAllocator@42@@internal@23@VAllocator@23@$00@internal@shdfnd@physx@@ABEIAB_K@Z 10031ec0 f i CmCollection.obj
 0001:00030ef0       ?hash@?$HashBase@V?$Pair@$$CB_KPAVPxBase@physx@@@shdfnd@physx@@_KU?$Hash@_K@23@UGetKey@?$HashMapBase@_KPAVPxBase@physx@@U?$Hash@_K@shdfnd@2@VAllocator@42@@internal@23@VAllocator@23@$00@internal@shdfnd@physx@@ABEIAB_KI@Z 10031ef0 f i CmCollection.obj
 0001:00030f30       ?hash@?$HashBase@V?$Pair@QAVPxBase@physx@@_K@shdfnd@physx@@PAVPxBase@3@U?$Hash@PAVPxBase@physx@@@23@UGetKey@?$HashMapBase@PAVPxBase@physx@@_KU?$Hash@PAVPxBase@physx@@@shdfnd@2@VAllocator@42@@internal@23@VAllocator@23@$00@internal@shdfnd@physx@@ABEIABQAVPxBase@4@@Z 10031f30 f i CmCollection.obj
 0001:00030f60       ?hash@?$HashBase@V?$Pair@QAVPxBase@physx@@_K@shdfnd@physx@@PAVPxBase@3@U?$Hash@PAVPxBase@physx@@@23@UGetKey@?$HashMapBase@PAVPxBase@physx@@_KU?$Hash@PAVPxBase@physx@@@shdfnd@2@VAllocator@42@@internal@23@VAllocator@23@$00@internal@shdfnd@physx@@ABEIABQAVPxBase@4@I@Z 10031f60 f i CmCollection.obj
 0001:00030fa0       ?hash@shdfnd@physx@@YAI_K@Z 10031fa0 f i CmCollection.obj
 0001:000310d0       ?init@?$HashBase@V?$Pair@$$CB_KPAVPxBase@physx@@@shdfnd@physx@@_KU?$Hash@_K@23@UGetKey@?$HashMapBase@_KPAVPxBase@physx@@U?$Hash@_K@shdfnd@2@VAllocator@42@@internal@23@VAllocator@23@$00@internal@shdfnd@physx@@AAEXIM@Z 100320d0 f i CmCollection.obj
 0001:00031180       ?init@?$HashBase@V?$Pair@QAVPxBase@physx@@_K@shdfnd@physx@@PAVPxBase@3@U?$Hash@PAVPxBase@physx@@@23@UGetKey@?$HashMapBase@PAVPxBase@physx@@_KU?$Hash@PAVPxBase@physx@@@shdfnd@2@VAllocator@42@@internal@23@VAllocator@23@$00@internal@shdfnd@physx@@AAEXIM@Z 10032180 f i CmCollection.obj
 0001:00031230       ?insert@?$HashMapBase@PAVPxBase@physx@@_KU?$Hash@PAVPxBase@physx@@@shdfnd@2@VAllocator@42@@internal@shdfnd@physx@@QAE_NQAVPxBase@4@_K@Z 10032230 f i CmCollection.obj
 0001:000312d0       ?insert@?$HashMapBase@_KPAVPxBase@physx@@U?$Hash@_K@shdfnd@2@VAllocator@42@@internal@shdfnd@physx@@QAE_N_KQAVPxBase@4@@Z 100322d0 f i CmCollection.obj
 0001:00031370       ?release@Collection@Cm@physx@@UAEXXZ 10032370 f i CmCollection.obj
 0001:000313c0       ?replaceWithLast@?$HashBase@V?$Pair@$$CB_KPAVPxBase@physx@@@shdfnd@physx@@_KU?$Hash@_K@23@UGetKey@?$HashMapBase@_KPAVPxBase@physx@@U?$Hash@_K@shdfnd@2@VAllocator@42@@internal@23@VAllocator@23@$00@internal@shdfnd@physx@@AAEXI@Z 100323c0 f i CmCollection.obj
 0001:00031510       ?replaceWithLast@?$HashBase@V?$Pair@QAVPxBase@physx@@_K@shdfnd@physx@@PAVPxBase@3@U?$Hash@PAVPxBase@physx@@@23@UGetKey@?$HashMapBase@PAVPxBase@physx@@_KU?$Hash@PAVPxBase@physx@@@shdfnd@2@VAllocator@42@@internal@23@VAllocator@23@$00@internal@shdfnd@physx@@AAEXI@Z 10032510 f i CmCollection.obj
 0001:00031660       ?reserve@?$HashBase@V?$Pair@$$CB_KPAVPxBase@physx@@@shdfnd@physx@@_KU?$Hash@_K@23@UGetKey@?$HashMapBase@_KPAVPxBase@physx@@U?$Hash@_K@shdfnd@2@VAllocator@42@@internal@23@VAllocator@23@$00@internal@shdfnd@physx@@QAEXI@Z 10032660 f i CmCollection.obj
 0001:00031690       ?reserve@?$HashBase@V?$Pair@QAVPxBase@physx@@_K@shdfnd@physx@@PAVPxBase@3@U?$Hash@PAVPxBase@physx@@@23@UGetKey@?$HashMapBase@PAVPxBase@physx@@_KU?$Hash@PAVPxBase@physx@@@shdfnd@2@VAllocator@42@@internal@23@VAllocator@23@$00@internal@shdfnd@physx@@QAEXI@Z 10032690 f i CmCollection.obj
 0001:000316c0       ?reserve@?$HashMapBase@PAVPxBase@physx@@_KU?$Hash@PAVPxBase@physx@@@shdfnd@2@VAllocator@42@@internal@shdfnd@physx@@QAEXI@Z 100326c0 f i CmCollection.obj
 0001:000316e0       ?reserveInternal@?$HashBase@V?$Pair@$$CB_KPAVPxBase@physx@@@shdfnd@physx@@_KU?$Hash@_K@23@UGetKey@?$HashMapBase@_KPAVPxBase@physx@@U?$Hash@_K@shdfnd@2@VAllocator@42@@internal@23@VAllocator@23@$00@internal@shdfnd@physx@@AAEXI@Z 100326e0 f i CmCollection.obj
 0001:00031ba0       ?reserveInternal@?$HashBase@V?$Pair@QAVPxBase@physx@@_K@shdfnd@physx@@PAVPxBase@3@U?$Hash@PAVPxBase@physx@@@23@UGetKey@?$HashMapBase@PAVPxBase@physx@@_KU?$Hash@PAVPxBase@physx@@@shdfnd@2@VAllocator@42@@internal@23@VAllocator@23@$00@internal@shdfnd@physx@@AAEXI@Z 10032ba0 f i CmCollection.obj
 0001:00032060       ?size@?$HashBase@V?$Pair@$$CB_KPAVPxBase@physx@@@shdfnd@physx@@_KU?$Hash@_K@23@UGetKey@?$HashMapBase@_KPAVPxBase@physx@@U?$Hash@_K@shdfnd@2@VAllocator@42@@internal@23@VAllocator@23@$00@internal@shdfnd@physx@@QBEIXZ 10033060 f i CmCollection.obj
 0001:00032080       ?size@?$HashBase@V?$Pair@QAVPxBase@physx@@_K@shdfnd@physx@@PAVPxBase@3@U?$Hash@PAVPxBase@physx@@@23@UGetKey@?$HashMapBase@PAVPxBase@physx@@_KU?$Hash@PAVPxBase@physx@@@shdfnd@2@VAllocator@42@@internal@23@VAllocator@23@$00@internal@shdfnd@physx@@QBEIXZ 10033080 f i CmCollection.obj
 0001:000320a0       ?size@?$HashMapBase@PAVPxBase@physx@@_KU?$Hash@PAVPxBase@physx@@@shdfnd@2@VAllocator@42@@internal@shdfnd@physx@@QBEIXZ 100330a0 f i CmCollection.obj
 0001:000320c0       ?size@?$HashMapBase@_KPAVPxBase@physx@@U?$Hash@_K@shdfnd@2@VAllocator@42@@internal@shdfnd@physx@@QBEIXZ 100330c0 f i CmCollection.obj
 0001:000320e0       ?skip@Iter@?$HashBase@V?$Pair@$$CB_KPAVPxBase@physx@@@shdfnd@physx@@_KU?$Hash@_K@23@UGetKey@?$HashMapBase@_KPAVPxBase@physx@@U?$Hash@_K@shdfnd@2@VAllocator@42@@internal@23@VAllocator@23@$00@internal@shdfnd@physx@@AAEXXZ 100330e0 f i CmCollection.obj
 0001:00032150       ?getProfileNames@CmEventNameProvider@Cm@physx@@UBE?AUPxProfileNames@3@XZ 10033150 f   CmEventProfiler.obj
 0001:00032180       ?getStringFromId@EventProfiler@Cm@physx@@QAEPBDG@Z 10033180 f   CmEventProfiler.obj
 0001:000321a0       ?enableNVTXSupport@Cm@physx@@YAX_N@Z 100331a0 f   CmEventProfiler.obj
 0001:000321b0       ?isNVTXSupportEnabled@Cm@physx@@YA_NXZ 100331b0 f   CmEventProfiler.obj
 0001:000321e0       ??0?$Pair@$$CBUEventIdContextPair@nvtx@@_K@shdfnd@physx@@QAE@ABUEventIdContextPair@nvtx@@AB_K@Z 100331e0 f i CmEventProfiler.obj
 0001:00032230       ??0?$Pair@$$CBUEventIdContextPair@nvtx@@_K@shdfnd@physx@@QAE@ABV012@@Z 10033230 f i CmEventProfiler.obj
 0001:00032280       ??0?$PxProfileCompileTimeFilteredEventId@$00@physx@@QAE@G@Z 10033280 f i CmEventProfiler.obj
 0001:000322b0       ??0?$PxProfileCompileTimeFilteredEventId@$0A@@physx@@QAE@G@Z 100332b0 f i CmEventProfiler.obj
 0001:000322e0       ??0EventIdContextPair@nvtx@@QAE@_KG@Z 100332e0 f i CmEventProfiler.obj
 0001:00032320       ??0PxProfileEventId@physx@@QAE@G_N@Z 10033320 f i CmEventProfiler.obj
 0001:00032350       ??0PxProfileEventName@physx@@QAE@PBDUPxProfileEventId@1@@Z 10033350 f i CmEventProfiler.obj
 0001:00032380       ??0PxProfileNames@physx@@QAE@IPBUPxProfileEventName@1@@Z 10033380 f i CmEventProfiler.obj
 0001:000323b0       ??0ScopedLock@?$MutexT@V?$ReflectionAllocator@VMutexImpl@shdfnd@physx@@@shdfnd@physx@@@shdfnd@physx@@QAE@AAV123@@Z 100333b0 f i CmEventProfiler.obj
 0001:000323e0       ??1ScopedLock@?$MutexT@V?$ReflectionAllocator@VMutexImpl@shdfnd@physx@@@shdfnd@physx@@@shdfnd@physx@@QAE@XZ 100333e0 f i CmEventProfiler.obj
 0001:00032400       ??8EventIdContextPair@nvtx@@QBE_NABU01@@Z 10033400 f i CmEventProfiler.obj
 0001:00032470       ??A?$HashMapBase@UEventIdContextPair@nvtx@@_KU?$Hash@UEventIdContextPair@nvtx@@@2@VAllocator@shdfnd@physx@@@internal@shdfnd@physx@@QAEAA_KABUEventIdContextPair@nvtx@@@Z 10033470 f i CmEventProfiler.obj
 0001:00032500       ??R?$Hash@UEventIdContextPair@nvtx@@@nvtx@@QBEIABUEventIdContextPair@1@@Z 10033500 f i CmEventProfiler.obj
 0001:00032550       ??R?$Hash@UEventIdContextPair@nvtx@@@nvtx@@QBE_NABUEventIdContextPair@1@0@Z 10033550 f i CmEventProfiler.obj
 0001:00032570       ??RGetKey@?$HashMapBase@UEventIdContextPair@nvtx@@_KU?$Hash@UEventIdContextPair@nvtx@@@2@VAllocator@shdfnd@physx@@@internal@shdfnd@physx@@QAEABUEventIdContextPair@nvtx@@ABV?$Pair@$$CBUEventIdContextPair@nvtx@@_K@34@@Z 10033570 f i CmEventProfiler.obj
 0001:00032590       ?GetMBPPostUpdate@BroadPhase@ProfileEventId@Cm@physx@@SAABUPxProfileEventId@4@XZ 10033590 f i CmEventProfiler.obj
 0001:000325a0       ?GetMBPPostUpdateSPU@BroadPhase@ProfileEventId@Cm@physx@@SAABUPxProfileEventId@4@XZ 100335a0 f i CmEventProfiler.obj
 0001:000325b0       ?GetMBPUpdate@BroadPhase@ProfileEventId@Cm@physx@@SAABUPxProfileEventId@4@XZ 100335b0 f i CmEventProfiler.obj
 0001:000325c0       ?GetMBPUpdateSPU@BroadPhase@ProfileEventId@Cm@physx@@SAABUPxProfileEventId@4@XZ 100335c0 f i CmEventProfiler.obj
 0001:000325d0       ?GetSapPostUpdate@BroadPhase@ProfileEventId@Cm@physx@@SAABUPxProfileEventId@4@XZ 100335d0 f i CmEventProfiler.obj
 0001:000325e0       ?GetSapPostUpdateSPU@BroadPhase@ProfileEventId@Cm@physx@@SAABUPxProfileEventId@4@XZ 100335e0 f i CmEventProfiler.obj
 0001:000325f0       ?GetSapUpdate@BroadPhase@ProfileEventId@Cm@physx@@SAABUPxProfileEventId@4@XZ 100335f0 f i CmEventProfiler.obj
 0001:00032600       ?GetSapUpdateSPU@BroadPhase@ProfileEventId@Cm@physx@@SAABUPxProfileEventId@4@XZ 10033600 f i CmEventProfiler.obj
 0001:00032610       ?GetaddActor@API@ProfileEventId@Cm@physx@@SAABUPxProfileEventId@4@XZ 10033610 f i CmEventProfiler.obj
 0001:00032620       ?GetaddActorToSim@API@ProfileEventId@Cm@physx@@SAABUPxProfileEventId@4@XZ 10033620 f i CmEventProfiler.obj
 0001:00032630       ?GetaddActors@API@ProfileEventId@Cm@physx@@SAABUPxProfileEventId@4@XZ 10033630 f i CmEventProfiler.obj
 0001:00032640       ?GetaddAggregate@API@ProfileEventId@Cm@physx@@SAABUPxProfileEventId@4@XZ 10033640 f i CmEventProfiler.obj
 0001:00032650       ?GetaddArticulation@API@ProfileEventId@Cm@physx@@SAABUPxProfileEventId@4@XZ 10033650 f i CmEventProfiler.obj
 0001:00032660       ?GetaddCloth@API@ProfileEventId@Cm@physx@@SAABUPxProfileEventId@4@XZ 10033660 f i CmEventProfiler.obj
 0001:00032670       ?GetaddCollection@API@ProfileEventId@Cm@physx@@SAABUPxProfileEventId@4@XZ 10033670 f i CmEventProfiler.obj
 0001:00032680       ?GetaddParticleFluid@API@ProfileEventId@Cm@physx@@SAABUPxProfileEventId@4@XZ 10033680 f i CmEventProfiler.obj
 0001:00032690       ?GetaddParticleSystem@API@ProfileEventId@Cm@physx@@SAABUPxProfileEventId@4@XZ 10033690 f i CmEventProfiler.obj
 0001:000326a0       ?GetaddShapesToSQ@API@ProfileEventId@Cm@physx@@SAABUPxProfileEventId@4@XZ 100336a0 f i CmEventProfiler.obj
 0001:000326b0       ?GetaddShapesToSim@API@ProfileEventId@Cm@physx@@SAABUPxProfileEventId@4@XZ 100336b0 f i CmEventProfiler.obj
 0001:000326c0       ?GetapplyExternalImpulses@Articulations@ProfileEventId@Cm@physx@@SAABUPxProfileEventId@4@XZ 100336c0 f i CmEventProfiler.obj
 0001:000326d0       ?GetapplyJointDrives@Articulations@ProfileEventId@Cm@physx@@SAABUPxProfileEventId@4@XZ 100336d0 f i CmEventProfiler.obj
 0001:000326e0       ?GetbroadPhase@Basic@ProfileEventId@Cm@physx@@SAABUPxProfileEventId@4@XZ 100336e0 f i CmEventProfiler.obj
 0001:000326f0       ?GetbrokenEdgeIslands@IslandGen@ProfileEventId@Cm@physx@@SAABUPxProfileEventId@4@XZ 100336f0 f i CmEventProfiler.obj
 0001:00032700       ?GetbuildActiveTransforms@Sim@ProfileEventId@Cm@physx@@SAABUPxProfileEventId@4@XZ 10033700 f i CmEventProfiler.obj
 0001:00032710       ?GetccdBroadPhase@Sim@ProfileEventId@Cm@physx@@SAABUPxProfileEventId@4@XZ 10033710 f i CmEventProfiler.obj
 0001:00032720       ?GetccdBroadPhaseComplete@Sim@ProfileEventId@Cm@physx@@SAABUPxProfileEventId@4@XZ 10033720 f i CmEventProfiler.obj
 0001:00032730       ?GetccdIsland@Sim@ProfileEventId@Cm@physx@@SAABUPxProfileEventId@4@XZ 10033730 f i CmEventProfiler.obj
 0001:00032740       ?GetccdPair@Sim@ProfileEventId@Cm@physx@@SAABUPxProfileEventId@4@XZ 10033740 f i CmEventProfiler.obj
 0001:00032750       ?GetccdSweep@Sim@ProfileEventId@Cm@physx@@SAABUPxProfileEventId@4@XZ 10033750 f i CmEventProfiler.obj
 0001:00032760       ?GetccdSweepMerge@Sim@ProfileEventId@Cm@physx@@SAABUPxProfileEventId@4@XZ 10033760 f i CmEventProfiler.obj
 0001:00032770       ?GetcheckCollision@Basic@ProfileEventId@Cm@physx@@SAABUPxProfileEventId@4@XZ 10033770 f i CmEventProfiler.obj
 0001:00032780       ?GetcheckConstraintBreakage@Sim@ProfileEventId@Cm@physx@@SAABUPxProfileEventId@4@XZ 10033780 f i CmEventProfiler.obj
 0001:00032790       ?GetcheckResults@Basic@ProfileEventId@Cm@physx@@SAABUPxProfileEventId@4@XZ 10033790 f i CmEventProfiler.obj
 0001:000327a0       ?GetcleanupEdgeEvents@IslandGen@ProfileEventId@Cm@physx@@SAABUPxProfileEventId@4@XZ 100337a0 f i CmEventProfiler.obj
 0001:000327b0       ?GetcollideQueueTasks@Sim@ProfileEventId@Cm@physx@@SAABUPxProfileEventId@4@XZ 100337b0 f i CmEventProfiler.obj
 0001:000327c0       ?Getcollision@Basic@ProfileEventId@Cm@physx@@SAABUPxProfileEventId@4@XZ 100337c0 f i CmEventProfiler.obj
 0001:000327d0       ?GetcomputeAABBUpdateLists@BroadPhase@ProfileEventId@Cm@physx@@SAABUPxProfileEventId@4@XZ 100337d0 f i CmEventProfiler.obj
 0001:000327e0       ?GetcomputeAggAggShapePairs@BroadPhase@ProfileEventId@Cm@physx@@SAABUPxProfileEventId@4@XZ 100337e0 f i CmEventProfiler.obj
 0001:000327f0       ?GetcomputeJointDrives@Articulations@ProfileEventId@Cm@physx@@SAABUPxProfileEventId@4@XZ 100337f0 f i CmEventProfiler.obj
 0001:00032800       ?GetcorrelatePatches@Dynamics@ProfileEventId@Cm@physx@@SAABUPxProfileEventId@4@XZ 10033800 f i CmEventProfiler.obj
 0001:00032810       ?GetcreateBatchQuery@API@ProfileEventId@Cm@physx@@SAABUPxProfileEventId@4@XZ 10033810 f i CmEventProfiler.obj
 0001:00032820       ?GetcreateContactPatches@Dynamics@ProfileEventId@Cm@physx@@SAABUPxProfileEventId@4@XZ 10033820 f i CmEventProfiler.obj
 0001:00032830       ?GetcreateFinalize@Dynamics@ProfileEventId@Cm@physx@@SAABUPxProfileEventId@4@XZ 10033830 f i CmEventProfiler.obj
 0001:00032840       ?GetcreatePVDInstance@PVD@ProfileEventId@Cm@physx@@SAABUPxProfileEventId@4@XZ 10033840 f i CmEventProfiler.obj
 0001:00032850       ?GetcreatedNodes@IslandGen@ProfileEventId@Cm@physx@@SAABUPxProfileEventId@4@XZ 10033850 f i CmEventProfiler.obj
 0001:00032860       ?GetdeletedNodesEdges@IslandGen@ProfileEventId@Cm@physx@@SAABUPxProfileEventId@4@XZ 10033860 f i CmEventProfiler.obj
 0001:00032870       ?GetduplicateKinematicNodes@IslandGen@ProfileEventId@Cm@physx@@SAABUPxProfileEventId@4@XZ 10033870 f i CmEventProfiler.obj
 0001:00032880       ?Getdynamics@Basic@ProfileEventId@Cm@physx@@SAABUPxProfileEventId@4@XZ 10033880 f i CmEventProfiler.obj
 0001:00032890       ?GetemptyIslands@IslandGen@ProfileEventId@Cm@physx@@SAABUPxProfileEventId@4@XZ 10033890 f i CmEventProfiler.obj
 0001:000328a0       ?GetendStep@ParticleSim@ProfileEventId@Cm@physx@@SAABUPxProfileEventId@4@XZ 100338a0 f i CmEventProfiler.obj
 0001:000328b0       ?Getexecute@BatchedSceneQuery@ProfileEventId@Cm@physx@@SAABUPxProfileEventId@4@XZ 100338b0 f i CmEventProfiler.obj
 0001:000328c0       ?GetfetchResults@Basic@ProfileEventId@Cm@physx@@SAABUPxProfileEventId@4@XZ 100338c0 f i CmEventProfiler.obj
 0001:000328d0       ?GetfetchResults@Sim@ProfileEventId@Cm@physx@@SAABUPxProfileEventId@4@XZ 100338d0 f i CmEventProfiler.obj
 0001:000328e0       ?GetfindAndReplaceWithLast@API@ProfileEventId@Cm@physx@@SAABUPxProfileEventId@4@XZ 100338e0 f i CmEventProfiler.obj
 0001:000328f0       ?GetfinishModifiablePairs@Sim@ProfileEventId@Cm@physx@@SAABUPxProfileEventId@4@XZ 100338f0 f i CmEventProfiler.obj
 0001:00032900       ?GetfireCallBacksPostSync@Sim@ProfileEventId@Cm@physx@@SAABUPxProfileEventId@4@XZ 10033900 f i CmEventProfiler.obj
 0001:00032910       ?GetfireCallBacksPreSync@Sim@ProfileEventId@Cm@physx@@SAABUPxProfileEventId@4@XZ 10033910 f i CmEventProfiler.obj
 0001:00032920       ?GetfireCustomFilteringCallbacks@Sim@ProfileEventId@Cm@physx@@SAABUPxProfileEventId@4@XZ 10033920 f i CmEventProfiler.obj
 0001:00032930       ?GetflushQueryUpdates@API@ProfileEventId@Cm@physx@@SAABUPxProfileEventId@4@XZ 10033930 f i CmEventProfiler.obj
 0001:00032940       ?GetflushSimulation@API@ProfileEventId@Cm@physx@@SAABUPxProfileEventId@4@XZ 10033940 f i CmEventProfiler.obj
 0001:00032950       ?GetflushUpdates@SceneQuery@ProfileEventId@Cm@physx@@SAABUPxProfileEventId@4@XZ 10033950 f i CmEventProfiler.obj
 0001:00032960       ?GetforceDynamicTreeRebuild@API@ProfileEventId@Cm@physx@@SAABUPxProfileEventId@4@XZ 10033960 f i CmEventProfiler.obj
 0001:00032970       ?GetfreeBuffers@IslandGen@ProfileEventId@Cm@physx@@SAABUPxProfileEventId@4@XZ 10033970 f i CmEventProfiler.obj
 0001:00032980       ?GetgetFrictionPatch@Dynamics@ProfileEventId@Cm@physx@@SAABUPxProfileEventId@4@XZ 10033980 f i CmEventProfiler.obj
 0001:00032990       ?GetgetSimEvents@Sim@ProfileEventId@Cm@physx@@SAABUPxProfileEventId@4@XZ 10033990 f i CmEventProfiler.obj
 0001:000329a0       ?GetgrowPatches@Dynamics@ProfileEventId@Cm@physx@@SAABUPxProfileEventId@4@XZ 100339a0 f i CmEventProfiler.obj
 0001:000329b0       ?Getintegrate@Articulations@ProfileEventId@Cm@physx@@SAABUPxProfileEventId@4@XZ 100339b0 f i CmEventProfiler.obj
 0001:000329c0       ?GetislandGen@Basic@ProfileEventId@Cm@physx@@SAABUPxProfileEventId@4@XZ 100339c0 f i CmEventProfiler.obj
 0001:000329d0       ?GetjoinedEdges@IslandGen@ProfileEventId@Cm@physx@@SAABUPxProfileEventId@4@XZ 100339d0 f i CmEventProfiler.obj
 0001:000329e0       ?GetjointLoads@Articulations@ProfileEventId@Cm@physx@@SAABUPxProfileEventId@4@XZ 100339e0 f i CmEventProfiler.obj
 0001:000329f0       ?GetnarrowPhase@Basic@ProfileEventId@Cm@physx@@SAABUPxProfileEventId@4@XZ 100339f0 f i CmEventProfiler.obj
 0001:00032a00       ?GetnarrowPhase@Sim@ProfileEventId@Cm@physx@@SAABUPxProfileEventId@4@XZ 10033a00 f i CmEventProfiler.obj
 0001:00032a10       ?GetnarrowPhaseMerge@Sim@ProfileEventId@Cm@physx@@SAABUPxProfileEventId@4@XZ 10033a10 f i CmEventProfiler.obj
 0001:00032a20       ?GetoriginShift@PVD@ProfileEventId@Cm@physx@@SAABUPxProfileEventId@4@XZ 10033a20 f i CmEventProfiler.obj
 0001:00032a30       ?GetoverlapMultiple@BatchedSceneQuery@ProfileEventId@Cm@physx@@SAABUPxProfileEventId@4@XZ 10033a30 f i CmEventProfiler.obj
 0001:00032a40       ?GetoverlapMultiple@SceneQuery@ProfileEventId@Cm@physx@@SAABUPxProfileEventId@4@XZ 10033a40 f i CmEventProfiler.obj
 0001:00032a50       ?GetparallelSolve@Dynamics@ProfileEventId@Cm@physx@@SAABUPxProfileEventId@4@XZ 10033a50 f i CmEventProfiler.obj
 0001:00032a60       ?GetpostIslandGenSecondPass@Sim@ProfileEventId@Cm@physx@@SAABUPxProfileEventId@4@XZ 10033a60 f i CmEventProfiler.obj
 0001:00032a70       ?GetpreIslandGen@Sim@ProfileEventId@Cm@physx@@SAABUPxProfileEventId@4@XZ 10033a70 f i CmEventProfiler.obj
 0001:00032a80       ?GetpreIslandGenSecondPass@Sim@ProfileEventId@Cm@physx@@SAABUPxProfileEventId@4@XZ 10033a80 f i CmEventProfiler.obj
 0001:00032a90       ?GetprepareDataBlock@Articulations@ProfileEventId@Cm@physx@@SAABUPxProfileEventId@4@XZ 10033a90 f i CmEventProfiler.obj
 0001:00032aa0       ?GetprepareFsData@Articulations@ProfileEventId@Cm@physx@@SAABUPxProfileEventId@4@XZ 10033aa0 f i CmEventProfiler.obj
 0001:00032ab0       ?GetprocessBPResults@BroadPhase@ProfileEventId@Cm@physx@@SAABUPxProfileEventId@4@XZ 10033ab0 f i CmEventProfiler.obj
 0001:00032ac0       ?GetprocessLostOverlaps@Sim@ProfileEventId@Cm@physx@@SAABUPxProfileEventId@4@XZ 10033ac0 f i CmEventProfiler.obj
 0001:00032ad0       ?GetprocessNewOverlaps@Sim@ProfileEventId@Cm@physx@@SAABUPxProfileEventId@4@XZ 10033ad0 f i CmEventProfiler.obj
 0001:00032ae0       ?GetprocessSleepingIslands@IslandGen@ProfileEventId@Cm@physx@@SAABUPxProfileEventId@4@XZ 10033ae0 f i CmEventProfiler.obj
 0001:00032af0       ?GetprocessTriggers@Sim@ProfileEventId@Cm@physx@@SAABUPxProfileEventId@4@XZ 10033af0 f i CmEventProfiler.obj
 0001:00032b00       ?GetprojectConstraints@Sim@ProfileEventId@Cm@physx@@SAABUPxProfileEventId@4@XZ 10033b00 f i CmEventProfiler.obj
 0001:00032b10       ?GetprojectContacts@Sim@ProfileEventId@Cm@physx@@SAABUPxProfileEventId@4@XZ 10033b10 f i CmEventProfiler.obj
 0001:00032b20       ?GetprojectionTreeUpdates@Sim@ProfileEventId@Cm@physx@@SAABUPxProfileEventId@4@XZ 10033b20 f i CmEventProfiler.obj
 0001:00032b30       ?GetpropagateDrivenInertia@Articulations@ProfileEventId@Cm@physx@@SAABUPxProfileEventId@4@XZ 10033b30 f i CmEventProfiler.obj
 0001:00032b40       ?GetpvdFrameStart@Basic@ProfileEventId@Cm@physx@@SAABUPxProfileEventId@4@XZ 10033b40 f i CmEventProfiler.obj
 0001:00032b50       ?GetqueueNarrowPhase@Sim@ProfileEventId@Cm@physx@@SAABUPxProfileEventId@4@XZ 10033b50 f i CmEventProfiler.obj
 0001:00032b60       ?GetraycastAny@BatchedSceneQuery@ProfileEventId@Cm@physx@@SAABUPxProfileEventId@4@XZ 10033b60 f i CmEventProfiler.obj
 0001:00032b70       ?GetraycastAny@SceneQuery@ProfileEventId@Cm@physx@@SAABUPxProfileEventId@4@XZ 10033b70 f i CmEventProfiler.obj
 0001:00032b80       ?GetraycastMultiple@BatchedSceneQuery@ProfileEventId@Cm@physx@@SAABUPxProfileEventId@4@XZ 10033b80 f i CmEventProfiler.obj
 0001:00032b90       ?GetraycastMultiple@SceneQuery@ProfileEventId@Cm@physx@@SAABUPxProfileEventId@4@XZ 10033b90 f i CmEventProfiler.obj
 0001:00032ba0       ?GetraycastSingle@BatchedSceneQuery@ProfileEventId@Cm@physx@@SAABUPxProfileEventId@4@XZ 10033ba0 f i CmEventProfiler.obj
 0001:00032bb0       ?GetraycastSingle@SceneQuery@ProfileEventId@Cm@physx@@SAABUPxProfileEventId@4@XZ 10033bb0 f i CmEventProfiler.obj
 0001:00032bc0       ?GetreleaseBatchQuery@API@ProfileEventId@Cm@physx@@SAABUPxProfileEventId@4@XZ 10033bc0 f i CmEventProfiler.obj
 0001:00032bd0       ?GetreleasePVDInstance@PVD@ProfileEventId@Cm@physx@@SAABUPxProfileEventId@4@XZ 10033bd0 f i CmEventProfiler.obj
 0001:00032be0       ?GetremoveActor@API@ProfileEventId@Cm@physx@@SAABUPxProfileEventId@4@XZ 10033be0 f i CmEventProfiler.obj
 0001:00032bf0       ?GetremoveActorFromSim@API@ProfileEventId@Cm@physx@@SAABUPxProfileEventId@4@XZ 10033bf0 f i CmEventProfiler.obj
 0001:00032c00       ?GetremoveActors@API@ProfileEventId@Cm@physx@@SAABUPxProfileEventId@4@XZ 10033c00 f i CmEventProfiler.obj
 0001:00032c10       ?GetremoveAggregate@API@ProfileEventId@Cm@physx@@SAABUPxProfileEventId@4@XZ 10033c10 f i CmEventProfiler.obj
 0001:00032c20       ?GetremoveArticulation@API@ProfileEventId@Cm@physx@@SAABUPxProfileEventId@4@XZ 10033c20 f i CmEventProfiler.obj
 0001:00032c30       ?GetremoveCloth@API@ProfileEventId@Cm@physx@@SAABUPxProfileEventId@4@XZ 10033c30 f i CmEventProfiler.obj
 0001:00032c40       ?GetremoveParticleFluid@API@ProfileEventId@Cm@physx@@SAABUPxProfileEventId@4@XZ 10033c40 f i CmEventProfiler.obj
 0001:00032c50       ?GetremoveParticleSystem@API@ProfileEventId@Cm@physx@@SAABUPxProfileEventId@4@XZ 10033c50 f i CmEventProfiler.obj
 0001:00032c60       ?GetremoveShapesFromSQ@API@ProfileEventId@Cm@physx@@SAABUPxProfileEventId@4@XZ 10033c60 f i CmEventProfiler.obj
 0001:00032c70       ?GetremoveShapesFromSim@API@ProfileEventId@Cm@physx@@SAABUPxProfileEventId@4@XZ 10033c70 f i CmEventProfiler.obj
 0001:00032c80       ?GetresetDependencies@Sim@ProfileEventId@Cm@physx@@SAABUPxProfileEventId@4@XZ 10033c80 f i CmEventProfiler.obj
 0001:00032c90       ?GetresizeArrays@IslandGen@ProfileEventId@Cm@physx@@SAABUPxProfileEventId@4@XZ 10033c90 f i CmEventProfiler.obj
 0001:00032ca0       ?GetresizeForKinematics@IslandGen@ProfileEventId@Cm@physx@@SAABUPxProfileEventId@4@XZ 10033ca0 f i CmEventProfiler.obj
 0001:00032cb0       ?GetrigidBodySolver@Basic@ProfileEventId@Cm@physx@@SAABUPxProfileEventId@4@XZ 10033cb0 f i CmEventProfiler.obj
 0001:00032cc0       ?GetsceneFinalization@Sim@ProfileEventId@Cm@physx@@SAABUPxProfileEventId@4@XZ 10033cc0 f i CmEventProfiler.obj
 0001:00032cd0       ?GetsceneUpdate@PVD@ProfileEventId@Cm@physx@@SAABUPxProfileEventId@4@XZ 10033cd0 f i CmEventProfiler.obj
 0001:00032ce0       ?GetsendPVDArrays@PVD@ProfileEventId@Cm@physx@@SAABUPxProfileEventId@4@XZ 10033ce0 f i CmEventProfiler.obj
 0001:00032cf0       ?GetsetupConstraints@Articulations@ProfileEventId@Cm@physx@@SAABUPxProfileEventId@4@XZ 10033cf0 f i CmEventProfiler.obj
 0001:00032d00       ?GetsetupDrives@Articulations@ProfileEventId@Cm@physx@@SAABUPxProfileEventId@4@XZ 10033d00 f i CmEventProfiler.obj
 0001:00032d10       ?GetsetupFinalize@Dynamics@ProfileEventId@Cm@physx@@SAABUPxProfileEventId@4@XZ 10033d10 f i CmEventProfiler.obj
 0001:00032d20       ?GetsetupProject@Articulations@ProfileEventId@Cm@physx@@SAABUPxProfileEventId@4@XZ 10033d20 f i CmEventProfiler.obj
 0001:00032d30       ?GetshapesUpdateProcessing@ParticleSim@ProfileEventId@Cm@physx@@SAABUPxProfileEventId@4@XZ 10033d30 f i CmEventProfiler.obj
 0001:00032d40       ?GetshiftOrigin@API@ProfileEventId@Cm@physx@@SAABUPxProfileEventId@4@XZ 10033d40 f i CmEventProfiler.obj
 0001:00032d50       ?GetsimAddShapeToBroadPhase@API@ProfileEventId@Cm@physx@@SAABUPxProfileEventId@4@XZ 10033d50 f i CmEventProfiler.obj
 0001:00032d60       ?Getsimulate@Basic@ProfileEventId@Cm@physx@@SAABUPxProfileEventId@4@XZ 10033d60 f i CmEventProfiler.obj
 0001:00032d70       ?GetsolveGroup@Dynamics@ProfileEventId@Cm@physx@@SAABUPxProfileEventId@4@XZ 10033d70 f i CmEventProfiler.obj
 0001:00032d80       ?GetsolveQueueTasks@Sim@ProfileEventId@Cm@physx@@SAABUPxProfileEventId@4@XZ 10033d80 f i CmEventProfiler.obj
 0001:00032d90       ?Getsolver@Dynamics@ProfileEventId@Cm@physx@@SAABUPxProfileEventId@4@XZ 10033d90 f i CmEventProfiler.obj
 0001:00032da0       ?GetsolverMergeResults@Dynamics@ProfileEventId@Cm@physx@@SAABUPxProfileEventId@4@XZ 10033da0 f i CmEventProfiler.obj
 0001:00032db0       ?GetsolverQueueTasks@Dynamics@ProfileEventId@Cm@physx@@SAABUPxProfileEventId@4@XZ 10033db0 f i CmEventProfiler.obj
 0001:00032dc0       ?GetstartStep@ParticleSim@ProfileEventId@Cm@physx@@SAABUPxProfileEventId@4@XZ 10033dc0 f i CmEventProfiler.obj
 0001:00032dd0       ?GetstepSetupCollide@Sim@ProfileEventId@Cm@physx@@SAABUPxProfileEventId@4@XZ 10033dd0 f i CmEventProfiler.obj
 0001:00032de0       ?GetstepSetupSimulate@Sim@ProfileEventId@Cm@physx@@SAABUPxProfileEventId@4@XZ 10033de0 f i CmEventProfiler.obj
 0001:00032df0       ?GetstepSetupSolve@Sim@ProfileEventId@Cm@physx@@SAABUPxProfileEventId@4@XZ 10033df0 f i CmEventProfiler.obj
 0001:00032e00       ?GetsweepAny@SceneQuery@ProfileEventId@Cm@physx@@SAABUPxProfileEventId@4@XZ 10033e00 f i CmEventProfiler.obj
 0001:00032e10       ?GetsweepAnyList@SceneQuery@ProfileEventId@Cm@physx@@SAABUPxProfileEventId@4@XZ 10033e10 f i CmEventProfiler.obj
 0001:00032e20       ?GetsweepMultiple@BatchedSceneQuery@ProfileEventId@Cm@physx@@SAABUPxProfileEventId@4@XZ 10033e20 f i CmEventProfiler.obj
 0001:00032e30       ?GetsweepMultiple@SceneQuery@ProfileEventId@Cm@physx@@SAABUPxProfileEventId@4@XZ 10033e30 f i CmEventProfiler.obj
 0001:00032e40       ?GetsweepMultipleList@SceneQuery@ProfileEventId@Cm@physx@@SAABUPxProfileEventId@4@XZ 10033e40 f i CmEventProfiler.obj
 0001:00032e50       ?GetsweepSingle@BatchedSceneQuery@ProfileEventId@Cm@physx@@SAABUPxProfileEventId@4@XZ 10033e50 f i CmEventProfiler.obj
 0001:00032e60       ?GetsweepSingle@SceneQuery@ProfileEventId@Cm@physx@@SAABUPxProfileEventId@4@XZ 10033e60 f i CmEventProfiler.obj
 0001:00032e70       ?GetsweepSingleList@SceneQuery@ProfileEventId@Cm@physx@@SAABUPxProfileEventId@4@XZ 10033e70 f i CmEventProfiler.obj
 0001:00032e80       ?GetsyncBodiesAfterIntegration@Sim@ProfileEventId@Cm@physx@@SAABUPxProfileEventId@4@XZ 10033e80 f i CmEventProfiler.obj
 0001:00032e90       ?GetsyncBodiesAfterSolver@Sim@ProfileEventId@Cm@physx@@SAABUPxProfileEventId@4@XZ 10033e90 f i CmEventProfiler.obj
 0001:00032ea0       ?GetsyncState@Sim@ProfileEventId@Cm@physx@@SAABUPxProfileEventId@4@XZ 10033ea0 f i CmEventProfiler.obj
 0001:00032eb0       ?GettaskFrameworkSetup@Sim@ProfileEventId@Cm@physx@@SAABUPxProfileEventId@4@XZ 10033eb0 f i CmEventProfiler.obj
 0001:00032ec0       ?GetupdateAggAABBs@BroadPhase@ProfileEventId@Cm@physx@@SAABUPxProfileEventId@4@XZ 10033ec0 f i CmEventProfiler.obj
 0001:00032ed0       ?GetupdateAggLocalSpaceBounds@BroadPhase@ProfileEventId@Cm@physx@@SAABUPxProfileEventId@4@XZ 10033ed0 f i CmEventProfiler.obj
 0001:00032ee0       ?GetupdateBroadphase@BroadPhase@ProfileEventId@Cm@physx@@SAABUPxProfileEventId@4@XZ 10033ee0 f i CmEventProfiler.obj
 0001:00032ef0       ?GetupdateCCDMultiPass@Sim@ProfileEventId@Cm@physx@@SAABUPxProfileEventId@4@XZ 10033ef0 f i CmEventProfiler.obj
 0001:00032f00       ?GetupdateCCDSinglePass@Sim@ProfileEventId@Cm@physx@@SAABUPxProfileEventId@4@XZ 10033f00 f i CmEventProfiler.obj
 0001:00032f10       ?GetupdateCloths@PVD@ProfileEventId@Cm@physx@@SAABUPxProfileEventId@4@XZ 10033f10 f i CmEventProfiler.obj
 0001:00032f20       ?GetupdateCollision@ParticleSim@ProfileEventId@Cm@physx@@SAABUPxProfileEventId@4@XZ 10033f20 f i CmEventProfiler.obj
 0001:00032f30       ?GetupdateContacts@PVD@ProfileEventId@Cm@physx@@SAABUPxProfileEventId@4@XZ 10033f30 f i CmEventProfiler.obj
 0001:00032f40       ?GetupdateDirtyShaders@Sim@ProfileEventId@Cm@physx@@SAABUPxProfileEventId@4@XZ 10033f40 f i CmEventProfiler.obj
 0001:00032f50       ?GetupdateDynamicBodies@PVD@ProfileEventId@Cm@physx@@SAABUPxProfileEventId@4@XZ 10033f50 f i CmEventProfiler.obj
 0001:00032f60       ?GetupdateForces@Sim@ProfileEventId@Cm@physx@@SAABUPxProfileEventId@4@XZ 10033f60 f i CmEventProfiler.obj
 0001:00032f70       ?GetupdateIslands@Sim@ProfileEventId@Cm@physx@@SAABUPxProfileEventId@4@XZ 10033f70 f i CmEventProfiler.obj
 0001:00032f80       ?GetupdateIslandsSecondPass@Sim@ProfileEventId@Cm@physx@@SAABUPxProfileEventId@4@XZ 10033f80 f i CmEventProfiler.obj
 0001:00032f90       ?GetupdateJoints@PVD@ProfileEventId@Cm@physx@@SAABUPxProfileEventId@4@XZ 10033f90 f i CmEventProfiler.obj
 0001:00032fa0       ?GetupdateKinematics@Dynamics@ProfileEventId@Cm@physx@@SAABUPxProfileEventId@4@XZ 10033fa0 f i CmEventProfiler.obj
 0001:00032fb0       ?GetupdateLazyAggShapeAABBs@BroadPhase@ProfileEventId@Cm@physx@@SAABUPxProfileEventId@4@XZ 10033fb0 f i CmEventProfiler.obj
 0001:00032fc0       ?GetupdatePVDProperties@PVD@ProfileEventId@Cm@physx@@SAABUPxProfileEventId@4@XZ 10033fc0 f i CmEventProfiler.obj
 0001:00032fd0       ?GetupdatePariclesAndFluids@PVD@ProfileEventId@Cm@physx@@SAABUPxProfileEventId@4@XZ 10033fd0 f i CmEventProfiler.obj
 0001:00032fe0       ?GetupdatePositions@Dynamics@ProfileEventId@Cm@physx@@SAABUPxProfileEventId@4@XZ 10033fe0 f i CmEventProfiler.obj
 0001:00032ff0       ?GetupdatePruningTrees@Sim@ProfileEventId@Cm@physx@@SAABUPxProfileEventId@4@XZ 10033ff0 f i CmEventProfiler.obj
 0001:00033000       ?GetupdateShapeAABBs@BroadPhase@ProfileEventId@Cm@physx@@SAABUPxProfileEventId@4@XZ 10034000 f i CmEventProfiler.obj
 0001:00033010       ?GetupdateSleeping@PVD@ProfileEventId@Cm@physx@@SAABUPxProfileEventId@4@XZ 10034010 f i CmEventProfiler.obj
 0001:00033020       ?GetupdateVelocities@Dynamics@ProfileEventId@Cm@physx@@SAABUPxProfileEventId@4@XZ 10034020 f i CmEventProfiler.obj
 0001:00033030       ?GetvisualizeEndStep@Sim@ProfileEventId@Cm@physx@@SAABUPxProfileEventId@4@XZ 10034030 f i CmEventProfiler.obj
 0001:00033040       ?GetvisualizeStartStep@Sim@ProfileEventId@Cm@physx@@SAABUPxProfileEventId@4@XZ 10034040 f i CmEventProfiler.obj
 0001:00033050       ?create@?$HashBase@V?$Pair@$$CBUEventIdContextPair@nvtx@@_K@shdfnd@physx@@UEventIdContextPair@nvtx@@U?$Hash@UEventIdContextPair@nvtx@@@5@UGetKey@?$HashMapBase@UEventIdContextPair@nvtx@@_KU?$Hash@UEventIdContextPair@nvtx@@@2@VAllocator@shdfnd@physx@@@internal@23@VAllocator@23@$00@internal@shdfnd@physx@@QAEPAV?$Pair@$$CBUEventIdContextPair@nvtx@@_K@34@ABUEventIdContextPair@nvtx@@AA_N@Z 10034050 f i CmEventProfiler.obj
 0001:000331f0       ?freeListAdd@?$HashBase@V?$Pair@$$CBUEventIdContextPair@nvtx@@_K@shdfnd@physx@@UEventIdContextPair@nvtx@@U?$Hash@UEventIdContextPair@nvtx@@@5@UGetKey@?$HashMapBase@UEventIdContextPair@nvtx@@_KU?$Hash@UEventIdContextPair@nvtx@@@2@VAllocator@shdfnd@physx@@@internal@23@VAllocator@23@$00@internal@shdfnd@physx@@AAEXII@Z 100341f0 f i CmEventProfiler.obj
 0001:000332e0       ?freeListEmpty@?$HashBase@V?$Pair@$$CBUEventIdContextPair@nvtx@@_K@shdfnd@physx@@UEventIdContextPair@nvtx@@U?$Hash@UEventIdContextPair@nvtx@@@5@UGetKey@?$HashMapBase@UEventIdContextPair@nvtx@@_KU?$Hash@UEventIdContextPair@nvtx@@@2@VAllocator@shdfnd@physx@@@internal@23@VAllocator@23@$00@internal@shdfnd@physx@@ABE_NXZ 100342e0 f i CmEventProfiler.obj
 0001:00033350       ?freeListGetNext@?$HashBase@V?$Pair@$$CBUEventIdContextPair@nvtx@@_K@shdfnd@physx@@UEventIdContextPair@nvtx@@U?$Hash@UEventIdContextPair@nvtx@@@5@UGetKey@?$HashMapBase@UEventIdContextPair@nvtx@@_KU?$Hash@UEventIdContextPair@nvtx@@@2@VAllocator@shdfnd@physx@@@internal@23@VAllocator@23@$00@internal@shdfnd@physx@@AAEIXZ 10034350 f i CmEventProfiler.obj
 0001:00033470       ?grow@?$HashBase@V?$Pair@$$CBUEventIdContextPair@nvtx@@_K@shdfnd@physx@@UEventIdContextPair@nvtx@@U?$Hash@UEventIdContextPair@nvtx@@@5@UGetKey@?$HashMapBase@UEventIdContextPair@nvtx@@_KU?$Hash@UEventIdContextPair@nvtx@@@2@VAllocator@shdfnd@physx@@@internal@23@VAllocator@23@$00@internal@shdfnd@physx@@AAEXXZ 10034470 f i CmEventProfiler.obj
 0001:00033530       ?hash@?$HashBase@V?$Pair@$$CBUEventIdContextPair@nvtx@@_K@shdfnd@physx@@UEventIdContextPair@nvtx@@U?$Hash@UEventIdContextPair@nvtx@@@5@UGetKey@?$HashMapBase@UEventIdContextPair@nvtx@@_KU?$Hash@UEventIdContextPair@nvtx@@@2@VAllocator@shdfnd@physx@@@internal@23@VAllocator@23@$00@internal@shdfnd@physx@@ABEIABUEventIdContextPair@nvtx@@@Z 10034530 f i CmEventProfiler.obj
 0001:00033560       ?hash@?$HashBase@V?$Pair@$$CBUEventIdContextPair@nvtx@@_K@shdfnd@physx@@UEventIdContextPair@nvtx@@U?$Hash@UEventIdContextPair@nvtx@@@5@UGetKey@?$HashMapBase@UEventIdContextPair@nvtx@@_KU?$Hash@UEventIdContextPair@nvtx@@@2@VAllocator@shdfnd@physx@@@internal@23@VAllocator@23@$00@internal@shdfnd@physx@@ABEIABUEventIdContextPair@nvtx@@I@Z 10034560 f i CmEventProfiler.obj
 0001:000335a0       ?reserve@?$HashBase@V?$Pair@$$CBUEventIdContextPair@nvtx@@_K@shdfnd@physx@@UEventIdContextPair@nvtx@@U?$Hash@UEventIdContextPair@nvtx@@@5@UGetKey@?$HashMapBase@UEventIdContextPair@nvtx@@_KU?$Hash@UEventIdContextPair@nvtx@@@2@VAllocator@shdfnd@physx@@@internal@23@VAllocator@23@$00@internal@shdfnd@physx@@QAEXI@Z 100345a0 f i CmEventProfiler.obj
 0001:000335d0       ?reserveInternal@?$HashBase@V?$Pair@$$CBUEventIdContextPair@nvtx@@_K@shdfnd@physx@@UEventIdContextPair@nvtx@@U?$Hash@UEventIdContextPair@nvtx@@@5@UGetKey@?$HashMapBase@UEventIdContextPair@nvtx@@_KU?$Hash@UEventIdContextPair@nvtx@@@2@VAllocator@shdfnd@physx@@@internal@23@VAllocator@23@$00@internal@shdfnd@physx@@AAEXI@Z 100345d0 f i CmEventProfiler.obj
 0001:00033a80       ?storeCrossEvent@EventProfiler@Cm@physx@@QAEXG_K0@Z 10034a80 f i CmEventProfiler.obj
 0001:00033af0       ?dumpFreeListAllocatorState@Cm@physx@@YAXAAVFreeListAllocator@12@@Z 10034af0 f   CmFreeListAllocator.obj
 0001:00033c20       ??0FreeListAllocator@Cm@physx@@QAE@AAVPxAllocatorCallback@2@@Z 10034c20 f   CmFreeListAllocator.obj
 0001:00033cb0       ??1FreeListAllocator@Cm@physx@@UAE@XZ 10034cb0 f   CmFreeListAllocator.obj
 0001:00033d20       ?getQWSize@FreeListAllocator@Cm@physx@@SAII@Z 10034d20 f   CmFreeListAllocator.obj
 0001:00033d40       ?allocate@FreeListAllocator@Cm@physx@@UAEPAXIPBD0H@Z 10034d40 f   CmFreeListAllocator.obj
 0001:00033db0       ?deallocate@FreeListAllocator@Cm@physx@@UAEXPAX@Z 10034db0 f   CmFreeListAllocator.obj
 0001:00033e20       ?findBestFit@FreeListAllocator@Cm@physx@@AAEPAVChunk@23@IAAI@Z 10034e20 f   CmFreeListAllocator.obj
 0001:00033e90       ?pushOnFreeList@FreeListAllocator@Cm@physx@@AAEXPAVChunk@23@I@Z 10034e90 f   CmFreeListAllocator.obj
 0001:00033ef0       ?popFromFreeList@FreeListAllocator@Cm@physx@@AAEPAVChunk@23@I@Z 10034ef0 f   CmFreeListAllocator.obj
 0001:00033f90       ?unlinkFromFreeList@FreeListAllocator@Cm@physx@@AAEXPAVChunk@23@@Z 10034f90 f   CmFreeListAllocator.obj
 0001:00033fe0       ?allocChunk@FreeListAllocator@Cm@physx@@AAEPAXI@Z 10034fe0 f   CmFreeListAllocator.obj
 0001:000340c0       ?freeChunk@FreeListAllocator@Cm@physx@@AAEXPAVChunk@23@@Z 100350c0 f   CmFreeListAllocator.obj
 0001:000341d0       ?directAlloc@FreeListAllocator@Cm@physx@@AAEPAXI@Z 100351d0 f   CmFreeListAllocator.obj
 0001:00034260       ?directFree@FreeListAllocator@Cm@physx@@AAEXPAX@Z 10035260 f   CmFreeListAllocator.obj
 0001:000342e0       ?createFreeListAllocator@Cm@physx@@YAPAVFreeListAllocator@12@AAVPxAllocatorCallback@2@@Z 100352e0 f   CmFreeListAllocator.obj
 0001:00034360       ?destroyFreeListAllocator@Cm@physx@@YAXAAVFreeListAllocator@12@@Z 10035360 f   CmFreeListAllocator.obj
 0001:000345d0       ??$addAddr@VBlock@Cm@physx@@@Cm@physx@@YAPAVBlock@01@PAV201@H@Z 100355d0 f i CmFreeListAllocator.obj
 0001:000345e0       ??$addAddr@VChunk@Cm@physx@@@Cm@physx@@YAPAVChunk@01@PAV201@H@Z 100355e0 f i CmFreeListAllocator.obj
 0001:000345f0       ??$addAddr@X@Cm@physx@@YAPAXPAXH@Z 100355f0 f i CmFreeListAllocator.obj
 0001:00034600       ??0?$MutexT@VMutexAllocator@FreeListAllocator@Cm@physx@@@shdfnd@physx@@QAE@ABVMutexAllocator@FreeListAllocator@Cm@2@@Z 10035600 f i CmFreeListAllocator.obj
 0001:00034680       ??0FastBitMap@Cm@physx@@QAE@XZ 10035680 f i CmFreeListAllocator.obj
 0001:000346e0       ??0MutexAllocator@FreeListAllocator@Cm@physx@@QAE@AAVPxAllocatorCallback@3@@Z 100356e0 f i CmFreeListAllocator.obj
 0001:00034700       ??0ScopedLock@?$MutexT@VMutexAllocator@FreeListAllocator@Cm@physx@@@shdfnd@physx@@QAE@AAV123@@Z 10035700 f i CmFreeListAllocator.obj
 0001:00034730       ??1?$MutexT@VMutexAllocator@FreeListAllocator@Cm@physx@@@shdfnd@physx@@QAE@XZ 10035730 f i CmFreeListAllocator.obj
 0001:00034760       ??1ScopedLock@?$MutexT@VMutexAllocator@FreeListAllocator@Cm@physx@@@shdfnd@physx@@QAE@XZ 10035760 f i CmFreeListAllocator.obj
 0001:00034780       ??_GFreeListAllocator@Cm@physx@@UAEPAXI@Z 10035780 f i CmFreeListAllocator.obj
 0001:00034780       ??_EFreeListAllocator@Cm@physx@@UAEPAXI@Z 10035780 f i CmFreeListAllocator.obj
 0001:000347c0       ?acquire@Chunk@Cm@physx@@QAEXXZ 100357c0 f i CmFreeListAllocator.obj
 0001:000347f0       ?allocate@MutexAllocator@FreeListAllocator@Cm@physx@@QAEPAXIPBDH@Z 100357f0 f i CmFreeListAllocator.obj
 0001:00034830       ?deallocate@MutexAllocator@FreeListAllocator@Cm@physx@@QAEXPAX@Z 10035830 f i CmFreeListAllocator.obj
 0001:00034860       ?finalize@Block@Cm@physx@@QAEXAAPAV123@@Z 10035860 f i CmFreeListAllocator.obj
 0001:00034880       ?findFirst@FastBitMap@Cm@physx@@QAEII@Z 10035880 f i CmFreeListAllocator.obj
 0001:00034930       ?firstChunk@Block@Cm@physx@@QAEPAVChunk@23@XZ 10035930 f i CmFreeListAllocator.obj
 0001:00034950       ?fromFirstChunk@Block@Cm@physx@@SAPAV123@PAVChunk@23@@Z 10035950 f i CmFreeListAllocator.obj
 0001:00034970       ?fromMemAddr@Chunk@Cm@physx@@SAPAV123@PAX@Z 10035970 f i CmFreeListAllocator.obj
 0001:00034990       ?getBaseAllocator@FreeListAllocator@Cm@physx@@QBEAAVPxAllocatorCallback@3@XZ 10035990 f i CmFreeListAllocator.obj
 0001:000349b0       ?getNext@?$Link@VBlock@Cm@physx@@@Cm@physx@@QAEPAVBlock@23@XZ 100359b0 f i CmFreeListAllocator.obj
 0001:000349d0       ?getNextInBlock@Chunk@Cm@physx@@QAEPAV123@XZ 100359d0 f i CmFreeListAllocator.obj
 0001:00034a30       ?getPrevChunkQWSize@Chunk@Cm@physx@@AAEIXZ 10035a30 f i CmFreeListAllocator.obj
 0001:00034a50       ?getPrevInBlock@Chunk@Cm@physx@@QAEPAV123@XZ 10035a50 f i CmFreeListAllocator.obj
 0001:00034ab0       ?getQWSize@Chunk@Cm@physx@@QBEIXZ 10035ab0 f i CmFreeListAllocator.obj
 0001:00034ad0       ?getQWSizeFromBytes@Chunk@Cm@physx@@SAII@Z 10035ad0 f i CmFreeListAllocator.obj
 0001:00034b00       ?init@?$Link@VBlock@Cm@physx@@@Cm@physx@@QAEXXZ 10035b00 f i CmFreeListAllocator.obj
 0001:00034b30       ?init@?$Link@VChunk@Cm@physx@@@Cm@physx@@QAEXXZ 10035b30 f i CmFreeListAllocator.obj
 0001:00034b60       ?init@Block@Cm@physx@@QAEXAAPAV123@@Z 10035b60 f i CmFreeListAllocator.obj
 0001:00034bb0       ?init@Chunk@Cm@physx@@QAEXI@Z 10035bb0 f i CmFreeListAllocator.obj
 0001:00034bf0       ?isUsed@Chunk@Cm@physx@@QBE_NXZ 10035bf0 f i CmFreeListAllocator.obj
 0001:00034c30       ?link@?$Link@VBlock@Cm@physx@@@Cm@physx@@QAEXAAPAVBlock@23@PAV423@@Z 10035c30 f i CmFreeListAllocator.obj
 0001:00034ca0       ?link@?$Link@VChunk@Cm@physx@@@Cm@physx@@QAEXAAPAVChunk@23@PAV423@@Z 10035ca0 f i CmFreeListAllocator.obj
 0001:00034d10       ?link@Chunk@Cm@physx@@QAEXAAPAV123@@Z 10035d10 f i CmFreeListAllocator.obj
 0001:00034d40       ?lock@?$MutexT@VMutexAllocator@FreeListAllocator@Cm@physx@@@shdfnd@physx@@QBEXXZ 10035d40 f i CmFreeListAllocator.obj
 0001:00034d60       ?memAddr@Chunk@Cm@physx@@QAEPAXXZ 10035d60 f i CmFreeListAllocator.obj
 0001:00034d80       ?merge@Chunk@Cm@physx@@QAEXAAV123@@Z 10035d80 f i CmFreeListAllocator.obj
 0001:00034e60       ?release@Chunk@Cm@physx@@QAEXXZ 10035e60 f i CmFreeListAllocator.obj
 0001:00034e90       ?reset@FastBitMap@Cm@physx@@QAEXI@Z 10035e90 f i CmFreeListAllocator.obj
 0001:00034f20       ?set@FastBitMap@Cm@physx@@QAEXI@Z 10035f20 f i CmFreeListAllocator.obj
 0001:00034f90       ?split@Chunk@Cm@physx@@QAEPAV123@I@Z 10035f90 f i CmFreeListAllocator.obj
 0001:000350a0       ?unlink@?$Link@VBlock@Cm@physx@@@Cm@physx@@QAEXAAPAVBlock@23@@Z 100360a0 f i CmFreeListAllocator.obj
 0001:00035110       ?unlink@?$Link@VChunk@Cm@physx@@@Cm@physx@@QAEXAAPAVChunk@23@@Z 10036110 f i CmFreeListAllocator.obj
 0001:00035180       ?unlink@Chunk@Cm@physx@@QAEXAAPAV123@@Z 10036180 f i CmFreeListAllocator.obj
 0001:000351b0       ?unlock@?$MutexT@VMutexAllocator@FreeListAllocator@Cm@physx@@@shdfnd@physx@@QBEXXZ 100361b0 f i CmFreeListAllocator.obj
 0001:000351d0       ?PxShortestRotation@physx@@YA?AVPxQuat@1@ABVPxVec3@1@0@Z 100361d0 f   CmMathUtils.obj
 0001:00035340       ?PxTransformFromPlaneEquation@physx@@YA?AVPxTransform@1@ABVPxPlane@1@@Z 10036340 f   CmMathUtils.obj
 0001:00035560       ?PxTransformFromSegment@physx@@YA?AVPxTransform@1@ABVPxVec3@1@0PAM@Z 10036560 f   CmMathUtils.obj
 0001:00035660       ?indexedRotation@?A0xa1de78a7@physx@@YA?AVPxQuat@2@IMM@Z 10036660 f   CmMathUtils.obj
 0001:000356d0       ?PxDiagonalize@physx@@YA?AVPxVec3@1@ABVPxMat33@1@AAVPxQuat@1@@Z 100366d0 f   CmMathUtils.obj
 0001:00035e60       ??0PxMat33@physx@@QAE@ABVPxQuat@1@@Z 10036e60 f i CmMathUtils.obj
 0001:000360e0       ??0PxMat33@physx@@QAE@ABVPxVec3@1@00@Z 100370e0 f i CmMathUtils.obj
 0001:00036130       ??0PxMat33@physx@@QAE@XZ   10037130 f i CmMathUtils.obj
 0001:00036170       ??0PxPlane@physx@@QAE@ABV01@@Z 10037170 f i CmMathUtils.obj
 0001:000361b0       ??0PxTransform@physx@@QAE@ABVPxVec3@1@ABVPxQuat@1@@Z 100371b0 f i CmMathUtils.obj
 0001:00036240       ??0PxVec3@physx@@QAE@XZ    10037240 f i CmMathUtils.obj
 0001:00036260       ??0PxVec4@physx@@QAE@MMMM@Z 10037260 f i CmMathUtils.obj
 0001:000362c0       ??4PxMat33@physx@@QAEAAV01@ABV01@@Z 100372c0 f i CmMathUtils.obj
 0001:00036310       ??APxMat33@physx@@QAEAAVPxVec3@1@I@Z 10037310 f i CmMathUtils.obj
 0001:00036330       ??APxVec4@physx@@QAEAAMI@Z 10037330 f i CmMathUtils.obj
 0001:000363a0       ??DPxMat33@physx@@QBE?AV01@ABV01@@Z 100373a0 f i CmMathUtils.obj
 0001:00036410       ??GPxVec3@physx@@QBE?AV01@ABV01@@Z 10037410 f i CmMathUtils.obj
 0001:00036480       ??GPxVec3@physx@@QBE?AV01@XZ 10037480 f i CmMathUtils.obj
 0001:000364f0       ??KPxVec3@physx@@QBE?AV01@M@Z 100374f0 f i CmMathUtils.obj
 0001:00036570       ?PxSign@physx@@YAMM@Z      10037570 f i CmMathUtils.obj
 0001:00036590       ?cross@PxVec3@physx@@QBE?AV12@ABV12@@Z 10037590 f i CmMathUtils.obj
 0001:00036650       ?getNextIndex3@shdfnd@physx@@YAII@Z 10037650 f i CmMathUtils.obj
 0001:00036670       ?getNormalized@PxQuat@physx@@QBE?AV12@XZ 10037670 f i CmMathUtils.obj
 0001:00036720       ?getTranspose@PxMat33@physx@@QBE?AV12@XZ 10037720 f i CmMathUtils.obj
 0001:00036810       ?isFinite@PxQuat@physx@@QBE_NXZ 10037810 f i CmMathUtils.obj
 0001:000368d0       ?isSane@PxQuat@physx@@QBE_NXZ 100378d0 f i CmMathUtils.obj
 0001:00036960       ?magnitude@PxQuat@physx@@QBEMXZ 10037960 f i CmMathUtils.obj
 0001:00036990       ?magnitudeSquared@PxQuat@physx@@QBEMXZ 10037990 f i CmMathUtils.obj
 0001:00036a10       ?normalize@PxPlane@physx@@QAEXXZ 10037a10 f i CmMathUtils.obj
 0001:00036a80       ?sign@intrinsics@physx@@YAMM@Z 10037a80 f i CmMathUtils.obj
 0001:00036ad0       ?transform@PxMat33@physx@@QBE?AVPxVec3@2@ABV32@@Z 10037ad0 f i CmMathUtils.obj
 0001:00036b70       ??0PtrTable@Cm@physx@@QAE@XZ 10037b70 f   CmPtrTable.obj
 0001:00036ba0       ??1PtrTable@Cm@physx@@QAE@XZ 10037ba0 f   CmPtrTable.obj
 0001:00036c60       ?add@PtrTable@Cm@physx@@QAEXPAXAAVPtrTableStorageManager@23@@Z 10037c60 f   CmPtrTable.obj
 0001:00036f20       ?replaceWithLast@PtrTable@Cm@physx@@QAEXIAAVPtrTableStorageManager@23@@Z 10037f20 f   CmPtrTable.obj
 0001:000371e0       ?clear@PtrTable@Cm@physx@@QAEXAAVPtrTableStorageManager@23@@Z 100381e0 f   CmPtrTable.obj
 0001:00037250       ?find@PtrTable@Cm@physx@@QBEIPBX@Z 10038250 f   CmPtrTable.obj
 0001:000372e0       ?exportExtraData@PtrTable@Cm@physx@@QAEXAAVPxSerializationContext@3@@Z 100382e0 f   CmPtrTable.obj
 0001:00037330       ?importExtraData@PtrTable@Cm@physx@@QAEXAAVPxDeserializationContext@3@@Z 10038330 f   CmPtrTable.obj
 0001:00037360       ?getBinaryMetaData@PtrTable@Cm@physx@@SAXAAVPxOutputStream@3@@Z 10038360 f   CmPtrTable.obj
 0001:00037560       ?realloc@PtrTable@Cm@physx@@AAEXIIAAVPtrTableStorageManager@23@@Z 10038560 f   CmPtrTable.obj
 0001:00037950       ??$readExtraData@PAX$0BA@@PxDeserializationContext@physx@@QAEPAPAXI@Z 10038950 f i CmPtrTable.obj
 0001:00037980       ??$readExtraData@PAX@PxDeserializationContext@physx@@QAEPAPAXI@Z 10038980 f i CmPtrTable.obj
 0001:000379c0       ??0PtrTable@Cm@physx@@QAE@ABW4PxEMPTY@2@@Z 100389c0 f i CmPtrTable.obj
 0001:00037a20       ??4PtrTable@Cm@physx@@QAEAAU012@ABU012@@Z 10038a20 f i CmPtrTable.obj
 0001:00037a50       ?alignExtraData@PxDeserializationContext@physx@@QAEXI@Z 10038a50 f i CmPtrTable.obj
 0001:00037aa0       ?getCount@PtrTable@Cm@physx@@QBEIXZ 10038aa0 f i CmPtrTable.obj
 0001:00037ac0       ?getPtrs@PtrTable@Cm@physx@@QAEPAPAXXZ 10038ac0 f i CmPtrTable.obj
 0001:00037b00       ?getPtrs@PtrTable@Cm@physx@@QBEPBQAXXZ 10038b00 f i CmPtrTable.obj
 0001:00037b40       ??6RenderOutput@Cm@physx@@QAEAAV012@W4Primitive@012@@Z 10038b40 f   CmRenderOutput.obj
 0001:00037b70       ??6RenderOutput@Cm@physx@@QAEAAV012@I@Z 10038b70 f   CmRenderOutput.obj
 0001:00037b90       ??6RenderOutput@Cm@physx@@QAEAAV012@ABVPxMat44@2@@Z 10038b90 f   CmRenderOutput.obj
 0001:00037bb0       ??6RenderOutput@Cm@physx@@QAEAAV012@ABVPxTransform@2@@Z 10038bb0 f   CmRenderOutput.obj
 0001:00037be0       ??6RenderOutput@Cm@physx@@QAEAAV012@VPxVec3@2@@Z 10038be0 f   CmRenderOutput.obj
 0001:00037e00       ??6RenderOutput@Cm@physx@@QAEAAV012@ABUDebugText@12@@Z 10038e00 f   CmRenderOutput.obj
 0001:00037f60       ?outputCapsule@RenderOutput@Cm@physx@@QAEAAV123@MMABVMatrix34@23@@Z 10038f60 f   CmRenderOutput.obj
 0001:00038570       ??0DebugText@Cm@physx@@QAA@ABVPxVec3@2@MPBDZZ 10039570 f   CmRenderOutput.obj
 0001:000385e0       ??6Cm@physx@@YAAAVRenderOutput@01@AAV201@ABUDebugBox@01@@Z 100395e0 f   CmRenderOutput.obj
 0001:00038d20       ??6Cm@physx@@YAAAVRenderOutput@01@AAV201@ABUDebugArrow@01@@Z 10039d20 f   CmRenderOutput.obj
 0001:00038f20       ??6Cm@physx@@YAAAVRenderOutput@01@AAV201@ABUDebugBasis@01@@Z 10039f20 f   CmRenderOutput.obj
 0001:000390c0       ??6Cm@physx@@YAAAVRenderOutput@01@AAV201@ABUDebugCircle@01@@Z 1003a0c0 f   CmRenderOutput.obj
 0001:00039200       ??6Cm@physx@@YAAAVRenderOutput@01@AAV201@ABUDebugArc@01@@Z 1003a200 f   CmRenderOutput.obj
 0001:00039b40       ??$swap@VPxVec4@physx@@@shdfnd@physx@@YAXAAVPxVec4@1@0@Z 1003ab40 f i CmRenderOutput.obj
 0001:00039b80       ??0DebugArc@Cm@physx@@QAE@IMMM@Z 1003ab80 f i CmRenderOutput.obj
 0001:00039bd0       ??0DebugArrow@Cm@physx@@QAE@ABVPxVec3@2@0M@Z 1003abd0 f i CmRenderOutput.obj
 0001:00039c20       ??0DebugCircle@Cm@physx@@QAE@IM@Z 1003ac20 f i CmRenderOutput.obj
 0001:00039c50       ??0DebugText@Cm@physx@@QAE@ABU012@@Z 1003ac50 f i CmRenderOutput.obj
 0001:00039cb0       ??0PxDebugLine@physx@@QAE@ABU01@@Z 1003acb0 f i CmRenderOutput.obj
 0001:00039d10       ??0PxDebugLine@physx@@QAE@ABVPxVec3@1@0ABI@Z 1003ad10 f i CmRenderOutput.obj
 0001:00039d70       ??0PxDebugPoint@physx@@QAE@ABU01@@Z 1003ad70 f i CmRenderOutput.obj
 0001:00039db0       ??0PxDebugPoint@physx@@QAE@ABVPxVec3@1@ABI@Z 1003adb0 f i CmRenderOutput.obj
 0001:00039de0       ??0PxDebugText@physx@@QAE@ABU01@@Z 1003ade0 f i CmRenderOutput.obj
 0001:00039e30       ??0PxDebugText@physx@@QAE@ABVPxVec3@1@ABMABIPBD@Z 1003ae30 f i CmRenderOutput.obj
 0001:00039e80       ??0PxDebugTriangle@physx@@QAE@ABU01@@Z 1003ae80 f i CmRenderOutput.obj
 0001:00039f00       ??0PxDebugTriangle@physx@@QAE@ABVPxVec3@1@00ABI@Z 1003af00 f i CmRenderOutput.obj
 0001:00039f80       ??0PxMat44@physx@@QAE@ABV01@@Z 1003af80 f i CmRenderOutput.obj
 0001:00039ff0       ??0PxMat44@physx@@QAE@ABVPxMat33@1@ABVPxVec3@1@@Z 1003aff0 f i CmRenderOutput.obj
 0001:0003a0a0       ??0PxMat44@physx@@QAE@ABVPxTransform@1@@Z 1003b0a0 f i CmRenderOutput.obj
 0001:0003a120       ??0PxMat44@physx@@QAE@W4PxIDENTITY@1@@Z 1003b120 f i CmRenderOutput.obj
 0001:0003a290       ??0PxMat44@physx@@QAE@XZ   1003b290 f i CmRenderOutput.obj
 0001:0003a2e0       ??0PxVec3@physx@@QAE@M@Z   1003b2e0 f i CmRenderOutput.obj
 0001:0003a330       ??0PxVec4@physx@@QAE@ABV01@@Z 1003b330 f i CmRenderOutput.obj
 0001:0003a380       ??0PxVec4@physx@@QAE@ABVPxVec3@1@M@Z 1003b380 f i CmRenderOutput.obj
 0001:0003a3d0       ??0PxVec4@physx@@QAE@XZ    1003b3d0 f i CmRenderOutput.obj
 0001:0003a3f0       ??0RenderOutput@Cm@physx@@QAE@AAVRenderBuffer@12@@Z 1003b3f0 f i CmRenderOutput.obj
 0001:0003a490       ??0RenderOutput@Cm@physx@@QAE@ABV012@@Z 1003b490 f i CmRenderOutput.obj
 0001:0003a530       ??4DebugText@Cm@physx@@QAEAAU012@ABU012@@Z 1003b530 f i CmRenderOutput.obj
 0001:0003a5c0       ??4PxMat44@physx@@QAEABV01@ABV01@@Z 1003b5c0 f i CmRenderOutput.obj
 0001:0003a630       ??4PxVec4@physx@@QAEAAV01@ABV01@@Z 1003b630 f i CmRenderOutput.obj
 0001:0003a680       ??A?$Array@UPxDebugText@physx@@VNamedAllocator@shdfnd@2@@shdfnd@physx@@QAEAAUPxDebugText@2@I@Z 1003b680 f i CmRenderOutput.obj
 0001:0003a6f0       ??DPxVec4@physx@@QBE?AV01@M@Z 1003b6f0 f i CmRenderOutput.obj
 0001:0003a770       ??GPxVec4@physx@@QBE?AV01@XZ 1003b770 f i CmRenderOutput.obj
 0001:0003a800       ??HPxVec4@physx@@QBE?AV01@ABV01@@Z 1003b800 f i CmRenderOutput.obj
 0001:0003a890       ??YPxVec4@physx@@QAEAAV01@ABV01@@Z 1003b890 f i CmRenderOutput.obj
 0001:0003a920       ?allocate@?$Array@DVNamedAllocator@shdfnd@physx@@@shdfnd@physx@@IAEPADI@Z 1003b920 f i CmRenderOutput.obj
 0001:0003a9a0       ?allocate@?$Array@UPxDebugLine@physx@@VNamedAllocator@shdfnd@2@@shdfnd@physx@@IAEPAUPxDebugLine@3@I@Z 1003b9a0 f i CmRenderOutput.obj
 0001:0003aa20       ?allocate@?$Array@UPxDebugPoint@physx@@VNamedAllocator@shdfnd@2@@shdfnd@physx@@IAEPAUPxDebugPoint@3@I@Z 1003ba20 f i CmRenderOutput.obj
 0001:0003aaa0       ?allocate@?$Array@UPxDebugText@physx@@VNamedAllocator@shdfnd@2@@shdfnd@physx@@IAEPAUPxDebugText@3@I@Z 1003baa0 f i CmRenderOutput.obj
 0001:0003ab20       ?allocate@?$Array@UPxDebugTriangle@physx@@VNamedAllocator@shdfnd@2@@shdfnd@physx@@IAEPAUPxDebugTriangle@3@I@Z 1003bb20 f i CmRenderOutput.obj
 0001:0003aba0       ?begin@?$Array@DVNamedAllocator@shdfnd@physx@@@shdfnd@physx@@QAEPADXZ 1003bba0 f i CmRenderOutput.obj
 0001:0003abc0       ?begin@?$Array@UPxDebugLine@physx@@VNamedAllocator@shdfnd@2@@shdfnd@physx@@QAEPAUPxDebugLine@3@XZ 1003bbc0 f i CmRenderOutput.obj
 0001:0003abe0       ?capacity@?$Array@DVNamedAllocator@shdfnd@physx@@@shdfnd@physx@@QBEIXZ 1003bbe0 f i CmRenderOutput.obj
 0001:0003ac00       ?capacity@?$Array@UPxDebugLine@physx@@VNamedAllocator@shdfnd@2@@shdfnd@physx@@QBEIXZ 1003bc00 f i CmRenderOutput.obj
 0001:0003ac20       ?capacity@?$Array@UPxDebugPoint@physx@@VNamedAllocator@shdfnd@2@@shdfnd@physx@@QBEIXZ 1003bc20 f i CmRenderOutput.obj
 0001:0003ac40       ?capacity@?$Array@UPxDebugText@physx@@VNamedAllocator@shdfnd@2@@shdfnd@physx@@QBEIXZ 1003bc40 f i CmRenderOutput.obj
 0001:0003ac60       ?capacity@?$Array@UPxDebugTriangle@physx@@VNamedAllocator@shdfnd@2@@shdfnd@physx@@QBEIXZ 1003bc60 f i CmRenderOutput.obj
 0001:0003ac80       ?capacityIncrement@?$Array@DVNamedAllocator@shdfnd@physx@@@shdfnd@physx@@IBEIXZ 1003bc80 f i CmRenderOutput.obj
 0001:0003acc0       ?capacityIncrement@?$Array@UPxDebugLine@physx@@VNamedAllocator@shdfnd@2@@shdfnd@physx@@IBEIXZ 1003bcc0 f i CmRenderOutput.obj
 0001:0003ad00       ?capacityIncrement@?$Array@UPxDebugPoint@physx@@VNamedAllocator@shdfnd@2@@shdfnd@physx@@IBEIXZ 1003bd00 f i CmRenderOutput.obj
 0001:0003ad40       ?capacityIncrement@?$Array@UPxDebugText@physx@@VNamedAllocator@shdfnd@2@@shdfnd@physx@@IBEIXZ 1003bd40 f i CmRenderOutput.obj
 0001:0003ad80       ?capacityIncrement@?$Array@UPxDebugTriangle@physx@@VNamedAllocator@shdfnd@2@@shdfnd@physx@@IBEIXZ 1003bd80 f i CmRenderOutput.obj
 0001:0003adc0       ?copy@?$Array@DVNamedAllocator@shdfnd@physx@@@shdfnd@physx@@KAXPAD0PBD@Z 1003bdc0 f i CmRenderOutput.obj
 0001:0003ae30       ?copy@?$Array@UPxDebugLine@physx@@VNamedAllocator@shdfnd@2@@shdfnd@physx@@KAXPAUPxDebugLine@3@0PBU43@@Z 1003be30 f i CmRenderOutput.obj
 0001:0003aea0       ?copy@?$Array@UPxDebugPoint@physx@@VNamedAllocator@shdfnd@2@@shdfnd@physx@@KAXPAUPxDebugPoint@3@0PBU43@@Z 1003bea0 f i CmRenderOutput.obj
 0001:0003af10       ?copy@?$Array@UPxDebugText@physx@@VNamedAllocator@shdfnd@2@@shdfnd@physx@@KAXPAUPxDebugText@3@0PBU43@@Z 1003bf10 f i CmRenderOutput.obj
 0001:0003af80       ?copy@?$Array@UPxDebugTriangle@physx@@VNamedAllocator@shdfnd@2@@shdfnd@physx@@KAXPAUPxDebugTriangle@3@0PBU43@@Z 1003bf80 f i CmRenderOutput.obj
 0001:0003aff0       ?deallocate@?$Array@DVNamedAllocator@shdfnd@physx@@@shdfnd@physx@@IAEXPAX@Z 1003bff0 f i CmRenderOutput.obj
 0001:0003b010       ?deallocate@?$Array@UPxDebugLine@physx@@VNamedAllocator@shdfnd@2@@shdfnd@physx@@IAEXPAX@Z 1003c010 f i CmRenderOutput.obj
 0001:0003b030       ?deallocate@?$Array@UPxDebugPoint@physx@@VNamedAllocator@shdfnd@2@@shdfnd@physx@@IAEXPAX@Z 1003c030 f i CmRenderOutput.obj
 0001:0003b050       ?deallocate@?$Array@UPxDebugText@physx@@VNamedAllocator@shdfnd@2@@shdfnd@physx@@IAEXPAX@Z 1003c050 f i CmRenderOutput.obj
 0001:0003b070       ?deallocate@?$Array@UPxDebugTriangle@physx@@VNamedAllocator@shdfnd@2@@shdfnd@physx@@IAEXPAX@Z 1003c070 f i CmRenderOutput.obj
 0001:0003b090       ?destroy@?$Array@DVNamedAllocator@shdfnd@physx@@@shdfnd@physx@@KAXPAD0@Z 1003c090 f i CmRenderOutput.obj
 0001:0003b0b0       ?destroy@?$Array@UPxDebugLine@physx@@VNamedAllocator@shdfnd@2@@shdfnd@physx@@KAXPAUPxDebugLine@3@0@Z 1003c0b0 f i CmRenderOutput.obj
 0001:0003b0d0       ?destroy@?$Array@UPxDebugPoint@physx@@VNamedAllocator@shdfnd@2@@shdfnd@physx@@KAXPAUPxDebugPoint@3@0@Z 1003c0d0 f i CmRenderOutput.obj
 0001:0003b0f0       ?destroy@?$Array@UPxDebugText@physx@@VNamedAllocator@shdfnd@2@@shdfnd@physx@@KAXPAUPxDebugText@3@0@Z 1003c0f0 f i CmRenderOutput.obj
 0001:0003b110       ?destroy@?$Array@UPxDebugTriangle@physx@@VNamedAllocator@shdfnd@2@@shdfnd@physx@@KAXPAUPxDebugTriangle@3@0@Z 1003c110 f i CmRenderOutput.obj
 0001:0003b130       ?end@?$Array@DVNamedAllocator@shdfnd@physx@@@shdfnd@physx@@QAEPADXZ 1003c130 f i CmRenderOutput.obj
 0001:0003b150       ?getXYZ@PxVec4@physx@@QBE?AVPxVec3@2@XZ 1003c150 f i CmRenderOutput.obj
 0001:0003b1b0       ?grow@?$Array@DVNamedAllocator@shdfnd@physx@@@shdfnd@physx@@IAEXI@Z 1003c1b0 f i CmRenderOutput.obj
 0001:0003b230       ?grow@?$Array@UPxDebugLine@physx@@VNamedAllocator@shdfnd@2@@shdfnd@physx@@IAEXI@Z 1003c230 f i CmRenderOutput.obj
 0001:0003b2b0       ?growAndPushBack@?$Array@DVNamedAllocator@shdfnd@physx@@@shdfnd@physx@@IAEAADABD@Z 1003c2b0 f i CmRenderOutput.obj
 0001:0003b430       ?growAndPushBack@?$Array@UPxDebugLine@physx@@VNamedAllocator@shdfnd@2@@shdfnd@physx@@IAEAAUPxDebugLine@3@ABU43@@Z 1003c430 f i CmRenderOutput.obj
 0001:0003b5c0       ?growAndPushBack@?$Array@UPxDebugPoint@physx@@VNamedAllocator@shdfnd@2@@shdfnd@physx@@IAEAAUPxDebugPoint@3@ABU43@@Z 1003c5c0 f i CmRenderOutput.obj
 0001:0003b750       ?growAndPushBack@?$Array@UPxDebugText@physx@@VNamedAllocator@shdfnd@2@@shdfnd@physx@@IAEAAUPxDebugText@3@ABU43@@Z 1003c750 f i CmRenderOutput.obj
 0001:0003b8d0       ?growAndPushBack@?$Array@UPxDebugTriangle@physx@@VNamedAllocator@shdfnd@2@@shdfnd@physx@@IAEAAUPxDebugTriangle@3@ABU43@@Z 1003c8d0 f i CmRenderOutput.obj
 0001:0003ba50       ?isInUserMemory@?$Array@DVNamedAllocator@shdfnd@physx@@@shdfnd@physx@@QBEIXZ 1003ca50 f i CmRenderOutput.obj
 0001:0003ba70       ?isInUserMemory@?$Array@UPxDebugLine@physx@@VNamedAllocator@shdfnd@2@@shdfnd@physx@@QBEIXZ 1003ca70 f i CmRenderOutput.obj
 0001:0003ba90       ?isInUserMemory@?$Array@UPxDebugPoint@physx@@VNamedAllocator@shdfnd@2@@shdfnd@physx@@QBEIXZ 1003ca90 f i CmRenderOutput.obj
 0001:0003bab0       ?isInUserMemory@?$Array@UPxDebugText@physx@@VNamedAllocator@shdfnd@2@@shdfnd@physx@@QBEIXZ 1003cab0 f i CmRenderOutput.obj
 0001:0003bad0       ?isInUserMemory@?$Array@UPxDebugTriangle@physx@@VNamedAllocator@shdfnd@2@@shdfnd@physx@@QBEIXZ 1003cad0 f i CmRenderOutput.obj
 0001:0003baf0       ?normalToTangents@shdfnd@physx@@YAXABVPxVec3@2@AAV32@1@Z 1003caf0 f i CmRenderOutput.obj
 0001:0003bc10       ?outputSegment@RenderOutput@Cm@physx@@QAEXABVPxVec3@3@0@Z 1003cc10 f i CmRenderOutput.obj
 0001:0003bc60       ?pushBack@?$Array@DVNamedAllocator@shdfnd@physx@@@shdfnd@physx@@QAEAADABD@Z 1003cc60 f i CmRenderOutput.obj
 0001:0003bd10       ?pushBack@?$Array@UPxDebugLine@physx@@VNamedAllocator@shdfnd@2@@shdfnd@physx@@QAEAAUPxDebugLine@3@ABU43@@Z 1003cd10 f i CmRenderOutput.obj
 0001:0003bdc0       ?pushBack@?$Array@UPxDebugPoint@physx@@VNamedAllocator@shdfnd@2@@shdfnd@physx@@QAEAAUPxDebugPoint@3@ABU43@@Z 1003cdc0 f i CmRenderOutput.obj
 0001:0003be70       ?pushBack@?$Array@UPxDebugText@physx@@VNamedAllocator@shdfnd@2@@shdfnd@physx@@QAEAAUPxDebugText@3@ABU43@@Z 1003ce70 f i CmRenderOutput.obj
 0001:0003bf20       ?pushBack@?$Array@UPxDebugTriangle@physx@@VNamedAllocator@shdfnd@2@@shdfnd@physx@@QAEAAUPxDebugTriangle@3@ABU43@@Z 1003cf20 f i CmRenderOutput.obj
 0001:0003bfd0       ?recreate@?$Array@DVNamedAllocator@shdfnd@physx@@@shdfnd@physx@@IAEXI@Z 1003cfd0 f i CmRenderOutput.obj
 0001:0003c0d0       ?recreate@?$Array@UPxDebugLine@physx@@VNamedAllocator@shdfnd@2@@shdfnd@physx@@IAEXI@Z 1003d0d0 f i CmRenderOutput.obj
 0001:0003c1e0       ?reserve@?$Array@DVNamedAllocator@shdfnd@physx@@@shdfnd@physx@@QAEXI@Z 1003d1e0 f i CmRenderOutput.obj
 0001:0003c210       ?reserve@?$Array@UPxDebugLine@physx@@VNamedAllocator@shdfnd@2@@shdfnd@physx@@QAEXI@Z 1003d210 f i CmRenderOutput.obj
 0001:0003c240       ?reserveSegments@RenderOutput@Cm@physx@@QAEPAUPxDebugLine@3@I@Z 1003d240 f i CmRenderOutput.obj
 0001:0003c2a0       ?resizeUninitialized@?$Array@UPxDebugLine@physx@@VNamedAllocator@shdfnd@2@@shdfnd@physx@@QAEXI@Z 1003d2a0 f i CmRenderOutput.obj
 0001:0003c2d0       ?rotate@PxMat44@physx@@QBE?BVPxVec3@2@ABV32@@Z 1003d2d0 f i CmRenderOutput.obj
 0001:0003c330       ?rotate@PxMat44@physx@@QBE?BVPxVec4@2@ABV32@@Z 1003d330 f i CmRenderOutput.obj
 0001:0003c3d0       ?size@?$Array@DVNamedAllocator@shdfnd@physx@@@shdfnd@physx@@QBEIXZ 1003d3d0 f i CmRenderOutput.obj
 0001:0003c3f0       ?size@?$Array@UPxDebugLine@physx@@VNamedAllocator@shdfnd@2@@shdfnd@physx@@QBEIXZ 1003d3f0 f i CmRenderOutput.obj
 0001:0003c410       ?size@?$Array@UPxDebugText@physx@@VNamedAllocator@shdfnd@2@@shdfnd@physx@@QBEIXZ 1003d410 f i CmRenderOutput.obj
 0001:0003c430       ?transform@PxMat44@physx@@QBE?AVPxVec3@2@ABV32@@Z 1003d430 f i CmRenderOutput.obj
 0001:0003c490       ?transform@PxMat44@physx@@QBE?AVPxVec4@2@ABV32@@Z 1003d490 f i CmRenderOutput.obj
 0001:0003c5b0       ?visualizeJointFrames@Cm@physx@@YAXAAVRenderOutput@12@MABVPxTransform@2@1@Z 1003d5b0 f   CmVisualization.obj
 0001:0003c690       ?visualizeLinearLimit@Cm@physx@@YAXAAVRenderOutput@12@MABVPxTransform@2@1M_N@Z 1003d690 f   CmVisualization.obj
 0001:0003c7d0       ?visualizeAngularLimit@Cm@physx@@YAXAAVRenderOutput@12@MABVPxTransform@2@MM_N@Z 1003d7d0 f   CmVisualization.obj
 0001:0003c9c0       ?visualizeLimitCone@Cm@physx@@YAXAAVRenderOutput@12@MABVPxTransform@2@MM_N@Z 1003d9c0 f   CmVisualization.obj
 0001:0003cc60       ?visualizeDoubleCone@Cm@physx@@YAXAAVRenderOutput@12@MABVPxTransform@2@M_N@Z 1003dc60 f   CmVisualization.obj
 0001:0003d360       ??$PX_UNUSED@W4PxZERO@physx@@@@YAXABW4PxZERO@physx@@@Z 1003e360 f i CmVisualization.obj
 0001:0003d370       ??0DebugArrow@Cm@physx@@QAE@ABVPxVec3@2@0@Z 1003e370 f i CmVisualization.obj
 0001:0003d3e0       ??0DebugBasis@Cm@physx@@QAE@ABVPxVec3@2@III@Z 1003e3e0 f i CmVisualization.obj
 0001:0003d430       ??0PxTransform@physx@@QAE@W4PxIDENTITY@1@@Z 1003e430 f i CmVisualization.obj
 0001:0003d470       ??0PxVec3@physx@@QAE@W4PxZERO@1@@Z 1003e470 f i CmVisualization.obj
 0001:0003d4d0       ?getBasisVector0@PxQuat@physx@@QBE?AVPxVec3@2@XZ 1003e4d0 f i CmVisualization.obj
 0001:0003d5c0       ?rotate@PxQuat@physx@@QBE?BVPxVec3@2@ABV32@@Z 1003e5c0 f i CmVisualization.obj
 0001:0003d7b0       ?sin@@YAMM@Z               1003e7b0 f i CmVisualization.obj
 0001:0003d820       ?contactCapsuleMesh@Gu@physx@@YA_NABVGeometryUnion@12@0ABVPxTransform@2@1ABMAAUCache@12@AAVContactBuffer@12@@Z 1003e820 f   GuContactCapsuleMesh.obj
 0001:0003da30       ?contactCapsuleHeightfield@Gu@physx@@YA_NABVGeometryUnion@12@0ABVPxTransform@2@1ABMAAUCache@12@AAVContactBuffer@12@@Z 1003ea30 f   GuContactCapsuleMesh.obj
 0001:0003eb10       ??$PX_UNUSED@I@@YAXABI@Z   1003fb10 f i GuContactCapsuleMesh.obj
 0001:0003eb20       ??$PX_UNUSED@M@@YAXABM@Z   1003fb20 f i GuContactCapsuleMesh.obj
 0001:0003eb30       ??$PX_UNUSED@UCache@Gu@physx@@@@YAXABUCache@Gu@physx@@@Z 1003fb30 f i GuContactCapsuleMesh.obj
 0001:0003eb40       ??$PX_UNUSED@VGeometryUnion@Gu@physx@@@@YAXABVGeometryUnion@Gu@physx@@@Z 1003fb40 f i GuContactCapsuleMesh.obj
 0001:0003eb50       ??$PxMin@I@physx@@YAIII@Z  1003fb50 f i GuContactCapsuleMesh.obj
 0001:0003eb80       ??$checkType@$$CBUPxHeightFieldGeometryLL@physx@@@physx@@YAXABVGeometryUnion@Gu@0@@Z 1003fb80 f i GuContactCapsuleMesh.obj
 0001:0003ebf0       ??$checkType@$$CBUPxTriangleMeshGeometryLL@physx@@@physx@@YAXABVGeometryUnion@Gu@0@@Z 1003fbf0 f i GuContactCapsuleMesh.obj
 0001:0003ec60       ??$checkType@$$CBVPxCapsuleGeometry@physx@@@physx@@YAXABVGeometryUnion@Gu@0@@Z 1003fc60 f i GuContactCapsuleMesh.obj
 0001:0003ece0       ??$get@$$CBUPxHeightFieldGeometryLL@physx@@@GeometryUnion@Gu@physx@@QBEABUPxHeightFieldGeometryLL@2@XZ 1003fce0 f i GuContactCapsuleMesh.obj
 0001:0003ed00       ??$get@$$CBUPxTriangleMeshGeometryLL@physx@@@GeometryUnion@Gu@physx@@QBEABUPxTriangleMeshGeometryLL@2@XZ 1003fd00 f i GuContactCapsuleMesh.obj
 0001:0003ed20       ??$get@$$CBVPxCapsuleGeometry@physx@@@GeometryUnion@Gu@physx@@QBEABVPxCapsuleGeometry@2@XZ 1003fd20 f i GuContactCapsuleMesh.obj
 0001:0003ed40       ??$memFetch@E@Cm@physx@@YAEII@Z 1003fd40 f i GuContactCapsuleMesh.obj
 0001:0003ed50       ??$memFetchAsync@UIndexTriple16@MeshInterface@Gu@physx@@@Cm@physx@@YAPAUIndexTriple16@MeshInterface@Gu@1@IIAAUMemFetchSmallBuffer@01@@Z 1003fd50 f i GuContactCapsuleMesh.obj
 0001:0003ed60       ??$memFetchAsync@UIndexTriple32@MeshInterface@Gu@physx@@@Cm@physx@@YAPAUIndexTriple32@MeshInterface@Gu@1@IIAAUMemFetchSmallBuffer@01@@Z 1003fd60 f i GuContactCapsuleMesh.obj
 0001:0003ed70       ??$memFetchAsync@VPxVec3@physx@@@Cm@physx@@YAPAVPxVec3@1@IIAAUMemFetchSmallBuffer@01@@Z 1003fd70 f i GuContactCapsuleMesh.obj
 0001:0003ed80       ??$processTriangleCache@$0BA@@ContactCapsuleMesh@@QAE_NAAU?$TriangleCache@$0BA@@Gu@physx@@@Z 1003fd80 f i GuContactCapsuleMesh.obj
 0001:0003f080       ??$swap@M@shdfnd@physx@@YAXAAM0@Z 10040080 f i GuContactCapsuleMesh.obj
 0001:0003f0c0       ??0?$EntityReport@I@Gu@physx@@QAE@XZ 100400c0 f i GuContactCapsuleMesh.obj
 0001:0003f0e0       ??0?$MeshHitCallback@UPxRaycastHit@physx@@@Gu@physx@@QAE@W4Enum@CallbackMode@12@@Z 100400e0 f i GuContactCapsuleMesh.obj
 0001:0003f110       ??0?$PxFlags@W4Enum@PxBaseFlag@physx@@G@physx@@QAE@ABV01@@Z 10040110 f i GuContactCapsuleMesh.obj
 0001:0003f140       ??0?$PxFlags@W4Enum@PxHeightFieldFlag@physx@@G@physx@@QAE@ABV01@@Z 10040140 f i GuContactCapsuleMesh.obj
 0001:0003f170       ??0?$PxFlags@W4Enum@PxHeightFieldFlag@physx@@G@physx@@QAE@ABW4PxEMPTY@1@@Z 10040170 f i GuContactCapsuleMesh.obj
 0001:0003f190       ??0?$PxFlags@W4Enum@PxHeightFieldFlag@physx@@G@physx@@QAE@XZ 10040190 f i GuContactCapsuleMesh.obj
 0001:0003f1b0       ??0?$TriangleCache@$0BA@@Gu@physx@@QAE@XZ 100401b0 f i GuContactCapsuleMesh.obj
 0001:0003f1f0       ??0Box@Gu@physx@@QAE@ABV012@@Z 100401f0 f i GuContactCapsuleMesh.obj
 0001:0003f240       ??0Box@Gu@physx@@QAE@ABVPxVec3@2@0ABVPxMat33@2@@Z 10040240 f i GuContactCapsuleMesh.obj
 0001:0003f290       ??0Box@Gu@physx@@QAE@XZ    10040290 f i GuContactCapsuleMesh.obj
 0001:0003f2d0       ??0Capsule@Gu@physx@@QAE@ABVSegment@12@M@Z 100402d0 f i GuContactCapsuleMesh.obj
 0001:0003f310       ??0CapsuleHeightfieldContactGenerationCallback@@QAE@AAVContactBuffer@Gu@physx@@ABVPxTransform@3@AAVHeightFieldUtil@23@ABVSegment@23@MMM@Z 10040310 f i GuContactCapsuleMesh.obj
 0001:0003f3e0       ??0ContactCapsuleMesh@@QAE@AAVContactBuffer@Gu@physx@@ABVPxTransform@3@ABVSegment@23@MMM@Z 100403e0 f i GuContactCapsuleMesh.obj
 0001:0003f4a0       ??0ContactCapsuleMeshCallback@@QAE@AAVContactBuffer@Gu@physx@@ABVPxTransform@3@ABUPxTriangleMeshGeometryLL@3@ABVSegment@23@MABVFastVertex2ShapeScaling@Cm@3@MMPBUInternalTriangleMeshData@23@_N@Z 100404a0 f i GuContactCapsuleMesh.obj
 0001:0003f5b0       ??0FastVertex2ShapeScaling@Cm@physx@@QAE@XZ 100405b0 f i GuContactCapsuleMesh.obj
 0001:0003f610       ??0GeometryUnion@Gu@physx@@QAE@ABW4PxEMPTY@2@@Z 10040610 f i GuContactCapsuleMesh.obj
 0001:0003f630       ??0GeometryUnion@Gu@physx@@QAE@XZ 10040630 f i GuContactCapsuleMesh.obj
 0001:0003f660       ??0HeightFieldData@Gu@physx@@QAE@ABU012@@Z 10040660 f i GuContactCapsuleMesh.obj
 0001:0003f770       ??0HeightFieldData@Gu@physx@@QAE@ABW4PxEMPTY@2@@Z 10040770 f i GuContactCapsuleMesh.obj
 0001:0003f7b0       ??0HeightFieldData@Gu@physx@@QAE@XZ 100407b0 f i GuContactCapsuleMesh.obj
 0001:0003f7e0       ??0HeightFieldUtil@Gu@physx@@QAE@ABVPxHeightFieldGeometry@2@@Z 100407e0 f i GuContactCapsuleMesh.obj
 0001:0003f820       ??0HeightFieldUtil@Gu@physx@@QAE@ABVPxHeightFieldGeometry@2@ABVHeightField@12@@Z 10040820 f i GuContactCapsuleMesh.obj
 0001:0003f860       ??0HeightFieldUtil@Gu@physx@@QAE@XZ 10040860 f i GuContactCapsuleMesh.obj
 0001:0003f880       ??0InvalidGeometry@Gu@physx@@QAE@XZ 10040880 f i GuContactCapsuleMesh.obj
 0001:0003f8a0       ??0MaterialIndicesStruct@physx@@QAE@ABW4PxEMPTY@1@@Z 100408a0 f i GuContactCapsuleMesh.obj
 0001:0003f8c0       ??0MaterialIndicesStruct@physx@@QAE@XZ 100408c0 f i GuContactCapsuleMesh.obj
 0001:0003f8f0       ??0Matrix34@Cm@physx@@QAE@ABVPxTransform@2@@Z 100408f0 f i GuContactCapsuleMesh.obj
 0001:0003f960       ??0PxBounds3@physx@@QAE@ABV01@@Z 10040960 f i GuContactCapsuleMesh.obj
 0001:0003f9a0       ??0PxBounds3@physx@@QAE@ABVPxVec3@1@0@Z 100409a0 f i GuContactCapsuleMesh.obj
 0001:0003f9e0       ??0PxBounds3@physx@@QAE@XZ 100409e0 f i GuContactCapsuleMesh.obj
 0001:0003fa10       ??0PxGeometry@physx@@IAE@W4Enum@PxGeometryType@1@@Z 10040a10 f i GuContactCapsuleMesh.obj
 0001:0003fa30       ??0PxMat33@physx@@QAE@ABV01@@Z 10040a30 f i GuContactCapsuleMesh.obj
 0001:0003fa80       ??0PxMat33@physx@@QAE@W4PxIDENTITY@1@@Z 10040a80 f i GuContactCapsuleMesh.obj
 0001:0003fb70       ??0PxPlane@physx@@QAE@ABVPxVec3@1@00@Z 10040b70 f i GuContactCapsuleMesh.obj
 0001:0003fc10       ??0PxQuat@physx@@QAE@ABVPxMat33@1@@Z 10040c10 f i GuContactCapsuleMesh.obj
 0001:00040510       ??0PxTriangle@physx@@QAE@XZ 10041510 f i GuContactCapsuleMesh.obj
 0001:00040540       ??0RTree@Gu@physx@@QAE@ABU012@@Z 10041540 f i GuContactCapsuleMesh.obj
 0001:00040620       ??0RTreeMidphase@Gu@physx@@QAE@ABV012@@Z 10041620 f i GuContactCapsuleMesh.obj
 0001:00040670       ??0RTreeMidphase@Gu@physx@@QAE@ABW4PxEMPTY@2@@Z 10041670 f i GuContactCapsuleMesh.obj
 0001:000406b0       ??0Segment@Gu@physx@@QAE@ABV012@@Z 100416b0 f i GuContactCapsuleMesh.obj
 0001:000406f0       ??0Segment@Gu@physx@@QAE@ABVPxVec3@2@0@Z 100416f0 f i GuContactCapsuleMesh.obj
 0001:00040730       ??0Segment@Gu@physx@@QAE@XZ 10041730 f i GuContactCapsuleMesh.obj
 0001:00040760       ??1?$EntityReport@I@Gu@physx@@UAE@XZ 10041760 f i GuContactCapsuleMesh.obj
 0001:00040780       ??1?$MeshHitCallback@UPxRaycastHit@physx@@@Gu@physx@@UAE@XZ 10041780 f i GuContactCapsuleMesh.obj
 0001:000407a0       ??1Box@Gu@physx@@QAE@XZ    100417a0 f i GuContactCapsuleMesh.obj
 0001:000407b0       ??1Capsule@Gu@physx@@QAE@XZ 100417b0 f i GuContactCapsuleMesh.obj
 0001:000407d0       ??1CapsuleHeightfieldContactGenerationCallback@@UAE@XZ 100417d0 f i GuContactCapsuleMesh.obj
 0001:000407f0       ??1ContactCapsuleMeshCallback@@UAE@XZ 100417f0 f i GuContactCapsuleMesh.obj
 0001:00040810       ??1MaterialIndicesStruct@physx@@QAE@XZ 10041810 f i GuContactCapsuleMesh.obj
 0001:00040820       ??1PxBase@physx@@MAE@XZ    10041820 f i GuContactCapsuleMesh.obj
 0001:00040840       ??1PxHeightField@physx@@MAE@XZ 10041840 f i GuContactCapsuleMesh.obj
 0001:00040870       ??1PxTriangle@physx@@QAE@XZ 10041870 f i GuContactCapsuleMesh.obj
 0001:00040880       ??1PxTriangleMesh@physx@@MAE@XZ 10041880 f i GuContactCapsuleMesh.obj
 0001:000408b0       ??1RTree@Gu@physx@@QAE@XZ  100418b0 f i GuContactCapsuleMesh.obj
 0001:000408d0       ??1Segment@Gu@physx@@QAE@XZ 100418d0 f i GuContactCapsuleMesh.obj
 0001:000408e0       ??4?$PxFlags@W4Enum@PxHeightFieldFlag@physx@@G@physx@@QAEAAV01@ABV01@@Z 100418e0 f i GuContactCapsuleMesh.obj
 0001:00040910       ??4Box@Gu@physx@@QAEABV012@ABV012@@Z 10041910 f i GuContactCapsuleMesh.obj
 0001:00040960       ??4GeometryUnion@Gu@physx@@QAEAAV012@ABV012@@Z 10041960 f i GuContactCapsuleMesh.obj
 0001:00040990       ??4HeightFieldData@Gu@physx@@QAEAAU012@ABU012@@Z 10041990 f i GuContactCapsuleMesh.obj
 0001:00040aa0       ??4HeightFieldUtil@Gu@physx@@QAEAAV012@ABV012@@Z 10041aa0 f i GuContactCapsuleMesh.obj
 0001:00040ae0       ??4MaterialIndicesStruct@physx@@QAEAAU01@ABU01@@Z 10041ae0 f i GuContactCapsuleMesh.obj
 0001:00040b10       ??4MeshInterface@Gu@physx@@QAEAAV012@ABV012@@Z 10041b10 f i GuContactCapsuleMesh.obj
 0001:00040b50       ??4PxBounds3@physx@@QAEAAV01@ABV01@@Z 10041b50 f i GuContactCapsuleMesh.obj
 0001:00040b90       ??4RTree@Gu@physx@@QAEAAU012@ABU012@@Z 10041b90 f i GuContactCapsuleMesh.obj
 0001:00040c70       ??4RTreeMidphase@Gu@physx@@QAEAAV012@ABV012@@Z 10041c70 f i GuContactCapsuleMesh.obj
 0001:00040cc0       ??APxMat33@physx@@QBEABVPxVec3@1@H@Z 10041cc0 f i GuContactCapsuleMesh.obj
 0001:00040ce0       ??APxVec3@physx@@QBEABMH@Z 10041ce0 f i GuContactCapsuleMesh.obj
 0001:00040d50       ??B?$PxBitAndDataT@E$0IA@@physx@@QBEEXZ 10041d50 f i GuContactCapsuleMesh.obj
 0001:00040d70       ??B?$PxFlags@W4Enum@PxBaseFlag@physx@@G@physx@@QBE_NXZ 10041d70 f i GuContactCapsuleMesh.obj
 0001:00040da0       ??B?$PxFlags@W4Enum@PxHeightFieldFlag@physx@@G@physx@@QBE_NXZ 10041da0 f i GuContactCapsuleMesh.obj
 0001:00040dd0       ??DFastVertex2ShapeScaling@Cm@physx@@QBE?AVPxVec3@2@ABV32@@Z 10041dd0 f i GuContactCapsuleMesh.obj
 0001:00040e00       ??DPxMat33@physx@@QBE?AVPxVec3@1@ABV21@@Z 10041e00 f i GuContactCapsuleMesh.obj
 0001:00040e30       ??I?$PxFlags@W4Enum@PxBaseFlag@physx@@G@physx@@QBE?AV01@W4Enum@PxBaseFlag@1@@Z 10041e30 f i GuContactCapsuleMesh.obj
 0001:00040e80       ??I?$PxFlags@W4Enum@PxHeightFieldFlag@physx@@G@physx@@QBE?AV01@W4Enum@PxHeightFieldFlag@1@@Z 10041e80 f i GuContactCapsuleMesh.obj
 0001:00040ed0       ??YPxVec3@physx@@QAEAAV01@ABV01@@Z 10041ed0 f i GuContactCapsuleMesh.obj
 0001:00040f40       ??_EPxHeightField@physx@@MAEPAXI@Z 10041f40 f i GuContactCapsuleMesh.obj
 0001:00040fd0       ??_EPxTriangleMesh@physx@@MAEPAXI@Z 10041fd0 f i GuContactCapsuleMesh.obj
 0001:00041060       ??_E?$EntityReport@I@Gu@physx@@UAEPAXI@Z 10042060 f i GuContactCapsuleMesh.obj
 0001:00041060       ??_G?$EntityReport@I@Gu@physx@@UAEPAXI@Z 10042060 f i GuContactCapsuleMesh.obj
 0001:000410a0       ??_E?$MeshHitCallback@UPxRaycastHit@physx@@@Gu@physx@@UAEPAXI@Z 100420a0 f i GuContactCapsuleMesh.obj
 0001:000410a0       ??_G?$MeshHitCallback@UPxRaycastHit@physx@@@Gu@physx@@UAEPAXI@Z 100420a0 f i GuContactCapsuleMesh.obj
 0001:000410e0       ??_GCapsuleHeightfieldContactGenerationCallback@@UAEPAXI@Z 100420e0 f i GuContactCapsuleMesh.obj
 0001:000410e0       ??_ECapsuleHeightfieldContactGenerationCallback@@UAEPAXI@Z 100420e0 f i GuContactCapsuleMesh.obj
 0001:00041120       ??_EContactCapsuleMeshCallback@@UAEPAXI@Z 10042120 f i GuContactCapsuleMesh.obj
 0001:00041120       ??_GContactCapsuleMeshCallback@@UAEPAXI@Z 10042120 f i GuContactCapsuleMesh.obj
 0001:00041160       ??_EPxBase@physx@@MAEPAXI@Z 10042160 f i GuContactCapsuleMesh.obj
 0001:00041160       ??_GPxBase@physx@@MAEPAXI@Z 10042160 f i GuContactCapsuleMesh.obj
 0001:000411a0       ??_H@YGXPAXIHP6EPAX0@Z@Z   100421a0 f i GuContactCapsuleMesh.obj
 0001:000411d0       ?FLoad@aos@shdfnd@physx@@YA?AT__m128@@M@Z 100421d0 f i GuContactCapsuleMesh.obj
 0001:00041210       ?GetMeshInterface@RTreeMidphase@Gu@physx@@QBEPBVMeshInterface@23@XZ 10042210 f i GuContactCapsuleMesh.obj
 0001:00041230       ?GetNbTriangles@MeshInterface@Gu@physx@@QBEIXZ 10042230 f i GuContactCapsuleMesh.obj
 0001:00041250       ?GetNbVertices@MeshInterface@Gu@physx@@QBEIXZ 10042250 f i GuContactCapsuleMesh.obj
 0001:00041270       ?GetTriangle@MeshInterface@Gu@physx@@QBEXAAUVertexPointers@23@I@Z 10042270 f i GuContactCapsuleMesh.obj
 0001:000413d0       ?GetTriangleVerts@MeshInterface@Gu@physx@@SAXIIIIAAVPxVec3@3@00@Z 100423d0 f i GuContactCapsuleMesh.obj
 0001:00041570       ?GetTriangleVerts@MeshInterface@Gu@physx@@SAXIIIIAAVPxVec3@3@00AAI11@Z 10042570 f i GuContactCapsuleMesh.obj
 0001:00041730       ?GetTris@MeshInterface@Gu@physx@@QBEPBXXZ 10042730 f i GuContactCapsuleMesh.obj
 0001:00041750       ?GetVerts@MeshInterface@Gu@physx@@QBEPBVPxVec3@3@XZ 10042750 f i GuContactCapsuleMesh.obj
 0001:00041770       ?PxCeil@physx@@YAMM@Z      10042770 f i GuContactCapsuleMesh.obj
 0001:00041790       ?PxFloor@physx@@YAMM@Z     10042790 f i GuContactCapsuleMesh.obj
 0001:000417b0       ?SetMeshInterface@RTreeMidphase@Gu@physx@@QAEXPBVMeshInterface@23@@Z 100427b0 f i GuContactCapsuleMesh.obj
 0001:000417d0       ?SetNbTriangles@MeshInterface@Gu@physx@@QAEXI@Z 100427d0 f i GuContactCapsuleMesh.obj
 0001:000417f0       ?SetNbVertices@MeshInterface@Gu@physx@@QAEXI@Z 100427f0 f i GuContactCapsuleMesh.obj
 0001:00041810       ?V3Load@aos@shdfnd@physx@@YA?AT__m128@@M@Z 10042810 f i GuContactCapsuleMesh.obj
 0001:00041870       ?V4Load@aos@shdfnd@physx@@YA?AT__m128@@M@Z 10042870 f i GuContactCapsuleMesh.obj
 0001:000418b0       ?addTriangle@?$TriangleCache@$0BA@@Gu@physx@@QAEXPBVPxVec3@3@PBIIE@Z 100428b0 f i GuContactCapsuleMesh.obj
 0001:00041a40       ?allocate@MaterialIndicesStruct@physx@@QAEXG@Z 10042a40 f i GuContactCapsuleMesh.obj
 0001:00041aa0       ?basisExtent@PxBounds3@physx@@SA?AV12@ABVPxVec3@2@ABVPxMat33@2@0@Z 10042aa0 f i GuContactCapsuleMesh.obj
 0001:00041cf0       ?ceilUp@HeightFieldUtil@Gu@physx@@SAMM@Z 10042cf0 f i GuContactCapsuleMesh.obj
 0001:00041d60       ?clipShapeNormalToVertexVoronoi@HeightFieldUtil@Gu@physx@@QBE_NAAVPxVec3@3@III@Z 10042d60 f i GuContactCapsuleMesh.obj
 0001:00042260       ?computeAABBExtent@Box@Gu@physx@@QBE?AVPxVec3@3@XZ 10043260 f i GuContactCapsuleMesh.obj
 0001:00042520       ?computeBarycentricPoint@shdfnd@physx@@YA?AVPxVec3@2@ABV32@00MM@Z 10043520 f i GuContactCapsuleMesh.obj
 0001:00042620       ?computeBounds@GeometryUnion@Gu@physx@@QBE?AVPxBounds3@3@ABVPxTransform@3@@Z 10043620 f i GuContactCapsuleMesh.obj
 0001:00042680       ?computeBoxPoints@Box@Gu@physx@@QBEXPIAVPxVec3@3@@Z 10043680 f i GuContactCapsuleMesh.obj
 0001:000426d0       ?computeCenter@Segment@Gu@physx@@QBE?AVPxVec3@3@XZ 100436d0 f i GuContactCapsuleMesh.obj
 0001:00042720       ?computeDirection@Segment@Gu@physx@@QBE?AVPxVec3@3@XZ 10043720 f i GuContactCapsuleMesh.obj
 0001:00042750       ?computePointNormal@HeightFieldUtil@Gu@physx@@QBE?AVPxVec3@3@IABV43@ABVPxTransform@3@MMMMAAM@Z 10043750 f i GuContactCapsuleMesh.obj
 0001:00042850       ?contact@ContactBuffer@Gu@physx@@QAE_NABVPxVec3@3@0MII@Z 10043850 f i GuContactCapsuleMesh.obj
 0001:00042980       ?createDiagonal@PxMat33@physx@@SA?AV12@ABVPxVec3@2@@Z 10043980 f i GuContactCapsuleMesh.obj
 0001:00042a60       ?createIdentity@PxMat33@physx@@SA?AV12@XZ 10043a60 f i GuContactCapsuleMesh.obj
 0001:00042a80       ?deallocate@MaterialIndicesStruct@physx@@QAEXXZ 10043a80 f i GuContactCapsuleMesh.obj
 0001:00042ac0       ?denormalizedNormal@PxTriangle@physx@@QBEXAAVPxVec3@2@@Z 10043ac0 f i GuContactCapsuleMesh.obj
 0001:00042b40       ?distance@PxPlane@physx@@QBEMABVPxVec3@2@@Z 10043b40 f i GuContactCapsuleMesh.obj
 0001:00042b80       ?distanceSegmentTriangleSquared@Gu@physx@@YAMABVSegment@12@ABVPxVec3@2@11PAM22@Z 10043b80 f i GuContactCapsuleMesh.obj
 0001:00042bd0       ?floorDown@HeightFieldUtil@Gu@physx@@SAMM@Z 10043bd0 f i GuContactCapsuleMesh.obj
 0001:00042c40       ?flushCache@ContactCapsuleMeshCallback@@QAEXXZ 10043c40 f i GuContactCapsuleMesh.obj
 0001:00042c90       ?get64BitBasePage@RTree@Gu@physx@@IBEPAURTreePage@23@XZ 10043c90 f i GuContactCapsuleMesh.obj
 0001:00042cb0       ?getCapsuleSegment@Gu@physx@@YAXABVPxTransform@2@ABVPxCapsuleGeometry@2@AAVSegment@12@@Z 10043cb0 f i GuContactCapsuleMesh.obj
 0001:00042d40       ?getCenter@PxBounds3@physx@@QBE?AVPxVec3@2@XZ 10043d40 f i GuContactCapsuleMesh.obj
 0001:00042df0       ?getConcreteTypeName@PxBase@physx@@UBEPBDXZ 10043df0 f i GuContactCapsuleMesh.obj
 0001:00042e00       ?getConcreteTypeName@PxHeightField@physx@@UBEPBDXZ 10043e00 f i GuContactCapsuleMesh.obj
 0001:00042e20       ?getConcreteTypeName@PxTriangleMesh@physx@@UBEPBDXZ 10043e20 f i GuContactCapsuleMesh.obj
 0001:00042e40       ?getConjugate@PxQuat@physx@@QBE?AV12@XZ 10043e40 f i GuContactCapsuleMesh.obj
 0001:00042ec0       ?getConvexEdgeThreshold@HeightField@Gu@physx@@UBEMXZ 10043ec0 f i GuContactCapsuleMesh.obj
 0001:00042ee0       ?getData@HeightField@Gu@physx@@QBEABUHeightFieldData@23@XZ 10043ee0 f i GuContactCapsuleMesh.obj
 0001:00042f00       ?getDeterminant@PxMat33@physx@@QBEMXZ 10043f00 f i GuContactCapsuleMesh.obj
 0001:00042f40       ?getDimensions@PxBounds3@physx@@QBE?AVPxVec3@2@XZ 10043f40 f i GuContactCapsuleMesh.obj
 0001:00042fd0       ?getEdgeDirection@HeightFieldUtil@Gu@physx@@QBE?AVPxVec3@3@II@Z 10043fd0 f i GuContactCapsuleMesh.obj
 0001:00043340       ?getExtents@PxBounds3@physx@@QBE?AVPxVec3@2@XZ 10044340 f i GuContactCapsuleMesh.obj
 0001:000433e0       ?getFeatureIndex@HeightFieldUtil@Gu@physx@@SAII@Z 100443e0 f i GuContactCapsuleMesh.obj
 0001:000433f0       ?getFeatureType@HeightFieldUtil@Gu@physx@@SA?AW4Feature@123@I@Z 100443f0 f i GuContactCapsuleMesh.obj
 0001:00043400       ?getFlags@HeightField@Gu@physx@@UBE?AV?$PxFlags@W4Enum@PxHeightFieldFlag@physx@@G@3@XZ 10044400 f i GuContactCapsuleMesh.obj
 0001:00043430       ?getFormat@HeightField@Gu@physx@@UBE?AW4Enum@PxHeightFieldFormat@3@XZ 10044430 f i GuContactCapsuleMesh.obj
 0001:00043450       ?getGeometry@GeometryUnion@Gu@physx@@QBEABVPxGeometry@3@XZ 10044450 f i GuContactCapsuleMesh.obj
 0001:00043470       ?getHeight@HeightField@Gu@physx@@QBEMI@Z 10044470 f i GuContactCapsuleMesh.obj
 0001:000434a0       ?getHeight@HeightField@Gu@physx@@UBEMMM@Z 100444a0 f i GuContactCapsuleMesh.obj
 0001:000434e0       ?getHeightAtShapePoint2@HeightFieldUtil@Gu@physx@@QBEMIMM@Z 100444e0 f i GuContactCapsuleMesh.obj
 0001:00043550       ?getHeightAtShapePoint@HeightFieldUtil@Gu@physx@@QBEMMM@Z 10044550 f i GuContactCapsuleMesh.obj
 0001:000435d0       ?getHeightField@HeightFieldUtil@Gu@physx@@QBEABVHeightField@23@XZ 100445d0 f i GuContactCapsuleMesh.obj
 0001:000435f0       ?getHeightFieldGeometry@HeightFieldUtil@Gu@physx@@QBEABVPxHeightFieldGeometry@3@XZ 100445f0 f i GuContactCapsuleMesh.obj
 0001:00043610       ?getHeightInternal2@HeightField@Gu@physx@@QBEMIMM@Z 10044610 f i GuContactCapsuleMesh.obj
 0001:00043860       ?getHeightInternal@HeightField@Gu@physx@@QBEMMM@Z 10044860 f i GuContactCapsuleMesh.obj
 0001:000438d0       ?getInverse@PxMat33@physx@@QBE?AV12@XZ 100448d0 f i GuContactCapsuleMesh.obj
 0001:00043e60       ?getMaterialIndex0@HeightField@Gu@physx@@QBEGI@Z 10044e60 f i GuContactCapsuleMesh.obj
 0001:00043e90       ?getMaterialIndex1@HeightField@Gu@physx@@QBEGI@Z 10044e90 f i GuContactCapsuleMesh.obj
 0001:00043ec0       ?getNbColumns@HeightField@Gu@physx@@UBEIXZ 10044ec0 f i GuContactCapsuleMesh.obj
 0001:00043ee0       ?getNbColumnsFast@HeightField@Gu@physx@@QBEIXZ 10044ee0 f i GuContactCapsuleMesh.obj
 0001:00043f00       ?getNbRows@HeightField@Gu@physx@@UBEIXZ 10044f00 f i GuContactCapsuleMesh.obj
 0001:00043f20       ?getNbRowsFast@HeightField@Gu@physx@@QBEIXZ 10044f20 f i GuContactCapsuleMesh.obj
 0001:00043f40       ?getNodeIdxFromNodeHandle@RTree@Gu@physx@@IBEII@Z 10044f40 f i GuContactCapsuleMesh.obj
 0001:00043f60       ?getNormalAtShapePoint2@HeightFieldUtil@Gu@physx@@QBE?AVPxVec3@3@IMM@Z 10044f60 f i GuContactCapsuleMesh.obj
 0001:00043fe0       ?getNormalAtShapePoint@HeightFieldUtil@Gu@physx@@QBE?AVPxVec3@3@MM@Z 10044fe0 f i GuContactCapsuleMesh.obj
 0001:00044070       ?getNormal_2@HeightField@Gu@physx@@QBE?AVPxVec3@3@IMMMMM@Z 10045070 f i GuContactCapsuleMesh.obj
 0001:00044380       ?getNormal_@HeightField@Gu@physx@@QBE?AVPxVec3@3@MMMMM@Z 10045380 f i GuContactCapsuleMesh.obj
 0001:00044430       ?getNormalized@PxVec3@physx@@QBE?AV12@XZ 10045430 f i GuContactCapsuleMesh.obj
 0001:000444f0       ?getOneOverColumnScale@HeightFieldUtil@Gu@physx@@QBEMXZ 100454f0 f i GuContactCapsuleMesh.obj
 0001:00044510       ?getOneOverHeightScale@HeightFieldUtil@Gu@physx@@QBEMXZ 10045510 f i GuContactCapsuleMesh.obj
 0001:00044530       ?getOneOverRowScale@HeightFieldUtil@Gu@physx@@QBEMXZ 10045530 f i GuContactCapsuleMesh.obj
 0001:00044550       ?getPageFromNodeHandle@RTree@Gu@physx@@IBEPAURTreePage@23@I@Z 10045550 f i GuContactCapsuleMesh.obj
 0001:00044580       ?getPointAt@Segment@Gu@physx@@QBE?AVPxVec3@3@M@Z 10045580 f i GuContactCapsuleMesh.obj
 0001:000445e0       ?getRTreeMidphaseData@RTreeMidphase@Gu@physx@@QBEXAAURTreeMidphaseData@23@@Z 100455e0 f i GuContactCapsuleMesh.obj
 0001:00044620       ?getSample@HeightField@Gu@physx@@QBEABUPxHeightFieldSample@3@I@Z 10045620 f i GuContactCapsuleMesh.obj
 0001:000446a0       ?getSampleStride@HeightField@Gu@physx@@UBEIXZ 100456a0 f i GuContactCapsuleMesh.obj
 0001:000446c0       ?getThickness@HeightField@Gu@physx@@UBEMXZ 100456c0 f i GuContactCapsuleMesh.obj
 0001:000446e0       ?getTransform@Box@Gu@physx@@QBE?AVPxTransform@3@XZ 100456e0 f i GuContactCapsuleMesh.obj
 0001:00044720       ?getTriangleMaterial@HeightField@Gu@physx@@QBEGI@Z 10045720 f i GuContactCapsuleMesh.obj
 0001:00044780       ?getTriangleMaterialIndex@HeightField@Gu@physx@@UBEGI@Z 10045780 f i GuContactCapsuleMesh.obj
 0001:000447a0       ?getTriangleNormal@HeightField@Gu@physx@@UBE?AVPxVec3@3@I@Z 100457a0 f i GuContactCapsuleMesh.obj
 0001:000447d0       ?getTriangleNormalInternal@HeightField@Gu@physx@@QBE?AVPxVec3@3@I@Z 100457d0 f i GuContactCapsuleMesh.obj
 0001:00044a40       ?getTriangleVertexIndices@HeightField@Gu@physx@@QBEXIAAI00@Z 10045a40 f i GuContactCapsuleMesh.obj
 0001:00044b70       ?getType@GeometryUnion@Gu@physx@@QBE?AW4Enum@PxGeometryType@3@XZ 10045b70 f i GuContactCapsuleMesh.obj
 0001:00044b90       ?getType@PxGeometry@physx@@QBE?AW4Enum@PxGeometryType@2@XZ 10045b90 f i GuContactCapsuleMesh.obj
 0001:00044bb0       ?getVertexNormal@HeightFieldUtil@Gu@physx@@QBE?AVPxVec3@3@I@Z 10045bb0 f i GuContactCapsuleMesh.obj
 0001:00044c20       ?has16BitIndices@MeshInterface@Gu@physx@@QBEIXZ 10045c20 f i GuContactCapsuleMesh.obj
 0001:00044c40       ?hf2shapen@HeightFieldUtil@Gu@physx@@QBE?AVPxVec3@3@ABV43@@Z 10045c40 f i GuContactCapsuleMesh.obj
 0001:00044cb0       ?hf2shapep@HeightFieldUtil@Gu@physx@@QBE?AVPxVec3@3@ABV43@@Z 10045cb0 f i GuContactCapsuleMesh.obj
 0001:00044d30       ?hf2worldn@HeightFieldUtil@Gu@physx@@QBE?AVPxVec3@3@ABVPxTransform@3@ABV43@@Z 10045d30 f i GuContactCapsuleMesh.obj
 0001:00044d70       ?hf2worldp@HeightFieldUtil@Gu@physx@@QBE?AVPxVec3@3@ABVPxTransform@3@ABV43@@Z 10045d70 f i GuContactCapsuleMesh.obj
 0001:00044db0       ?init@FastVertex2ShapeScaling@Cm@physx@@QAEXABVPxMeshScale@3@@Z 10045db0 f i GuContactCapsuleMesh.obj
 0001:00044de0       ?init@FastVertex2ShapeScaling@Cm@physx@@QAEXABVPxVec3@3@ABVPxQuat@3@@Z 10045de0 f i GuContactCapsuleMesh.obj
 0001:00044ea0       ?initialize@HeightFieldUtil@Gu@physx@@AAEXXZ 10045ea0 f i GuContactCapsuleMesh.obj
 0001:00045070       ?initialize@HeightFieldUtil@Gu@physx@@QAEXABVPxHeightFieldGeometry@3@ABVHeightField@23@@Z 10046070 f i GuContactCapsuleMesh.obj
 0001:000450a0       ?isAlmostZero@shdfnd@physx@@YA_NABVPxVec3@2@@Z 100460a0 f i GuContactCapsuleMesh.obj
 0001:00045150       ?isBitSet@?$PxBitAndDataT@E$0IA@@physx@@QBEEXZ 10046150 f i GuContactCapsuleMesh.obj
 0001:00045170       ?isCollisionVertex@HeightField@Gu@physx@@QBE_NIIIG@Z 10046170 f i GuContactCapsuleMesh.obj
 0001:000451c0       ?isCollisionVertex@HeightFieldUtil@Gu@physx@@QBE_NIII@Z 100461c0 f i GuContactCapsuleMesh.obj
 0001:000451f0       ?isEmpty@?$TriangleCache@$0BA@@Gu@physx@@QBE_NXZ 100461f0 f i GuContactCapsuleMesh.obj
 0001:00045230       ?isFinite@PxBounds3@physx@@QBE_NXZ 10046230 f i GuContactCapsuleMesh.obj
 0001:00045290       ?isFinite@PxTransform@physx@@QBE_NXZ 10046290 f i GuContactCapsuleMesh.obj
 0001:000452f0       ?isFinite@PxVec3@physx@@QBE_NXZ 100462f0 f i GuContactCapsuleMesh.obj
 0001:00045390       ?isFirstTriangle@HeightField@Gu@physx@@QBE_NI@Z 10046390 f i GuContactCapsuleMesh.obj
 0001:000453d0       ?isFull@?$TriangleCache@$0BA@@Gu@physx@@QBE_NXZ 100463d0 f i GuContactCapsuleMesh.obj
 0001:00045410       ?isIdentity@PxMeshScale@physx@@QBE_NXZ 10046410 f i GuContactCapsuleMesh.obj
 0001:00045490       ?isKindOf@PxBase@physx@@MBE_NPBD@Z 10046490 f i GuContactCapsuleMesh.obj
 0001:000454e0       ?isKindOf@PxHeightField@physx@@MBE_NPBD@Z 100464e0 f i GuContactCapsuleMesh.obj
 0001:00045540       ?isKindOf@PxTriangleMesh@physx@@MBE_NPBD@Z 10046540 f i GuContactCapsuleMesh.obj
 0001:000455a0       ?isQueryVertex@HeightFieldUtil@Gu@physx@@QBE_NIII@Z 100465a0 f i GuContactCapsuleMesh.obj
 0001:000456a0       ?isReleasable@PxBase@physx@@UBE_NXZ 100466a0 f i GuContactCapsuleMesh.obj
 0001:000456d0       ?isSane@PxTransform@physx@@QBE_NXZ 100466d0 f i GuContactCapsuleMesh.obj
 0001:00045720       ?isShapePointOnHeightField@HeightFieldUtil@Gu@physx@@QBE_NMM@Z 10046720 f i GuContactCapsuleMesh.obj
 0001:000457f0       ?isValid@Box@Gu@physx@@QBE_NXZ 100467f0 f i GuContactCapsuleMesh.obj
 0001:00045850       ?isValid@PxBounds3@physx@@QBE_NXZ 10046850 f i GuContactCapsuleMesh.obj
 0001:00045970       ?isValidVertex@HeightField@Gu@physx@@QBE_NI@Z 10046970 f i GuContactCapsuleMesh.obj
 0001:000459c0       ?isZerothVertexShared@HeightField@Gu@physx@@QBE_NI@Z 100469c0 f i GuContactCapsuleMesh.obj
 0001:00045a10       ?makeFatEdge@shdfnd@physx@@YAXAAVPxVec3@2@0M@Z 10046a10 f i GuContactCapsuleMesh.obj
 0001:00045a90       ?makeFeatureCode@HeightFieldUtil@Gu@physx@@SAIIW4Feature@123@@Z 10046a90 f i GuContactCapsuleMesh.obj
 0001:00045ab0       ?memFetchWait@Cm@physx@@YAXI@Z 10046ab0 f i GuContactCapsuleMesh.obj
 0001:00045ac0       ?normal@PxTriangle@physx@@QBEXAAVPxVec3@2@@Z 10046ac0 f i GuContactCapsuleMesh.obj
 0001:00045b50       ?onEvent@CapsuleHeightfieldContactGenerationCallback@@UAE_NIPAI@Z 10046b50 f i GuContactCapsuleMesh.obj
 0001:00045e60       ?pagePtrFrom32Bits@RTree@Gu@physx@@KAPAURTreePage@23@I@Z 10046e60 f i GuContactCapsuleMesh.obj
 0001:00045e70       ?pagePtrTo32Bits@RTree@Gu@physx@@KAIPBURTreePage@23@@Z 10046e70 f i GuContactCapsuleMesh.obj
 0001:00045e80       ?processHit@ContactCapsuleMeshCallback@@UAE_NABUPxRaycastHit@physx@@ABVPxVec3@3@11AAMPBI@Z 10046e80 f i GuContactCapsuleMesh.obj
 0001:00046050       ?reset@?$TriangleCache@$0BA@@Gu@physx@@QAEXXZ 10047050 f i GuContactCapsuleMesh.obj
 0001:00046070       ?rotate@Box@Gu@physx@@QBE?AVPxVec3@3@ABV43@@Z 10047070 f i GuContactCapsuleMesh.obj
 0001:000460a0       ?rotate@Matrix34@Cm@physx@@QBE?AVPxVec3@3@ABV43@@Z 100470a0 f i GuContactCapsuleMesh.obj
 0001:00046140       ?rotate@PxTransform@physx@@QBE?AVPxVec3@2@ABV32@@Z 10047140 f i GuContactCapsuleMesh.obj
 0001:000461c0       ?rotateInv@Box@Gu@physx@@QBE?AVPxVec3@3@ABV43@@Z 100471c0 f i GuContactCapsuleMesh.obj
 0001:000461f0       ?rotateInv@PxQuat@physx@@QBE?BVPxVec3@2@ABV32@@Z 100471f0 f i GuContactCapsuleMesh.obj
 0001:000463e0       ?set@Matrix34@Cm@physx@@QAEXABVPxQuat@3@@Z 100473e0 f i GuContactCapsuleMesh.obj
 0001:00046630       ?setAxes@Box@Gu@physx@@QAEXABVPxVec3@3@00@Z 10047630 f i GuContactCapsuleMesh.obj
 0001:00046680       ?setEmpty@Box@Gu@physx@@QAEXXZ 10047680 f i GuContactCapsuleMesh.obj
 0001:00046720       ?shape2hfp@HeightFieldUtil@Gu@physx@@QBE?AVPxVec3@3@ABV43@@Z 10047720 f i GuContactCapsuleMesh.obj
 0001:00046790       ?tessFlag@PxHeightFieldSample@physx@@QBEEXZ 10047790 f i GuContactCapsuleMesh.obj
 0001:000467d0       ?transform@Box@Gu@physx@@QBE?AVPxVec3@3@ABV43@@Z 100477d0 f i GuContactCapsuleMesh.obj
 0001:00046820       ?transform@Matrix34@Cm@physx@@QBE?AVPxVec3@3@ABV43@@Z 10047820 f i GuContactCapsuleMesh.obj
 0001:000468e0       ?transform@PxTransform@physx@@QBE?AVPxVec3@2@ABV32@@Z 100478e0 f i GuContactCapsuleMesh.obj
 0001:00046980       ?transformFast@PxBounds3@physx@@SA?AV12@ABVPxTransform@2@ABV12@@Z 10047980 f i GuContactCapsuleMesh.obj
 0001:00046a40       ?transformInv@PxTransform@physx@@QBE?AV12@ABV12@@Z 10047a40 f i GuContactCapsuleMesh.obj
 0001:00046b60       ?transformInv@PxTransform@physx@@QBE?AVPxVec3@2@ABV32@@Z 10047b60 f i GuContactCapsuleMesh.obj
 0001:00046bf0       ?transformQueryBounds@FastVertex2ShapeScaling@Cm@physx@@QBEXAAVPxVec3@3@0AAVPxMat33@3@@Z 10047bf0 f i GuContactCapsuleMesh.obj
 0001:00046d20       ?transformTranspose@PxMat33@physx@@QBE?AVPxVec3@2@ABV32@@Z 10047d20 f i GuContactCapsuleMesh.obj
 0001:00046d90       _ceilf                     10047d90 f i GuContactCapsuleMesh.obj
 0001:00046dc0       _floorf                    10047dc0 f i GuContactCapsuleMesh.obj
 0001:00046df0       ??0ConvexVsMeshContactGeneration@Gu@physx@@QAE@AAVContainer@12@ABVPxTransform@2@1ABUPolygonalData@12@ABVMatrix34@Cm@2@3ABVFastVertex2ShapeScaling@72@M_NM11AAVContactBuffer@12@@Z 10047df0 f   GuContactConvexMesh.obj
 0001:00046f50       ?processTriangle@ConvexVsMeshContactGeneration@Gu@physx@@QAE_NPBVPxVec3@3@IEPBI@Z 10047f50 f   GuContactConvexMesh.obj
 0001:00047310       ?generateLastContacts@ConvexVsMeshContactGeneration@Gu@physx@@QAEXXZ 10048310 f   GuContactConvexMesh.obj
 0001:00047680       ?generateContacts@ConvexVsMeshContactGeneration@Gu@physx@@QBE_NABVPxPlane@3@PIBVPxVec3@3@ABV53@AAV53@MI@Z 10048680 f   GuContactConvexMesh.obj
 0001:00047b50       ?contactConvexMesh@Gu@physx@@YA_NABVGeometryUnion@12@0ABVPxTransform@2@1ABMAAUCache@12@AAVContactBuffer@12@@Z 10048b50 f   GuContactConvexMesh.obj
 0001:00047c30       ?contactBoxMesh@Gu@physx@@YA_NABVGeometryUnion@12@0ABVPxTransform@2@1ABMAAUCache@12@AAVContactBuffer@12@@Z 10048c30 f   GuContactConvexMesh.obj
 0001:00047d30       ?contactConvexHeightfield@Gu@physx@@YA_NABVGeometryUnion@12@0ABVPxTransform@2@1ABMAAUCache@12@AAVContactBuffer@12@@Z 10048d30 f   GuContactConvexMesh.obj
 0001:00047e00       ?contactBoxHeightfield@Gu@physx@@YA_NABVGeometryUnion@12@0ABVPxTransform@2@1ABMAAUCache@12@AAVContactBuffer@12@@Z 10048e00 f   GuContactConvexMesh.obj
 0001:0004a340       ??$checkType@$$CBVPxBoxGeometry@physx@@@physx@@YAXABVGeometryUnion@Gu@0@@Z 1004b340 f i GuContactConvexMesh.obj
 0001:0004a3b0       ??$get@$$CBVPxBoxGeometry@physx@@@GeometryUnion@Gu@physx@@QBEABVPxBoxGeometry@2@XZ 1004b3b0 f i GuContactConvexMesh.obj
 0001:0004a3d0       ??$processTriangleCache@$0BA@@ConvexVsMeshContactGeneration@Gu@physx@@QAE_NAAU?$TriangleCache@$0BA@@12@@Z 1004b3d0 f i GuContactConvexMesh.obj
 0001:0004a4a0       ??0?$CacheMap@UCachedEdge@Gu@physx@@$0IA@@Gu@physx@@QAE@XZ 1004b4a0 f i GuContactConvexMesh.obj
 0001:0004a520       ??0?$CacheMap@UCachedVertex@Gu@physx@@$0IA@@Gu@physx@@QAE@XZ 1004b520 f i GuContactConvexMesh.obj
 0001:0004a5a0       ??0CachedEdge@Gu@physx@@QAE@II@Z 1004b5a0 f i GuContactConvexMesh.obj
 0001:0004a5f0       ??0CachedEdge@Gu@physx@@QAE@XZ 1004b5f0 f i GuContactConvexMesh.obj
 0001:0004a610       ??0CachedVertex@Gu@physx@@QAE@I@Z 1004b610 f i GuContactConvexMesh.obj
 0001:0004a630       ??0CachedVertex@Gu@physx@@QAE@XZ 1004b630 f i GuContactConvexMesh.obj
 0001:0004a650       ??0ConvexVsHeightfieldContactGenerationCallback@@QAE@AAVHeightFieldUtil@Gu@physx@@AAVContainer@23@ABVPxTransform@3@2ABUPolygonalData@23@ABVMatrix34@Cm@3@4ABVFastVertex2ShapeScaling@83@M_NM22AAVContactBuffer@23@@Z 1004b650 f i GuContactConvexMesh.obj
 0001:0004a6f0       ??0ConvexVsMeshContactGenerationCallback@@QAE@AAVContainer@Gu@physx@@ABVPxTransform@3@1ABUPolygonalData@23@ABVMatrix34@Cm@3@3PBUInternalTriangleMeshData@23@PIBEABVFastVertex2ShapeScaling@73@6M_N7M11AAVContactBuffer@23@ABVBox@23@@Z 1004b6f0 f i GuContactConvexMesh.obj
 0001:0004a7f0       ??0HullPolygonData@Gu@physx@@QAE@ABU012@@Z 1004b7f0 f i GuContactConvexMesh.obj
 0001:0004a850       ??0Matrix34@Cm@physx@@QAE@ABV012@@Z 1004b850 f i GuContactConvexMesh.obj
 0001:0004a8f0       ??0PolygonalBox@Gu@physx@@QAE@ABV012@@Z 1004b8f0 f i GuContactConvexMesh.obj
 0001:0004a960       ??0PolygonalData@Gu@physx@@QAE@XZ 1004b960 f i GuContactConvexMesh.obj
 0001:0004a980       ??0PxPlane@physx@@QAE@ABVPxVec3@1@M@Z 1004b980 f i GuContactConvexMesh.obj
 0001:0004a9c0       ??0PxPlane@physx@@QAE@XZ   1004b9c0 f i GuContactConvexMesh.obj
 0001:0004a9e0       ??0PxTransform@physx@@QAE@ABV01@@Z 1004b9e0 f i GuContactConvexMesh.obj
 0001:0004aa20       ??0SeparatingAxes@Gu@physx@@QAE@ABV012@@Z 1004ba20 f i GuContactConvexMesh.obj
 0001:0004aa70       ??0SeparatingAxes@Gu@physx@@QAE@XZ 1004ba70 f i GuContactConvexMesh.obj
 0001:0004aab0       ??1ConvexVsHeightfieldContactGenerationCallback@@UAE@XZ 1004bab0 f i GuContactConvexMesh.obj
 0001:0004aad0       ??1ConvexVsMeshContactGenerationCallback@@UAE@XZ 1004bad0 f i GuContactConvexMesh.obj
 0001:0004aaf0       ??4SeparatingAxes@Gu@physx@@QAEAAV012@ABV012@@Z 1004baf0 f i GuContactConvexMesh.obj
 0001:0004ab60       ??8CachedEdge@Gu@physx@@QBE_NABU012@@Z 1004bb60 f i GuContactConvexMesh.obj
 0001:0004abb0       ??8CachedVertex@Gu@physx@@QBE_NABU012@@Z 1004bbb0 f i GuContactConvexMesh.obj
 0001:0004abf0       ??AContainer@Gu@physx@@QAEAAII@Z 1004bbf0 f i GuContactConvexMesh.obj
 0001:0004ac60       ??AContainer@Gu@physx@@QBEII@Z 1004bc60 f i GuContactConvexMesh.obj
 0001:0004acd0       ??LFastVertex2ShapeScaling@Cm@physx@@QBE?AVPxVec3@2@ABV32@@Z 1004bcd0 f i GuContactConvexMesh.obj
 0001:0004ad00       ??_GConvexVsHeightfieldContactGenerationCallback@@UAEPAXI@Z 1004bd00 f i GuContactConvexMesh.obj
 0001:0004ad00       ??_EConvexVsHeightfieldContactGenerationCallback@@UAEPAXI@Z 1004bd00 f i GuContactConvexMesh.obj
 0001:0004ad40       ??_EConvexVsMeshContactGenerationCallback@@UAEPAXI@Z 1004bd40 f i GuContactConvexMesh.obj
 0001:0004ad40       ??_GConvexVsMeshContactGenerationCallback@@UAEPAXI@Z 1004bd40 f i GuContactConvexMesh.obj
 0001:0004ad80       ??__G@YGXPAX0IHP6EPAX00@Z@Z 1004bd80 f i GuContactConvexMesh.obj
 0001:0004adc0       ?Add@Container@Gu@physx@@QAEAAV123@ABV123@@Z 1004bdc0 f i GuContactConvexMesh.obj
 0001:0004adf0       ?Add@Container@Gu@physx@@QAEAAV123@I@Z 1004bdf0 f i GuContactConvexMesh.obj
 0001:0004ae50       ?Add@Container@Gu@physx@@QAEAAV123@M@Z 1004be50 f i GuContactConvexMesh.obj
 0001:0004aec0       ?Add@Container@Gu@physx@@QAEAAV123@PBII@Z 1004bec0 f i GuContactConvexMesh.obj
 0001:0004af50       ?Add@Container@Gu@physx@@QAEAAV123@PBMI@Z 1004bf50 f i GuContactConvexMesh.obj
 0001:0004afd0       ?AddUnique@Container@Gu@physx@@QAEAAV123@I@Z 1004bfd0 f i GuContactConvexMesh.obj
 0001:0004b010       ?DeleteIndex@Container@Gu@physx@@QAEXI@Z 1004c010 f i GuContactConvexMesh.obj
 0001:0004b060       ?DeleteLastEntry@Container@Gu@physx@@QAEXXZ 1004c060 f i GuContactConvexMesh.obj
 0001:0004b090       ?ForceSize@Container@Gu@physx@@QAEXI@Z 1004c090 f i GuContactConvexMesh.obj
 0001:0004b0b0       ?GetEntries@Container@Gu@physx@@QBEPAIXZ 1004c0b0 f i GuContactConvexMesh.obj
 0001:0004b0d0       ?GetEntry@Container@Gu@physx@@QBEII@Z 1004c0d0 f i GuContactConvexMesh.obj
 0001:0004b0f0       ?GetFirst@Container@Gu@physx@@QBEIXZ 1004c0f0 f i GuContactConvexMesh.obj
 0001:0004b120       ?GetGrowthFactor@Container@Gu@physx@@QBEMXZ 1004c120 f i GuContactConvexMesh.obj
 0001:0004b140       ?GetLast@Container@Gu@physx@@QBEIXZ 1004c140 f i GuContactConvexMesh.obj
 0001:0004b170       ?GetMaxNbEntries@Container@Gu@physx@@QBEIXZ 1004c170 f i GuContactConvexMesh.obj
 0001:0004b190       ?GetNbEntries@Container@Gu@physx@@QBEIXZ 1004c190 f i GuContactConvexMesh.obj
 0001:0004b1b0       ?IsFull@Container@Gu@physx@@QBE_NXZ 1004c1b0 f i GuContactConvexMesh.obj
 0001:0004b1f0       ?IsNotEmpty@Container@Gu@physx@@QBEHXZ 1004c1f0 f i GuContactConvexMesh.obj
 0001:0004b210       ?Reserve@Container@Gu@physx@@QAEPAII@Z 1004c210 f i GuContactConvexMesh.obj
 0001:0004b290       ?Reset@Container@Gu@physx@@QAEXXZ 1004c290 f i GuContactConvexMesh.obj
 0001:0004b2c0       ?SetGrowthFactor@Container@Gu@physx@@QAEXM@Z 1004c2c0 f i GuContactConvexMesh.obj
 0001:0004b310       ?addData@?$CacheMap@UCachedEdge@Gu@physx@@$0IA@@Gu@physx@@QAE_NABUCachedEdge@23@@Z 1004c310 f i GuContactConvexMesh.obj
 0001:0004b4a0       ?addData@?$CacheMap@UCachedVertex@Gu@physx@@$0IA@@Gu@physx@@QAE_NABUCachedVertex@23@@Z 1004c4a0 f i GuContactConvexMesh.obj
 0001:0004b620       ?contains@?$CacheMap@UCachedEdge@Gu@physx@@$0IA@@Gu@physx@@QBE_NABUCachedEdge@23@@Z 1004c620 f i GuContactConvexMesh.obj
 0001:0004b6b0       ?contains@?$CacheMap@UCachedVertex@Gu@physx@@$0IA@@Gu@physx@@QBE_NABUCachedVertex@23@@Z 1004c6b0 f i GuContactConvexMesh.obj
 0001:0004b740       ?copyPlane@Gu@physx@@YAXPIAVPxPlane@2@PIBUHullPolygonData@12@@Z 1004c740 f i GuContactConvexMesh.obj
 0001:0004b780       ?edgeCulling@Gu@physx@@YA_NABVPxPlane@2@ABVPxVec3@2@1M@Z 1004c780 f i GuContactConvexMesh.obj
 0001:0004b7f0       ?flushCache@ConvexVsMeshContactGenerationCallback@@QAEXXZ 1004c7f0 f i GuContactConvexMesh.obj
 0001:0004b840       ?getAxes@SeparatingAxes@Gu@physx@@QBEPBVPxVec3@3@XZ 1004c840 f i GuContactConvexMesh.obj
 0001:0004b860       ?getHashCode@CachedEdge@Gu@physx@@QBEIXZ 1004c860 f i GuContactConvexMesh.obj
 0001:0004b890       ?getHashCode@CachedVertex@Gu@physx@@QBEIXZ 1004c890 f i GuContactConvexMesh.obj
 0001:0004b8b0       ?getMax@HullPolygonData@Gu@physx@@QBEMXZ 1004c8b0 f i GuContactConvexMesh.obj
 0001:0004b8e0       ?getMin@HullPolygonData@Gu@physx@@QBEMPIBVPxVec3@3@@Z 1004c8e0 f i GuContactConvexMesh.obj
 0001:0004b910       ?getNumAxes@SeparatingAxes@Gu@physx@@QBEIXZ 1004c910 f i GuContactConvexMesh.obj
 0001:0004b930       ?getPolygonVertexRefs@PolygonalData@Gu@physx@@QBEPBEABUHullPolygonData@23@@Z 1004c930 f i GuContactConvexMesh.obj
 0001:0004b950       ?invalidateCache@shdfnd@physx@@YAXPIAXH@Z 1004c950 f i GuContactConvexMesh.obj
 0001:0004b960       ?onEvent@ConvexVsHeightfieldContactGenerationCallback@@UAE_NIPAI@Z 1004c960 f i GuContactConvexMesh.obj
 0001:0004bc80       ?processHit@ConvexVsMeshContactGenerationCallback@@UAE_NABUPxRaycastHit@physx@@ABVPxVec3@3@11AAMPBI@Z 1004cc80 f i GuContactConvexMesh.obj
 0001:0004beb0       ?reset@SeparatingAxes@Gu@physx@@QAEXXZ 1004ceb0 f i GuContactConvexMesh.obj
 0001:0004bed0       ?rotateTranspose@Matrix34@Cm@physx@@QBE?AVPxVec3@3@ABV43@@Z 1004ced0 f i GuContactConvexMesh.obj
 0001:0004bf40       ?to8@shdfnd@physx@@YAEI@Z  1004cf40 f i GuContactConvexMesh.obj
 0001:0004bfa0       ?transformPlaneToShapeSpace@FastVertex2ShapeScaling@Cm@physx@@QBEXABVPxVec3@3@MAAV43@AAM@Z 1004cfa0 f i GuContactConvexMesh.obj
 0001:0004c080       ?findRotationMatrixFromZ@Gu@physx@@YA?AVPxMat33@2@ABVPxVec3@2@@Z 1004d080 f   GuContactPolygonPolygon.obj
 0001:0004c6f0       ?contactPolygonPolygonExt@Gu@physx@@YA_NIPBVPxVec3@2@PBEABVMatrix34@Cm@2@ABVPxPlane@2@ABVPxMat33@2@I01234ABV32@22IIAAVContactBuffer@12@_N5M@Z 1004d6f0 f   GuContactPolygonPolygon.obj
 0001:0004e710       ??0Matrix34@Cm@physx@@QAE@ABVPxVec3@2@000@Z 1004f710 f i GuContactPolygonPolygon.obj
 0001:0004e770       ??4ContactPoint@Gu@physx@@QAEAAU012@ABU012@@Z 1004f770 f i GuContactPolygonPolygon.obj
 0001:0004e830       ??RPxMat33@physx@@QAEAAMII@Z 1004f830 f i GuContactPolygonPolygon.obj
 0001:0004e860       ?EdgeEdgeContactSpecial@@YA_NABVPxVec3@physx@@ABVPxPlane@2@00000AAMAAV12@IIM@Z 1004f860 f i GuContactPolygonPolygon.obj
 0001:0004eaf0       ?PxMemZero@physx@@YAPAXPIAXI@Z 1004faf0 f i GuContactPolygonPolygon.obj
 0001:0004eb10       ?closestAxis@shdfnd@physx@@YAIABVPxVec3@2@AAI1@Z 1004fb10 f i GuContactPolygonPolygon.obj
 0001:0004ec10       ?contact@ContactBuffer@Gu@physx@@QAEPAUContactPoint@23@XZ 1004fc10 f i GuContactPolygonPolygon.obj
 0001:0004ec70       ?cross001@shdfnd@physx@@YA?AVPxVec3@2@ABV32@@Z 1004fc70 f i GuContactPolygonPolygon.obj
 0001:0004ecc0       ?degToRad@shdfnd@physx@@YAMM@Z 1004fcc0 f i GuContactPolygonPolygon.obj
 0001:0004ecf0       ?memZero@intrinsics@physx@@YAPAXPIAXI@Z 1004fcf0 f i GuContactPolygonPolygon.obj
 0001:0004ed10       ?pointInTriangle2D@@YA_NMMMMMMMM@Z 1004fd10 f i GuContactPolygonPolygon.obj
 0001:0004eec0       ?transform2D@@YAXAAM0ABVPxVec3@physx@@ABVMatrix34@Cm@2@@Z 1004fec0 f i GuContactPolygonPolygon.obj
 0001:0004ef80       ?transform2DT@@YAXAAM0ABVPxVec3@physx@@ABVPxMat33@2@@Z 1004ff80 f i GuContactPolygonPolygon.obj
 0001:0004efc0       ?transformTranspose@@YA?AVMatrix34@Cm@physx@@ABVPxMat33@3@ABV123@@Z 1004ffc0 f i GuContactPolygonPolygon.obj
 0001:0004f040       ?transformZ@@YAMABVPxVec3@physx@@ABVMatrix34@Cm@2@@Z 10050040 f i GuContactPolygonPolygon.obj
 0001:0004f100       ?contactSphereMesh@Gu@physx@@YA_NABVGeometryUnion@12@0ABVPxTransform@2@1ABMAAUCache@12@AAVContactBuffer@12@@Z 10050100 f   GuContactSphereMesh.obj
 0001:0004f300       ?contactSphereHeightField@Gu@physx@@YA_NABVGeometryUnion@12@0ABVPxTransform@2@1ABMAAUCache@12@AAVContactBuffer@12@@Z 10050300 f   GuContactSphereMesh.obj
 0001:0004fd20       ??$checkType@$$CBVPxSphereGeometry@physx@@@physx@@YAXABVGeometryUnion@Gu@0@@Z 10050d20 f i GuContactSphereMesh.obj
 0001:0004fd90       ??$get@$$CBVPxSphereGeometry@physx@@@GeometryUnion@Gu@physx@@QBEABVPxSphereGeometry@2@XZ 10050d90 f i GuContactSphereMesh.obj
 0001:0004fdb0       ??$median3@USortKey@@$$CBU?$Less@USortKey@@@shdfnd@physx@@@internal@shdfnd@physx@@YAXPAUSortKey@@HHABU?$Less@USortKey@@@12@@Z 10050db0 f i GuContactSphereMesh.obj
 0001:0004fee0       ??$partition@USortKey@@$$CBU?$Less@USortKey@@@shdfnd@physx@@@internal@shdfnd@physx@@YAHPAUSortKey@@HHABU?$Less@USortKey@@@12@@Z 10050ee0 f i GuContactSphereMesh.obj
 0001:000500b0       ??$smallSort@USortKey@@$$CBU?$Less@USortKey@@@shdfnd@physx@@@internal@shdfnd@physx@@YAXPAUSortKey@@HHABU?$Less@USortKey@@@12@@Z 100510b0 f i GuContactSphereMesh.obj
 0001:00050170       ??$sort@USortKey@@U?$Less@USortKey@@@shdfnd@physx@@VNullAllocator@?A0xd3e8f430@@@shdfnd@physx@@YAXPAUSortKey@@IABU?$Less@USortKey@@@01@ABVNullAllocator@?A0xd3e8f430@@I@Z 10051170 f i GuContactSphereMesh.obj
 0001:00050440       ??$swap@USortKey@@@shdfnd@physx@@YAXAAUSortKey@@0@Z 10051440 f i GuContactSphereMesh.obj
 0001:00050490       ??0?$ScopedPointer@HVTempAllocator@shdfnd@physx@@@shdfnd@physx@@QAE@XZ 10051490 f i GuContactSphereMesh.obj
 0001:000504b0       ??0?$Stack@VNullAllocator@?A0xd3e8f430@@@internal@shdfnd@physx@@QAE@PAHIABVNullAllocator@?A0xd3e8f430@@@Z 100514b0 f i GuContactSphereMesh.obj
 0001:000504f0       ??0NullAllocator@?A0xd3e8f430@@QAE@XZ 100514f0 f i GuContactSphereMesh.obj
 0001:00050510       ??0SphereHeightfieldContactGenerationCallback@?A0xd3e8f430@@QAE@AAVHeightFieldUtil@Gu@physx@@ABVPxSphereGeometry@4@ABVPxTransform@4@2AAVContactBuffer@34@ABVPxVec3@4@M@Z 10051510 f i GuContactSphereMesh.obj
 0001:00050580       ??0SphereMeshContactGeneration@?A0xd3e8f430@@QAE@ABVPxSphereGeometry@physx@@ABVPxTransform@3@1AAVContactBuffer@Gu@3@ABVPxVec3@3@M@Z 10051580 f i GuContactSphereMesh.obj
 0001:00050620       ??0SphereMeshContactGenerationCallback_NoScale@?A0xd3e8f430@@QAE@ABUInternalTriangleMeshData@Gu@physx@@ABVPxSphereGeometry@4@ABVPxTransform@4@2AAVContactBuffer@34@ABVPxVec3@4@M@Z 10051620 f i GuContactSphereMesh.obj
 0001:00050690       ??0SphereMeshContactGenerationCallback_Scale@?A0xd3e8f430@@QAE@ABUInternalTriangleMeshData@Gu@physx@@ABVPxSphereGeometry@4@ABVPxTransform@4@2ABVFastVertex2ShapeScaling@Cm@4@AAVContactBuffer@34@ABVPxVec3@4@M@Z 10051690 f i GuContactSphereMesh.obj
 0001:00050700       ??0TriangleData@@QAE@XZ    10051700 f i GuContactSphereMesh.obj
 0001:00050720       ??1?$ScopedPointer@HVTempAllocator@shdfnd@physx@@@shdfnd@physx@@QAE@XZ 10051720 f i GuContactSphereMesh.obj
 0001:00050750       ??1?$Stack@VNullAllocator@?A0xd3e8f430@@@internal@shdfnd@physx@@QAE@XZ 10051750 f i GuContactSphereMesh.obj
 0001:00050780       ??1SphereHeightfieldContactGenerationCallback@?A0xd3e8f430@@UAE@XZ 10051780 f i GuContactSphereMesh.obj
 0001:000507a0       ??1SphereMeshContactGenerationCallback_NoScale@?A0xd3e8f430@@UAE@XZ 100517a0 f i GuContactSphereMesh.obj
 0001:000507d0       ??1SphereMeshContactGenerationCallback_Scale@?A0xd3e8f430@@UAE@XZ 100517d0 f i GuContactSphereMesh.obj
 0001:00050800       ??B?$ScopedPointer@HVTempAllocator@shdfnd@physx@@@shdfnd@physx@@QBEPAHXZ 10051800 f i GuContactSphereMesh.obj
 0001:00050820       ??MSortKey@@QBE_NABU0@@Z   10051820 f i GuContactSphereMesh.obj
 0001:00050860       ??R?$Less@USortKey@@@shdfnd@physx@@QBE_NABUSortKey@@0@Z 10051860 f i GuContactSphereMesh.obj
 0001:00050880       ??_GSphereHeightfieldContactGenerationCallback@?A0xd3e8f430@@UAEPAXI@Z 10051880 f i GuContactSphereMesh.obj
 0001:00050880       ??_ESphereHeightfieldContactGenerationCallback@?A0xd3e8f430@@UAEPAXI@Z 10051880 f i GuContactSphereMesh.obj
 0001:000508c0       ??_GSphereMeshContactGenerationCallback_NoScale@?A0xd3e8f430@@UAEPAXI@Z 100518c0 f i GuContactSphereMesh.obj
 0001:000508c0       ??_ESphereMeshContactGenerationCallback_NoScale@?A0xd3e8f430@@UAEPAXI@Z 100518c0 f i GuContactSphereMesh.obj
 0001:00050900       ??_GSphereMeshContactGenerationCallback_Scale@?A0xd3e8f430@@UAEPAXI@Z 10051900 f i GuContactSphereMesh.obj
 0001:00050900       ??_ESphereMeshContactGenerationCallback_Scale@?A0xd3e8f430@@UAEPAXI@Z 10051900 f i GuContactSphereMesh.obj
 0001:00050940       ?addContact@SphereMeshContactGeneration@?A0xd3e8f430@@QAEXABVPxVec3@physx@@MI@Z 10051940 f i GuContactSphereMesh.obj
 0001:00050ac0       ?allocate@NullAllocator@?A0xd3e8f430@@QAEPAXIPBDH@Z 10051ac0 f i GuContactSphereMesh.obj
 0001:00050ae0       ?cacheTriangle@SphereMeshContactGeneration@?A0xd3e8f430@@QAEXIII@Z 10051ae0 f i GuContactSphereMesh.obj
 0001:00050b90       ?deallocate@NullAllocator@?A0xd3e8f430@@QAEXPAX@Z 10051b90 f i GuContactSphereMesh.obj
 0001:00050ba0       ?empty@?$Stack@VNullAllocator@?A0xd3e8f430@@@internal@shdfnd@physx@@QAE_NXZ 10051ba0 f i GuContactSphereMesh.obj
 0001:00050be0       ?generateLastContacts@SphereMeshContactGeneration@?A0xd3e8f430@@QAEXXZ 10051be0 f i GuContactSphereMesh.obj
 0001:00050f10       ?grow@?$Stack@VNullAllocator@?A0xd3e8f430@@@internal@shdfnd@physx@@QAEXXZ 10051f10 f i GuContactSphereMesh.obj
 0001:00050fc0       ?onEvent@SphereHeightfieldContactGenerationCallback@?A0xd3e8f430@@UAE_NIPAI@Z 10051fc0 f i GuContactSphereMesh.obj
 0001:000510a0       ?pop@?$Stack@VNullAllocator@?A0xd3e8f430@@@internal@shdfnd@physx@@QAEXAAH0@Z 100520a0 f i GuContactSphereMesh.obj
 0001:00051170       ?processHit@SphereMeshContactGenerationCallback_NoScale@?A0xd3e8f430@@UAE_NABUPxRaycastHit@physx@@ABVPxVec3@4@11AAMPBI@Z 10052170 f i GuContactSphereMesh.obj
 0001:000511b0       ?processHit@SphereMeshContactGenerationCallback_Scale@?A0xd3e8f430@@UAE_NABUPxRaycastHit@physx@@ABVPxVec3@4@11AAMPBI@Z 100521b0 f i GuContactSphereMesh.obj
 0001:00051250       ?processTriangle@SphereMeshContactGeneration@?A0xd3e8f430@@QAEXIABVPxVec3@physx@@00PBI@Z 10052250 f i GuContactSphereMesh.obj
 0001:00051530       ?push@?$Stack@VNullAllocator@?A0xd3e8f430@@@internal@shdfnd@physx@@QAEXHH@Z 10052530 f i GuContactSphereMesh.obj
 0001:000515c0       ?computeFeatureCode@Gu@physx@@YA?AW4FeatureCode@12@MM@Z 100525c0 f   GuFeatureCode.obj
 0001:00051690       ?selectNormal@Gu@physx@@YA_NEMM@Z 10052690 f   GuFeatureCode.obj
 0001:000517c0       ?barycentricCoordinates@Gu@physx@@YAXABT__m128@@00AAT3@@Z 100527c0 f   GuBarycentricCoordinates.obj
 0001:000518b0       ?barycentricCoordinates@Gu@physx@@YAXABT__m128@@000AAT3@1@Z 100528b0 f   GuBarycentricCoordinates.obj
 0001:00051b60       ?barycentricCoordinates@Gu@physx@@YAXABT__m128@@00AAT3@1@Z 10052b60 f   GuBarycentricCoordinates.obj
 0001:00051ec0       ?FDiv@aos@shdfnd@physx@@YA?AT__m128@@T4@0@Z 10052ec0 f i GuBarycentricCoordinates.obj
 0001:00051f10       ?FMul@aos@shdfnd@physx@@YA?AT__m128@@T4@0@Z 10052f10 f i GuBarycentricCoordinates.obj
 0001:00051f60       ?FOne@aos@shdfnd@physx@@YA?AT__m128@@XZ 10052f60 f i GuBarycentricCoordinates.obj
 0001:00051fb0       ?FRecip@aos@shdfnd@physx@@YA?AT__m128@@T4@@Z 10052fb0 f i GuBarycentricCoordinates.obj
 0001:00052000       ?FSub@aos@shdfnd@physx@@YA?AT__m128@@T4@0@Z 10053000 f i GuBarycentricCoordinates.obj
 0001:00052050       ?V3Dot@aos@shdfnd@physx@@YA?AT__m128@@T4@0@Z 10053050 f i GuBarycentricCoordinates.obj
 0001:00052130       ?V3Neg@aos@shdfnd@physx@@YA?AT__m128@@T4@@Z 10053130 f i GuBarycentricCoordinates.obj
 0001:00052180       ?V3Sub@aos@shdfnd@physx@@YA?AT__m128@@T4@0@Z 10053180 f i GuBarycentricCoordinates.obj
 0001:000521d0       ?addAxis@SeparatingAxes@Gu@physx@@QAE_NABVPxVec3@3@@Z 100531d0 f   GuSeparatingAxes.obj
 0001:000522b0       ??0BigConvexData@physx@@QAE@XZ 100532b0 f   GuBigConvexData.obj
 0001:00052310       ??1BigConvexData@physx@@QAE@XZ 10053310 f   GuBigConvexData.obj
 0001:00052390       ?Load@BigConvexData@physx@@QAE_NAAVPxInputStream@2@@Z 10053390 f   GuBigConvexData.obj
 0001:000524a0       ?ComputeOffset@BigConvexData@physx@@QBEIABVPxVec3@2@@Z 100534a0 f   GuBigConvexData.obj
 0001:000524c0       ?ComputeNearestOffset@BigConvexData@physx@@QBEIABVPxVec3@2@@Z 100534c0 f   GuBigConvexData.obj
 0001:000524e0       ?exportExtraData@BigConvexData@physx@@QAEXAAVPxSerializationContext@2@@Z 100534e0 f   GuBigConvexData.obj
 0001:00052580       ?importExtraData@BigConvexData@physx@@QAEXAAVPxDeserializationContext@2@@Z 10053580 f   GuBigConvexData.obj
 0001:00052600       ?CreateOffsets@BigConvexData@physx@@IAEXXZ 10053600 f   GuBigConvexData.obj
 0001:00052670       ?VLoad@BigConvexData@physx@@IAE_NAAVPxInputStream@2@@Z 10053670 f   GuBigConvexData.obj
 0001:00052a00       ??$readExtraData@E$0BA@@PxDeserializationContext@physx@@QAEPAEI@Z 10053a00 f i GuBigConvexData.obj
 0001:00052a30       ??$readExtraData@E@PxDeserializationContext@physx@@QAEPAEI@Z 10053a30 f i GuBigConvexData.obj
 0001:00052a70       ??$readExtraData@UValency@Gu@physx@@@PxDeserializationContext@physx@@QAEPAUValency@Gu@1@I@Z 10053a70 f i GuBigConvexData.obj
 0001:00052ab0       ??0BigConvexData@physx@@QAE@ABW4PxEMPTY@1@@Z 10053ab0 f i GuBigConvexData.obj
 0001:00052ad0       ??4BigConvexData@physx@@QAEAAV01@ABV01@@Z 10053ad0 f i GuBigConvexData.obj
 0001:00052b00       ?ComputeCubemapNearestOffset@physx@@YAIABVPxVec3@1@I@Z 10053b00 f i GuBigConvexData.obj
 0001:00052c10       ?ComputeCubemapOffset@physx@@YAIABVPxVec3@1@I@Z 10053c10 f i GuBigConvexData.obj
 0001:00052d10       ?GetAdjacentVerts@BigConvexData@physx@@QBEPBEXZ 10053d10 f i GuBigConvexData.obj
 0001:00052d30       ?GetNbNeighbors@BigConvexData@physx@@QBEGI@Z 10053d30 f i GuBigConvexData.obj
 0001:00052d50       ?GetNbSamples@BigConvexData@physx@@QBEIXZ 10053d50 f i GuBigConvexData.obj
 0001:00052d70       ?GetNbVerts@BigConvexData@physx@@QBEIXZ 10053d70 f i GuBigConvexData.obj
 0001:00052d90       ?GetNeighbors@BigConvexData@physx@@QBEPBEI@Z 10053d90 f i GuBigConvexData.obj
 0001:00052dc0       ?GetOffset@BigConvexData@physx@@QBEGI@Z 10053dc0 f i GuBigConvexData.obj
 0001:00052df0       ?GetSubdiv@BigConvexData@physx@@QBEIXZ 10053df0 f i GuBigConvexData.obj
 0001:00052e10       ?GetValencies@BigConvexData@physx@@QBEPBUValency@Gu@2@XZ 10053e10 f i GuBigConvexData.obj
 0001:00052e30       ?GetValency@BigConvexData@physx@@QBEGI@Z 10053e30 f i GuBigConvexData.obj
 0001:00052e50       ?to16@shdfnd@physx@@YAGI@Z 10053e50 f i GuBigConvexData.obj
 0001:00052eb0       ?getScaledConvex@Gu@physx@@YAXAAPAVPxVec3@2@AAPAEPAV32@PAE_NPBV32@PBEIABVFastVertex2ShapeScaling@Cm@2@@Z 10053eb0 f   GuConvexHelper.obj
 0001:00052f50       ?getConvexData@Gu@physx@@YA_NABVGeometryUnion@12@AAVFastVertex2ShapeScaling@Cm@2@AAVPxBounds3@2@AAUPolygonalData@12@@Z 10053f50 f   GuConvexHelper.obj
 0001:00053020       ?findUniqueConvexEdges@Gu@physx@@YAIIPIAUConvexEdge@12@IPIBUHullPolygonData@12@PIBE@Z 10054020 f   GuConvexHelper.obj
 0001:000532a0       ??$checkType@$$CBUPxConvexMeshGeometryLL@physx@@@physx@@YAXABVGeometryUnion@Gu@0@@Z 100542a0 f i GuConvexHelper.obj
 0001:00053310       ??$get@$$CBUPxConvexMeshGeometryLL@physx@@@GeometryUnion@Gu@physx@@QBEABUPxConvexMeshGeometryLL@2@XZ 10054310 f i GuConvexHelper.obj
 0001:00053330       ?getVertex2ShapeSkew@FastVertex2ShapeScaling@Cm@physx@@QBEABVPxMat33@3@XZ 10054330 f i GuConvexHelper.obj
 0001:00053350       ?isEmpty@PxBounds3@physx@@QBE_NXZ 10054350 f i GuConvexHelper.obj
 0001:000533e0       ?reset@InternalObjectsData@Gu@physx@@QAEXXZ 100543e0 f i GuConvexHelper.obj
 0001:00053460       ?transformFast@PxBounds3@physx@@SA?AV12@ABVPxMat33@2@ABV12@@Z 10054460 f i GuConvexHelper.obj
 0001:00053510       ?exportExtraData@ConvexMesh@Gu@physx@@UAEXAAVPxSerializationContext@3@@Z 10054510 f   GuConvexMesh.obj
 0001:000535a0       ?importExtraData@ConvexMesh@Gu@physx@@QAEXAAVPxDeserializationContext@3@@Z 100545a0 f   GuConvexMesh.obj
 0001:00053650       ?onRefCountZero@ConvexMesh@Gu@physx@@UAEXXZ 10054650 f   GuConvexMesh.obj
 0001:000536e0       ?createObject@ConvexMesh@Gu@physx@@SAPAV123@AAPAEAAVPxDeserializationContext@3@@Z 100546e0 f   GuConvexMesh.obj
 0001:00053760       ??0ConvexMesh@Gu@physx@@QAE@XZ 10054760 f   GuConvexMesh.obj
 0001:00053800       ?load@ConvexMesh@Gu@physx@@QAE_NAAVPxInputStream@3@@Z 10054800 f   GuConvexMesh.obj
 0001:00053b70       ?release@ConvexMesh@Gu@physx@@UAEXXZ 10054b70 f   GuConvexMesh.obj
 0001:00053bc0       ?getPolygonData@ConvexMesh@Gu@physx@@UBE_NIAAUPxHullPolygon@3@@Z 10054bc0 f   GuConvexMesh.obj
 0001:00053c60       ?getReferenceCount@ConvexMesh@Gu@physx@@UBEIXZ 10054c60 f   GuConvexMesh.obj
 0001:00053c80       ?getMassInformation@ConvexMesh@Gu@physx@@UBEXAAMAAVPxMat33@3@AAVPxVec3@3@@Z 10054c80 f   GuConvexMesh.obj
 0001:00053cc0       ??1ConvexMesh@Gu@physx@@UAE@XZ 10054cc0 f   GuConvexMesh.obj
 0001:00053d80       ?debugVisualize@ConvexMesh@Gu@physx@@QBEXAAVRenderOutput@Cm@3@ABVMatrix34@53@ABVPxBounds3@3@_KMI@Z 10054d80 f   GuConvexMesh.obj
 0001:00054830       ??$PX_UNUSED@G@@YAXABG@Z   10055830 f i GuConvexMesh.obj
 0001:00054840       ??$deletePxBase@VConvexMesh@Gu@physx@@@Cm@physx@@YAXPAVConvexMesh@Gu@1@@Z 10055840 f i GuConvexMesh.obj
 0001:000548d0       ??$readExtraData@VBigConvexData@physx@@$0BA@@PxDeserializationContext@physx@@QAEPAVBigConvexData@1@I@Z 100558d0 f i GuConvexMesh.obj
 0001:00054900       ??$readExtraData@VBigConvexData@physx@@@PxDeserializationContext@physx@@QAEPAVBigConvexData@1@I@Z 10055900 f i GuConvexMesh.obj
 0001:00054940       ??0?$Array@PAVGuMeshFactoryListener@physx@@VNamedAllocator@shdfnd@2@@shdfnd@physx@@QAE@ABVNamedAllocator@12@@Z 10055940 f i GuConvexMesh.obj
 0001:00054990       ??0?$CoalescedHashSet@PAVConvexMesh@Gu@physx@@U?$Hash@PAVConvexMesh@Gu@physx@@@shdfnd@3@VAllocator@53@@shdfnd@physx@@QAE@IM@Z 10055990 f i GuConvexMesh.obj
 0001:000549c0       ??0?$CoalescedHashSet@PAVHeightField@Gu@physx@@U?$Hash@PAVHeightField@Gu@physx@@@shdfnd@3@VAllocator@53@@shdfnd@physx@@QAE@IM@Z 100559c0 f i GuConvexMesh.obj
 0001:000549f0       ??0?$CoalescedHashSet@PAVTriangleMesh@Gu@physx@@U?$Hash@PAVTriangleMesh@Gu@physx@@@shdfnd@3@VAllocator@53@@shdfnd@physx@@QAE@IM@Z 100559f0 f i GuConvexMesh.obj
 0001:00054a20       ??0?$HashBase@PAVConvexMesh@Gu@physx@@PAV123@U?$Hash@PAVConvexMesh@Gu@physx@@@shdfnd@3@UGetKey@?$HashSetBase@PAVConvexMesh@Gu@physx@@U?$Hash@PAVConvexMesh@Gu@physx@@@shdfnd@3@VAllocator@53@$00@internal@53@VAllocator@53@$00@internal@shdfnd@physx@@QAE@IM@Z 10055a20 f i GuConvexMesh.obj
 0001:00054a70       ??0?$HashBase@PAVHeightField@Gu@physx@@PAV123@U?$Hash@PAVHeightField@Gu@physx@@@shdfnd@3@UGetKey@?$HashSetBase@PAVHeightField@Gu@physx@@U?$Hash@PAVHeightField@Gu@physx@@@shdfnd@3@VAllocator@53@$00@internal@53@VAllocator@53@$00@internal@shdfnd@physx@@QAE@IM@Z 10055a70 f i GuConvexMesh.obj
 0001:00054ac0       ??0?$HashBase@PAVTriangleMesh@Gu@physx@@PAV123@U?$Hash@PAVTriangleMesh@Gu@physx@@@shdfnd@3@UGetKey@?$HashSetBase@PAVTriangleMesh@Gu@physx@@U?$Hash@PAVTriangleMesh@Gu@physx@@@shdfnd@3@VAllocator@53@$00@internal@53@VAllocator@53@$00@internal@shdfnd@physx@@QAE@IM@Z 10055ac0 f i GuConvexMesh.obj
 0001:00054b10       ??0?$HashSetBase@PAVConvexMesh@Gu@physx@@U?$Hash@PAVConvexMesh@Gu@physx@@@shdfnd@3@VAllocator@53@$00@internal@shdfnd@physx@@QAE@IM@Z 10055b10 f i GuConvexMesh.obj
 0001:00054b40       ??0?$HashSetBase@PAVHeightField@Gu@physx@@U?$Hash@PAVHeightField@Gu@physx@@@shdfnd@3@VAllocator@53@$00@internal@shdfnd@physx@@QAE@IM@Z 10055b40 f i GuConvexMesh.obj
 0001:00054b70       ??0?$HashSetBase@PAVTriangleMesh@Gu@physx@@U?$Hash@PAVTriangleMesh@Gu@physx@@@shdfnd@3@VAllocator@53@$00@internal@shdfnd@physx@@QAE@IM@Z 10055b70 f i GuConvexMesh.obj
 0001:00054ba0       ??0?$PxBitAndDataT@I$0IAAAAAAA@@physx@@QAE@ABW4PxEMPTY@1@@Z 10055ba0 f i GuConvexMesh.obj
 0001:00054bc0       ??0?$PxBitAndDataT@I$0IAAAAAAA@@physx@@QAE@I_N@Z 10055bc0 f i GuConvexMesh.obj
 0001:00054c10       ??0?$PxFlags@W4Enum@PxBaseFlag@physx@@G@physx@@QAE@W4Enum@PxBaseFlag@1@@Z 10055c10 f i GuConvexMesh.obj
 0001:00054c30       ??0?$PxFlags@W4Enum@PxBaseFlag@physx@@G@physx@@QAE@XZ 10055c30 f i GuConvexMesh.obj
 0001:00054c50       ??0?$ReflectionAllocator@VBigConvexData@physx@@@shdfnd@physx@@QAE@PBD@Z 10055c50 f i GuConvexMesh.obj
 0001:00054c70       ??0ConvexHullData@Gu@physx@@QAE@XZ 10055c70 f i GuConvexMesh.obj
 0001:00054ca0       ??0ConvexMesh@Gu@physx@@QAE@V?$PxFlags@W4Enum@PxBaseFlag@physx@@G@2@@Z 10055ca0 f i GuConvexMesh.obj
 0001:00054d50       ??0GuMeshFactory@physx@@QAE@XZ 10055d50 f i GuConvexMesh.obj
 0001:00054e20       ??0PxBase@physx@@IAE@GV?$PxFlags@W4Enum@PxBaseFlag@physx@@G@1@@Z 10055e20 f i GuConvexMesh.obj
 0001:00054e60       ??0PxBase@physx@@IAE@V?$PxFlags@W4Enum@PxBaseFlag@physx@@G@1@@Z 10055e60 f i GuConvexMesh.obj
 0001:00054ea0       ??0PxConvexMesh@physx@@IAE@GV?$PxFlags@W4Enum@PxBaseFlag@physx@@G@1@@Z 10055ea0 f i GuConvexMesh.obj
 0001:00054ee0       ??0PxConvexMesh@physx@@IAE@V?$PxFlags@W4Enum@PxBaseFlag@physx@@G@1@@Z 10055ee0 f i GuConvexMesh.obj
 0001:00054f20       ??0RefCountable@Cm@physx@@QAE@ABW4PxEMPTY@2@@Z 10055f20 f i GuConvexMesh.obj
 0001:00054f50       ??0RefCountable@Cm@physx@@QAE@I@Z 10055f50 f i GuConvexMesh.obj
 0001:00054fd0       ??1PxConvexMesh@physx@@MAE@XZ 10055fd0 f i GuConvexMesh.obj
 0001:00055000       ??1RefCountable@Cm@physx@@UAE@XZ 10056000 f i GuConvexMesh.obj
 0001:00055020       ??B?$PxBitAndDataT@I$0IAAAAAAA@@physx@@QBEIXZ 10056020 f i GuConvexMesh.obj
 0001:00055040       ??R?$Hash@PAVConvexMesh@Gu@physx@@@shdfnd@physx@@QBEIABQAVConvexMesh@Gu@2@@Z 10056040 f i GuConvexMesh.obj
 0001:00055070       ??R?$Hash@PAVHeightField@Gu@physx@@@shdfnd@physx@@QBEIABQAVHeightField@Gu@2@@Z 10056070 f i GuConvexMesh.obj
 0001:000550a0       ??R?$Hash@PAVTriangleMesh@Gu@physx@@@shdfnd@physx@@QBEIABQAVTriangleMesh@Gu@2@@Z 100560a0 f i GuConvexMesh.obj
 0001:000550d0       ??RGetKey@?$HashSetBase@PAVConvexMesh@Gu@physx@@U?$Hash@PAVConvexMesh@Gu@physx@@@shdfnd@3@VAllocator@53@$00@internal@shdfnd@physx@@QAEABQAVConvexMesh@Gu@4@ABQAV564@@Z 100560d0 f i GuConvexMesh.obj
 0001:000550f0       ??RGetKey@?$HashSetBase@PAVHeightField@Gu@physx@@U?$Hash@PAVHeightField@Gu@physx@@@shdfnd@3@VAllocator@53@$00@internal@shdfnd@physx@@QAEABQAVHeightField@Gu@4@ABQAV564@@Z 100560f0 f i GuConvexMesh.obj
 0001:00055110       ??RGetKey@?$HashSetBase@PAVTriangleMesh@Gu@physx@@U?$Hash@PAVTriangleMesh@Gu@physx@@@shdfnd@3@VAllocator@53@$00@internal@shdfnd@physx@@QAEABQAVTriangleMesh@Gu@4@ABQAV564@@Z 10056110 f i GuConvexMesh.obj
 0001:00055130       ??S?$PxFlags@W4Enum@PxBaseFlag@physx@@G@physx@@QBE?AV01@XZ 10056130 f i GuConvexMesh.obj
 0001:00055170       ??Sphysx@@YA?AV?$PxFlags@W4Enum@PxBaseFlag@physx@@G@0@W4Enum@PxBaseFlag@0@@Z 10056170 f i GuConvexMesh.obj
 0001:000551a0       ??Uphysx@@YA?AV?$PxFlags@W4Enum@PxBaseFlag@physx@@G@0@W4Enum@PxBaseFlag@0@0@Z 100561a0 f i GuConvexMesh.obj
 0001:000551e0       ??_4?$PxFlags@W4Enum@PxBaseFlag@physx@@G@physx@@QAEAAV01@ABV01@@Z 100561e0 f i GuConvexMesh.obj
 0001:00055210       ??_5?$PxFlags@W4Enum@PxBaseFlag@physx@@G@physx@@QAEAAV01@W4Enum@PxBaseFlag@1@@Z 10056210 f i GuConvexMesh.obj
 0001:00055240       ??_EConvexMesh@Gu@physx@@UAEPAXI@Z 10056240 f i GuConvexMesh.obj
 0001:000552c8       ??_EConvexMesh@Gu@physx@@W7AEPAXI@Z 100562c8 f i GuConvexMesh.obj
 0001:000552e0       ??_EGuMeshFactory@physx@@MAEPAXI@Z 100562e0 f i GuConvexMesh.obj
 0001:00055370       ??_EPxConvexMesh@physx@@MAEPAXI@Z 10056370 f i GuConvexMesh.obj
 0001:00055400       ??_GBigConvexData@physx@@QAEPAXI@Z 10056400 f i GuConvexMesh.obj
 0001:00055440       ??_GGuMeshFactory@physx@@MAEPAXI@Z 10056440 f i GuConvexMesh.obj
 0001:00055480       ??_GRefCountable@Cm@physx@@UAEPAXI@Z 10056480 f i GuConvexMesh.obj
 0001:00055480       ??_ERefCountable@Cm@physx@@UAEPAXI@Z 10056480 f i GuConvexMesh.obj
 0001:000554c0       ?ReadDwordBuffer@physx@@YA_NPAII_NAAVPxInputStream@1@@Z 100564c0 f i GuConvexMesh.obj
 0001:000554f0       ?allocate@?$ReflectionAllocator@VBigConvexData@physx@@@shdfnd@physx@@QAEPAXIPBDH@Z 100564f0 f i GuConvexMesh.obj
 0001:00055550       ?computeBufferSize@Gu@physx@@YAIABUConvexHullData@12@I@Z 10056550 f i GuConvexMesh.obj
 0001:000555f0       ?contains@PxBounds3@physx@@QBE_NABVPxVec3@2@@Z 100565f0 f i GuConvexMesh.obj
 0001:000556f0       ?decRefCount@RefCountable@Cm@physx@@QAEXXZ 100566f0 f i GuConvexMesh.obj
 0001:00055770       ?flip@physx@@YAXAAG@Z      10056770 f i GuConvexMesh.obj
 0001:000557e0       ?flip@physx@@YAXAAM@Z      100567e0 f i GuConvexMesh.obj
 0001:00055890       ?flipData@Gu@physx@@YAXAAUHullPolygonData@12@@Z 10056890 f i GuConvexMesh.obj
 0001:000558f0       ?freeListAdd@?$HashBase@PAVConvexMesh@Gu@physx@@PAV123@U?$Hash@PAVConvexMesh@Gu@physx@@@shdfnd@3@UGetKey@?$HashSetBase@PAVConvexMesh@Gu@physx@@U?$Hash@PAVConvexMesh@Gu@physx@@@shdfnd@3@VAllocator@53@$00@internal@53@VAllocator@53@$00@internal@shdfnd@physx@@AAEXII@Z 100568f0 f i GuConvexMesh.obj
 0001:000559e0       ?freeListAdd@?$HashBase@PAVHeightField@Gu@physx@@PAV123@U?$Hash@PAVHeightField@Gu@physx@@@shdfnd@3@UGetKey@?$HashSetBase@PAVHeightField@Gu@physx@@U?$Hash@PAVHeightField@Gu@physx@@@shdfnd@3@VAllocator@53@$00@internal@53@VAllocator@53@$00@internal@shdfnd@physx@@AAEXII@Z 100569e0 f i GuConvexMesh.obj
 0001:00055ad0       ?freeListAdd@?$HashBase@PAVTriangleMesh@Gu@physx@@PAV123@U?$Hash@PAVTriangleMesh@Gu@physx@@@shdfnd@3@UGetKey@?$HashSetBase@PAVTriangleMesh@Gu@physx@@U?$Hash@PAVTriangleMesh@Gu@physx@@@shdfnd@3@VAllocator@53@$00@internal@53@VAllocator@53@$00@internal@shdfnd@physx@@AAEXII@Z 10056ad0 f i GuConvexMesh.obj
 0001:00055bc0       ?getBaseFlags@PxBase@physx@@QBE?AV?$PxFlags@W4Enum@PxBaseFlag@physx@@G@2@XZ 10056bc0 f i GuConvexMesh.obj
 0001:00055bf0       ?getBufferSize@ConvexMesh@Gu@physx@@QBEIXZ 10056bf0 f i GuConvexMesh.obj
 0001:00055c20       ?getConcreteTypeName@PxConvexMesh@physx@@UBEPBDXZ 10056c20 f i GuConvexMesh.obj
 0001:00055c40       ?getHull@ConvexMesh@Gu@physx@@QBEABUConvexHullData@23@XZ 10056c40 f i GuConvexMesh.obj
 0001:00055c60       ?getHullVertices@ConvexHullData@Gu@physx@@QBEPBVPxVec3@3@XZ 10056c60 f i GuConvexMesh.obj
 0001:00055ca0       ?getIndexBuffer@ConvexMesh@Gu@physx@@UBEPBEXZ 10056ca0 f i GuConvexMesh.obj
 0001:00055cc0       ?getInertia@ConvexMesh@Gu@physx@@QBEABVPxMat33@3@XZ 10056cc0 f i GuConvexMesh.obj
 0001:00055ce0       ?getLocalBounds@ConvexMesh@Gu@physx@@UBE?AVPxBounds3@3@XZ 10056ce0 f i GuConvexMesh.obj
 0001:00055d60       ?getMass@ConvexMesh@Gu@physx@@QBEMXZ 10056d60 f i GuConvexMesh.obj
 0001:00055d80       ?getName@?$ReflectionAllocator@VBigConvexData@physx@@@shdfnd@physx@@CAPBDXZ 10056d80 f i GuConvexMesh.obj
 0001:00055dd0       ?getNb@ConvexMesh@Gu@physx@@ABEIXZ 10056dd0 f i GuConvexMesh.obj
 0001:00055df0       ?getNbPolygons@ConvexMesh@Gu@physx@@UBEIXZ 10056df0 f i GuConvexMesh.obj
 0001:00055e10       ?getNbPolygonsFast@ConvexMesh@Gu@physx@@QBEIXZ 10056e10 f i GuConvexMesh.obj
 0001:00055e30       ?getNbVertices@ConvexMesh@Gu@physx@@UBEIXZ 10056e30 f i GuConvexMesh.obj
 0001:00055e50       ?getRefCount@RefCountable@Cm@physx@@QBEIXZ 10056e50 f i GuConvexMesh.obj
 0001:00055e70       ?getVertexData8@ConvexHullData@Gu@physx@@QBEPBEXZ 10056e70 f i GuConvexMesh.obj
 0001:00055ee0       ?getVertices@ConvexMesh@Gu@physx@@UBEPBVPxVec3@3@XZ 10056ee0 f i GuConvexMesh.obj
 0001:00055f00       ?hash@?$HashBase@PAVConvexMesh@Gu@physx@@PAV123@U?$Hash@PAVConvexMesh@Gu@physx@@@shdfnd@3@UGetKey@?$HashSetBase@PAVConvexMesh@Gu@physx@@U?$Hash@PAVConvexMesh@Gu@physx@@@shdfnd@3@VAllocator@53@$00@internal@53@VAllocator@53@$00@internal@shdfnd@physx@@ABEIABQAVConvexMesh@Gu@4@I@Z 10056f00 f i GuConvexMesh.obj
 0001:00055f40       ?hash@?$HashBase@PAVHeightField@Gu@physx@@PAV123@U?$Hash@PAVHeightField@Gu@physx@@@shdfnd@3@UGetKey@?$HashSetBase@PAVHeightField@Gu@physx@@U?$Hash@PAVHeightField@Gu@physx@@@shdfnd@3@VAllocator@53@$00@internal@53@VAllocator@53@$00@internal@shdfnd@physx@@ABEIABQAVHeightField@Gu@4@I@Z 10056f40 f i GuConvexMesh.obj
 0001:00055f80       ?hash@?$HashBase@PAVTriangleMesh@Gu@physx@@PAV123@U?$Hash@PAVTriangleMesh@Gu@physx@@@shdfnd@3@UGetKey@?$HashSetBase@PAVTriangleMesh@Gu@physx@@U?$Hash@PAVTriangleMesh@Gu@physx@@@shdfnd@3@VAllocator@53@$00@internal@53@VAllocator@53@$00@internal@shdfnd@physx@@ABEIABQAVTriangleMesh@Gu@4@I@Z 10056f80 f i GuConvexMesh.obj
 0001:00055fc0       ?init@?$HashBase@PAVConvexMesh@Gu@physx@@PAV123@U?$Hash@PAVConvexMesh@Gu@physx@@@shdfnd@3@UGetKey@?$HashSetBase@PAVConvexMesh@Gu@physx@@U?$Hash@PAVConvexMesh@Gu@physx@@@shdfnd@3@VAllocator@53@$00@internal@53@VAllocator@53@$00@internal@shdfnd@physx@@AAEXIM@Z 10056fc0 f i GuConvexMesh.obj
 0001:00056070       ?init@?$HashBase@PAVHeightField@Gu@physx@@PAV123@U?$Hash@PAVHeightField@Gu@physx@@@shdfnd@3@UGetKey@?$HashSetBase@PAVHeightField@Gu@physx@@U?$Hash@PAVHeightField@Gu@physx@@@shdfnd@3@VAllocator@53@$00@internal@53@VAllocator@53@$00@internal@shdfnd@physx@@AAEXIM@Z 10057070 f i GuConvexMesh.obj
 0001:00056120       ?init@?$HashBase@PAVTriangleMesh@Gu@physx@@PAV123@U?$Hash@PAVTriangleMesh@Gu@physx@@@shdfnd@3@UGetKey@?$HashSetBase@PAVTriangleMesh@Gu@physx@@U?$Hash@PAVTriangleMesh@Gu@physx@@@shdfnd@3@VAllocator@53@$00@internal@53@VAllocator@53@$00@internal@shdfnd@physx@@AAEXIM@Z 10057120 f i GuConvexMesh.obj
 0001:000561d0       ?isKindOf@PxConvexMesh@physx@@MBE_NPBD@Z 100571d0 f i GuConvexMesh.obj
 0001:00056230       ?markSerializedMem@Cm@physx@@YAXPAXI@Z 10057230 f i GuConvexMesh.obj
 0001:00056270       ?notifyReleaseConvexMesh@GuMeshFactory@physx@@MAEXABVPxConvexMesh@2@@Z 10057270 f i GuConvexMesh.obj
 0001:00056280       ?notifyReleaseHeightField@GuMeshFactory@physx@@MAEXABVPxHeightField@2@@Z 10057280 f i GuConvexMesh.obj
 0001:00056290       ?notifyReleaseTriangleMesh@GuMeshFactory@physx@@MAEXABVPxTriangleMesh@2@@Z 10057290 f i GuConvexMesh.obj
 0001:000562a0       ?onRefCountZero@RefCountable@Cm@physx@@UAEXXZ 100572a0 f i GuConvexMesh.obj
 0001:000562f0       ?requires@ConvexMesh@Gu@physx@@UAEXAAVPxProcessPxBaseCallback@3@@Z 100572f0 f i GuConvexMesh.obj
 0001:00056300       ?reserveInternal@?$HashBase@PAVConvexMesh@Gu@physx@@PAV123@U?$Hash@PAVConvexMesh@Gu@physx@@@shdfnd@3@UGetKey@?$HashSetBase@PAVConvexMesh@Gu@physx@@U?$Hash@PAVConvexMesh@Gu@physx@@@shdfnd@3@VAllocator@53@$00@internal@53@VAllocator@53@$00@internal@shdfnd@physx@@AAEXI@Z 10057300 f i GuConvexMesh.obj
 0001:000567c0       ?reserveInternal@?$HashBase@PAVHeightField@Gu@physx@@PAV123@U?$Hash@PAVHeightField@Gu@physx@@@shdfnd@3@UGetKey@?$HashSetBase@PAVHeightField@Gu@physx@@U?$Hash@PAVHeightField@Gu@physx@@@shdfnd@3@VAllocator@53@$00@internal@53@VAllocator@53@$00@internal@shdfnd@physx@@AAEXI@Z 100577c0 f i GuConvexMesh.obj
 0001:00056c80       ?reserveInternal@?$HashBase@PAVTriangleMesh@Gu@physx@@PAV123@U?$Hash@PAVTriangleMesh@Gu@physx@@@shdfnd@3@UGetKey@?$HashSetBase@PAVTriangleMesh@Gu@physx@@U?$Hash@PAVTriangleMesh@Gu@physx@@@shdfnd@3@VAllocator@53@$00@internal@53@VAllocator@53@$00@internal@shdfnd@physx@@AAEXI@Z 10057c80 f i GuConvexMesh.obj
 0001:00057140       ?resolveReferences@ConvexMesh@Gu@physx@@QAEXAAVPxDeserializationContext@3@@Z 10058140 f i GuConvexMesh.obj
 0001:00057150       ?setBit@?$PxBitAndDataT@I$0IAAAAAAA@@physx@@QAEXXZ 10058150 f i GuConvexMesh.obj
 0001:00057180       ?setEmpty@PxBounds3@physx@@QAEXXZ 10058180 f i GuConvexMesh.obj
 0001:000571f0       ?BFFFF@aos@shdfnd@physx@@YA?AT__m128@@XZ 100581f0 f i GuConvexSupportTable.obj
 0001:00057230       ?BFFTF@aos@shdfnd@physx@@YA?AT__m128@@XZ 10058230 f i GuConvexSupportTable.obj
 0001:00057280       ?BFTFF@aos@shdfnd@physx@@YA?AT__m128@@XZ 10058280 f i GuConvexSupportTable.obj
 0001:000572d0       ?BFTTF@aos@shdfnd@physx@@YA?AT__m128@@XZ 100582d0 f i GuConvexSupportTable.obj
 0001:00057320       ?BTFFF@aos@shdfnd@physx@@YA?AT__m128@@XZ 10058320 f i GuConvexSupportTable.obj
 0001:00057370       ?BTFTF@aos@shdfnd@physx@@YA?AT__m128@@XZ 10058370 f i GuConvexSupportTable.obj
 0001:000573c0       ?BTTFF@aos@shdfnd@physx@@YA?AT__m128@@XZ 100583c0 f i GuConvexSupportTable.obj
 0001:00057410       ?BTTTF@aos@shdfnd@physx@@YA?AT__m128@@XZ 10058410 f i GuConvexSupportTable.obj
 0001:00057460       ?m128_I2F@internalWindowsSimd@aos@shdfnd@physx@@YA?AT__m128@@T__m128i@@@Z 10058460 f i GuConvexSupportTable.obj
 0001:000574a0       ?computeHullOBB@Gu@physx@@YAXAAVBox@12@ABVPxBounds3@2@MABVPxTransform@2@ABVMatrix34@Cm@2@3ABVFastVertex2ShapeScaling@72@_N@Z 100584a0 f   GuConvexUtilsInternal.obj
 0001:000575f0       ?computeVertexSpaceOBB@Gu@physx@@YAXAAVBox@12@ABV312@ABVPxTransform@2@ABVPxMeshScale@2@@Z 100585f0 f   GuConvexUtilsInternal.obj
 0001:000576a0       ?computeOBBAroundConvex@Gu@physx@@YAXAAVBox@12@ABVPxConvexMeshGeometry@2@PBVPxConvexMesh@2@ABVPxTransform@2@@Z 100586a0 f   GuConvexUtilsInternal.obj
 0001:000578c0       ??0Matrix34@Cm@physx@@QAE@ABVPxMat33@2@ABVPxVec3@2@@Z 100588c0 f i GuConvexUtilsInternal.obj
 0001:00057930       ??0Matrix34@Cm@physx@@QAE@XZ 10058930 f i GuConvexUtilsInternal.obj
 0001:00057980       ??4Matrix34@Cm@physx@@QAEABV012@ABV012@@Z 10058980 f i GuConvexUtilsInternal.obj
 0001:000579f0       ?getInverse@physx@@YAXAAVPxMat33@1@AAVPxVec3@1@ABV21@ABV31@@Z 100589f0 f i GuConvexUtilsInternal.obj
 0001:00057a50       ?getLocalBoundsFast@ConvexMesh@Gu@physx@@QBEABVPxBounds3@3@XZ 10058a50 f i GuConvexUtilsInternal.obj
 0001:00057a70       ?rotate@physx@@YAXABVBox@Gu@1@ABVMatrix34@Cm@1@AAV231@@Z 10058a70 f i GuConvexUtilsInternal.obj
 0001:00057b00       ?toMat33@PxMeshScale@physx@@QBE?AVPxMat33@2@XZ 10058b00 f i GuConvexUtilsInternal.obj
 0001:00057bc0       ?transform@physx@@YA?AVBox@Gu@1@ABVMatrix34@Cm@1@ABV231@@Z 10058bc0 f i GuConvexUtilsInternal.obj
 0001:00057d10       ?transformTranspose@Matrix34@Cm@physx@@QBE?AVPxVec3@3@ABV43@@Z 10058d10 f i GuConvexUtilsInternal.obj
 0001:00057d50       ?CubemapLookup@physx@@YA?AW4CubeIndex@1@ABVPxVec3@1@AAM1@Z 10058d50 f   GuCubeIndex.obj
 0001:00057f10       ?localSearch@physx@@YAXAAIABVPxVec3@1@PBV21@PBUBigConvexRawData@Gu@1@@Z 10058f10 f   GuHillClimbing.obj
 0001:00058260       ??0PolygonalBox@Gu@physx@@QAE@ABVPxVec3@2@@Z 10059260 f   GuShapeConvex.obj
 0001:00058a90       ?getPolygonalData@PolygonalBox@Gu@physx@@QBEXPIAUPolygonalData@23@@Z 10059a90 f   GuShapeConvex.obj
 0001:00058bb0       ?getPolygonalData_Convex@Gu@physx@@YAXPIAUPolygonalData@12@PIBUConvexHullData@12@ABVFastVertex2ShapeScaling@Cm@2@@Z 10059bb0 f   GuShapeConvex.obj
 0001:00059ab0       ??$PX_UNUSED@PIBVPxVec3@physx@@@@YAXABQIBVPxVec3@physx@@@Z 1005aab0 f i GuShapeConvex.obj
 0001:00059ac0       ??$PX_UNUSED@VFastVertex2ShapeScaling@Cm@physx@@@@YAXABVFastVertex2ShapeScaling@Cm@physx@@@Z 1005aac0 f i GuShapeConvex.obj
 0001:00059ad0       ??0HullPolygonData@Gu@physx@@QAE@XZ 1005aad0 f i GuShapeConvex.obj
 0001:00059af0       ?getFacesByEdges8@ConvexHullData@Gu@physx@@QBEPBEXZ 1005aaf0 f i GuShapeConvex.obj
 0001:00059b40       ?getSamples2@BigConvexRawData@Gu@physx@@QBEPBEXZ 1005ab40 f i GuShapeConvex.obj
 0001:00059b60       ?pointsOnDir@Projection@Gu@physx@@SAXABVPxVec3@3@PBV43@IAAM2@Z 1005ab60 f i GuShapeConvex.obj
 0001:00059c40       ?selectClosestPolygon@@YAIAAMIPBUHullPolygonData@Gu@physx@@ABVPxVec3@3@@Z 1005ac40 f i GuShapeConvex.obj
 0001:00059cf0       ?distancePointBoxSquared@Gu@physx@@YAMABVPxVec3@2@00ABVPxMat33@2@PAV32@@Z 1005acf0 f   GuDistancePointBox.obj
 0001:00059f60       ?distancePointSegmentSquared@Gu@physx@@YAMABVPxVec3@2@00PAM@Z 1005af60 f   GuDistancePointSegment.obj
 0001:0005a0d0       ?closestPtPointTriangle@Gu@physx@@YA?AVPxVec3@2@ABV32@000AAM1@Z 1005b0d0 f   GuDistancePointTriangle.obj
 0001:0005a570       ?distancePointTriangleSquared@Gu@physx@@YA?AT__m128@@ABT3@000AAT3@11@Z 1005b570 f   GuDistancePointTriangle.obj
 0001:0005b6f0       ?BAllEq@aos@shdfnd@physx@@YAIT__m128@@0@Z 1005c6f0 f i GuDistancePointTriangle.obj
 0001:0005b780       ?BAllTrue4_R@internalWindowsSimd@aos@shdfnd@physx@@YAIT__m128@@@Z 1005c780 f i GuDistancePointTriangle.obj
 0001:0005b7e0       ?BAnd@aos@shdfnd@physx@@YA?AT__m128@@T4@0@Z 1005c7e0 f i GuDistancePointTriangle.obj
 0001:0005b830       ?BTTTT@aos@shdfnd@physx@@YA?AT__m128@@XZ 1005c830 f i GuDistancePointTriangle.obj
 0001:0005b880       ?FAdd@aos@shdfnd@physx@@YA?AT__m128@@T4@0@Z 1005c880 f i GuDistancePointTriangle.obj
 0001:0005b8d0       ?FIsGrtr@aos@shdfnd@physx@@YA?AT__m128@@T4@0@Z 1005c8d0 f i GuDistancePointTriangle.obj
 0001:0005b920       ?FIsGrtrOrEq@aos@shdfnd@physx@@YA?AT__m128@@T4@0@Z 1005c920 f i GuDistancePointTriangle.obj
 0001:0005b970       ?FZero@aos@shdfnd@physx@@YA?AT__m128@@XZ 1005c970 f i GuDistancePointTriangle.obj
 0001:0005b9b0       ?V3Add@aos@shdfnd@physx@@YA?AT__m128@@T4@0@Z 1005c9b0 f i GuDistancePointTriangle.obj
 0001:0005ba00       ?V3Scale@aos@shdfnd@physx@@YA?AT__m128@@T4@0@Z 1005ca00 f i GuDistancePointTriangle.obj
 0001:0005ba50       ?m128_F2I@internalWindowsSimd@aos@shdfnd@physx@@YA?AT__m128i@@T__m128@@@Z 1005ca50 f i GuDistancePointTriangle.obj
 0001:0005ba90       ?distanceSegmentBoxSquared@Gu@physx@@YAMABVPxVec3@2@000ABVPxMat33@2@PAMPAV32@@Z 1005ca90 f   GuDistanceSegmentBox.obj
 0001:0005eee0       ?distanceSegmentSegmentSquaredOLD@Gu@physx@@YAMABVPxVec3@2@000PAM1@Z 1005fee0 f   GuDistanceSegmentSegment.obj
 0001:0005ef50       ?distanceSegmentSegmentSquared2@Gu@physx@@YAMABVSegment@12@0PAM1@Z 1005ff50 f   GuDistanceSegmentSegment.obj
 0001:0005f170       ?distanceSegmentSegmentSquared@Gu@physx@@YA?AT__m128@@ABT3@000AAT3@1@Z 10060170 f   GuDistanceSegmentSegment.obj
 0001:0005f690       ?distanceSegmentSegmentSquared4@Gu@physx@@YA?AT__m128@@ABT3@000000000AAT3@1@Z 10060690 f   GuDistanceSegmentSegment.obj
 0001:000602b0       ?distanceSegmentSegmentSquared4@Gu@physx@@YA?AT__m128@@ABT3@000000AAT3@1PAT3@@Z 100612b0 f   GuDistanceSegmentSegment.obj
 0001:00062fb0       ?FClamp@aos@shdfnd@physx@@YA?AT__m128@@T4@00@Z 10063fb0 f i GuDistanceSegmentSegment.obj
 0001:00063020       ?FEps@aos@shdfnd@physx@@YA?AT__m128@@XZ 10064020 f i GuDistanceSegmentSegment.obj
 0001:00063070       ?FHalf@aos@shdfnd@physx@@YA?AT__m128@@XZ 10064070 f i GuDistanceSegmentSegment.obj
 0001:000630c0       ?FMax@aos@shdfnd@physx@@YA?AT__m128@@T4@0@Z 100640c0 f i GuDistanceSegmentSegment.obj
 0001:00063110       ?FMin@aos@shdfnd@physx@@YA?AT__m128@@T4@0@Z 10064110 f i GuDistanceSegmentSegment.obj
 0001:00063160       ?FScaleAdd@aos@shdfnd@physx@@YA?AT__m128@@T4@00@Z 10064160 f i GuDistanceSegmentSegment.obj
 0001:000631d0       ?FSel@aos@shdfnd@physx@@YA?AT__m128@@T4@00@Z 100641d0 f i GuDistanceSegmentSegment.obj
 0001:00063240       ?V3Dot4@aos@shdfnd@physx@@YA?AT__m128@@ABT4@0000000@Z 10064240 f i GuDistanceSegmentSegment.obj
 0001:000634e0       ?V3GetX@aos@shdfnd@physx@@YA?AT__m128@@T4@@Z 100644e0 f i GuDistanceSegmentSegment.obj
 0001:00063530       ?V3GetY@aos@shdfnd@physx@@YA?AT__m128@@T4@@Z 10064530 f i GuDistanceSegmentSegment.obj
 0001:00063580       ?V3GetZ@aos@shdfnd@physx@@YA?AT__m128@@T4@@Z 10064580 f i GuDistanceSegmentSegment.obj
 0001:000635d0       ?V3Mul@aos@shdfnd@physx@@YA?AT__m128@@T4@0@Z 100645d0 f i GuDistanceSegmentSegment.obj
 0001:00063620       ?V3ScaleAdd@aos@shdfnd@physx@@YA?AT__m128@@T4@00@Z 10064620 f i GuDistanceSegmentSegment.obj
 0001:00063690       ?V4Abs@aos@shdfnd@physx@@YA?AT__m128@@T4@@Z 10064690 f i GuDistanceSegmentSegment.obj
 0001:000636f0       ?V4Add@aos@shdfnd@physx@@YA?AT__m128@@T4@0@Z 100646f0 f i GuDistanceSegmentSegment.obj
 0001:00063740       ?V4Clamp@aos@shdfnd@physx@@YA?AT__m128@@T4@00@Z 10064740 f i GuDistanceSegmentSegment.obj
 0001:000637b0       ?V4ClearW@aos@shdfnd@physx@@YA?AT__m128@@T4@@Z 100647b0 f i GuDistanceSegmentSegment.obj
 0001:00063800       ?V4Div@aos@shdfnd@physx@@YA?AT__m128@@T4@0@Z 10064800 f i GuDistanceSegmentSegment.obj
 0001:00063850       ?V4Eps@aos@shdfnd@physx@@YA?AT__m128@@XZ 10064850 f i GuDistanceSegmentSegment.obj
 0001:000638a0       ?V4GetW@aos@shdfnd@physx@@YA?AT__m128@@T4@@Z 100648a0 f i GuDistanceSegmentSegment.obj
 0001:000638f0       ?V4GetX@aos@shdfnd@physx@@YA?AT__m128@@T4@@Z 100648f0 f i GuDistanceSegmentSegment.obj
 0001:00063940       ?V4GetY@aos@shdfnd@physx@@YA?AT__m128@@T4@@Z 10064940 f i GuDistanceSegmentSegment.obj
 0001:00063990       ?V4GetZ@aos@shdfnd@physx@@YA?AT__m128@@T4@@Z 10064990 f i GuDistanceSegmentSegment.obj
 0001:000639e0       ?V4IsGrtr@aos@shdfnd@physx@@YA?AT__m128@@T4@0@Z 100649e0 f i GuDistanceSegmentSegment.obj
 0001:00063a30       ?V4IsGrtrOrEq@aos@shdfnd@physx@@YA?AT__m128@@T4@0@Z 10064a30 f i GuDistanceSegmentSegment.obj
 0001:00063a80       ?V4Max@aos@shdfnd@physx@@YA?AT__m128@@T4@0@Z 10064a80 f i GuDistanceSegmentSegment.obj
 0001:00063ad0       ?V4Min@aos@shdfnd@physx@@YA?AT__m128@@T4@0@Z 10064ad0 f i GuDistanceSegmentSegment.obj
 0001:00063b20       ?V4Mul@aos@shdfnd@physx@@YA?AT__m128@@T4@0@Z 10064b20 f i GuDistanceSegmentSegment.obj
 0001:00063b70       ?V4MulAdd@aos@shdfnd@physx@@YA?AT__m128@@T4@00@Z 10064b70 f i GuDistanceSegmentSegment.obj
 0001:00063be0       ?V4Neg@aos@shdfnd@physx@@YA?AT__m128@@T4@@Z 10064be0 f i GuDistanceSegmentSegment.obj
 0001:00063c30       ?V4One@aos@shdfnd@physx@@YA?AT__m128@@XZ 10064c30 f i GuDistanceSegmentSegment.obj
 0001:00063c80       ?V4Recip@aos@shdfnd@physx@@YA?AT__m128@@T4@@Z 10064c80 f i GuDistanceSegmentSegment.obj
 0001:00063cd0       ?V4Sel@aos@shdfnd@physx@@YA?AT__m128@@T4@00@Z 10064cd0 f i GuDistanceSegmentSegment.obj
 0001:00063d40       ?V4Splat@aos@shdfnd@physx@@YA?AT__m128@@T4@@Z 10064d40 f i GuDistanceSegmentSegment.obj
 0001:00063d80       ?V4Sub@aos@shdfnd@physx@@YA?AT__m128@@T4@0@Z 10064d80 f i GuDistanceSegmentSegment.obj
 0001:00063dd0       ?V4UnpackXY@aos@shdfnd@physx@@YA?AT__m128@@ABT4@0@Z 10064dd0 f i GuDistanceSegmentSegment.obj
 0001:00063e20       ?V4UnpackZW@aos@shdfnd@physx@@YA?AT__m128@@ABT4@0@Z 10064e20 f i GuDistanceSegmentSegment.obj
 0001:00063e70       ?V4Zero@aos@shdfnd@physx@@YA?AT__m128@@XZ 10064e70 f i GuDistanceSegmentSegment.obj
 0001:00063eb0       ?Vec3V_From_Vec4V@aos@shdfnd@physx@@YA?AT__m128@@T4@@Z 10064eb0 f i GuDistanceSegmentSegment.obj
 0001:00063f00       ?Vec4V_From_Vec3V@aos@shdfnd@physx@@YA?AT__m128@@T4@@Z 10064f00 f i GuDistanceSegmentSegment.obj
 0001:00063f40       ?distanceSegmentTriangleSquared@Gu@physx@@YAMABVPxVec3@2@0000PAM11@Z 10064f40 f   GuDistanceSegmentTriangle.obj
 0001:000657e0       ?distanceSegmentTriangleSquared@Gu@physx@@YA?AT__m128@@ABT3@0000AAT3@1@Z 100667e0 f   GuDistanceSegmentTriangle.obj
 0001:00067280       ?FNeg@aos@shdfnd@physx@@YA?AT__m128@@T4@@Z 10068280 f i GuDistanceSegmentTriangle.obj
 0001:000672d0       ?V3Cross@aos@shdfnd@physx@@YA?AT__m128@@T4@0@Z 100682d0 f i GuDistanceSegmentTriangle.obj
 0001:000673d0       ?V3NegScaleSub@aos@shdfnd@physx@@YA?AT__m128@@T4@00@Z 100683d0 f i GuDistanceSegmentTriangle.obj
 0001:00067440       ?V3Normalize@aos@shdfnd@physx@@YA?AT__m128@@T4@@Z 10068440 f i GuDistanceSegmentTriangle.obj
 0001:000674b0       ?V3ScaleInv@aos@shdfnd@physx@@YA?AT__m128@@T4@0@Z 100684b0 f i GuDistanceSegmentTriangle.obj
 0001:00067500       ?V3Sel@aos@shdfnd@physx@@YA?AT__m128@@T4@00@Z 10068500 f i GuDistanceSegmentTriangle.obj
 0001:00067570       ?distancePointTriangleSquared@Gu@physx@@YAMABVPxVec3@2@000PAM1@Z 10068570 f i GuDistanceSegmentTriangle.obj
 0001:00067620       ?isValidTriangleBarycentricCoord@Gu@physx@@YA?AT__m128@@ABT3@0@Z 10068620 f i GuDistanceSegmentTriangle.obj
 0001:00067810       ?sweepBoxBox@Gu@physx@@YA_NABVBox@12@0ABVPxVec3@2@MAAV42@2AAMV?$PxFlags@W4Enum@PxHitFlag@physx@@G@2@@Z 10068810 f   GuSweepBoxBox.obj
 0001:000681d0       ??0?$PxFlags@W4Enum@PxHitFlag@physx@@G@physx@@QAE@ABV01@@Z 100691d0 f i GuSweepBoxBox.obj
 0001:00068200       ??0?$PxFlags@W4Enum@PxTriangleMeshFlag@physx@@E@physx@@QAE@E@Z 10069200 f i GuSweepBoxBox.obj
 0001:00068220       ??0InternalTriangleMesh@physx@@QAE@ABV01@@Z 10069220 f i GuSweepBoxBox.obj
 0001:00068310       ??0InternalTriangleMesh@physx@@QAE@ABW4PxEMPTY@1@@Z 10069310 f i GuSweepBoxBox.obj
 0001:00068360       ??0InternalTriangleMeshData@Gu@physx@@QAE@ABU012@@Z 10069360 f i GuSweepBoxBox.obj
 0001:00068410       ??0InternalTriangleMeshData@Gu@physx@@QAE@ABW4PxEMPTY@2@@Z 10069410 f i GuSweepBoxBox.obj
 0001:00068460       ??0PxTriangleMesh@physx@@IAE@V?$PxFlags@W4Enum@PxBaseFlag@physx@@G@1@@Z 10069460 f i GuSweepBoxBox.obj
 0001:000684a0       ??0TriangleMesh@Gu@physx@@QAE@V?$PxFlags@W4Enum@PxBaseFlag@physx@@G@2@@Z 100694a0 f i GuSweepBoxBox.obj
 0001:00068520       ??4InternalTriangleMesh@physx@@QAEAAV01@ABV01@@Z 10069520 f i GuSweepBoxBox.obj
 0001:00068610       ??4InternalTriangleMeshData@Gu@physx@@QAEAAU012@ABU012@@Z 10069610 f i GuSweepBoxBox.obj
 0001:000686c0       ??B?$PxFlags@W4Enum@PxHitFlag@physx@@G@physx@@QBE_NXZ 100696c0 f i GuSweepBoxBox.obj
 0001:000686f0       ??I?$PxFlags@W4Enum@PxHitFlag@physx@@G@physx@@QBE?AV01@W4Enum@PxHitFlag@1@@Z 100696f0 f i GuSweepBoxBox.obj
 0001:00068740       ??_ETriangleMesh@Gu@physx@@UAEPAXI@Z 10069740 f i GuSweepBoxBox.obj
 0001:000687c8       ??_ETriangleMesh@Gu@physx@@W7AEPAXI@Z 100697c8 f i GuSweepBoxBox.obj
 0001:000687e0       ?buildMatrixFromBox@physx@@YAXAAVMatrix34@Cm@1@ABVBox@Gu@1@@Z 100697e0 f i GuSweepBoxBox.obj
 0001:00068840       ?computeWorldToBoxMatrix@physx@@YAXAAVMatrix34@Cm@1@ABVBox@Gu@1@@Z 10069840 f i GuSweepBoxBox.obj
 0001:00068890       ?getAdjacencies@InternalTriangleMesh@physx@@QBEPBIXZ 10069890 f i GuSweepBoxBox.obj
 0001:000688b0       ?getCollisionModel@InternalTriangleMesh@physx@@QBEABVRTreeMidphase@Gu@2@XZ 100698b0 f i GuSweepBoxBox.obj
 0001:000688d0       ?getConvexEdgeThreshold@InternalTriangleMesh@physx@@QBEMXZ 100698d0 f i GuSweepBoxBox.obj
 0001:000688f0       ?getFaceRemap@InternalTriangleMesh@physx@@QBEPBIXZ 100698f0 f i GuSweepBoxBox.obj
 0001:00068910       ?getInverseRT@Matrix34@Cm@physx@@QBE?AV123@XZ 10069910 f i GuSweepBoxBox.obj
 0001:00068990       ?getLocalBounds@TriangleMesh@Gu@physx@@UBE?AVPxBounds3@3@XZ 10069990 f i GuSweepBoxBox.obj
 0001:00068a20       ?getMaterials@InternalTriangleMesh@physx@@QBEPBGXZ 10069a20 f i GuSweepBoxBox.obj
 0001:00068a40       ?getMeshInterface@InternalTriangleMesh@physx@@QBEABVMeshInterface@Gu@2@XZ 10069a40 f i GuSweepBoxBox.obj
 0001:00068a60       ?getNbTriangles@TriangleMesh@Gu@physx@@UBEIXZ 10069a60 f i GuSweepBoxBox.obj
 0001:00068a80       ?getNbVertices@TriangleMesh@Gu@physx@@UBEIXZ 10069a80 f i GuSweepBoxBox.obj
 0001:00068aa0       ?getNumTriangles@InternalTriangleMesh@physx@@QBEIXZ 10069aa0 f i GuSweepBoxBox.obj
 0001:00068ac0       ?getNumVertices@InternalTriangleMesh@physx@@QBEIXZ 10069ac0 f i GuSweepBoxBox.obj
 0001:00068ae0       ?getTriangleMaterialIndex@TriangleMesh@Gu@physx@@UBEGI@Z 10069ae0 f i GuSweepBoxBox.obj
 0001:00068b40       ?getTriangleMeshFlags@InternalTriangleMesh@physx@@QBE?AV?$PxFlags@W4Enum@PxTriangleMeshFlag@physx@@E@2@XZ 10069b40 f i GuSweepBoxBox.obj
 0001:00068b70       ?getTriangleMeshFlags@TriangleMesh@Gu@physx@@UBE?AV?$PxFlags@W4Enum@PxTriangleMeshFlag@physx@@E@3@XZ 10069b70 f i GuSweepBoxBox.obj
 0001:00068ba0       ?getTriangles@InternalTriangleMesh@physx@@QBEPBXXZ 10069ba0 f i GuSweepBoxBox.obj
 0001:00068bc0       ?getTriangles@TriangleMesh@Gu@physx@@UBEPBXXZ 10069bc0 f i GuSweepBoxBox.obj
 0001:00068be0       ?getTrianglesRemap@TriangleMesh@Gu@physx@@UBEPBIXZ 10069be0 f i GuSweepBoxBox.obj
 0001:00068c00       ?getTrigSharedEdgeFlagsFromData@InternalTriangleMesh@physx@@QBEII@Z 10069c00 f i GuSweepBoxBox.obj
 0001:00068c80       ?getVertices@InternalTriangleMesh@physx@@QBEPBVPxVec3@2@XZ 10069c80 f i GuSweepBoxBox.obj
 0001:00068ca0       ?getVertices@TriangleMesh@Gu@physx@@UBEPBVPxVec3@3@XZ 10069ca0 f i GuSweepBoxBox.obj
 0001:00068cc0       ?has16BitIndices@InternalTriangleMesh@physx@@QBE_NXZ 10069cc0 f i GuSweepBoxBox.obj
 0001:00068d00       ?hasPerTriangleMaterials@TriangleMesh@Gu@physx@@QBE_NXZ 10069d00 f i GuSweepBoxBox.obj
 0001:00068d40       ?requires@TriangleMesh@Gu@physx@@UAEXAAVPxProcessPxBaseCallback@3@@Z 10069d40 f i GuSweepBoxBox.obj
 0001:00068d50       ?setTriangleAdjacency@InternalTriangleMesh@physx@@QAEXIII@Z 10069d50 f i GuSweepBoxBox.obj
 0001:00068dd0       ?setTrigSharedEdgeFlag@InternalTriangleMesh@physx@@QAEXII@Z 10069dd0 f i GuSweepBoxBox.obj
 0001:00068e70       ?sweepBoxSphere@Gu@physx@@YA_NABVBox@12@MABVPxVec3@2@1MAAMAAV42@V?$PxFlags@W4Enum@PxHitFlag@physx@@G@2@@Z 10069e70 f   GuSweepBoxSphere.obj
 0001:00069510       ??0Capsule@Gu@physx@@QAE@ABVPxVec3@2@0M@Z 1006a510 f i GuSweepBoxSphere.obj
 0001:00069550       ??0Sphere@Gu@physx@@QAE@ABVPxVec3@2@M@Z 1006a550 f i GuSweepBoxSphere.obj
 0001:00069590       ??1Sphere@Gu@physx@@QAE@XZ 1006a590 f i GuSweepBoxSphere.obj
 0001:000695a0       ?computePoint@Segment@Gu@physx@@QBEXAAVPxVec3@3@M@Z 1006a5a0 f i GuSweepBoxSphere.obj
 0001:00069610       ?distancePointSegmentSquared@Gu@physx@@YAMABVSegment@12@ABVPxVec3@2@PAM@Z 1006a610 f i GuSweepBoxSphere.obj
 0001:00069640       ?sweepBoxTriangle@Gu@physx@@YA_NABVPxTriangle@2@ABVPxBounds3@2@ABVPxVec3@2@2AAV52@3AAM@Z 1006a640 f   GuSweepBoxTriangle_FeatureBased.obj
 0001:0006ada0       ??0PxTriangle@physx@@QAE@ABV01@@Z 1006bda0 f i GuSweepBoxTriangle_FeatureBased.obj
 0001:0006ae40       ?triBoxSweepTestBoxSpace@Gu@physx@@YAHABVPxTriangle@2@ABVPxVec3@2@11MAAM_N@Z 1006be40 f   GuSweepBoxTriangle_SAT.obj
 0001:0006b930       ?cross010@shdfnd@physx@@YA?AVPxVec3@2@ABV32@@Z 1006c930 f i GuSweepBoxTriangle_SAT.obj
 0001:0006b980       ?cross100@shdfnd@physx@@YA?AVPxVec3@2@ABV32@@Z 1006c980 f i GuSweepBoxTriangle_SAT.obj
 0001:0006b9e0       ?sweepCapsuleBox@Gu@physx@@YA_NABVCapsule@12@ABVPxTransform@2@ABVPxVec3@2@2MAAV52@AAM3V?$PxFlags@W4Enum@PxHitFlag@physx@@G@2@@Z 1006c9e0 f   GuSweepCapsuleBox.obj
 0001:0006c930       ??0?$PxFlags@W4Enum@PxHitFlag@physx@@G@physx@@QAE@XZ 1006d930 f i GuSweepCapsuleBox.obj
 0001:0006c950       ??0?$ScopedPointer@VPxTriangle@physx@@VTempAllocator@shdfnd@2@@shdfnd@physx@@QAE@XZ 1006d950 f i GuSweepCapsuleBox.obj
 0001:0006c970       ??1?$ScopedPointer@VPxTriangle@physx@@VTempAllocator@shdfnd@2@@shdfnd@physx@@QAE@XZ 1006d970 f i GuSweepCapsuleBox.obj
 0001:0006c9a0       ??B?$ScopedPointer@VPxTriangle@physx@@VTempAllocator@shdfnd@2@@shdfnd@physx@@QBEPAVPxTriangle@2@XZ 1006d9a0 f i GuSweepCapsuleBox.obj
 0001:0006ca10       ?sweepCapsuleCapsule@Gu@physx@@YA_NABVCapsule@12@0ABVPxVec3@2@MAAMAAV42@3IAAG@Z 1006da10 f   GuSweepCapsuleCapsule.obj
 0001:0006dbe0       ??0?$PxFlags@W4Enum@PxHitFlag@physx@@G@physx@@QAE@W4Enum@PxHitFlag@1@@Z 1006ebe0 f i GuSweepCapsuleCapsule.obj
 0001:0006dc00       ??0Capsule@Gu@physx@@QAE@XZ 1006ec00 f i GuSweepCapsuleCapsule.obj
 0001:0006dc20       ??0PxTriangle@physx@@QAE@ABVPxVec3@1@00@Z 1006ec20 f i GuSweepCapsuleCapsule.obj
 0001:0006dca0       ??4Capsule@Gu@physx@@QAEAAV012@ABV012@@Z 1006eca0 f i GuSweepCapsuleCapsule.obj
 0001:0006dce0       ??4Segment@Gu@physx@@QAEAAV012@ABV012@@Z 1006ece0 f i GuSweepCapsuleCapsule.obj
 0001:0006dd20       ??8PxVec3@physx@@QBE_NABV01@@Z 1006ed20 f i GuSweepCapsuleCapsule.obj
 0001:0006dda0       ??B?$PxFlags@W4Enum@PxHitFlag@physx@@G@physx@@QBEGXZ 1006eda0 f i GuSweepCapsuleCapsule.obj
 0001:0006ddc0       ??B?$PxFlags@W4Enum@PxHitFlag@physx@@G@physx@@QBEIXZ 1006edc0 f i GuSweepCapsuleCapsule.obj
 0001:0006dde0       ??Uphysx@@YA?AV?$PxFlags@W4Enum@PxHitFlag@physx@@G@0@W4Enum@PxHitFlag@0@0@Z 1006ede0 f i GuSweepCapsuleCapsule.obj
 0001:0006de20       ??_5?$PxFlags@W4Enum@PxHitFlag@physx@@G@physx@@QAEAAV01@W4Enum@PxHitFlag@1@@Z 1006ee20 f i GuSweepCapsuleCapsule.obj
 0001:0006dea0       ?sweepCapsuleTriangles@Gu@physx@@YA_NIPIBVPxTriangle@2@ABVCapsule@12@ABVPxVec3@2@MPIBIAAV?$PxFlags@W4Enum@PxHitFlag@physx@@G@2@AAMAAV52@6AAI6V62@_NPBVBox@12@@Z 1006eea0 f   GuSweepCapsuleTriangle.obj
 0001:0006f5f0       ??$PX_UNUSED@VPxVec3@physx@@@@YAXABVPxVec3@physx@@@Z 100705f0 f i GuSweepCapsuleTriangle.obj
 0001:0006f600       ??4?$PxFlags@W4Enum@PxHitFlag@physx@@G@physx@@QAEAAV01@ABV01@@Z 10070600 f i GuSweepCapsuleTriangle.obj
 0001:0006f630       ??4PxTriangle@physx@@QAEAAV01@ABV01@@Z 10070630 f i GuSweepCapsuleTriangle.obj
 0001:0006f680       ??U?$PxFlags@W4Enum@PxHitFlag@physx@@G@physx@@QBE?AV01@W4Enum@PxHitFlag@1@@Z 10070680 f i GuSweepCapsuleTriangle.obj
 0001:0006f6d0       ?V3LoadU@aos@shdfnd@physx@@YA?AT__m128@@ABVPxVec3@3@@Z 100706d0 f i GuSweepCapsuleTriangle.obj
 0001:0006f740       ?V3StoreU@aos@shdfnd@physx@@YAXT__m128@@AAVPxVec3@3@@Z 10070740 f i GuSweepCapsuleTriangle.obj
 0001:0006f7e0       ?coarseCulling@Gu@physx@@YA_NABVPxVec3@2@0MMABVPxTriangle@2@@Z 100707e0 f i GuSweepCapsuleTriangle.obj
 0001:0006f9c0       ?computeAlignmentValue@Gu@physx@@YAMABVPxVec3@2@0@Z 100709c0 f i GuSweepCapsuleTriangle.obj
 0001:0006fa10       ?cullTriangle@Gu@physx@@YA_NABVPxTriangle@2@ABVPxVec3@2@MMM@Z 10070a10 f i GuSweepCapsuleTriangle.obj
 0001:0006fb30       ?getInitIndex@Gu@physx@@YAIPIBII@Z 10070b30 f i GuSweepCapsuleTriangle.obj
 0001:0006fbc0       ?getTriangleIndex@physx@@YAIII@Z 10070bc0 f i GuSweepCapsuleTriangle.obj
 0001:0006fc00       ?keepTriangle@Gu@physx@@YA_NMMMMM@Z 10070c00 f i GuSweepCapsuleTriangle.obj
 0001:0006fcc0       ?rejectTriangle@Gu@physx@@YA_NABVPxVec3@2@0MMABVPxTriangle@2@M@Z 10070cc0 f i GuSweepCapsuleTriangle.obj
 0001:0006fd60       ?shouldFlipNormal@Gu@physx@@YA_NABVPxVec3@2@_N100@Z 10070d60 f i GuSweepCapsuleTriangle.obj
 0001:0006fe40       ?squareDistance@Gu@physx@@YAMABVPxVec3@2@0M0@Z 10070e40 f i GuSweepCapsuleTriangle.obj
 0001:0006ff50       ?sweepSphereCapsule@Gu@physx@@YA_NABVSphere@12@ABVCapsule@12@ABVPxVec3@2@MAAMAAV52@4V?$PxFlags@W4Enum@PxHitFlag@physx@@G@2@@Z 10070f50 f   GuSweepSphereCapsule.obj
 0001:00070380       ?sweepSphereSphere@Gu@physx@@YA_NABVPxVec3@2@M0M0AAMAAV32@@Z 10071380 f   GuSweepSphereSphere.obj
 0001:00070810       ?sweepTriSphere@Gu@physx@@YA_NABVPxTriangle@2@ABVPxVec3@2@1M1AAM@Z 10071810 f   GuSweepSphereTriangle.obj
 0001:00070df0       ?sweepSphereTriangles@Gu@physx@@YA_NIPIBVPxTriangle@2@ABVPxVec3@2@M1MPIBIAAV42@3AAMAAIAAV?$PxFlags@W4Enum@PxHitFlag@physx@@G@2@3_N7@Z 10071df0 f   GuSweepSphereTriangle.obj
 0001:00071750       ?computeSphereTriImpactData@Gu@physx@@YAXAAVPxVec3@2@0ABV32@1MABVPxTriangle@2@@Z 10072750 f   GuSweepTriangleUtils.obj
 0001:00071820       ?computeBoxTriImpactData@Gu@physx@@YAXAAVPxVec3@2@0ABV32@111ABVPxTriangle@2@@Z 10072820 f   GuSweepTriangleUtils.obj
 0001:00071970       ?computeEdgeEdgeNormal@Gu@physx@@YAXAAVPxVec3@2@ABV32@1111M@Z 10072970 f   GuSweepTriangleUtils.obj
 0001:00072180       ??0BoxV@Gu@physx@@QAE@ABT__m128@@0000@Z 10073180 f i GuSweepTriangleUtils.obj
 0001:00072220       ??0ConvexV@Gu@physx@@QAE@I@Z 10073220 f i GuSweepTriangleUtils.obj
 0001:000722c0       ??0ConvexV@Gu@physx@@QAE@IABT__m128@@@Z 100732c0 f i GuSweepTriangleUtils.obj
 0001:00072370       ??0Mat33V@aos@shdfnd@physx@@QAE@XZ 10073370 f i GuSweepTriangleUtils.obj
 0001:00072390       ??0TriangleV@Gu@physx@@QAE@ABT__m128@@00@Z 10073390 f i GuSweepTriangleUtils.obj
 0001:000724e0       ??1BoxV@Gu@physx@@QAE@XZ   100734e0 f i GuSweepTriangleUtils.obj
 0001:00072500       ??1ConvexV@Gu@physx@@IAE@XZ 10073500 f i GuSweepTriangleUtils.obj
 0001:00072510       ??1TriangleV@Gu@physx@@QAE@XZ 10073510 f i GuSweepTriangleUtils.obj
 0001:00072530       ?CalculateBoxMargin@Gu@physx@@YAXABT__m128@@AAT3@1@Z 10073530 f i GuSweepTriangleUtils.obj
 0001:00072620       ?FMax@aos@shdfnd@physx@@YA?AT__m128@@XZ 10073620 f i GuSweepTriangleUtils.obj
 0001:00072670       ?V3ExtractMin@aos@shdfnd@physx@@YA?AT__m128@@T4@@Z 10073670 f i GuSweepTriangleUtils.obj
 0001:00072720       ?epaPenetration@Gu@physx@@YAIABVConvexV@12@0PAVEPASupportMapPair@12@PIAE2EAAT__m128@@333_N@Z 10073720 f   GuEPA.obj
 0001:00072be0       ?silhouette@Facet@Gu@physx@@QAEXABT__m128@@PIBT4@1AAVEdgeBuffer@23@AAV?$InlineDeferredIDPool@$0EA@@Cm@3@@Z 10073be0 f   GuEPA.obj
 0001:00072c40       ?PenetrationDepth@EPA@Gu@physx@@QAEIABVConvexV@23@0PAVEPASupportMapPair@23@PIBT__m128@@22HAAT6@333_N@Z 10073c40 f   GuEPA.obj
 0001:00073a10       ?expandPoint@EPA@Gu@physx@@QAE_NPAVEPASupportMapPair@23@AAHABT__m128@@2@Z 10074a10 f   GuEPA.obj
 0001:00073aa0       ?expandSegment@EPA@Gu@physx@@QAE_NPAVEPASupportMapPair@23@AAHABT__m128@@2@Z 10074aa0 f   GuEPA.obj
 0001:00073e00       ?expandTriangle@EPA@Gu@physx@@QAE_NAAHABT__m128@@1@Z 10074e00 f   GuEPA.obj
 0001:00073ea0       ?addFacet@EPA@Gu@physx@@QAEPAVFacet@23@IIIABT__m128@@0@Z 10074ea0 f   GuEPA.obj
 0001:00074c50       ??0?$DeferredIDPoolBase@V?$InlineFixedArray@I$0EA@@Cm@physx@@@Cm@physx@@QAE@XZ 10075c50 f i GuEPA.obj
 0001:00074c80       ??0?$IDPoolBase@V?$InlineFixedArray@I$0EA@@Cm@physx@@@Cm@physx@@QAE@XZ 10075c80 f i GuEPA.obj
 0001:00074cb0       ??0?$InlineDeferredIDPool@$0EA@@Cm@physx@@QAE@XZ 10075cb0 f i GuEPA.obj
 0001:00074cd0       ??0?$InlineFixedArray@I$0EA@@Cm@physx@@QAE@XZ 10075cd0 f i GuEPA.obj
 0001:00074d00       ??0?$PriorityQueue@PAVFacet@Gu@physx@@$0EA@UFacetDistanceComparator@23@@Gu@physx@@QAE@ABUFacetDistanceComparator@12@@Z 10075d00 f i GuEPA.obj
 0001:00074d20       ??0EPA@Gu@physx@@QAE@XZ    10075d20 f i GuEPA.obj
 0001:00074d90       ??0Edge@Gu@physx@@QAE@PIAVFacet@12@I@Z 10075d90 f i GuEPA.obj
 0001:00074dc0       ??0Edge@Gu@physx@@QAE@XZ   10075dc0 f i GuEPA.obj
 0001:00074de0       ??0EdgeBuffer@Gu@physx@@QAE@XZ 10075de0 f i GuEPA.obj
 0001:00074e20       ??0Facet@Gu@physx@@QAE@III@Z 10075e20 f i GuEPA.obj
 0001:00074f30       ??0Facet@Gu@physx@@QAE@XZ  10075f30 f i GuEPA.obj
 0001:00074f50       ??1?$DeferredIDPoolBase@V?$InlineFixedArray@I$0EA@@Cm@physx@@@Cm@physx@@QAE@XZ 10075f50 f i GuEPA.obj
 0001:00074f80       ??1?$IDPoolBase@V?$InlineFixedArray@I$0EA@@Cm@physx@@@Cm@physx@@QAE@XZ 10075f80 f i GuEPA.obj
 0001:00074fa0       ??1?$InlineDeferredIDPool@$0EA@@Cm@physx@@QAE@XZ 10075fa0 f i GuEPA.obj
 0001:00074fc0       ??1?$InlineFixedArray@I$0EA@@Cm@physx@@QAE@XZ 10075fc0 f i GuEPA.obj
 0001:00074fd0       ??1?$PriorityQueue@PAVFacet@Gu@physx@@$0EA@UFacetDistanceComparator@23@@Gu@physx@@QAE@XZ 10075fd0 f i GuEPA.obj
 0001:00074fe0       ??1EPA@Gu@physx@@QAE@XZ    10075fe0 f i GuEPA.obj
 0001:00075010       ??4Edge@Gu@physx@@QAEAAV012@ABV012@@Z 10076010 f i GuEPA.obj
 0001:00075040       ??A?$InlineFixedArray@I$0EA@@Cm@physx@@QAEAAII@Z 10076040 f i GuEPA.obj
 0001:000750b0       ??AFacet@Gu@physx@@QBEII@Z 100760b0 f i GuEPA.obj
 0001:000750d0       ??MFacet@Gu@physx@@QBE_NABV012@@Z 100760d0 f i GuEPA.obj
 0001:00075110       ??RFacetDistanceComparator@Gu@physx@@QBE_NPBVFacet@12@0@Z 10076110 f i GuEPA.obj
 0001:00075130       ?FAbs@aos@shdfnd@physx@@YA?AT__m128@@T4@@Z 10076130 f i GuEPA.obj
 0001:00075180       ?FAllGrtr@aos@shdfnd@physx@@YAIT__m128@@0@Z 10076180 f i GuEPA.obj
 0001:000751d0       ?FAllGrtrOrEq@aos@shdfnd@physx@@YAIT__m128@@0@Z 100761d0 f i GuEPA.obj
 0001:00075220       ?FNegScaleSub@aos@shdfnd@physx@@YA?AT__m128@@T4@00@Z 10076220 f i GuEPA.obj
 0001:00075290       ?FRsqrt@aos@shdfnd@physx@@YA?AT__m128@@T4@@Z 10076290 f i GuEPA.obj
 0001:000752f0       ?FStore@aos@shdfnd@physx@@YAXT__m128@@PIAM@Z 100762f0 f i GuEPA.obj
 0001:00075330       ?GJKCPairDoSimplex@Gu@physx@@YA?AT__m128@@PIAT3@00ABT3@AAI@Z 10076330 f i GuEPA.obj
 0001:00075470       ?Get@EdgeBuffer@Gu@physx@@QAEPAVEdge@23@I@Z 10076470 f i GuEPA.obj
 0001:000754e0       ?Insert@EdgeBuffer@Gu@physx@@QAEPAVEdge@23@PIAVFacet@23@I@Z 100764e0 f i GuEPA.obj
 0001:00075590       ?IsEmpty@EdgeBuffer@Gu@physx@@QAE_NXZ 10076590 f i GuEPA.obj
 0001:000755d0       ?MakeEmpty@EdgeBuffer@Gu@physx@@QAEXXZ 100765d0 f i GuEPA.obj
 0001:000755f0       ?QuatRotate@aos@shdfnd@physx@@YA?AT__m128@@T4@0@Z 100765f0 f i GuEPA.obj
 0001:000757d0       ?Size@EdgeBuffer@Gu@physx@@QAEIXZ 100767d0 f i GuEPA.obj
 0001:000757f0       ?V3Cross@aos@shdfnd@physx@@YA?AT__m128@@ABUVecCrossV@123@0@Z 100767f0 f i GuEPA.obj
 0001:00075860       ?V3PrepareCross@aos@shdfnd@physx@@YA?AUVecCrossV@123@T__m128@@@Z 10076860 f i GuEPA.obj
 0001:000758e0       ?V3Splat@aos@shdfnd@physx@@YA?AT__m128@@T4@@Z 100768e0 f i GuEPA.obj
 0001:00075960       ?V3UnitX@aos@shdfnd@physx@@YA?AT__m128@@XZ 10076960 f i GuEPA.obj
 0001:000759f0       ?V3Zero@aos@shdfnd@physx@@YA?AT__m128@@XZ 100769f0 f i GuEPA.obj
 0001:00075a30       ?V4SetW@aos@shdfnd@physx@@YA?AT__m128@@T4@0@Z 10076a30 f i GuEPA.obj
 0001:00075a90       ?Valid@Facet@Gu@physx@@QAE_NXZ 10076a90 f i GuEPA.obj
 0001:00075b30       ?clear@?$InlineFixedArray@I$0EA@@Cm@physx@@QAEXXZ 10076b30 f i GuEPA.obj
 0001:00075b50       ?clear@?$PriorityQueue@PAVFacet@Gu@physx@@$0EA@UFacetDistanceComparator@23@@Gu@physx@@QAEXXZ 10076b50 f i GuEPA.obj
 0001:00075b70       ?closestPtPointSegment@Gu@physx@@YA?AT__m128@@PIAT3@AAI@Z 10076b70 f i GuEPA.obj
 0001:00075db0       ?closestPtPointTriangle@Gu@physx@@YA?AT__m128@@PIAT3@PAT3@1AAI@Z 10076db0 f i GuEPA.obj
 0001:00076120       ?closestPtPointTriangleBaryCentric@Gu@physx@@YA?AT__m128@@ABT3@00PIAIAAI@Z 10077120 f i GuEPA.obj
 0001:00077010       ?compare@?$PriorityQueue@PAVFacet@Gu@physx@@$0EA@UFacetDistanceComparator@23@@Gu@physx@@ABE_NABQAVFacet@23@0@Z 10078010 f i GuEPA.obj
 0001:00077040       ?deferredFreeID@?$DeferredIDPoolBase@V?$InlineFixedArray@I$0EA@@Cm@physx@@@Cm@physx@@QAEXI@Z 10078040 f i GuEPA.obj
 0001:00077070       ?empty@?$PriorityQueue@PAVFacet@Gu@physx@@$0EA@UFacetDistanceComparator@23@@Gu@physx@@QBE_NXZ 10078070 f i GuEPA.obj
 0001:000770b0       ?freeID@?$IDPoolBase@V?$InlineFixedArray@I$0EA@@Cm@physx@@@Cm@physx@@QAEXI@Z 100780b0 f i GuEPA.obj
 0001:00077100       ?getCenter@ConvexV@Gu@physx@@QBE?AT__m128@@XZ 10078100 f i GuEPA.obj
 0001:00077130       ?getClosestPoint@Facet@Gu@physx@@QBEXPIBT__m128@@0AAT4@1@Z 10078130 f i GuEPA.obj
 0001:00077730       ?getFacet@Edge@Gu@physx@@QBEPAVFacet@23@XZ 10078730 f i GuEPA.obj
 0001:00077750       ?getIndex@Edge@Gu@physx@@QBEIXZ 10078750 f i GuEPA.obj
 0001:00077770       ?getMargin@ConvexV@Gu@physx@@QBE?AT__m128@@XZ 10078770 f i GuEPA.obj
 0001:000777a0       ?getMinMargin@ConvexV@Gu@physx@@QBE?AT__m128@@XZ 100787a0 f i GuEPA.obj
 0001:000777d0       ?getNewID@?$IDPoolBase@V?$InlineFixedArray@I$0EA@@Cm@physx@@@Cm@physx@@QAEIXZ 100787d0 f i GuEPA.obj
 0001:00077830       ?getNumRemainingIDs@?$InlineDeferredIDPool@$0EA@@Cm@physx@@QAEIXZ 10078830 f i GuEPA.obj
 0001:00077860       ?getNumUsedID@?$IDPoolBase@V?$InlineFixedArray@I$0EA@@Cm@physx@@@Cm@physx@@QAEIXZ 10078860 f i GuEPA.obj
 0001:00077890       ?getPlaneDist@Facet@Gu@physx@@QBE?AT__m128@@ABT4@PIBT4@1@Z 10078890 f i GuEPA.obj
 0001:00077970       ?getPlaneDist@Facet@Gu@physx@@QBE?AT__m128@@XZ 10078970 f i GuEPA.obj
 0001:000779d0       ?getPlaneNormal@Facet@Gu@physx@@QBE?AT__m128@@XZ 100789d0 f i GuEPA.obj
 0001:00077a00       ?getSource@Edge@Gu@physx@@QBEIXZ 10078a00 f i GuEPA.obj
 0001:00077a80       ?getTarget@Edge@Gu@physx@@QBEIXZ 10078a80 f i GuEPA.obj
 0001:00077b00       ?incMod3@Gu@physx@@YAII@Z  10078b00 f i GuEPA.obj
 0001:00077b20       ?isMarginEqRadius@ConvexV@Gu@physx@@QBE?AT__m128@@XZ 10078b20 f i GuEPA.obj
 0001:00077b50       ?isObsolete@Facet@Gu@physx@@QBE_NXZ 10078b50 f i GuEPA.obj
 0001:00077b70       ?isValid2@Facet@Gu@physx@@QAE?AT__m128@@IIIPIBT4@0ABT4@1@Z 10078b70 f i GuEPA.obj
 0001:00077ff0       ?left@?$PriorityQueue@PAVFacet@Gu@physx@@$0EA@UFacetDistanceComparator@23@@Gu@physx@@CAII@Z 10078ff0 f i GuEPA.obj
 0001:00078000       ?link@Facet@Gu@physx@@QAE_NIPIAV123@I@Z 10079000 f i GuEPA.obj
 0001:000780e0       ?parent@?$PriorityQueue@PAVFacet@Gu@physx@@$0EA@UFacetDistanceComparator@23@@Gu@physx@@CAII@Z 100790e0 f i GuEPA.obj
 0001:000780f0       ?pop@?$PriorityQueue@PAVFacet@Gu@physx@@$0EA@UFacetDistanceComparator@23@@Gu@physx@@QAEPAVFacet@23@XZ 100790f0 f i GuEPA.obj
 0001:00078370       ?popBack@?$InlineFixedArray@I$0EA@@Cm@physx@@QAEIXZ 10079370 f i GuEPA.obj
 0001:00078400       ?prefetchLine@shdfnd@physx@@YAXPBXI@Z 10079400 f i GuEPA.obj
 0001:00078420       ?processDeferredIds@?$DeferredIDPoolBase@V?$InlineFixedArray@I$0EA@@Cm@physx@@@Cm@physx@@QAEXXZ 10079420 f i GuEPA.obj
 0001:000784a0       ?push@?$PriorityQueue@PAVFacet@Gu@physx@@$0EA@UFacetDistanceComparator@23@@Gu@physx@@QAEXABQAVFacet@23@@Z 100794a0 f i GuEPA.obj
 0001:00078600       ?pushBack@?$InlineFixedArray@I$0EA@@Cm@physx@@QAEXABI@Z 10079600 f i GuEPA.obj
 0001:000786a0       ?silhouette@Facet@Gu@physx@@QAEXIABT__m128@@PIBT4@1AAVEdgeBuffer@23@AAV?$InlineDeferredIDPool@$0EA@@Cm@3@@Z 100796a0 f i GuEPA.obj
 0001:00078970       ?size@?$InlineFixedArray@I$0EA@@Cm@physx@@QBEIXZ 10079970 f i GuEPA.obj
 0001:00078990       ?size@?$PriorityQueue@PAVFacet@Gu@physx@@$0EA@UFacetDistanceComparator@23@@Gu@physx@@QBEIXZ 10079990 f i GuEPA.obj
 0001:000789b0       ?toI8@shdfnd@physx@@YACI@Z 100799b0 f i GuEPA.obj
 0001:00078a10       ?top@?$PriorityQueue@PAVFacet@Gu@physx@@$0EA@UFacetDistanceComparator@23@@Gu@physx@@QAEPAVFacet@23@XZ 10079a10 f i GuEPA.obj
 0001:00078a30       ?valid@?$PriorityQueue@PAVFacet@Gu@physx@@$0EA@UFacetDistanceComparator@23@@Gu@physx@@QBE_NXZ 10079a30 f i GuEPA.obj
 0001:00078ab0       ?EPALocalPenetration@Gu@physx@@YAIABVCapsuleV@12@ABVBoxV@12@AAT__m128@@222PIAE3AAE_N@Z 10079ab0 f   GuEPAPenetrationWrapper.obj
 0001:00078b10       ?EPALocalPenetration@Gu@physx@@YAIABVCapsuleV@12@ABVConvexHullV@12@AAT__m128@@222PIAE3AAE_N@Z 10079b10 f   GuEPAPenetrationWrapper.obj
 0001:00078b70       ?EPALocalPenetration@Gu@physx@@YAIABVTriangleV@12@ABVBoxV@12@AAT__m128@@222PIAE3AAE_N@Z 10079b70 f   GuEPAPenetrationWrapper.obj
 0001:00078bd0       ?EPALocalPenetration@Gu@physx@@YAIABVTriangleV@12@ABVConvexHullV@12@AAT__m128@@222PIAE3AAE_N@Z 10079bd0 f   GuEPAPenetrationWrapper.obj
 0001:00078c30       ?EPARelativePenetration@Gu@physx@@YAIABVBoxV@12@0ABVPsMatTransformV@aos@shdfnd@2@AAT__m128@@222PIAE3AAE_N@Z 10079c30 f   GuEPAPenetrationWrapper.obj
 0001:00078ca0       ?EPARelativePenetration@Gu@physx@@YAIABVBoxV@12@ABVConvexHullV@12@ABVPsMatTransformV@aos@shdfnd@2@AAT__m128@@333PIAE4AAE_N@Z 10079ca0 f   GuEPAPenetrationWrapper.obj
 0001:00078d10       ?EPARelativePenetration@Gu@physx@@YAIABVConvexHullV@12@0ABVPsMatTransformV@aos@shdfnd@2@AAT__m128@@222PIAE3AAE_N@Z 10079d10 f   GuEPAPenetrationWrapper.obj
 0001:00078d80       ?EPARelativePenetration@Gu@physx@@YAIABVConvexHullNoScaleV@12@0ABVPsMatTransformV@aos@shdfnd@2@AAT__m128@@222PIAE3AAE_N@Z 10079d80 f   GuEPAPenetrationWrapper.obj
 0001:00078df0       ?EPARelativePenetration@Gu@physx@@YAIABVConvexHullNoScaleV@12@ABVConvexHullV@12@ABVPsMatTransformV@aos@shdfnd@2@AAT__m128@@333PIAE4AAE_N@Z 10079df0 f   GuEPAPenetrationWrapper.obj
 0001:00078e60       ?EPARelativePenetration@Gu@physx@@YAIABVConvexHullV@12@ABVConvexHullNoScaleV@12@ABVPsMatTransformV@aos@shdfnd@2@AAT__m128@@333PIAE4AAE_N@Z 10079e60 f   GuEPAPenetrationWrapper.obj
 0001:00078fd0       ??0?$EPASupportMapPairLocalImpl@VCapsuleV@Gu@physx@@VBoxV@23@@Gu@physx@@QAE@ABVCapsuleV@12@ABVBoxV@12@@Z 10079fd0 f i GuEPAPenetrationWrapper.obj
 0001:00079010       ??0?$EPASupportMapPairLocalImpl@VCapsuleV@Gu@physx@@VConvexHullV@23@@Gu@physx@@QAE@ABVCapsuleV@12@ABVConvexHullV@12@@Z 1007a010 f i GuEPAPenetrationWrapper.obj
 0001:00079050       ??0?$EPASupportMapPairLocalImpl@VTriangleV@Gu@physx@@VBoxV@23@@Gu@physx@@QAE@ABVTriangleV@12@ABVBoxV@12@@Z 1007a050 f i GuEPAPenetrationWrapper.obj
 0001:00079090       ??0?$EPASupportMapPairLocalImpl@VTriangleV@Gu@physx@@VConvexHullV@23@@Gu@physx@@QAE@ABVTriangleV@12@ABVConvexHullV@12@@Z 1007a090 f i GuEPAPenetrationWrapper.obj
 0001:000790d0       ??0?$EPASupportMapPairRelativeImpl@VBoxV@Gu@physx@@V123@@Gu@physx@@QAE@ABVBoxV@12@0ABVPsMatTransformV@aos@shdfnd@2@@Z 1007a0d0 f i GuEPAPenetrationWrapper.obj
 0001:00079120       ??0?$EPASupportMapPairRelativeImpl@VBoxV@Gu@physx@@VConvexHullV@23@@Gu@physx@@QAE@ABVBoxV@12@ABVConvexHullV@12@ABVPsMatTransformV@aos@shdfnd@2@@Z 1007a120 f i GuEPAPenetrationWrapper.obj
 0001:00079170       ??0?$EPASupportMapPairRelativeImpl@VConvexHullNoScaleV@Gu@physx@@V123@@Gu@physx@@QAE@ABVConvexHullNoScaleV@12@0ABVPsMatTransformV@aos@shdfnd@2@@Z 1007a170 f i GuEPAPenetrationWrapper.obj
 0001:000791c0       ??0?$EPASupportMapPairRelativeImpl@VConvexHullNoScaleV@Gu@physx@@VConvexHullV@23@@Gu@physx@@QAE@ABVConvexHullNoScaleV@12@ABVConvexHullV@12@ABVPsMatTransformV@aos@shdfnd@2@@Z 1007a1c0 f i GuEPAPenetrationWrapper.obj
 0001:00079210       ??0?$EPASupportMapPairRelativeImpl@VConvexHullV@Gu@physx@@V123@@Gu@physx@@QAE@ABVConvexHullV@12@0ABVPsMatTransformV@aos@shdfnd@2@@Z 1007a210 f i GuEPAPenetrationWrapper.obj
 0001:00079260       ??0?$EPASupportMapPairRelativeImpl@VConvexHullV@Gu@physx@@VConvexHullNoScaleV@23@@Gu@physx@@QAE@ABVConvexHullV@12@ABVConvexHullNoScaleV@12@ABVPsMatTransformV@aos@shdfnd@2@@Z 1007a260 f i GuEPAPenetrationWrapper.obj
 0001:000792b0       ??0EPASupportMapPair@Gu@physx@@QAE@XZ 1007a2b0 f i GuEPAPenetrationWrapper.obj
 0001:000792d0       ??1?$EPASupportMapPairLocalImpl@VCapsuleV@Gu@physx@@VBoxV@23@@Gu@physx@@UAE@XZ 1007a2d0 f i GuEPAPenetrationWrapper.obj
 0001:000792f0       ??1?$EPASupportMapPairLocalImpl@VCapsuleV@Gu@physx@@VConvexHullV@23@@Gu@physx@@UAE@XZ 1007a2f0 f i GuEPAPenetrationWrapper.obj
 0001:00079310       ??1?$EPASupportMapPairLocalImpl@VTriangleV@Gu@physx@@VBoxV@23@@Gu@physx@@UAE@XZ 1007a310 f i GuEPAPenetrationWrapper.obj
 0001:00079330       ??1?$EPASupportMapPairLocalImpl@VTriangleV@Gu@physx@@VConvexHullV@23@@Gu@physx@@UAE@XZ 1007a330 f i GuEPAPenetrationWrapper.obj
 0001:00079350       ??1?$EPASupportMapPairRelativeImpl@VBoxV@Gu@physx@@V123@@Gu@physx@@UAE@XZ 1007a350 f i GuEPAPenetrationWrapper.obj
 0001:00079370       ??1?$EPASupportMapPairRelativeImpl@VBoxV@Gu@physx@@VConvexHullV@23@@Gu@physx@@UAE@XZ 1007a370 f i GuEPAPenetrationWrapper.obj
 0001:00079390       ??1?$EPASupportMapPairRelativeImpl@VConvexHullNoScaleV@Gu@physx@@V123@@Gu@physx@@UAE@XZ 1007a390 f i GuEPAPenetrationWrapper.obj
 0001:000793b0       ??1?$EPASupportMapPairRelativeImpl@VConvexHullNoScaleV@Gu@physx@@VConvexHullV@23@@Gu@physx@@UAE@XZ 1007a3b0 f i GuEPAPenetrationWrapper.obj
 0001:000793d0       ??1?$EPASupportMapPairRelativeImpl@VConvexHullV@Gu@physx@@V123@@Gu@physx@@UAE@XZ 1007a3d0 f i GuEPAPenetrationWrapper.obj
 0001:000793f0       ??1?$EPASupportMapPairRelativeImpl@VConvexHullV@Gu@physx@@VConvexHullNoScaleV@23@@Gu@physx@@UAE@XZ 1007a3f0 f i GuEPAPenetrationWrapper.obj
 0001:00079410       ??1EPASupportMapPair@Gu@physx@@UAE@XZ 1007a410 f i GuEPAPenetrationWrapper.obj
 0001:00079430       ??_G?$EPASupportMapPairLocalImpl@VCapsuleV@Gu@physx@@VBoxV@23@@Gu@physx@@UAEPAXI@Z 1007a430 f i GuEPAPenetrationWrapper.obj
 0001:00079430       ??_E?$EPASupportMapPairLocalImpl@VCapsuleV@Gu@physx@@VBoxV@23@@Gu@physx@@UAEPAXI@Z 1007a430 f i GuEPAPenetrationWrapper.obj
 0001:00079470       ??_E?$EPASupportMapPairLocalImpl@VCapsuleV@Gu@physx@@VConvexHullV@23@@Gu@physx@@UAEPAXI@Z 1007a470 f i GuEPAPenetrationWrapper.obj
 0001:00079470       ??_G?$EPASupportMapPairLocalImpl@VCapsuleV@Gu@physx@@VConvexHullV@23@@Gu@physx@@UAEPAXI@Z 1007a470 f i GuEPAPenetrationWrapper.obj
 0001:000794b0       ??_E?$EPASupportMapPairLocalImpl@VTriangleV@Gu@physx@@VBoxV@23@@Gu@physx@@UAEPAXI@Z 1007a4b0 f i GuEPAPenetrationWrapper.obj
 0001:000794b0       ??_G?$EPASupportMapPairLocalImpl@VTriangleV@Gu@physx@@VBoxV@23@@Gu@physx@@UAEPAXI@Z 1007a4b0 f i GuEPAPenetrationWrapper.obj
 0001:000794f0       ??_E?$EPASupportMapPairLocalImpl@VTriangleV@Gu@physx@@VConvexHullV@23@@Gu@physx@@UAEPAXI@Z 1007a4f0 f i GuEPAPenetrationWrapper.obj
 0001:000794f0       ??_G?$EPASupportMapPairLocalImpl@VTriangleV@Gu@physx@@VConvexHullV@23@@Gu@physx@@UAEPAXI@Z 1007a4f0 f i GuEPAPenetrationWrapper.obj
 0001:00079530       ??_E?$EPASupportMapPairRelativeImpl@VBoxV@Gu@physx@@V123@@Gu@physx@@UAEPAXI@Z 1007a530 f i GuEPAPenetrationWrapper.obj
 0001:00079530       ??_G?$EPASupportMapPairRelativeImpl@VBoxV@Gu@physx@@V123@@Gu@physx@@UAEPAXI@Z 1007a530 f i GuEPAPenetrationWrapper.obj
 0001:00079570       ??_E?$EPASupportMapPairRelativeImpl@VBoxV@Gu@physx@@VConvexHullV@23@@Gu@physx@@UAEPAXI@Z 1007a570 f i GuEPAPenetrationWrapper.obj
 0001:00079570       ??_G?$EPASupportMapPairRelativeImpl@VBoxV@Gu@physx@@VConvexHullV@23@@Gu@physx@@UAEPAXI@Z 1007a570 f i GuEPAPenetrationWrapper.obj
 0001:000795b0       ??_G?$EPASupportMapPairRelativeImpl@VConvexHullNoScaleV@Gu@physx@@V123@@Gu@physx@@UAEPAXI@Z 1007a5b0 f i GuEPAPenetrationWrapper.obj
 0001:000795b0       ??_E?$EPASupportMapPairRelativeImpl@VConvexHullNoScaleV@Gu@physx@@V123@@Gu@physx@@UAEPAXI@Z 1007a5b0 f i GuEPAPenetrationWrapper.obj
 0001:000795f0       ??_G?$EPASupportMapPairRelativeImpl@VConvexHullNoScaleV@Gu@physx@@VConvexHullV@23@@Gu@physx@@UAEPAXI@Z 1007a5f0 f i GuEPAPenetrationWrapper.obj
 0001:000795f0       ??_E?$EPASupportMapPairRelativeImpl@VConvexHullNoScaleV@Gu@physx@@VConvexHullV@23@@Gu@physx@@UAEPAXI@Z 1007a5f0 f i GuEPAPenetrationWrapper.obj
 0001:00079630       ??_G?$EPASupportMapPairRelativeImpl@VConvexHullV@Gu@physx@@V123@@Gu@physx@@UAEPAXI@Z 1007a630 f i GuEPAPenetrationWrapper.obj
 0001:00079630       ??_E?$EPASupportMapPairRelativeImpl@VConvexHullV@Gu@physx@@V123@@Gu@physx@@UAEPAXI@Z 1007a630 f i GuEPAPenetrationWrapper.obj
 0001:00079670       ??_G?$EPASupportMapPairRelativeImpl@VConvexHullV@Gu@physx@@VConvexHullNoScaleV@23@@Gu@physx@@UAEPAXI@Z 1007a670 f i GuEPAPenetrationWrapper.obj
 0001:00079670       ??_E?$EPASupportMapPairRelativeImpl@VConvexHullV@Gu@physx@@VConvexHullNoScaleV@23@@Gu@physx@@UAEPAXI@Z 1007a670 f i GuEPAPenetrationWrapper.obj
 0001:000796b0       ??_GEPASupportMapPair@Gu@physx@@UAEPAXI@Z 1007a6b0 f i GuEPAPenetrationWrapper.obj
 0001:000796b0       ??_EEPASupportMapPair@Gu@physx@@UAEPAXI@Z 1007a6b0 f i GuEPAPenetrationWrapper.obj
 0001:000796f0       ?BruteForceSearch@ConvexHullV@Gu@physx@@QBEIABT__m128@@@Z 1007a6f0 f i GuEPAPenetrationWrapper.obj
 0001:00079840       ?HillClimbing@ConvexHullV@Gu@physx@@QBEIABT__m128@@@Z 1007a840 f i GuEPAPenetrationWrapper.obj
 0001:00079b00       ?M33MulV3@aos@shdfnd@physx@@YA?AT__m128@@ABUMat33V@123@T4@@Z 1007ab00 f i GuEPAPenetrationWrapper.obj
 0001:00079c60       ?M33TrnspsMulV3@aos@shdfnd@physx@@YA?AT__m128@@ABUMat33V@123@T4@@Z 1007ac60 f i GuEPAPenetrationWrapper.obj
 0001:00079d20       ?V3IsGrtr@aos@shdfnd@physx@@YA?AT__m128@@T4@0@Z 1007ad20 f i GuEPAPenetrationWrapper.obj
 0001:00079d70       ?V3Merge@aos@shdfnd@physx@@YA?AT__m128@@ABT4@00@Z 1007ad70 f i GuEPAPenetrationWrapper.obj
 0001:00079e10       ?doSupport@?$EPASupportMapPairLocalImpl@VCapsuleV@Gu@physx@@VBoxV@23@@Gu@physx@@UBEXABT__m128@@AAT4@11@Z 1007ae10 f i GuEPAPenetrationWrapper.obj
 0001:00079ec0       ?doSupport@?$EPASupportMapPairLocalImpl@VCapsuleV@Gu@physx@@VConvexHullV@23@@Gu@physx@@UBEXABT__m128@@AAT4@11@Z 1007aec0 f i GuEPAPenetrationWrapper.obj
 0001:00079f70       ?doSupport@?$EPASupportMapPairLocalImpl@VTriangleV@Gu@physx@@VBoxV@23@@Gu@physx@@UBEXABT__m128@@AAT4@11@Z 1007af70 f i GuEPAPenetrationWrapper.obj
 0001:0007a020       ?doSupport@?$EPASupportMapPairLocalImpl@VTriangleV@Gu@physx@@VConvexHullV@23@@Gu@physx@@UBEXABT__m128@@AAT4@11@Z 1007b020 f i GuEPAPenetrationWrapper.obj
 0001:0007a0d0       ?doSupport@?$EPASupportMapPairRelativeImpl@VBoxV@Gu@physx@@V123@@Gu@physx@@UBEXABT__m128@@AAT4@11@Z 1007b0d0 f i GuEPAPenetrationWrapper.obj
 0001:0007a190       ?doSupport@?$EPASupportMapPairRelativeImpl@VBoxV@Gu@physx@@VConvexHullV@23@@Gu@physx@@UBEXABT__m128@@AAT4@11@Z 1007b190 f i GuEPAPenetrationWrapper.obj
 0001:0007a250       ?doSupport@?$EPASupportMapPairRelativeImpl@VConvexHullNoScaleV@Gu@physx@@V123@@Gu@physx@@UBEXABT__m128@@AAT4@11@Z 1007b250 f i GuEPAPenetrationWrapper.obj
 0001:0007a310       ?doSupport@?$EPASupportMapPairRelativeImpl@VConvexHullNoScaleV@Gu@physx@@VConvexHullV@23@@Gu@physx@@UBEXABT__m128@@AAT4@11@Z 1007b310 f i GuEPAPenetrationWrapper.obj
 0001:0007a3d0       ?doSupport@?$EPASupportMapPairRelativeImpl@VConvexHullV@Gu@physx@@V123@@Gu@physx@@UBEXABT__m128@@AAT4@11@Z 1007b3d0 f i GuEPAPenetrationWrapper.obj
 0001:0007a490       ?doSupport@?$EPASupportMapPairRelativeImpl@VConvexHullV@Gu@physx@@VConvexHullNoScaleV@23@@Gu@physx@@UBEXABT__m128@@AAT4@11@Z 1007b490 f i GuEPAPenetrationWrapper.obj
 0001:0007a550       ?doWarmStartSupport@?$EPASupportMapPairLocalImpl@VCapsuleV@Gu@physx@@VBoxV@23@@Gu@physx@@UBEXHHAAT__m128@@00@Z 1007b550 f i GuEPAPenetrationWrapper.obj
 0001:0007a5f0       ?doWarmStartSupport@?$EPASupportMapPairLocalImpl@VCapsuleV@Gu@physx@@VConvexHullV@23@@Gu@physx@@UBEXHHAAT__m128@@00@Z 1007b5f0 f i GuEPAPenetrationWrapper.obj
 0001:0007a690       ?doWarmStartSupport@?$EPASupportMapPairLocalImpl@VTriangleV@Gu@physx@@VBoxV@23@@Gu@physx@@UBEXHHAAT__m128@@00@Z 1007b690 f i GuEPAPenetrationWrapper.obj
 0001:0007a730       ?doWarmStartSupport@?$EPASupportMapPairLocalImpl@VTriangleV@Gu@physx@@VConvexHullV@23@@Gu@physx@@UBEXHHAAT__m128@@00@Z 1007b730 f i GuEPAPenetrationWrapper.obj
 0001:0007a7d0       ?doWarmStartSupport@?$EPASupportMapPairRelativeImpl@VBoxV@Gu@physx@@V123@@Gu@physx@@UBEXHHAAT__m128@@00@Z 1007b7d0 f i GuEPAPenetrationWrapper.obj
 0001:0007a880       ?doWarmStartSupport@?$EPASupportMapPairRelativeImpl@VBoxV@Gu@physx@@VConvexHullV@23@@Gu@physx@@UBEXHHAAT__m128@@00@Z 1007b880 f i GuEPAPenetrationWrapper.obj
 0001:0007a930       ?doWarmStartSupport@?$EPASupportMapPairRelativeImpl@VConvexHullNoScaleV@Gu@physx@@V123@@Gu@physx@@UBEXHHAAT__m128@@00@Z 1007b930 f i GuEPAPenetrationWrapper.obj
 0001:0007a9e0       ?doWarmStartSupport@?$EPASupportMapPairRelativeImpl@VConvexHullNoScaleV@Gu@physx@@VConvexHullV@23@@Gu@physx@@UBEXHHAAT__m128@@00@Z 1007b9e0 f i GuEPAPenetrationWrapper.obj
 0001:0007aa90       ?doWarmStartSupport@?$EPASupportMapPairRelativeImpl@VConvexHullV@Gu@physx@@V123@@Gu@physx@@UBEXHHAAT__m128@@00@Z 1007ba90 f i GuEPAPenetrationWrapper.obj
 0001:0007ab40       ?doWarmStartSupport@?$EPASupportMapPairRelativeImpl@VConvexHullV@Gu@physx@@VConvexHullNoScaleV@23@@Gu@physx@@UBEXHHAAT__m128@@00@Z 1007bb40 f i GuEPAPenetrationWrapper.obj
 0001:0007abf0       ?getDir@?$EPASupportMapPairLocalImpl@VCapsuleV@Gu@physx@@VBoxV@23@@Gu@physx@@UBE?AT__m128@@XZ 1007bbf0 f i GuEPAPenetrationWrapper.obj
 0001:0007ac70       ?getDir@?$EPASupportMapPairLocalImpl@VCapsuleV@Gu@physx@@VConvexHullV@23@@Gu@physx@@UBE?AT__m128@@XZ 1007bc70 f i GuEPAPenetrationWrapper.obj
 0001:0007acf0       ?getDir@?$EPASupportMapPairLocalImpl@VTriangleV@Gu@physx@@VBoxV@23@@Gu@physx@@UBE?AT__m128@@XZ 1007bcf0 f i GuEPAPenetrationWrapper.obj
 0001:0007ad70       ?getDir@?$EPASupportMapPairLocalImpl@VTriangleV@Gu@physx@@VConvexHullV@23@@Gu@physx@@UBE?AT__m128@@XZ 1007bd70 f i GuEPAPenetrationWrapper.obj
 0001:0007adf0       ?getDir@?$EPASupportMapPairRelativeImpl@VBoxV@Gu@physx@@V123@@Gu@physx@@UBE?AT__m128@@XZ 1007bdf0 f i GuEPAPenetrationWrapper.obj
 0001:0007ae20       ?getDir@?$EPASupportMapPairRelativeImpl@VBoxV@Gu@physx@@VConvexHullV@23@@Gu@physx@@UBE?AT__m128@@XZ 1007be20 f i GuEPAPenetrationWrapper.obj
 0001:0007ae50       ?getDir@?$EPASupportMapPairRelativeImpl@VConvexHullNoScaleV@Gu@physx@@V123@@Gu@physx@@UBE?AT__m128@@XZ 1007be50 f i GuEPAPenetrationWrapper.obj
 0001:0007ae80       ?getDir@?$EPASupportMapPairRelativeImpl@VConvexHullNoScaleV@Gu@physx@@VConvexHullV@23@@Gu@physx@@UBE?AT__m128@@XZ 1007be80 f i GuEPAPenetrationWrapper.obj
 0001:0007aeb0       ?getDir@?$EPASupportMapPairRelativeImpl@VConvexHullV@Gu@physx@@V123@@Gu@physx@@UBE?AT__m128@@XZ 1007beb0 f i GuEPAPenetrationWrapper.obj
 0001:0007aee0       ?getDir@?$EPASupportMapPairRelativeImpl@VConvexHullV@Gu@physx@@VConvexHullNoScaleV@23@@Gu@physx@@UBE?AT__m128@@XZ 1007bee0 f i GuEPAPenetrationWrapper.obj
 0001:0007af10       ?rotateInv@PsMatTransformV@aos@shdfnd@physx@@QBE?AT__m128@@ABT5@@Z 1007bf10 f i GuEPAPenetrationWrapper.obj
 0001:0007af70       ?supportLocal@BoxV@Gu@physx@@QBE?AT__m128@@ABT4@@Z 1007bf70 f i GuEPAPenetrationWrapper.obj
 0001:0007b010       ?supportLocal@CapsuleV@Gu@physx@@QBE?AT__m128@@ABT4@@Z 1007c010 f i GuEPAPenetrationWrapper.obj
 0001:0007b0d0       ?supportLocal@ConvexHullNoScaleV@Gu@physx@@QBE?AT__m128@@ABT4@@Z 1007c0d0 f i GuEPAPenetrationWrapper.obj
 0001:0007b150       ?supportLocal@ConvexHullV@Gu@physx@@QBE?AT__m128@@ABT4@@Z 1007c150 f i GuEPAPenetrationWrapper.obj
 0001:0007b210       ?supportLocal@TriangleV@Gu@physx@@QBE?AT__m128@@ABT4@@Z 1007c210 f i GuEPAPenetrationWrapper.obj
 0001:0007b3f0       ?supportPoint@BoxV@Gu@physx@@QBE?AT__m128@@H@Z 1007c3f0 f i GuEPAPenetrationWrapper.obj
 0001:0007b480       ?supportPoint@CapsuleV@Gu@physx@@QBE?AT__m128@@H@Z 1007c480 f i GuEPAPenetrationWrapper.obj
 0001:0007b4c0       ?supportPoint@ConvexHullNoScaleV@Gu@physx@@QBE?AT__m128@@H@Z 1007c4c0 f i GuEPAPenetrationWrapper.obj
 0001:0007b520       ?supportPoint@ConvexHullV@Gu@physx@@QBE?AT__m128@@H@Z 1007c520 f i GuEPAPenetrationWrapper.obj
 0001:0007b5a0       ?supportPoint@TriangleV@Gu@physx@@QBE?AT__m128@@H@Z 1007c5a0 f i GuEPAPenetrationWrapper.obj
 0001:0007b5d0       ?supportRelative@BoxV@Gu@physx@@QBE?AT__m128@@ABT4@ABVPsMatTransformV@aos@shdfnd@3@@Z 1007c5d0 f i GuEPAPenetrationWrapper.obj
 0001:0007b640       ?supportRelative@ConvexHullNoScaleV@Gu@physx@@QBE?AT__m128@@ABT4@ABVPsMatTransformV@aos@shdfnd@3@@Z 1007c640 f i GuEPAPenetrationWrapper.obj
 0001:0007b6b0       ?supportRelative@ConvexHullV@Gu@physx@@QBE?AT__m128@@ABT4@ABVPsMatTransformV@aos@shdfnd@3@@Z 1007c6b0 f i GuEPAPenetrationWrapper.obj
 0001:0007b720       ?supportVertexIndex@ConvexHullV@Gu@physx@@QBEIABT__m128@@@Z 1007c720 f i GuEPAPenetrationWrapper.obj
 0001:0007b770       ?transform@PsMatTransformV@aos@shdfnd@physx@@QBE?AT__m128@@ABT5@@Z 1007c770 f i GuEPAPenetrationWrapper.obj
 0001:0007b7f0       ?gjkRelativeFallback@Gu@physx@@YAIABVConvexV@12@0PAVSupportMap@12@1ABT__m128@@AAT5@333@Z 1007c7f0 f   GuGJKFallBack.obj
 0001:0007bda0       ?doSupportMappingPair@Gu@physx@@YA?AT__m128@@ABVConvexV@12@0PAVSupportMap@12@1T3@PAT3@33IAAUSimplexStack@12@@Z 1007cda0 f   GuGJKFallBack.obj
 0001:0007c410       ?GJKCPairDoSimplexTesselation@Gu@physx@@YA?AT__m128@@PIAT3@00ABT3@11AAIAAT3@3@Z 1007d410 f i GuGJKFallBack.obj
 0001:0007c5f0       ?V3Abs@aos@shdfnd@physx@@YA?AT__m128@@T4@@Z 1007d5f0 f i GuGJKFallBack.obj
 0001:0007c650       ?V3Max@aos@shdfnd@physx@@YA?AT__m128@@T4@0@Z 1007d650 f i GuGJKFallBack.obj
 0001:0007c6a0       ?Vec3V_From_FloatV@aos@shdfnd@physx@@YA?AT__m128@@T4@@Z 1007d6a0 f i GuGJKFallBack.obj
 0001:0007c700       ?Vec4V_From_FloatV@aos@shdfnd@physx@@YA?AT__m128@@T4@@Z 1007d700 f i GuGJKFallBack.obj
 0001:0007c740       ?pushSimplex@SimplexStack@Gu@physx@@QAEXPAT__m128@@00I@Z 1007d740 f i GuGJKFallBack.obj
 0001:0007c8a0       ?GJKLocalPenetration@Gu@physx@@YAIABVCapsuleV@12@ABVBoxV@12@ABT__m128@@AAT5@333PIAE4AAE_N@Z 1007d8a0 f   GuGJKPenetrationWrapper.obj
 0001:0007c8e0       ?GJKLocalPenetration@Gu@physx@@YAIABVCapsuleV@12@ABVShrunkBoxV@12@ABT__m128@@AAT5@333PIAE4AAE_N@Z 1007d8e0 f   GuGJKPenetrationWrapper.obj
 0001:0007c920       ?GJKLocalPenetration@Gu@physx@@YAIABVCapsuleV@12@ABVConvexHullV@12@ABT__m128@@AAT5@333PIAE4AAE_N@Z 1007d920 f   GuGJKPenetrationWrapper.obj
 0001:0007c960       ?GJKLocalPenetration@Gu@physx@@YAIABVCapsuleV@12@ABVConvexHullNoScaleV@12@ABT__m128@@AAT5@333PIAE4AAE_N@Z 1007d960 f   GuGJKPenetrationWrapper.obj
 0001:0007c9a0       ?GJKLocalPenetration@Gu@physx@@YAIABVCapsuleV@12@ABVShrunkConvexHullV@12@ABT__m128@@AAT5@333PIAE4AAE_N@Z 1007d9a0 f   GuGJKPenetrationWrapper.obj
 0001:0007c9e0       ?GJKLocalPenetration@Gu@physx@@YAIABVCapsuleV@12@ABVShrunkConvexHullNoScaleV@12@ABT__m128@@AAT5@333PIAE4AAE_N@Z 1007d9e0 f   GuGJKPenetrationWrapper.obj
 0001:0007ca20       ?GJKLocalPenetration@Gu@physx@@YAIABVTriangleV@12@ABVBoxV@12@ABT__m128@@AAT5@333PIAE4AAE_N@Z 1007da20 f   GuGJKPenetrationWrapper.obj
 0001:0007ca60       ?GJKLocalPenetration@Gu@physx@@YAIABVTriangleV@12@ABVConvexHullV@12@ABT__m128@@AAT5@333PIAE4AAE_N@Z 1007da60 f   GuGJKPenetrationWrapper.obj
 0001:0007caa0       ?GJKLocalPenetration@Gu@physx@@YAIABVTriangleV@12@ABVConvexHullNoScaleV@12@ABT__m128@@AAT5@333PIAE4AAE_N@Z 1007daa0 f   GuGJKPenetrationWrapper.obj
 0001:0007cae0       ?GJKLocalPenetration@Gu@physx@@YAIABVTriangleV@12@0ABT__m128@@AAT4@222PIAE3AAE_N@Z 1007dae0 f   GuGJKPenetrationWrapper.obj
 0001:0007cb20       ?GJKRelativePenetration@Gu@physx@@YAIABVBoxV@12@0ABVPsMatTransformV@aos@shdfnd@2@ABT__m128@@AAT7@333PIAE4AAE@Z 1007db20 f   GuGJKPenetrationWrapper.obj
 0001:0007cb60       ?GJKRelativePenetration@Gu@physx@@YAIABVBoxV@12@ABVConvexHullV@12@ABVPsMatTransformV@aos@shdfnd@2@ABT__m128@@AAT8@444PIAE5AAE@Z 1007db60 f   GuGJKPenetrationWrapper.obj
 0001:0007cba0       ?GJKRelativePenetration@Gu@physx@@YAIABVShrunkBoxV@12@0ABVPsMatTransformV@aos@shdfnd@2@ABT__m128@@AAT7@333PIAE4AAE@Z 1007dba0 f   GuGJKPenetrationWrapper.obj
 0001:0007cbe0       ?GJKRelativePenetration@Gu@physx@@YAIABVShrunkBoxV@12@ABVShrunkConvexHullV@12@ABVPsMatTransformV@aos@shdfnd@2@ABT__m128@@AAT8@444PIAE5AAE@Z 1007dbe0 f   GuGJKPenetrationWrapper.obj
 0001:0007cc20       ?GJKRelativePenetration@Gu@physx@@YAIABVShrunkBoxV@12@ABVShrunkConvexHullNoScaleV@12@ABVPsMatTransformV@aos@shdfnd@2@ABT__m128@@AAT8@444PIAE5AAE@Z 1007dc20 f   GuGJKPenetrationWrapper.obj
 0001:0007cc60       ?GJKRelativePenetration@Gu@physx@@YAIABVConvexHullV@12@0ABVPsMatTransformV@aos@shdfnd@2@ABT__m128@@AAT7@333PIAE4AAE@Z 1007dc60 f   GuGJKPenetrationWrapper.obj
 0001:0007cca0       ?GJKRelativePenetration@Gu@physx@@YAIABVShrunkConvexHullV@12@0ABVPsMatTransformV@aos@shdfnd@2@ABT__m128@@AAT7@333PIAE4AAE@Z 1007dca0 f   GuGJKPenetrationWrapper.obj
 0001:0007cce0       ?GJKRelativePenetration@Gu@physx@@YAIABVShrunkConvexHullNoScaleV@12@0ABVPsMatTransformV@aos@shdfnd@2@ABT__m128@@AAT7@333PIAE4AAE@Z 1007dce0 f   GuGJKPenetrationWrapper.obj
 0001:0007cd20       ?GJKRelativePenetration@Gu@physx@@YAIABVShrunkConvexHullNoScaleV@12@ABVShrunkConvexHullV@12@ABVPsMatTransformV@aos@shdfnd@2@ABT__m128@@AAT8@444PIAE5AAE@Z 1007dd20 f   GuGJKPenetrationWrapper.obj
 0001:0007cd60       ?GJKRelativePenetration@Gu@physx@@YAIABVShrunkConvexHullV@12@ABVShrunkConvexHullNoScaleV@12@ABVPsMatTransformV@aos@shdfnd@2@ABT__m128@@AAT8@444PIAE5AAE@Z 1007dd60 f   GuGJKPenetrationWrapper.obj
 0001:0007cda0       ?GJKRelativePenetration@Gu@physx@@YAIABVTriangleV@12@ABVBoxV@12@ABVPsMatTransformV@aos@shdfnd@2@ABT__m128@@AAT8@444@Z 1007dda0 f   GuGJKPenetrationWrapper.obj
 0001:0007cde0       ?GJKRelativePenetration@Gu@physx@@YAIABVTriangleV@12@ABVCapsuleV@12@ABVPsMatTransformV@aos@shdfnd@2@ABT__m128@@AAT8@444@Z 1007dde0 f   GuGJKPenetrationWrapper.obj
 0001:0007ce20       ?GJKRelativePenetration@Gu@physx@@YAIABVTriangleV@12@ABVConvexHullV@12@ABVPsMatTransformV@aos@shdfnd@2@ABT__m128@@AAT8@444@Z 1007de20 f   GuGJKPenetrationWrapper.obj
 0001:0007ce60       ?GJKRelativePenetration@Gu@physx@@YAIABVCapsuleV@12@0ABVPsMatTransformV@aos@shdfnd@2@ABT__m128@@AAT7@333@Z 1007de60 f   GuGJKPenetrationWrapper.obj
 0001:0007cea0       ?GJKRelativePenetration@Gu@physx@@YAIABVCapsuleV@12@ABVBoxV@12@ABVPsMatTransformV@aos@shdfnd@2@ABT__m128@@AAT8@444@Z 1007dea0 f   GuGJKPenetrationWrapper.obj
 0001:0007cee0       ?GJKRelativePenetration@Gu@physx@@YAIABVCapsuleV@12@ABVConvexHullV@12@ABVPsMatTransformV@aos@shdfnd@2@ABT__m128@@AAT8@444@Z 1007dee0 f   GuGJKPenetrationWrapper.obj
 0001:0007cf20       ?GJKRelativePenetration@Gu@physx@@YAIABVBoxV@12@0ABVPsMatTransformV@aos@shdfnd@2@ABT__m128@@AAT7@333@Z 1007df20 f   GuGJKPenetrationWrapper.obj
 0001:0007cf60       ?GJKRelativePenetration@Gu@physx@@YAIABVBoxV@12@ABVConvexHullV@12@ABVPsMatTransformV@aos@shdfnd@2@ABT__m128@@AAT8@444@Z 1007df60 f   GuGJKPenetrationWrapper.obj
 0001:0007cfa0       ?GJKRelativePenetration@Gu@physx@@YAIABVConvexHullV@12@0ABVPsMatTransformV@aos@shdfnd@2@ABT__m128@@AAT7@333@Z 1007dfa0 f   GuGJKPenetrationWrapper.obj
 0001:0007cfe0       ?GJKRelativePenetration@Gu@physx@@YAIABVShrunkConvexHullV@12@0ABVPsMatTransformV@aos@shdfnd@2@ABT__m128@@AAT7@333@Z 1007dfe0 f   GuGJKPenetrationWrapper.obj
 0001:0007d200       ??$gjkLocalPenetration@VCapsuleV@Gu@physx@@VBoxV@23@@Gu@physx@@YAIABVCapsuleV@01@ABVBoxV@01@ABT__m128@@AAT4@333PIAE4AAE_N@Z 1007e200 f i GuGJKPenetrationWrapper.obj
 0001:0007e500       ??$gjkLocalPenetration@VCapsuleV@Gu@physx@@VConvexHullNoScaleV@23@@Gu@physx@@YAIABVCapsuleV@01@ABVConvexHullNoScaleV@01@ABT__m128@@AAT4@333PIAE4AAE_N@Z 1007f500 f i GuGJKPenetrationWrapper.obj
 0001:0007f800       ??$gjkLocalPenetration@VCapsuleV@Gu@physx@@VConvexHullV@23@@Gu@physx@@YAIABVCapsuleV@01@ABVConvexHullV@01@ABT__m128@@AAT4@333PIAE4AAE_N@Z 10080800 f i GuGJKPenetrationWrapper.obj
 0001:00080b00       ??$gjkLocalPenetration@VCapsuleV@Gu@physx@@VShrunkBoxV@23@@Gu@physx@@YAIABVCapsuleV@01@ABVShrunkBoxV@01@ABT__m128@@AAT4@333PIAE4AAE_N@Z 10081b00 f i GuGJKPenetrationWrapper.obj
 0001:00081e00       ??$gjkLocalPenetration@VCapsuleV@Gu@physx@@VShrunkConvexHullNoScaleV@23@@Gu@physx@@YAIABVCapsuleV@01@ABVShrunkConvexHullNoScaleV@01@ABT__m128@@AAT4@333PIAE4AAE_N@Z 10082e00 f i GuGJKPenetrationWrapper.obj
 0001:00083100       ??$gjkLocalPenetration@VCapsuleV@Gu@physx@@VShrunkConvexHullV@23@@Gu@physx@@YAIABVCapsuleV@01@ABVShrunkConvexHullV@01@ABT__m128@@AAT4@333PIAE4AAE_N@Z 10084100 f i GuGJKPenetrationWrapper.obj
 0001:00084400       ??$gjkLocalPenetration@VTriangleV@Gu@physx@@V123@@Gu@physx@@YAIABVTriangleV@01@0ABT__m128@@AAT3@222PIAE3AAE_N@Z 10085400 f i GuGJKPenetrationWrapper.obj
 0001:00085700       ??$gjkLocalPenetration@VTriangleV@Gu@physx@@VBoxV@23@@Gu@physx@@YAIABVTriangleV@01@ABVBoxV@01@ABT__m128@@AAT4@333PIAE4AAE_N@Z 10086700 f i GuGJKPenetrationWrapper.obj
 0001:00086a00       ??$gjkLocalPenetration@VTriangleV@Gu@physx@@VConvexHullNoScaleV@23@@Gu@physx@@YAIABVTriangleV@01@ABVConvexHullNoScaleV@01@ABT__m128@@AAT4@333PIAE4AAE_N@Z 10087a00 f i GuGJKPenetrationWrapper.obj
 0001:00087d00       ??$gjkLocalPenetration@VTriangleV@Gu@physx@@VConvexHullV@23@@Gu@physx@@YAIABVTriangleV@01@ABVConvexHullV@01@ABT__m128@@AAT4@333PIAE4AAE_N@Z 10088d00 f i GuGJKPenetrationWrapper.obj
 0001:00089000       ??$gjkRelativePenetration@VBoxV@Gu@physx@@V123@@Gu@physx@@YAIABVBoxV@01@0ABVPsMatTransformV@aos@shdfnd@1@ABT__m128@@AAT6@333PIAE4AAE@Z 1008a000 f i GuGJKPenetrationWrapper.obj
 0001:00089ee0       ??$gjkRelativePenetration@VBoxV@Gu@physx@@VConvexHullV@23@@Gu@physx@@YAIABVBoxV@01@ABVConvexHullV@01@ABVPsMatTransformV@aos@shdfnd@1@ABT__m128@@AAT7@444PIAE5AAE@Z 1008aee0 f i GuGJKPenetrationWrapper.obj
 0001:0008adc0       ??$gjkRelativePenetration@VCapsuleV@Gu@physx@@V123@@Gu@physx@@YAIABVCapsuleV@01@0ABVPsMatTransformV@aos@shdfnd@1@ABT__m128@@AAT6@333PIAE4AAE@Z 1008bdc0 f i GuGJKPenetrationWrapper.obj
 0001:0008bca0       ??$gjkRelativePenetration@VCapsuleV@Gu@physx@@VBoxV@23@@Gu@physx@@YAIABVCapsuleV@01@ABVBoxV@01@ABVPsMatTransformV@aos@shdfnd@1@ABT__m128@@AAT7@444PIAE5AAE@Z 1008cca0 f i GuGJKPenetrationWrapper.obj
 0001:0008cb80       ??$gjkRelativePenetration@VCapsuleV@Gu@physx@@VConvexHullV@23@@Gu@physx@@YAIABVCapsuleV@01@ABVConvexHullV@01@ABVPsMatTransformV@aos@shdfnd@1@ABT__m128@@AAT7@444PIAE5AAE@Z 1008db80 f i GuGJKPenetrationWrapper.obj
 0001:0008da60       ??$gjkRelativePenetration@VConvexHullV@Gu@physx@@V123@@Gu@physx@@YAIABVConvexHullV@01@0ABVPsMatTransformV@aos@shdfnd@1@ABT__m128@@AAT6@333PIAE4AAE@Z 1008ea60 f i GuGJKPenetrationWrapper.obj
 0001:0008e940       ??$gjkRelativePenetration@VShrunkBoxV@Gu@physx@@V123@@Gu@physx@@YAIABVShrunkBoxV@01@0ABVPsMatTransformV@aos@shdfnd@1@ABT__m128@@AAT6@333PIAE4AAE@Z 1008f940 f i GuGJKPenetrationWrapper.obj
 0001:0008f820       ??$gjkRelativePenetration@VShrunkBoxV@Gu@physx@@VShrunkConvexHullNoScaleV@23@@Gu@physx@@YAIABVShrunkBoxV@01@ABVShrunkConvexHullNoScaleV@01@ABVPsMatTransformV@aos@shdfnd@1@ABT__m128@@AAT7@444PIAE5AAE@Z 10090820 f i GuGJKPenetrationWrapper.obj
 0001:00090700       ??$gjkRelativePenetration@VShrunkBoxV@Gu@physx@@VShrunkConvexHullV@23@@Gu@physx@@YAIABVShrunkBoxV@01@ABVShrunkConvexHullV@01@ABVPsMatTransformV@aos@shdfnd@1@ABT__m128@@AAT7@444PIAE5AAE@Z 10091700 f i GuGJKPenetrationWrapper.obj
 0001:000915e0       ??$gjkRelativePenetration@VShrunkConvexHullNoScaleV@Gu@physx@@V123@@Gu@physx@@YAIABVShrunkConvexHullNoScaleV@01@0ABVPsMatTransformV@aos@shdfnd@1@ABT__m128@@AAT6@333PIAE4AAE@Z 100925e0 f i GuGJKPenetrationWrapper.obj
 0001:000924c0       ??$gjkRelativePenetration@VShrunkConvexHullNoScaleV@Gu@physx@@VShrunkConvexHullV@23@@Gu@physx@@YAIABVShrunkConvexHullNoScaleV@01@ABVShrunkConvexHullV@01@ABVPsMatTransformV@aos@shdfnd@1@ABT__m128@@AAT7@444PIAE5AAE@Z 100934c0 f i GuGJKPenetrationWrapper.obj
 0001:000933a0       ??$gjkRelativePenetration@VShrunkConvexHullV@Gu@physx@@V123@@Gu@physx@@YAIABVShrunkConvexHullV@01@0ABVPsMatTransformV@aos@shdfnd@1@ABT__m128@@AAT6@333PIAE4AAE@Z 100943a0 f i GuGJKPenetrationWrapper.obj
 0001:00094280       ??$gjkRelativePenetration@VShrunkConvexHullV@Gu@physx@@VShrunkConvexHullNoScaleV@23@@Gu@physx@@YAIABVShrunkConvexHullV@01@ABVShrunkConvexHullNoScaleV@01@ABVPsMatTransformV@aos@shdfnd@1@ABT__m128@@AAT7@444PIAE5AAE@Z 10095280 f i GuGJKPenetrationWrapper.obj
 0001:00095160       ??$gjkRelativePenetration@VTriangleV@Gu@physx@@VBoxV@23@@Gu@physx@@YAIABVTriangleV@01@ABVBoxV@01@ABVPsMatTransformV@aos@shdfnd@1@ABT__m128@@AAT7@444PIAE5AAE@Z 10096160 f i GuGJKPenetrationWrapper.obj
 0001:00096040       ??$gjkRelativePenetration@VTriangleV@Gu@physx@@VCapsuleV@23@@Gu@physx@@YAIABVTriangleV@01@ABVCapsuleV@01@ABVPsMatTransformV@aos@shdfnd@1@ABT__m128@@AAT7@444PIAE5AAE@Z 10097040 f i GuGJKPenetrationWrapper.obj
 0001:00096f20       ??$gjkRelativePenetration@VTriangleV@Gu@physx@@VConvexHullV@23@@Gu@physx@@YAIABVTriangleV@01@ABVConvexHullV@01@ABVPsMatTransformV@aos@shdfnd@1@ABT__m128@@AAT7@444PIAE5AAE@Z 10097f20 f i GuGJKPenetrationWrapper.obj
 0001:00097e00       ?BOr@aos@shdfnd@physx@@YA?AT__m128@@T4@0@Z 10098e00 f i GuGJKPenetrationWrapper.obj
 0001:00097e50       ?FSqrt@aos@shdfnd@physx@@YA?AT__m128@@T4@@Z 10098e50 f i GuGJKPenetrationWrapper.obj
 0001:00097e90       ?GJKCPairDoSimplex@Gu@physx@@YA?AT__m128@@PIAT3@00PIAH1ABT3@AAI@Z 10098e90 f i GuGJKPenetrationWrapper.obj
 0001:00097ff0       ?I4Load@aos@shdfnd@physx@@YA?AT__m128@@H@Z 10098ff0 f i GuGJKPenetrationWrapper.obj
 0001:00098030       ?PxI32_From_VecI32V@aos@shdfnd@physx@@YAXABT__m128@@PAH@Z 10099030 f i GuGJKPenetrationWrapper.obj
 0001:00098050       ?V3Length@aos@shdfnd@physx@@YA?AT__m128@@T4@@Z 10099050 f i GuGJKPenetrationWrapper.obj
 0001:000980b0       ?VecI32V_And@aos@shdfnd@physx@@YA?AT__m128@@ABT4@0@Z 100990b0 f i GuGJKPenetrationWrapper.obj
 0001:00098100       ?VecI32V_From_BoolV@aos@shdfnd@physx@@YA?AT__m128@@ABT4@@Z 10099100 f i GuGJKPenetrationWrapper.obj
 0001:00098110       ?VecI32V_GetX@aos@shdfnd@physx@@YA?AT__m128@@ABT4@@Z 10099110 f i GuGJKPenetrationWrapper.obj
 0001:00098160       ?VecI32V_GetY@aos@shdfnd@physx@@YA?AT__m128@@ABT4@@Z 10099160 f i GuGJKPenetrationWrapper.obj
 0001:000981b0       ?VecI32V_GetZ@aos@shdfnd@physx@@YA?AT__m128@@ABT4@@Z 100991b0 f i GuGJKPenetrationWrapper.obj
 0001:00098200       ?VecI32V_LeftShift@aos@shdfnd@physx@@YA?AT__m128@@ABT4@ABUVecShiftV@123@@Z 10099200 f i GuGJKPenetrationWrapper.obj
 0001:00098280       ?VecI32V_One@aos@shdfnd@physx@@YA?AT__m128@@XZ 10099280 f i GuGJKPenetrationWrapper.obj
 0001:000982c0       ?VecI32V_Or@aos@shdfnd@physx@@YA?AT__m128@@ABT4@0@Z 100992c0 f i GuGJKPenetrationWrapper.obj
 0001:00098310       ?VecI32V_PrepareShift@aos@shdfnd@physx@@YA?AUVecShiftV@123@ABT__m128@@@Z 10099310 f i GuGJKPenetrationWrapper.obj
 0001:000983a0       ?VecI32V_Sel@aos@shdfnd@physx@@YA?AT__m128@@T4@ABT4@1@Z 100993a0 f i GuGJKPenetrationWrapper.obj
 0001:00098410       ?VecI32V_Two@aos@shdfnd@physx@@YA?AT__m128@@XZ 10099410 f i GuGJKPenetrationWrapper.obj
 0001:00098450       ?VecI32V_Zero@aos@shdfnd@physx@@YA?AT__m128@@XZ 10099450 f i GuGJKPenetrationWrapper.obj
 0001:00098490       ?assignWarmStartValue@Gu@physx@@YAXPIAE0AAEPIAH2I@Z 10099490 f i GuGJKPenetrationWrapper.obj
 0001:00098570       ?closestPtPointTriangle@Gu@physx@@YA?AT__m128@@PIAT3@PAT3@1PIAH2AAI@Z 10099570 f i GuGJKPenetrationWrapper.obj
 0001:000989a0       ?getClosestPoint@Gu@physx@@YAXPIBT__m128@@00ABT3@AAT3@2I@Z 100999a0 f i GuGJKPenetrationWrapper.obj
 0001:00098dd0       ?getFacesByVertices8@ConvexHullData@Gu@physx@@QBEPBEXZ 10099dd0 f i GuGJKPenetrationWrapper.obj
 0001:00098e30       ?getIndex@BoxV@Gu@physx@@QBEXT__m128@@AAH@Z 10099e30 f i GuGJKPenetrationWrapper.obj
 0001:000990f0       ?getIndex@CapsuleV@Gu@physx@@QBEXT__m128@@AAH@Z 1009a0f0 f i GuGJKPenetrationWrapper.obj
 0001:00099190       ?getMarginDif@ConvexV@Gu@physx@@QBE?AT__m128@@XZ 1009a190 f i GuGJKPenetrationWrapper.obj
 0001:000991c0       ?intersectPlanes@Gu@physx@@YA?AT__m128@@ABT3@00000@Z 1009a1c0 f i GuGJKPenetrationWrapper.obj
 0001:000992f0       ?planeShift@ShrunkConvexHullNoScaleV@Gu@physx@@QBE?AT__m128@@IABT4@@Z 1009a2f0 f i GuGJKPenetrationWrapper.obj
 0001:00099620       ?planeShift@ShrunkConvexHullV@Gu@physx@@QBE?AT__m128@@IABT4@@Z 1009a620 f i GuGJKPenetrationWrapper.obj
 0001:00099a10       ?supportLocal@BoxV@Gu@physx@@QBE?AT__m128@@ABT4@AAT4@AAH@Z 1009aa10 f i GuGJKPenetrationWrapper.obj
 0001:00099af0       ?supportLocal@CapsuleV@Gu@physx@@QBE?AT__m128@@ABT4@AAH@Z 1009aaf0 f i GuGJKPenetrationWrapper.obj
 0001:00099be0       ?supportLocal@CapsuleV@Gu@physx@@QBE?AT__m128@@ABT4@AAT4@AAH@Z 1009abe0 f i GuGJKPenetrationWrapper.obj
 0001:00099c50       ?supportLocal@ConvexHullNoScaleV@Gu@physx@@QBE?AT__m128@@ABT4@AAT4@AAH@Z 1009ac50 f i GuGJKPenetrationWrapper.obj
 0001:00099cf0       ?supportLocal@ConvexHullV@Gu@physx@@QBE?AT__m128@@ABT4@AAT4@AAH@Z 1009acf0 f i GuGJKPenetrationWrapper.obj
 0001:00099dd0       ?supportLocal@ShrunkBoxV@Gu@physx@@QBE?AT__m128@@ABT4@AAT4@AAH@Z 1009add0 f i GuGJKPenetrationWrapper.obj
 0001:00099ef0       ?supportLocal@ShrunkConvexHullNoScaleV@Gu@physx@@QBE?AT__m128@@ABT4@AAT4@AAH@Z 1009aef0 f i GuGJKPenetrationWrapper.obj
 0001:00099f80       ?supportLocal@ShrunkConvexHullV@Gu@physx@@QBE?AT__m128@@ABT4@AAT4@AAH@Z 1009af80 f i GuGJKPenetrationWrapper.obj
 0001:0009a030       ?supportLocal@TriangleV@Gu@physx@@QBE?AT__m128@@ABT4@AAH@Z 1009b030 f i GuGJKPenetrationWrapper.obj
 0001:0009a2f0       ?supportLocal@TriangleV@Gu@physx@@QBE?AT__m128@@ABT4@AAT4@AAH@Z 1009b2f0 f i GuGJKPenetrationWrapper.obj
 0001:0009a360       ?supportPoint@ShrunkBoxV@Gu@physx@@QBE?AT__m128@@H@Z 1009b360 f i GuGJKPenetrationWrapper.obj
 0001:0009a420       ?supportPoint@ShrunkConvexHullNoScaleV@Gu@physx@@QBE?AT__m128@@H@Z 1009b420 f i GuGJKPenetrationWrapper.obj
 0001:0009a450       ?supportPoint@ShrunkConvexHullV@Gu@physx@@QBE?AT__m128@@H@Z 1009b450 f i GuGJKPenetrationWrapper.obj
 0001:0009a480       ?supportRelative@BoxV@Gu@physx@@QBE?AT__m128@@ABT4@ABVPsMatTransformV@aos@shdfnd@3@AAT4@AAH@Z 1009b480 f i GuGJKPenetrationWrapper.obj
 0001:0009a5a0       ?supportRelative@CapsuleV@Gu@physx@@QBE?AT__m128@@ABT4@ABVPsMatTransformV@aos@shdfnd@3@AAH@Z 1009b5a0 f i GuGJKPenetrationWrapper.obj
 0001:0009a620       ?supportRelative@CapsuleV@Gu@physx@@QBE?AT__m128@@ABT4@ABVPsMatTransformV@aos@shdfnd@3@AAT4@AAH@Z 1009b620 f i GuGJKPenetrationWrapper.obj
 0001:0009a690       ?supportRelative@ConvexHullV@Gu@physx@@QBE?AT__m128@@ABT4@ABVPsMatTransformV@aos@shdfnd@3@AAT4@AAH@Z 1009b690 f i GuGJKPenetrationWrapper.obj
 0001:0009a730       ?supportRelative@ShrunkBoxV@Gu@physx@@QBE?AT__m128@@ABT4@ABVPsMatTransformV@aos@shdfnd@3@AAT4@AAH@Z 1009b730 f i GuGJKPenetrationWrapper.obj
 0001:0009a890       ?supportRelative@ShrunkConvexHullNoScaleV@Gu@physx@@QBE?AT__m128@@ABT4@ABVPsMatTransformV@aos@shdfnd@3@AAT4@AAH@Z 1009b890 f i GuGJKPenetrationWrapper.obj
 0001:0009a930       ?supportRelative@ShrunkConvexHullV@Gu@physx@@QBE?AT__m128@@ABT4@ABVPsMatTransformV@aos@shdfnd@3@AAT4@AAH@Z 1009b930 f i GuGJKPenetrationWrapper.obj
 0001:0009a9d0       ?supportRelative@TriangleV@Gu@physx@@QBE?AT__m128@@ABT4@ABVPsMatTransformV@aos@shdfnd@3@AAT4@AAH@Z 1009b9d0 f i GuGJKPenetrationWrapper.obj
 0001:0009aa60       ?to8@shdfnd@physx@@YAEH@Z  1009ba60 f i GuGJKPenetrationWrapper.obj
 0001:0009ab00       ?closestPtPointTetrahedron@Gu@physx@@YA?AT__m128@@PIAT3@00AAI@Z 1009bb00 f   GuGJKSimplex.obj
 0001:0009af10       ?closestPtPointTetrahedron@Gu@physx@@YA?AT__m128@@PIAT3@00PIAH1AAI@Z 1009bf10 f   GuGJKSimplex.obj
 0001:0009bd00       ?BGetW@aos@shdfnd@physx@@YA?AT__m128@@T4@@Z 1009cd00 f i GuGJKSimplex.obj
 0001:0009bd50       ?BGetX@aos@shdfnd@physx@@YA?AT__m128@@T4@@Z 1009cd50 f i GuGJKSimplex.obj
 0001:0009bda0       ?BGetY@aos@shdfnd@physx@@YA?AT__m128@@T4@@Z 1009cda0 f i GuGJKSimplex.obj
 0001:0009bdf0       ?BGetZ@aos@shdfnd@physx@@YA?AT__m128@@T4@@Z 1009cdf0 f i GuGJKSimplex.obj
 0001:0009be40       ?PointOutsideOfPlane4@Gu@physx@@YA?AT__m128@@ABT3@000@Z 1009ce40 f i GuGJKSimplex.obj
 0001:0009c260       ?V4Merge@aos@shdfnd@physx@@YA?AT__m128@@ABT4@000@Z 1009d260 f i GuGJKSimplex.obj
 0001:0009c2f0       ?closestPtPointSegmentTesselation@Gu@physx@@YA?AT__m128@@ABT3@00000AAIAAT3@2@Z 1009d2f0 f   GuGJKSimplexTesselation.obj
 0001:0009c5e0       ?closestPtPointTetrahedronTesselation@Gu@physx@@YA?AT__m128@@PIAT3@00AAIAAT3@2@Z 1009d5e0 f   GuGJKSimplexTesselation.obj
 0001:0009d0c0       ?closestPtPointTriangleTesselation@Gu@physx@@YA?AT__m128@@PIAT3@00PIAIAAIAAT3@3@Z 1009e0c0 f   GuGJKSimplexTesselation.obj
 0001:0009f410       ?BAllTrue3_R@internalWindowsSimd@aos@shdfnd@physx@@YAIT__m128@@@Z 100a0410 f i GuGJKSimplexTesselation.obj
 0001:0009f470       ?FIsEq@aos@shdfnd@physx@@YA?AT__m128@@T4@0@Z 100a0470 f i GuGJKSimplexTesselation.obj
 0001:0009f4c0       ?V3AllEq@aos@shdfnd@physx@@YAIT__m128@@0@Z 100a04c0 f i GuGJKSimplexTesselation.obj
 0001:0009f520       ?V4IsEq@aos@shdfnd@physx@@YA?AT__m128@@T4@0@Z 100a0520 f i GuGJKSimplexTesselation.obj
 0001:0009f570       ?closestPtPointSegment@Gu@physx@@YA?AT__m128@@ABT3@00000AAIAAT3@2@Z 100a0570 f i GuGJKSimplexTesselation.obj
 0001:0009f8c0       ?closestPtPointSegment@Gu@physx@@YA?AT__m128@@ABT3@0@Z 100a08c0 f i GuGJKSimplexTesselation.obj
 0001:0009fac0       ?GJKRelative@Gu@physx@@YAIABVCapsuleV@12@ABVConvexHullV@12@ABVPsMatTransformV@aos@shdfnd@2@AAT__m128@@333@Z 100a0ac0 f   GuGJKWrapper.obj
 0001:0009faf0       ?GJKRelative@Gu@physx@@YAIABVCapsuleV@12@ABVBoxV@12@ABVPsMatTransformV@aos@shdfnd@2@AAT__m128@@333@Z 100a0af0 f   GuGJKWrapper.obj
 0001:0009fb20       ?GJKRelative@Gu@physx@@YAIABVBoxV@12@0ABVPsMatTransformV@aos@shdfnd@2@AAT__m128@@222@Z 100a0b20 f   GuGJKWrapper.obj
 0001:0009fb50       ?GJKRelative@Gu@physx@@YAIABVBoxV@12@ABVConvexHullV@12@ABVPsMatTransformV@aos@shdfnd@2@AAT__m128@@333@Z 100a0b50 f   GuGJKWrapper.obj
 0001:0009fb80       ?GJKRelative@Gu@physx@@YAIABVConvexHullV@12@0ABVPsMatTransformV@aos@shdfnd@2@AAT__m128@@222@Z 100a0b80 f   GuGJKWrapper.obj
 0001:0009fbb0       ?GJKRelative@Gu@physx@@YAIABVTriangleV@12@ABVBoxV@12@ABVPsMatTransformV@aos@shdfnd@2@AAT__m128@@333@Z 100a0bb0 f   GuGJKWrapper.obj
 0001:0009fbe0       ?GJKRelative@Gu@physx@@YAIABVTriangleV@12@ABVConvexHullV@12@ABVPsMatTransformV@aos@shdfnd@2@AAT__m128@@333@Z 100a0be0 f   GuGJKWrapper.obj
 0001:0009fc10       ?GJKLocal@Gu@physx@@YAIABVCapsuleV@12@ABVConvexHullV@12@AAT__m128@@222@Z 100a0c10 f   GuGJKWrapper.obj
 0001:0009fc40       ?GJKLocal@Gu@physx@@YAIABVTriangleV@12@ABVBoxV@12@AAT__m128@@222@Z 100a0c40 f   GuGJKWrapper.obj
 0001:0009fc70       ?GJKLocal@Gu@physx@@YAIABVTriangleV@12@ABVConvexHullV@12@AAT__m128@@222@Z 100a0c70 f   GuGJKWrapper.obj
 0001:0009fca0       ?GJKRelativeTesselation@Gu@physx@@YAIABVBoxV@12@ABVConvexHullV@12@ABVPsMatTransformV@aos@shdfnd@2@ABT__m128@@AAT8@444@Z 100a0ca0 f   GuGJKWrapper.obj
 0001:0009fcd0       ?GJKRelativeTesselation@Gu@physx@@YAIABVConvexHullV@12@0ABVPsMatTransformV@aos@shdfnd@2@ABT__m128@@AAT7@333@Z 100a0cd0 f   GuGJKWrapper.obj
 0001:0009fd00       ?GJKLocalRayCast@Gu@physx@@YA_NAAVTriangleV@12@AAVCapsuleV@12@ABT__m128@@22AAT5@33M_N@Z 100a0d00 f   GuGJKWrapper.obj
 0001:0009fd40       ?GJKLocalRayCast@Gu@physx@@YA_NAAVTriangleV@12@AAVBoxV@12@ABT__m128@@22AAT5@33M_N@Z 100a0d40 f   GuGJKWrapper.obj
 0001:0009fd80       ?GJKLocalRayCast@Gu@physx@@YA_NAAVTriangleV@12@AAVConvexHullV@12@ABT__m128@@22AAT5@33M_N@Z 100a0d80 f   GuGJKWrapper.obj
 0001:0009fdc0       ?GJKLocalRayCast@Gu@physx@@YA_NAAVCapsuleV@12@AAVBoxV@12@ABT__m128@@22AAT5@33M_N@Z 100a0dc0 f   GuGJKWrapper.obj
 0001:0009fe00       ?GJKLocalRayCast@Gu@physx@@YA_NAAVCapsuleV@12@AAVConvexHullV@12@ABT__m128@@22AAT5@33M_N@Z 100a0e00 f   GuGJKWrapper.obj
 0001:0009fe40       ?GJKRelativeRayCast@Gu@physx@@YA_NAAVTriangleV@12@AAVBoxV@12@ABVPsMatTransformV@aos@shdfnd@2@ABT__m128@@33AAT8@44M_N@Z 100a0e40 f   GuGJKWrapper.obj
 0001:0009fe90       ?GJKRelativeRayCast@Gu@physx@@YA_NAAVTriangleV@12@AAVCapsuleV@12@ABVPsMatTransformV@aos@shdfnd@2@ABT__m128@@33AAT8@44M_N@Z 100a0e90 f   GuGJKWrapper.obj
 0001:0009fee0       ?GJKRelativeRayCast@Gu@physx@@YA_NAAVTriangleV@12@AAVConvexHullV@12@ABVPsMatTransformV@aos@shdfnd@2@ABT__m128@@33AAT8@44M_N@Z 100a0ee0 f   GuGJKWrapper.obj
 0001:0009ff30       ?GJKRelativeRayCast@Gu@physx@@YA_NAAVCapsuleV@12@0ABVPsMatTransformV@aos@shdfnd@2@ABT__m128@@22AAT7@33M_N@Z 100a0f30 f   GuGJKWrapper.obj
 0001:0009ff80       ?GJKRelativeRayCast@Gu@physx@@YA_NAAVCapsuleV@12@AAVBoxV@12@ABVPsMatTransformV@aos@shdfnd@2@ABT__m128@@33AAT8@44M_N@Z 100a0f80 f   GuGJKWrapper.obj
 0001:0009ffd0       ?GJKRelativeRayCast@Gu@physx@@YA_NAAVCapsuleV@12@AAVConvexHullV@12@ABVPsMatTransformV@aos@shdfnd@2@ABT__m128@@33AAT8@44M_N@Z 100a0fd0 f   GuGJKWrapper.obj
 0001:000a0020       ?GJKRelativeRayCast@Gu@physx@@YA_NAAVBoxV@12@0ABVPsMatTransformV@aos@shdfnd@2@ABT__m128@@22AAT7@33M_N@Z 100a1020 f   GuGJKWrapper.obj
 0001:000a0070       ?GJKRelativeRayCast@Gu@physx@@YA_NAAVBoxV@12@AAVConvexHullV@12@ABVPsMatTransformV@aos@shdfnd@2@ABT__m128@@33AAT8@44M_N@Z 100a1070 f   GuGJKWrapper.obj
 0001:000a00c0       ?GJKRelativeRayCast@Gu@physx@@YA_NAAVConvexHullV@12@0ABVPsMatTransformV@aos@shdfnd@2@ABT__m128@@22AAT7@33M_N@Z 100a10c0 f   GuGJKWrapper.obj
 0001:000a02a0       ??$PX_UNUSED@T__m128@@@@YAXABT__m128@@@Z 100a12a0 f i GuGJKWrapper.obj
 0001:000a02b0       ??$_gjkLocalRayCast@VCapsuleV@Gu@physx@@VBoxV@23@@Gu@physx@@YA_NAAVCapsuleV@01@AAVBoxV@01@ABT__m128@@22AAT4@33M@Z 100a12b0 f i GuGJKWrapper.obj
 0001:000a11b0       ??$_gjkLocalRayCast@VCapsuleV@Gu@physx@@VConvexHullV@23@@Gu@physx@@YA_NAAVCapsuleV@01@AAVConvexHullV@01@ABT__m128@@22AAT4@33M@Z 100a21b0 f i GuGJKWrapper.obj
 0001:000a20b0       ??$_gjkLocalRayCast@VTriangleV@Gu@physx@@VBoxV@23@@Gu@physx@@YA_NAAVTriangleV@01@AAVBoxV@01@ABT__m128@@22AAT4@33M@Z 100a30b0 f i GuGJKWrapper.obj
 0001:000a2fb0       ??$_gjkLocalRayCast@VTriangleV@Gu@physx@@VCapsuleV@23@@Gu@physx@@YA_NAAVTriangleV@01@AAVCapsuleV@01@ABT__m128@@22AAT4@33M@Z 100a3fb0 f i GuGJKWrapper.obj
 0001:000a3eb0       ??$_gjkLocalRayCast@VTriangleV@Gu@physx@@VConvexHullV@23@@Gu@physx@@YA_NAAVTriangleV@01@AAVConvexHullV@01@ABT__m128@@22AAT4@33M@Z 100a4eb0 f i GuGJKWrapper.obj
 0001:000a4db0       ??$_gjkRelativeRayCast@VBoxV@Gu@physx@@V123@@Gu@physx@@YA_NAAVBoxV@01@0ABVPsMatTransformV@aos@shdfnd@1@ABT__m128@@22AAT6@33M@Z 100a5db0 f i GuGJKWrapper.obj
 0001:000a5c70       ??$_gjkRelativeRayCast@VBoxV@Gu@physx@@VConvexHullV@23@@Gu@physx@@YA_NAAVBoxV@01@AAVConvexHullV@01@ABVPsMatTransformV@aos@shdfnd@1@ABT__m128@@33AAT7@44M@Z 100a6c70 f i GuGJKWrapper.obj
 0001:000a6b30       ??$_gjkRelativeRayCast@VCapsuleV@Gu@physx@@V123@@Gu@physx@@YA_NAAVCapsuleV@01@0ABVPsMatTransformV@aos@shdfnd@1@ABT__m128@@22AAT6@33M@Z 100a7b30 f i GuGJKWrapper.obj
 0001:000a79f0       ??$_gjkRelativeRayCast@VCapsuleV@Gu@physx@@VBoxV@23@@Gu@physx@@YA_NAAVCapsuleV@01@AAVBoxV@01@ABVPsMatTransformV@aos@shdfnd@1@ABT__m128@@33AAT7@44M@Z 100a89f0 f i GuGJKWrapper.obj
 0001:000a88b0       ??$_gjkRelativeRayCast@VCapsuleV@Gu@physx@@VConvexHullV@23@@Gu@physx@@YA_NAAVCapsuleV@01@AAVConvexHullV@01@ABVPsMatTransformV@aos@shdfnd@1@ABT__m128@@33AAT7@44M@Z 100a98b0 f i GuGJKWrapper.obj
 0001:000a9770       ??$_gjkRelativeRayCast@VConvexHullV@Gu@physx@@V123@@Gu@physx@@YA_NAAVConvexHullV@01@0ABVPsMatTransformV@aos@shdfnd@1@ABT__m128@@22AAT6@33M@Z 100aa770 f i GuGJKWrapper.obj
 0001:000aa630       ??$_gjkRelativeRayCast@VTriangleV@Gu@physx@@VBoxV@23@@Gu@physx@@YA_NAAVTriangleV@01@AAVBoxV@01@ABVPsMatTransformV@aos@shdfnd@1@ABT__m128@@33AAT7@44M@Z 100ab630 f i GuGJKWrapper.obj
 0001:000ab4f0       ??$_gjkRelativeRayCast@VTriangleV@Gu@physx@@VCapsuleV@23@@Gu@physx@@YA_NAAVTriangleV@01@AAVCapsuleV@01@ABVPsMatTransformV@aos@shdfnd@1@ABT__m128@@33AAT7@44M@Z 100ac4f0 f i GuGJKWrapper.obj
 0001:000ac3b0       ??$_gjkRelativeRayCast@VTriangleV@Gu@physx@@VConvexHullV@23@@Gu@physx@@YA_NAAVTriangleV@01@AAVConvexHullV@01@ABVPsMatTransformV@aos@shdfnd@1@ABT__m128@@33AAT7@44M@Z 100ad3b0 f i GuGJKWrapper.obj
 0001:000ad270       ??$gjkLocal@VCapsuleV@Gu@physx@@VConvexHullV@23@@Gu@physx@@YAIABVCapsuleV@01@ABVConvexHullV@01@AAT__m128@@222@Z 100ae270 f i GuGJKWrapper.obj
 0001:000ad9a0       ??$gjkLocal@VTriangleV@Gu@physx@@VBoxV@23@@Gu@physx@@YAIABVTriangleV@01@ABVBoxV@01@AAT__m128@@222@Z 100ae9a0 f i GuGJKWrapper.obj
 0001:000ae0d0       ??$gjkLocal@VTriangleV@Gu@physx@@VConvexHullV@23@@Gu@physx@@YAIABVTriangleV@01@ABVConvexHullV@01@AAT__m128@@222@Z 100af0d0 f i GuGJKWrapper.obj
 0001:000ae800       ??$gjkLocalPenetration@VTriangleV@Gu@physx@@VCapsuleV@23@@Gu@physx@@YAIABVTriangleV@01@ABVCapsuleV@01@ABT__m128@@AAT4@333PIAE4AAE_N@Z 100af800 f i GuGJKWrapper.obj
 0001:000afb00       ??$gjkLocalPenetration@VTriangleV@Gu@physx@@VShrunkBoxV@23@@Gu@physx@@YAIABVTriangleV@01@ABVShrunkBoxV@01@ABT__m128@@AAT4@333PIAE4AAE_N@Z 100b0b00 f i GuGJKWrapper.obj
 0001:000b0e00       ??$gjkLocalPenetration@VTriangleV@Gu@physx@@VShrunkConvexHullV@23@@Gu@physx@@YAIABVTriangleV@01@ABVShrunkConvexHullV@01@ABT__m128@@AAT4@333PIAE4AAE_N@Z 100b1e00 f i GuGJKWrapper.obj
 0001:000b2100       ??$gjkLocalRayCast@VCapsuleV@Gu@physx@@VBoxV@23@V123@VShrunkBoxV@23@@Gu@physx@@YA_NAAVCapsuleV@01@AAVBoxV@01@ABT__m128@@22AAT4@33M_N@Z 100b3100 f i GuGJKWrapper.obj
 0001:000b23c0       ??$gjkLocalRayCast@VCapsuleV@Gu@physx@@VConvexHullV@23@V123@VShrunkConvexHullV@23@@Gu@physx@@YA_NAAVCapsuleV@01@AAVConvexHullV@01@ABT__m128@@22AAT4@33M_N@Z 100b33c0 f i GuGJKWrapper.obj
 0001:000b2680       ??$gjkLocalRayCast@VTriangleV@Gu@physx@@VBoxV@23@V123@VShrunkBoxV@23@@Gu@physx@@YA_NAAVTriangleV@01@AAVBoxV@01@ABT__m128@@22AAT4@33M_N@Z 100b3680 f i GuGJKWrapper.obj
 0001:000b2940       ??$gjkLocalRayCast@VTriangleV@Gu@physx@@VCapsuleV@23@V123@V423@@Gu@physx@@YA_NAAVTriangleV@01@AAVCapsuleV@01@ABT__m128@@22AAT4@33M_N@Z 100b3940 f i GuGJKWrapper.obj
 0001:000b2c00       ??$gjkLocalRayCast@VTriangleV@Gu@physx@@VConvexHullV@23@V123@VShrunkConvexHullV@23@@Gu@physx@@YA_NAAVTriangleV@01@AAVConvexHullV@01@ABT__m128@@22AAT4@33M_N@Z 100b3c00 f i GuGJKWrapper.obj
 0001:000b2ec0       ??$gjkRelative@VBoxV@Gu@physx@@V123@@Gu@physx@@YAIABVBoxV@01@0ABVPsMatTransformV@aos@shdfnd@1@AAT__m128@@222@Z 100b3ec0 f i GuGJKWrapper.obj
 0001:000b3610       ??$gjkRelative@VBoxV@Gu@physx@@VConvexHullV@23@@Gu@physx@@YAIABVBoxV@01@ABVConvexHullV@01@ABVPsMatTransformV@aos@shdfnd@1@AAT__m128@@333@Z 100b4610 f i GuGJKWrapper.obj
 0001:000b3d60       ??$gjkRelative@VCapsuleV@Gu@physx@@VBoxV@23@@Gu@physx@@YAIABVCapsuleV@01@ABVBoxV@01@ABVPsMatTransformV@aos@shdfnd@1@AAT__m128@@333@Z 100b4d60 f i GuGJKWrapper.obj
 0001:000b44b0       ??$gjkRelative@VCapsuleV@Gu@physx@@VConvexHullV@23@@Gu@physx@@YAIABVCapsuleV@01@ABVConvexHullV@01@ABVPsMatTransformV@aos@shdfnd@1@AAT__m128@@333@Z 100b54b0 f i GuGJKWrapper.obj
 0001:000b4c00       ??$gjkRelative@VConvexHullV@Gu@physx@@V123@@Gu@physx@@YAIABVConvexHullV@01@0ABVPsMatTransformV@aos@shdfnd@1@AAT__m128@@222@Z 100b5c00 f i GuGJKWrapper.obj
 0001:000b5350       ??$gjkRelative@VTriangleV@Gu@physx@@VBoxV@23@@Gu@physx@@YAIABVTriangleV@01@ABVBoxV@01@ABVPsMatTransformV@aos@shdfnd@1@AAT__m128@@333@Z 100b6350 f i GuGJKWrapper.obj
 0001:000b5aa0       ??$gjkRelative@VTriangleV@Gu@physx@@VConvexHullV@23@@Gu@physx@@YAIABVTriangleV@01@ABVConvexHullV@01@ABVPsMatTransformV@aos@shdfnd@1@AAT__m128@@333@Z 100b6aa0 f i GuGJKWrapper.obj
 0001:000b61f0       ??$gjkRelativePenetration@VCapsuleV@Gu@physx@@VShrunkBoxV@23@@Gu@physx@@YAIABVCapsuleV@01@ABVShrunkBoxV@01@ABVPsMatTransformV@aos@shdfnd@1@ABT__m128@@AAT7@444PIAE5AAE@Z 100b71f0 f i GuGJKWrapper.obj
 0001:000b70d0       ??$gjkRelativePenetration@VCapsuleV@Gu@physx@@VShrunkConvexHullV@23@@Gu@physx@@YAIABVCapsuleV@01@ABVShrunkConvexHullV@01@ABVPsMatTransformV@aos@shdfnd@1@ABT__m128@@AAT7@444PIAE5AAE@Z 100b80d0 f i GuGJKWrapper.obj
 0001:000b7fb0       ??$gjkRelativePenetration@VTriangleV@Gu@physx@@VShrunkBoxV@23@@Gu@physx@@YAIABVTriangleV@01@ABVShrunkBoxV@01@ABVPsMatTransformV@aos@shdfnd@1@ABT__m128@@AAT7@444PIAE5AAE@Z 100b8fb0 f i GuGJKWrapper.obj
 0001:000b8e90       ??$gjkRelativePenetration@VTriangleV@Gu@physx@@VShrunkConvexHullV@23@@Gu@physx@@YAIABVTriangleV@01@ABVShrunkConvexHullV@01@ABVPsMatTransformV@aos@shdfnd@1@ABT__m128@@AAT7@444PIAE5AAE@Z 100b9e90 f i GuGJKWrapper.obj
 0001:000b9d70       ??$gjkRelativeRayCast@VBoxV@Gu@physx@@V123@VShrunkBoxV@23@V423@@Gu@physx@@YA_NAAVBoxV@01@0ABVPsMatTransformV@aos@shdfnd@1@ABT__m128@@22AAT6@33M_N@Z 100bad70 f i GuGJKWrapper.obj
 0001:000ba030       ??$gjkRelativeRayCast@VBoxV@Gu@physx@@VConvexHullV@23@VShrunkBoxV@23@VShrunkConvexHullV@23@@Gu@physx@@YA_NAAVBoxV@01@AAVConvexHullV@01@ABVPsMatTransformV@aos@shdfnd@1@ABT__m128@@33AAT7@44M_N@Z 100bb030 f i GuGJKWrapper.obj
 0001:000ba2f0       ??$gjkRelativeRayCast@VCapsuleV@Gu@physx@@V123@V123@V123@@Gu@physx@@YA_NAAVCapsuleV@01@0ABVPsMatTransformV@aos@shdfnd@1@ABT__m128@@22AAT6@33M_N@Z 100bb2f0 f i GuGJKWrapper.obj
 0001:000ba5b0       ??$gjkRelativeRayCast@VCapsuleV@Gu@physx@@VBoxV@23@V123@VShrunkBoxV@23@@Gu@physx@@YA_NAAVCapsuleV@01@AAVBoxV@01@ABVPsMatTransformV@aos@shdfnd@1@ABT__m128@@33AAT7@44M_N@Z 100bb5b0 f i GuGJKWrapper.obj
 0001:000ba870       ??$gjkRelativeRayCast@VCapsuleV@Gu@physx@@VConvexHullV@23@V123@VShrunkConvexHullV@23@@Gu@physx@@YA_NAAVCapsuleV@01@AAVConvexHullV@01@ABVPsMatTransformV@aos@shdfnd@1@ABT__m128@@33AAT7@44M_N@Z 100bb870 f i GuGJKWrapper.obj
 0001:000bab30       ??$gjkRelativeRayCast@VConvexHullV@Gu@physx@@V123@VShrunkConvexHullV@23@V423@@Gu@physx@@YA_NAAVConvexHullV@01@0ABVPsMatTransformV@aos@shdfnd@1@ABT__m128@@22AAT6@33M_N@Z 100bbb30 f i GuGJKWrapper.obj
 0001:000badf0       ??$gjkRelativeRayCast@VTriangleV@Gu@physx@@VBoxV@23@V123@VShrunkBoxV@23@@Gu@physx@@YA_NAAVTriangleV@01@AAVBoxV@01@ABVPsMatTransformV@aos@shdfnd@1@ABT__m128@@33AAT7@44M_N@Z 100bbdf0 f i GuGJKWrapper.obj
 0001:000bb0b0       ??$gjkRelativeRayCast@VTriangleV@Gu@physx@@VCapsuleV@23@V123@V423@@Gu@physx@@YA_NAAVTriangleV@01@AAVCapsuleV@01@ABVPsMatTransformV@aos@shdfnd@1@ABT__m128@@33AAT7@44M_N@Z 100bc0b0 f i GuGJKWrapper.obj
 0001:000bb370       ??$gjkRelativeRayCast@VTriangleV@Gu@physx@@VConvexHullV@23@V123@VShrunkConvexHullV@23@@Gu@physx@@YA_NAAVTriangleV@01@AAVConvexHullV@01@ABVPsMatTransformV@aos@shdfnd@1@ABT__m128@@33AAT7@44M_N@Z 100bc370 f i GuGJKWrapper.obj
 0001:000bb630       ??$gjkRelativeTesselation@VBoxV@Gu@physx@@VConvexHullV@23@@Gu@physx@@YAIABVBoxV@01@ABVConvexHullV@01@ABVPsMatTransformV@aos@shdfnd@1@ABT__m128@@AAT7@444@Z 100bc630 f i GuGJKWrapper.obj
 0001:000bb790       ??$gjkRelativeTesselation@VConvexHullV@Gu@physx@@V123@@Gu@physx@@YAIABVConvexHullV@01@0ABVPsMatTransformV@aos@shdfnd@1@ABT__m128@@AAT6@333@Z 100bc790 f i GuGJKWrapper.obj
 0001:000bb8f0       ??0?$EPASupportMapPairLocalImpl@VTriangleV@Gu@physx@@VCapsuleV@23@@Gu@physx@@QAE@ABVTriangleV@12@ABVCapsuleV@12@@Z 100bc8f0 f i GuGJKWrapper.obj
 0001:000bb930       ??0?$EPASupportMapPairRelativeImpl@VCapsuleV@Gu@physx@@V123@@Gu@physx@@QAE@ABVCapsuleV@12@0ABVPsMatTransformV@aos@shdfnd@2@@Z 100bc930 f i GuGJKWrapper.obj
 0001:000bb980       ??0?$EPASupportMapPairRelativeImpl@VCapsuleV@Gu@physx@@VBoxV@23@@Gu@physx@@QAE@ABVCapsuleV@12@ABVBoxV@12@ABVPsMatTransformV@aos@shdfnd@2@@Z 100bc980 f i GuGJKWrapper.obj
 0001:000bb9d0       ??0?$EPASupportMapPairRelativeImpl@VCapsuleV@Gu@physx@@VConvexHullV@23@@Gu@physx@@QAE@ABVCapsuleV@12@ABVConvexHullV@12@ABVPsMatTransformV@aos@shdfnd@2@@Z 100bc9d0 f i GuGJKWrapper.obj
 0001:000bba20       ??0?$EPASupportMapPairRelativeImpl@VTriangleV@Gu@physx@@VBoxV@23@@Gu@physx@@QAE@ABVTriangleV@12@ABVBoxV@12@ABVPsMatTransformV@aos@shdfnd@2@@Z 100bca20 f i GuGJKWrapper.obj
 0001:000bba70       ??0?$EPASupportMapPairRelativeImpl@VTriangleV@Gu@physx@@VCapsuleV@23@@Gu@physx@@QAE@ABVTriangleV@12@ABVCapsuleV@12@ABVPsMatTransformV@aos@shdfnd@2@@Z 100bca70 f i GuGJKWrapper.obj
 0001:000bbac0       ??0?$EPASupportMapPairRelativeImpl@VTriangleV@Gu@physx@@VConvexHullV@23@@Gu@physx@@QAE@ABVTriangleV@12@ABVConvexHullV@12@ABVPsMatTransformV@aos@shdfnd@2@@Z 100bcac0 f i GuGJKWrapper.obj
 0001:000bbb10       ??0?$SupportMapLocalImpl@VConvexHullV@Gu@physx@@@Gu@physx@@QAE@ABVConvexHullV@12@@Z 100bcb10 f i GuGJKWrapper.obj
 0001:000bbb50       ??0?$SupportMapRelativeImpl@VBoxV@Gu@physx@@@Gu@physx@@QAE@ABVBoxV@12@ABVPsMatTransformV@aos@shdfnd@2@@Z 100bcb50 f i GuGJKWrapper.obj
 0001:000bbb90       ??0?$SupportMapRelativeImpl@VConvexHullV@Gu@physx@@@Gu@physx@@QAE@ABVConvexHullV@12@ABVPsMatTransformV@aos@shdfnd@2@@Z 100bcb90 f i GuGJKWrapper.obj
 0001:000bbbd0       ??0SIMDGuard@shdfnd@physx@@QAE@XZ 100bcbd0 f i GuGJKWrapper.obj
 0001:000bbc00       ??0SupportMap@Gu@physx@@QAE@XZ 100bcc00 f i GuGJKWrapper.obj
 0001:000bbc20       ??1?$EPASupportMapPairLocalImpl@VTriangleV@Gu@physx@@VCapsuleV@23@@Gu@physx@@UAE@XZ 100bcc20 f i GuGJKWrapper.obj
 0001:000bbc40       ??1?$EPASupportMapPairRelativeImpl@VCapsuleV@Gu@physx@@V123@@Gu@physx@@UAE@XZ 100bcc40 f i GuGJKWrapper.obj
 0001:000bbc60       ??1?$EPASupportMapPairRelativeImpl@VCapsuleV@Gu@physx@@VBoxV@23@@Gu@physx@@UAE@XZ 100bcc60 f i GuGJKWrapper.obj
 0001:000bbc80       ??1?$EPASupportMapPairRelativeImpl@VCapsuleV@Gu@physx@@VConvexHullV@23@@Gu@physx@@UAE@XZ 100bcc80 f i GuGJKWrapper.obj
 0001:000bbca0       ??1?$EPASupportMapPairRelativeImpl@VTriangleV@Gu@physx@@VBoxV@23@@Gu@physx@@UAE@XZ 100bcca0 f i GuGJKWrapper.obj
 0001:000bbcc0       ??1?$EPASupportMapPairRelativeImpl@VTriangleV@Gu@physx@@VCapsuleV@23@@Gu@physx@@UAE@XZ 100bccc0 f i GuGJKWrapper.obj
 0001:000bbce0       ??1?$EPASupportMapPairRelativeImpl@VTriangleV@Gu@physx@@VConvexHullV@23@@Gu@physx@@UAE@XZ 100bcce0 f i GuGJKWrapper.obj
 0001:000bbd00       ??1?$SupportMapLocalImpl@VConvexHullV@Gu@physx@@@Gu@physx@@UAE@XZ 100bcd00 f i GuGJKWrapper.obj
 0001:000bbd20       ??1?$SupportMapRelativeImpl@VBoxV@Gu@physx@@@Gu@physx@@UAE@XZ 100bcd20 f i GuGJKWrapper.obj
 0001:000bbd40       ??1?$SupportMapRelativeImpl@VConvexHullV@Gu@physx@@@Gu@physx@@UAE@XZ 100bcd40 f i GuGJKWrapper.obj
 0001:000bbd60       ??1SIMDGuard@shdfnd@physx@@QAE@XZ 100bcd60 f i GuGJKWrapper.obj
 0001:000bbd90       ??1SupportMap@Gu@physx@@UAE@XZ 100bcd90 f i GuGJKWrapper.obj
 0001:000bbdb0       ??_E?$EPASupportMapPairLocalImpl@VTriangleV@Gu@physx@@VCapsuleV@23@@Gu@physx@@UAEPAXI@Z 100bcdb0 f i GuGJKWrapper.obj
 0001:000bbdb0       ??_G?$EPASupportMapPairLocalImpl@VTriangleV@Gu@physx@@VCapsuleV@23@@Gu@physx@@UAEPAXI@Z 100bcdb0 f i GuGJKWrapper.obj
 0001:000bbdf0       ??_G?$EPASupportMapPairRelativeImpl@VCapsuleV@Gu@physx@@V123@@Gu@physx@@UAEPAXI@Z 100bcdf0 f i GuGJKWrapper.obj
 0001:000bbdf0       ??_E?$EPASupportMapPairRelativeImpl@VCapsuleV@Gu@physx@@V123@@Gu@physx@@UAEPAXI@Z 100bcdf0 f i GuGJKWrapper.obj
 0001:000bbe30       ??_E?$EPASupportMapPairRelativeImpl@VCapsuleV@Gu@physx@@VBoxV@23@@Gu@physx@@UAEPAXI@Z 100bce30 f i GuGJKWrapper.obj
 0001:000bbe30       ??_G?$EPASupportMapPairRelativeImpl@VCapsuleV@Gu@physx@@VBoxV@23@@Gu@physx@@UAEPAXI@Z 100bce30 f i GuGJKWrapper.obj
 0001:000bbe70       ??_E?$EPASupportMapPairRelativeImpl@VCapsuleV@Gu@physx@@VConvexHullV@23@@Gu@physx@@UAEPAXI@Z 100bce70 f i GuGJKWrapper.obj
 0001:000bbe70       ??_G?$EPASupportMapPairRelativeImpl@VCapsuleV@Gu@physx@@VConvexHullV@23@@Gu@physx@@UAEPAXI@Z 100bce70 f i GuGJKWrapper.obj
 0001:000bbeb0       ??_E?$EPASupportMapPairRelativeImpl@VTriangleV@Gu@physx@@VBoxV@23@@Gu@physx@@UAEPAXI@Z 100bceb0 f i GuGJKWrapper.obj
 0001:000bbeb0       ??_G?$EPASupportMapPairRelativeImpl@VTriangleV@Gu@physx@@VBoxV@23@@Gu@physx@@UAEPAXI@Z 100bceb0 f i GuGJKWrapper.obj
 0001:000bbef0       ??_E?$EPASupportMapPairRelativeImpl@VTriangleV@Gu@physx@@VCapsuleV@23@@Gu@physx@@UAEPAXI@Z 100bcef0 f i GuGJKWrapper.obj
 0001:000bbef0       ??_G?$EPASupportMapPairRelativeImpl@VTriangleV@Gu@physx@@VCapsuleV@23@@Gu@physx@@UAEPAXI@Z 100bcef0 f i GuGJKWrapper.obj
 0001:000bbf30       ??_E?$EPASupportMapPairRelativeImpl@VTriangleV@Gu@physx@@VConvexHullV@23@@Gu@physx@@UAEPAXI@Z 100bcf30 f i GuGJKWrapper.obj
 0001:000bbf30       ??_G?$EPASupportMapPairRelativeImpl@VTriangleV@Gu@physx@@VConvexHullV@23@@Gu@physx@@UAEPAXI@Z 100bcf30 f i GuGJKWrapper.obj
 0001:000bbf70       ??_G?$SupportMapLocalImpl@VConvexHullV@Gu@physx@@@Gu@physx@@UAEPAXI@Z 100bcf70 f i GuGJKWrapper.obj
 0001:000bbf70       ??_E?$SupportMapLocalImpl@VConvexHullV@Gu@physx@@@Gu@physx@@UAEPAXI@Z 100bcf70 f i GuGJKWrapper.obj
 0001:000bbfb0       ??_E?$SupportMapRelativeImpl@VBoxV@Gu@physx@@@Gu@physx@@UAEPAXI@Z 100bcfb0 f i GuGJKWrapper.obj
 0001:000bbfb0       ??_G?$SupportMapRelativeImpl@VBoxV@Gu@physx@@@Gu@physx@@UAEPAXI@Z 100bcfb0 f i GuGJKWrapper.obj
 0001:000bbff0       ??_E?$SupportMapRelativeImpl@VConvexHullV@Gu@physx@@@Gu@physx@@UAEPAXI@Z 100bcff0 f i GuGJKWrapper.obj
 0001:000bbff0       ??_G?$SupportMapRelativeImpl@VConvexHullV@Gu@physx@@@Gu@physx@@UAEPAXI@Z 100bcff0 f i GuGJKWrapper.obj
 0001:000bc030       ??_GSupportMap@Gu@physx@@UAEPAXI@Z 100bd030 f i GuGJKWrapper.obj
 0001:000bc030       ??_ESupportMap@Gu@physx@@UAEPAXI@Z 100bd030 f i GuGJKWrapper.obj
 0001:000bc070       ?FAllEq@aos@shdfnd@physx@@YAIT__m128@@0@Z 100bd070 f i GuGJKWrapper.obj
 0001:000bc0c0       ?doSupport@?$EPASupportMapPairLocalImpl@VTriangleV@Gu@physx@@VCapsuleV@23@@Gu@physx@@UBEXABT__m128@@AAT4@11@Z 100bd0c0 f i GuGJKWrapper.obj
 0001:000bc170       ?doSupport@?$EPASupportMapPairRelativeImpl@VCapsuleV@Gu@physx@@V123@@Gu@physx@@UBEXABT__m128@@AAT4@11@Z 100bd170 f i GuGJKWrapper.obj
 0001:000bc230       ?doSupport@?$EPASupportMapPairRelativeImpl@VCapsuleV@Gu@physx@@VBoxV@23@@Gu@physx@@UBEXABT__m128@@AAT4@11@Z 100bd230 f i GuGJKWrapper.obj
 0001:000bc2f0       ?doSupport@?$EPASupportMapPairRelativeImpl@VCapsuleV@Gu@physx@@VConvexHullV@23@@Gu@physx@@UBEXABT__m128@@AAT4@11@Z 100bd2f0 f i GuGJKWrapper.obj
 0001:000bc3b0       ?doSupport@?$EPASupportMapPairRelativeImpl@VTriangleV@Gu@physx@@VBoxV@23@@Gu@physx@@UBEXABT__m128@@AAT4@11@Z 100bd3b0 f i GuGJKWrapper.obj
 0001:000bc470       ?doSupport@?$EPASupportMapPairRelativeImpl@VTriangleV@Gu@physx@@VCapsuleV@23@@Gu@physx@@UBEXABT__m128@@AAT4@11@Z 100bd470 f i GuGJKWrapper.obj
 0001:000bc530       ?doSupport@?$EPASupportMapPairRelativeImpl@VTriangleV@Gu@physx@@VConvexHullV@23@@Gu@physx@@UBEXABT__m128@@AAT4@11@Z 100bd530 f i GuGJKWrapper.obj
 0001:000bc5f0       ?doSupport@?$SupportMapLocalImpl@VConvexHullV@Gu@physx@@@Gu@physx@@UBE?AT__m128@@ABT4@@Z 100bd5f0 f i GuGJKWrapper.obj
 0001:000bc620       ?doSupport@?$SupportMapRelativeImpl@VBoxV@Gu@physx@@@Gu@physx@@UBE?AT__m128@@ABT4@@Z 100bd620 f i GuGJKWrapper.obj
 0001:000bc660       ?doSupport@?$SupportMapRelativeImpl@VConvexHullV@Gu@physx@@@Gu@physx@@UBE?AT__m128@@ABT4@@Z 100bd660 f i GuGJKWrapper.obj
 0001:000bc6a0       ?doSupportSweep@?$SupportMapLocalImpl@VConvexHullV@Gu@physx@@@Gu@physx@@UBE?AT__m128@@ABT4@@Z 100bd6a0 f i GuGJKWrapper.obj
 0001:000bc6d0       ?doSupportSweep@?$SupportMapRelativeImpl@VBoxV@Gu@physx@@@Gu@physx@@UBE?AT__m128@@ABT4@@Z 100bd6d0 f i GuGJKWrapper.obj
 0001:000bc710       ?doSupportSweep@?$SupportMapRelativeImpl@VConvexHullV@Gu@physx@@@Gu@physx@@UBE?AT__m128@@ABT4@@Z 100bd710 f i GuGJKWrapper.obj
 0001:000bc750       ?doWarmStartSupport@?$EPASupportMapPairLocalImpl@VTriangleV@Gu@physx@@VCapsuleV@23@@Gu@physx@@UBEXHHAAT__m128@@00@Z 100bd750 f i GuGJKWrapper.obj
 0001:000bc7f0       ?doWarmStartSupport@?$EPASupportMapPairRelativeImpl@VCapsuleV@Gu@physx@@V123@@Gu@physx@@UBEXHHAAT__m128@@00@Z 100bd7f0 f i GuGJKWrapper.obj
 0001:000bc8a0       ?doWarmStartSupport@?$EPASupportMapPairRelativeImpl@VCapsuleV@Gu@physx@@VBoxV@23@@Gu@physx@@UBEXHHAAT__m128@@00@Z 100bd8a0 f i GuGJKWrapper.obj
 0001:000bc950       ?doWarmStartSupport@?$EPASupportMapPairRelativeImpl@VCapsuleV@Gu@physx@@VConvexHullV@23@@Gu@physx@@UBEXHHAAT__m128@@00@Z 100bd950 f i GuGJKWrapper.obj
 0001:000bca00       ?doWarmStartSupport@?$EPASupportMapPairRelativeImpl@VTriangleV@Gu@physx@@VBoxV@23@@Gu@physx@@UBEXHHAAT__m128@@00@Z 100bda00 f i GuGJKWrapper.obj
 0001:000bcab0       ?doWarmStartSupport@?$EPASupportMapPairRelativeImpl@VTriangleV@Gu@physx@@VCapsuleV@23@@Gu@physx@@UBEXHHAAT__m128@@00@Z 100bdab0 f i GuGJKWrapper.obj
 0001:000bcb60       ?doWarmStartSupport@?$EPASupportMapPairRelativeImpl@VTriangleV@Gu@physx@@VConvexHullV@23@@Gu@physx@@UBEXHHAAT__m128@@00@Z 100bdb60 f i GuGJKWrapper.obj
 0001:000bcc10       ?doWarmStartSupport@?$SupportMapLocalImpl@VConvexHullV@Gu@physx@@@Gu@physx@@UBEXHAAT__m128@@@Z 100bdc10 f i GuGJKWrapper.obj
 0001:000bcc70       ?doWarmStartSupport@?$SupportMapRelativeImpl@VBoxV@Gu@physx@@@Gu@physx@@UBEXHAAT__m128@@@Z 100bdc70 f i GuGJKWrapper.obj
 0001:000bcce0       ?doWarmStartSupport@?$SupportMapRelativeImpl@VConvexHullV@Gu@physx@@@Gu@physx@@UBEXHAAT__m128@@@Z 100bdce0 f i GuGJKWrapper.obj
 0001:000bcd50       ?getDir@?$EPASupportMapPairLocalImpl@VTriangleV@Gu@physx@@VCapsuleV@23@@Gu@physx@@UBE?AT__m128@@XZ 100bdd50 f i GuGJKWrapper.obj
 0001:000bcdd0       ?getDir@?$EPASupportMapPairRelativeImpl@VCapsuleV@Gu@physx@@V123@@Gu@physx@@UBE?AT__m128@@XZ 100bddd0 f i GuGJKWrapper.obj
 0001:000bce00       ?getDir@?$EPASupportMapPairRelativeImpl@VCapsuleV@Gu@physx@@VBoxV@23@@Gu@physx@@UBE?AT__m128@@XZ 100bde00 f i GuGJKWrapper.obj
 0001:000bce30       ?getDir@?$EPASupportMapPairRelativeImpl@VCapsuleV@Gu@physx@@VConvexHullV@23@@Gu@physx@@UBE?AT__m128@@XZ 100bde30 f i GuGJKWrapper.obj
 0001:000bce60       ?getDir@?$EPASupportMapPairRelativeImpl@VTriangleV@Gu@physx@@VBoxV@23@@Gu@physx@@UBE?AT__m128@@XZ 100bde60 f i GuGJKWrapper.obj
 0001:000bce90       ?getDir@?$EPASupportMapPairRelativeImpl@VTriangleV@Gu@physx@@VCapsuleV@23@@Gu@physx@@UBE?AT__m128@@XZ 100bde90 f i GuGJKWrapper.obj
 0001:000bcec0       ?getDir@?$EPASupportMapPairRelativeImpl@VTriangleV@Gu@physx@@VConvexHullV@23@@Gu@physx@@UBE?AT__m128@@XZ 100bdec0 f i GuGJKWrapper.obj
 0001:000bcef0       ?getSweepContactEps@Gu@physx@@YA?AT__m128@@ABT3@0@Z 100bdef0 f i GuGJKWrapper.obj
 0001:000bcf90       ?getSweepMargin@CapsuleV@Gu@physx@@QBE?AT__m128@@XZ 100bdf90 f i GuGJKWrapper.obj
 0001:000bcfe0       ?getSweepMargin@ConvexV@Gu@physx@@QBE?AT__m128@@XZ 100bdfe0 f i GuGJKWrapper.obj
 0001:000bd010       ?getSweepMargin@TriangleV@Gu@physx@@QBE?AT__m128@@XZ 100be010 f i GuGJKWrapper.obj
 0001:000bd060       ?supportRelative@CapsuleV@Gu@physx@@QBE?AT__m128@@ABT4@ABVPsMatTransformV@aos@shdfnd@3@@Z 100be060 f i GuGJKWrapper.obj
 0001:000bd0d0       ?supportRelative@TriangleV@Gu@physx@@QBE?AT__m128@@ABT4@ABVPsMatTransformV@aos@shdfnd@3@@Z 100be0d0 f i GuGJKWrapper.obj
 0001:000bd140       ?supportSweepLocal@BoxV@Gu@physx@@QBE?AT__m128@@ABT4@@Z 100be140 f i GuGJKWrapper.obj
 0001:000bd170       ?supportSweepLocal@CapsuleV@Gu@physx@@QBE?AT__m128@@ABT4@@Z 100be170 f i GuGJKWrapper.obj
 0001:000bd1a0       ?supportSweepLocal@ConvexHullV@Gu@physx@@QBE?AT__m128@@ABT4@@Z 100be1a0 f i GuGJKWrapper.obj
 0001:000bd1d0       ?supportSweepLocal@TriangleV@Gu@physx@@QBE?AT__m128@@ABT4@@Z 100be1d0 f i GuGJKWrapper.obj
 0001:000bd200       ?supportSweepRelative@BoxV@Gu@physx@@QBE?AT__m128@@ABT4@ABVPsMatTransformV@aos@shdfnd@3@@Z 100be200 f i GuGJKWrapper.obj
 0001:000bd230       ?supportSweepRelative@CapsuleV@Gu@physx@@QBE?AT__m128@@ABT4@ABVPsMatTransformV@aos@shdfnd@3@@Z 100be230 f i GuGJKWrapper.obj
 0001:000bd260       ?supportSweepRelative@ConvexHullV@Gu@physx@@QBE?AT__m128@@ABT4@ABVPsMatTransformV@aos@shdfnd@3@@Z 100be260 f i GuGJKWrapper.obj
 0001:000bd290       ?supportSweepRelative@TriangleV@Gu@physx@@QBE?AT__m128@@ABT4@ABVPsMatTransformV@aos@shdfnd@3@@Z 100be290 f i GuGJKWrapper.obj
 0001:000bd2c0       ?create@BoxV@Gu@physx@@QAEXABVCapsuleV@23@@Z 100be2c0 f   GuVecBox.obj
 0001:000bd400       ?isInside@BoxV@Gu@physx@@QBEIABV123@@Z 100be400 f   GuVecBox.obj
 0001:000bd7e0       ??0BoxV@Gu@physx@@QAE@ABT__m128@@0ABUMat33V@aos@shdfnd@2@0@Z 100be7e0 f i GuVecBox.obj
 0001:000bd840       ??0ConvexV@Gu@physx@@QAE@IABT__m128@@0@Z 100be840 f i GuVecBox.obj
 0001:000bd920       ??0Mat33V@aos@shdfnd@physx@@QAE@ABT__m128@@00@Z 100be920 f i GuVecBox.obj
 0001:000bd970       ??0Mat34V@aos@shdfnd@physx@@QAE@ABT__m128@@000@Z 100be970 f i GuVecBox.obj
 0001:000bd9d0       ?BAllTrue3@aos@shdfnd@physx@@YA?AT__m128@@T4@@Z 100be9d0 f i GuVecBox.obj
 0001:000bda70       ?BAnyTrue3@aos@shdfnd@physx@@YA?AT__m128@@T4@@Z 100bea70 f i GuVecBox.obj
 0001:000bdb10       ?BFTTT@aos@shdfnd@physx@@YA?AT__m128@@XZ 100beb10 f i GuVecBox.obj
 0001:000bdb60       ?FMulAdd@aos@shdfnd@physx@@YA?AT__m128@@T4@00@Z 100beb60 f i GuVecBox.obj
 0001:000bdbc0       ?M33Abs@aos@shdfnd@physx@@YA?AUMat33V@123@ABU4123@@Z 100bebc0 f i GuVecBox.obj
 0001:000bdc40       ?M33Identity@aos@shdfnd@physx@@YA?AUMat33V@123@XZ 100bec40 f i GuVecBox.obj
 0001:000bdcb0       ?M33MulM33@aos@shdfnd@physx@@YA?AUMat33V@123@ABU4123@0@Z 100becb0 f i GuVecBox.obj
 0001:000bdd50       ?M33Trnsps@aos@shdfnd@physx@@YA?AUMat33V@123@ABU4123@@Z 100bed50 f i GuVecBox.obj
 0001:000bdec0       ?M34MulV3@aos@shdfnd@physx@@YA?AT__m128@@ABUMat34V@123@T4@@Z 100beec0 f i GuVecBox.obj
 0001:000be050       ?V3IsGrtrOrEq@aos@shdfnd@physx@@YA?AT__m128@@T4@0@Z 100bf050 f i GuVecBox.obj
 0001:000be0a0       ?V3SetX@aos@shdfnd@physx@@YA?AT__m128@@T4@0@Z 100bf0a0 f i GuVecBox.obj
 0001:000be100       ?V3UnitY@aos@shdfnd@physx@@YA?AT__m128@@XZ 100bf100 f i GuVecBox.obj
 0001:000be190       ?V3UnitZ@aos@shdfnd@physx@@YA?AT__m128@@XZ 100bf190 f i GuVecBox.obj
 0001:000be220       ?Vec3V_From_FloatV_WUndefined@aos@shdfnd@physx@@YA?AT__m128@@T4@@Z 100bf220 f i GuVecBox.obj
 0001:000be280       ?Vec3V_From_Vec4V_WUndefined@aos@shdfnd@physx@@YA?AT__m128@@T4@@Z 100bf280 f i GuVecBox.obj
 0001:000be2c0       ?computeBasis2@@YAXABT__m128@@AAT1@1@Z 100bf2c0 f i GuVecBox.obj
 0001:000be5d0       ?computeDirection@CapsuleV@Gu@physx@@QBE?AT__m128@@XZ 100bf5d0 f i GuVecBox.obj
 0001:000be630       ?rotate@BoxV@Gu@physx@@QBEXABUMat34V@aos@shdfnd@3@AAV123@@Z 100bf630 f i GuVecBox.obj
 0001:000be700       ?intersectOBBOBB@Gu@physx@@YA_NABVPxVec3@2@0ABVPxMat33@2@001_N@Z 100bf700 f   GuIntersectionBoxBox.obj
 0001:000bfab0       ?intersectEdgeEdge@Gu@physx@@YA_NABVPxVec3@2@0000AAMAAV32@@Z 100c0ab0 f   GuIntersectionEdgeEdge.obj
 0001:000bfe90       ?rayAABBIntersect@Gu@physx@@YA_NABVPxVec3@2@000AAV32@@Z 100c0e90 f   GuIntersectionRayBox.obj
 0001:000c01a0       ?rayAABBIntersect2@Gu@physx@@YAIABVPxVec3@2@000AAV32@AAM@Z 100c11a0 f   GuIntersectionRayBox.obj
 0001:000c04e0       ?intersectRayAABB@Gu@physx@@YAHABVPxVec3@2@000AAM1@Z 100c14e0 f   GuIntersectionRayBox.obj
 0001:000c06f0       ?intersectRayAABB@Gu@physx@@YAHABVPxVec3@2@0000AAM1@Z 100c16f0 f   GuIntersectionRayBox.obj
 0001:000c0a10       ?intersectRayAABB2@Gu@physx@@YA_NABVPxVec3@2@000MAAM1@Z 100c1a10 f   GuIntersectionRayBox.obj
 0001:000c0e80       ?intersectRayAABB@Gu@physx@@YAHABT__m128@@000AAT3@1@Z 100c1e80 f   GuIntersectionRayBox.obj
 0001:000c14e0       ?intersectRayAABB@Gu@physx@@YAHABT__m128@@0000AAT3@1@Z 100c24e0 f   GuIntersectionRayBox.obj
 0001:000c1b20       ?intersectRayAABB2@Gu@physx@@YA_NABT__m128@@0000AAT3@1@Z 100c2b20 f   GuIntersectionRayBox.obj
 0001:000c2610       ?FStore@aos@shdfnd@physx@@YAMT__m128@@@Z 100c3610 f i GuIntersectionRayBox.obj
 0001:000c2650       ?V3Min@aos@shdfnd@physx@@YA?AT__m128@@T4@0@Z 100c3650 f i GuIntersectionRayBox.obj
 0001:000c26a0       ?V3One@aos@shdfnd@physx@@YA?AT__m128@@XZ 100c36a0 f i GuIntersectionRayBox.obj
 0001:000c26f0       ?V3Recip@aos@shdfnd@physx@@YA?AT__m128@@T4@@Z 100c36f0 f i GuIntersectionRayBox.obj
 0001:000c27a0       ?V3Sign@aos@shdfnd@physx@@YA?AT__m128@@T4@@Z 100c37a0 f i GuIntersectionRayBox.obj
 0001:000c2860       ?V4LoadA@aos@shdfnd@physx@@YA?AT__m128@@QBM@Z 100c3860 f i GuIntersectionRayBox.obj
 0001:000c28a0       ?recip@intrinsics@physx@@YAMM@Z 100c38a0 f i GuIntersectionRayBox.obj
 0001:000c28d0       ?intersectRayCapsule@Gu@physx@@YAIABVPxVec3@2@0ABVCapsule@12@QAM@Z 100c38d0 f   GuIntersectionRayCapsule.obj
 0001:000c3610       ?computeDirection@Segment@Gu@physx@@QBEXAAVPxVec3@3@@Z 100c4610 f i GuIntersectionRayCapsule.obj
 0001:000c3650       ?intersectRaySphereBasic@Gu@physx@@YA_NABVPxVec3@2@0M0MAAMPAV32@@Z 100c4650 f   GuIntersectionRaySphere.obj
 0001:000c37a0       ?intersectRaySphere@Gu@physx@@YA_NABVPxVec3@2@0M0MAAMPAV32@@Z 100c47a0 f   GuIntersectionRaySphere.obj
 0001:000c3980       ?intersectRayTriangleCulling@Gu@physx@@YA_NABVPxVec3@2@0000AAM11M@Z 100c4980 f   GuIntersectionRayTriangle.obj
 0001:000c3af0       ?intersectRayTriangleNoCulling@Gu@physx@@YA_NABVPxVec3@2@0000AAM11M@Z 100c4af0 f   GuIntersectionRayTriangle.obj
 0001:000c3d20       ??0OBBTriangleTest@Gu@physx@@QAE@ABVBox@12@@Z 100c4d20 f   GuIntersectionTriangleBox.obj
 0001:000c3e40       ?obbTriTest@OBBTriangleTest@Gu@physx@@QBEHABVPxVec3@3@00@Z 100c4e40 f   GuIntersectionTriangleBox.obj
 0001:000c4db0       ?intersectTriangleBox@Gu@physx@@YAHABVPxVec3@2@0000@Z 100c5db0 f   GuIntersectionTriangleBox.obj
 0001:000c58a0       ?intersectTriangleBox@Gu@physx@@YA_NABT__m128@@0000@Z 100c68a0 f   GuIntersectionTriangleBox.obj
 0001:000c7670       ?BTFTT@aos@shdfnd@physx@@YA?AT__m128@@XZ 100c8670 f i GuIntersectionTriangleBox.obj
 0001:000c76c0       ?FOutOfBounds@aos@shdfnd@physx@@YAIT__m128@@00@Z 100c86c0 f i GuIntersectionTriangleBox.obj
 0001:000c77a0       ?FOutOfBounds@aos@shdfnd@physx@@YAIT__m128@@0@Z 100c87a0 f i GuIntersectionTriangleBox.obj
 0001:000c7800       ?M33MulV3AddV3@aos@shdfnd@physx@@YA?AT__m128@@ABUMat33V@123@T4@1@Z 100c8800 f i GuIntersectionTriangleBox.obj
 0001:000c7920       ?V3MulAdd@aos@shdfnd@physx@@YA?AT__m128@@T4@00@Z 100c8920 f i GuIntersectionTriangleBox.obj
 0001:000c7990       ?V3Perm_0Z_Zero_1X@aos@shdfnd@physx@@YA?AT__m128@@T4@0@Z 100c8990 f i GuIntersectionTriangleBox.obj
 0001:000c79e0       ?V3Perm_1Y_0X_Zero@aos@shdfnd@physx@@YA?AT__m128@@T4@0@Z 100c89e0 f i GuIntersectionTriangleBox.obj
 0001:000c7ab0       ?V3Perm_Zero_1Z_0Y@aos@shdfnd@physx@@YA?AT__m128@@T4@0@Z 100c8ab0 f i GuIntersectionTriangleBox.obj
 0001:000c7b00       ?V3SetY@aos@shdfnd@physx@@YA?AT__m128@@T4@0@Z 100c8b00 f i GuIntersectionTriangleBox.obj
 0001:000c7b60       ??0RTreeMidphase@Gu@physx@@QAE@XZ 100c8b60 f   GuHybridModel.obj
 0001:000c7b90       ??1RTreeMidphase@Gu@physx@@QAE@XZ 100c8b90 f   GuHybridModel.obj
 0001:000c7bb0       ?exportExtraData@RTreeMidphase@Gu@physx@@QAEXAAVPxSerializationContext@3@@Z 100c8bb0 f   GuHybridModel.obj
 0001:000c7bd0       ?importExtraData@RTreeMidphase@Gu@physx@@QAEXAAVPxDeserializationContext@3@@Z 100c8bd0 f   GuHybridModel.obj
 0001:000c7c10       ?exportExtraData@InternalTriangleMesh@physx@@QAEXAAVPxSerializationContext@2@@Z 100c8c10 f   GuInternalTriangleMesh.obj
 0001:000c7db0       ?importExtraData@InternalTriangleMesh@physx@@QAEXAAVPxDeserializationContext@2@@Z 100c8db0 f   GuInternalTriangleMesh.obj
 0001:000c7ee0       ??0InternalTriangleMesh@physx@@QAE@XZ 100c8ee0 f   GuInternalTriangleMesh.obj
 0001:000c7ff0       ??1InternalTriangleMesh@physx@@QAE@XZ 100c8ff0 f   GuInternalTriangleMesh.obj
 0001:000c8020       ?release@InternalTriangleMesh@physx@@QAEXXZ 100c9020 f   GuInternalTriangleMesh.obj
 0001:000c8170       ?allocateVertices@InternalTriangleMesh@physx@@QAEPAVPxVec3@2@I@Z 100c9170 f   GuInternalTriangleMesh.obj
 0001:000c8210       ?allocateTriangles@InternalTriangleMesh@physx@@QAEPAXI_N@Z 100c9210 f   GuInternalTriangleMesh.obj
 0001:000c8330       ?allocateMaterials@InternalTriangleMesh@physx@@QAEPAGXZ 100c9330 f   GuInternalTriangleMesh.obj
 0001:000c83e0       ?allocateFaceRemap@InternalTriangleMesh@physx@@QAEPAIXZ 100c93e0 f   GuInternalTriangleMesh.obj
 0001:000c8490       ?allocateAdjacencies@InternalTriangleMesh@physx@@QAEPAIXZ 100c9490 f   GuInternalTriangleMesh.obj
 0001:000c8570       ?loadRTree@InternalTriangleMesh@physx@@QAE_NAAVPxInputStream@2@I@Z 100c9570 f   GuInternalTriangleMesh.obj
 0001:000c8640       ?setupMeshInterface@InternalTriangleMesh@physx@@QAEXXZ 100c9640 f   GuInternalTriangleMesh.obj
 0001:000c8950       ??$?_UG@@YAPAXIV?$ReflectionAllocator@G@shdfnd@physx@@PBDH@Z 100c9950 f i GuInternalTriangleMesh.obj
 0001:000c8970       ??$?_UI@@YAPAXIV?$ReflectionAllocator@I@shdfnd@physx@@PBDH@Z 100c9970 f i GuInternalTriangleMesh.obj
 0001:000c8990       ??$readExtraData@G$0BA@@PxDeserializationContext@physx@@QAEPAGI@Z 100c9990 f i GuInternalTriangleMesh.obj
 0001:000c89c0       ??$readExtraData@G@PxDeserializationContext@physx@@QAEPAGI@Z 100c99c0 f i GuInternalTriangleMesh.obj
 0001:000c8a00       ??$readExtraData@I$0BA@@PxDeserializationContext@physx@@QAEPAII@Z 100c9a00 f i GuInternalTriangleMesh.obj
 0001:000c8a30       ??$readExtraData@I@PxDeserializationContext@physx@@QAEPAII@Z 100c9a30 f i GuInternalTriangleMesh.obj
 0001:000c8a70       ??$readExtraData@VPxVec3@physx@@$0BA@@PxDeserializationContext@physx@@QAEPAVPxVec3@1@I@Z 100c9a70 f i GuInternalTriangleMesh.obj
 0001:000c8aa0       ??$readExtraData@VPxVec3@physx@@@PxDeserializationContext@physx@@QAEPAVPxVec3@1@I@Z 100c9aa0 f i GuInternalTriangleMesh.obj
 0001:000c8ae0       ??0?$ReflectionAllocator@G@shdfnd@physx@@QAE@PBD@Z 100c9ae0 f i GuInternalTriangleMesh.obj
 0001:000c8b00       ??0?$ReflectionAllocator@I@shdfnd@physx@@QAE@PBD@Z 100c9b00 f i GuInternalTriangleMesh.obj
 0001:000c8b20       ??0InternalTriangleMeshData@Gu@physx@@QAE@XZ 100c9b20 f i GuInternalTriangleMesh.obj
 0001:000c8b50       ??1InternalTriangleMeshData@Gu@physx@@QAE@XZ 100c9b50 f i GuInternalTriangleMesh.obj
 0001:000c8b70       ?allocate@?$ReflectionAllocator@G@shdfnd@physx@@QAEPAXIPBDH@Z 100c9b70 f i GuInternalTriangleMesh.obj
 0001:000c8bd0       ?allocate@?$ReflectionAllocator@I@shdfnd@physx@@QAEPAXIPBDH@Z 100c9bd0 f i GuInternalTriangleMesh.obj
 0001:000c8c30       ?getName@?$ReflectionAllocator@G@shdfnd@physx@@CAPBDXZ 100c9c30 f i GuInternalTriangleMesh.obj
 0001:000c8c80       ?getName@?$ReflectionAllocator@I@shdfnd@physx@@CAPBDXZ 100c9c80 f i GuInternalTriangleMesh.obj
 0001:000c8cd0       ??0MeshInterface@Gu@physx@@QAE@XZ 100c9cd0 f   GuMeshInterface.obj
 0001:000c8d10       ??1MeshInterface@Gu@physx@@QAE@XZ 100c9d10 f   GuMeshInterface.obj
 0001:000c8d20       ?SetPointers@MeshInterface@Gu@physx@@QAE_NPBX_NPBVPxVec3@3@@Z 100c9d20 f   GuMeshInterface.obj
 0001:000c8d80       ?IsValid@MeshInterface@Gu@physx@@QBE_NXZ 100c9d80 f   GuMeshInterface.obj
 0001:000c8dc0       ?CheckTopology@MeshInterface@Gu@physx@@QBEIXZ 100c9dc0 f   GuMeshInterface.obj
 0001:000c8ec0       ?getTriangle@PxMeshQuery@physx@@SAXABVPxTriangleMeshGeometry@2@ABVPxTransform@2@IAAVPxTriangle@2@PAI3@Z 100c9ec0 f   GuMeshQuery.obj
 0001:000c8f80       ?getTriangle@PxMeshQuery@physx@@SAXABVPxHeightFieldGeometry@2@ABVPxTransform@2@IAAVPxTriangle@2@PAI3@Z 100c9f80 f   GuMeshQuery.obj
 0001:000c8fc0       ?findOverlapTriangleMesh@PxMeshQuery@physx@@SAIABVPxGeometry@2@ABVPxTransform@2@ABVPxTriangleMeshGeometry@2@1PAIIIAA_N@Z 100c9fc0 f   GuMeshQuery.obj
 0001:000c91c0       ?findOverlapHeightField@PxMeshQuery@physx@@SAIABVPxGeometry@2@ABVPxTransform@2@ABVPxHeightFieldGeometry@2@1PAIIIAA_N@Z 100ca1c0 f   GuMeshQuery.obj
 0001:000c9420       ?sweep@PxMeshQuery@physx@@SA_NABVPxVec3@2@MABVPxGeometry@2@ABVPxTransform@2@IPBVPxTriangle@2@AAUPxSweepHit@2@V?$PxFlags@W4Enum@PxHitFlag@physx@@G@2@PBIM_N@Z 100ca420 f   GuMeshQuery.obj
 0001:000c9ae0       ??0HfTrianglesEntityReport2@?A0x6f1dce09@@QAE@PAIIIAAVHeightFieldUtil@Gu@physx@@ABVPxVec3@4@2ABVPxQuat@4@_N@Z 100caae0 f i GuMeshQuery.obj
 0001:000c9ba0       ??0PxBoxGeometry@physx@@QAE@XZ 100caba0 f i GuMeshQuery.obj
 0001:000c9c00       ??0PxCapsuleGeometry@physx@@QAE@MM@Z 100cac00 f i GuMeshQuery.obj
 0001:000c9c50       ??1HfTrianglesEntityReport2@?A0x6f1dce09@@UAE@XZ 100cac50 f i GuMeshQuery.obj
 0001:000c9c70       ??4PxBoxGeometry@physx@@QAEAAV01@ABV01@@Z 100cac70 f i GuMeshQuery.obj
 0001:000c9cb0       ??Dphysx@@YA?AVMatrix34@Cm@0@ABVPxTransform@0@ABVPxMeshScale@0@@Z 100cacb0 f i GuMeshQuery.obj
 0001:000c9d10       ??_EHfTrianglesEntityReport2@?A0x6f1dce09@@UAEPAXI@Z 100cad10 f i GuMeshQuery.obj
 0001:000c9d10       ??_GHfTrianglesEntityReport2@?A0x6f1dce09@@UAEPAXI@Z 100cad10 f i GuMeshQuery.obj
 0001:000c9d50       ?add@HfTrianglesEntityReport2@?A0x6f1dce09@@QAE_NI@Z 100cad50 f i GuMeshQuery.obj
 0001:000c9de0       ?buildFrom@physx@@YAXAAVBox@Gu@1@ABVPxVec3@1@1ABVPxQuat@1@@Z 100cade0 f i GuMeshQuery.obj
 0001:000c9e30       ?centerExtents@PxBounds3@physx@@SA?AV12@ABVPxVec3@2@0@Z 100cae30 f i GuMeshQuery.obj
 0001:000c9e80       ?computeWorldTriangle@TriangleMesh@Gu@physx@@QBEXAAVPxTriangle@3@IABVMatrix34@Cm@3@PIAI2@Z 100cae80 f i GuMeshQuery.obj
 0001:000ca120       ?getCapsule@Gu@physx@@YAXAAVCapsule@12@ABVPxCapsuleGeometry@2@ABVPxTransform@2@@Z 100cb120 f i GuMeshQuery.obj
 0001:000ca150       ?getCollisionModel@TriangleMesh@Gu@physx@@QBEABVRTreeMidphase@23@XZ 100cb150 f i GuMeshQuery.obj
 0001:000ca170       ?getTrianglesFast@TriangleMesh@Gu@physx@@QBEPBXXZ 100cb170 f i GuMeshQuery.obj
 0001:000ca190       ?getVerticesFast@TriangleMesh@Gu@physx@@QBEPBVPxVec3@3@XZ 100cb190 f i GuMeshQuery.obj
 0001:000ca1b0       ?isUnit@PxQuat@physx@@QBE_NXZ 100cb1b0 f i GuMeshQuery.obj
 0001:000ca240       ?isValid@PxTransform@physx@@QBE_NXZ 100cb240 f i GuMeshQuery.obj
 0001:000ca2b0       ?onEvent@HfTrianglesEntityReport2@?A0x6f1dce09@@UAE_NIPAI@Z 100cb2b0 f i GuMeshQuery.obj
 0001:000ca4b0       ?poseExtent@PxBounds3@physx@@SA?AV12@ABVPxTransform@2@ABVPxVec3@2@@Z 100cb4b0 f i GuMeshQuery.obj
 0001:000ca4f0       ?collideOBB@MeshRayCollider@Gu@physx@@SAXABVBox@23@_NABURTreeMidphaseData@23@AAU?$MeshHitCallback@UPxRaycastHit@physx@@@23@1@Z 100cb4f0 f   GuMidphase.obj
 0001:000ca750       ??$collide@$00$00@MeshRayCollider@Gu@physx@@SAXABVPxVec3@2@0M_NABURTreeMidphaseData@12@AAU?$MeshHitCallback@UPxRaycastHit@physx@@@12@PBV32@@Z 100cb750 f i GuMidphase.obj
 0001:000caa10       ??$collide@$00$0A@@MeshRayCollider@Gu@physx@@SAXABVPxVec3@2@0M_NABURTreeMidphaseData@12@AAU?$MeshHitCallback@UPxRaycastHit@physx@@@12@PBV32@@Z 100cba10 f i GuMidphase.obj
 0001:000cacd0       ??$collide@$0A@$00@MeshRayCollider@Gu@physx@@SAXABVPxVec3@2@0M_NABURTreeMidphaseData@12@AAU?$MeshHitCallback@UPxRaycastHit@physx@@@12@PBV32@@Z 100cbcd0 f i GuMidphase.obj
 0001:000caf90       ??$collide@$0A@$0A@@MeshRayCollider@Gu@physx@@SAXABVPxVec3@2@0M_NABURTreeMidphaseData@12@AAU?$MeshHitCallback@UPxRaycastHit@physx@@@12@PBV32@@Z 100cbf90 f i GuMidphase.obj
 0001:000cb250       ??$memFetchAsync@I@Cm@physx@@YAPAIIIAAUMemFetchSmallBuffer@01@@Z 100cc250 f i GuMidphase.obj
 0001:000cb260       ??0?$PxFlags@W4Enum@PxHitFlag@physx@@G@physx@@QAE@G@Z 100cc260 f i GuMidphase.obj
 0001:000cb280       ??0?$RayRTreeCallback@$00$00@@QAE@ABURTreeMidphaseData@Gu@physx@@AAU?$MeshHitCallback@UPxRaycastHit@physx@@@23@IPAI2ABVPxVec3@3@3M_NPBV53@@Z 100cc280 f i GuMidphase.obj
 0001:000cb4b0       ??0?$RayRTreeCallback@$00$0A@@@QAE@ABURTreeMidphaseData@Gu@physx@@AAU?$MeshHitCallback@UPxRaycastHit@physx@@@23@IPAI2ABVPxVec3@3@3M_NPBV53@@Z 100cc4b0 f i GuMidphase.obj
 0001:000cb6e0       ??0?$RayRTreeCallback@$0A@$00@@QAE@ABURTreeMidphaseData@Gu@physx@@AAU?$MeshHitCallback@UPxRaycastHit@physx@@@23@IPAI2ABVPxVec3@3@3M_NPBV53@@Z 100cc6e0 f i GuMidphase.obj
 0001:000cb910       ??0?$RayRTreeCallback@$0A@$0A@@@QAE@ABURTreeMidphaseData@Gu@physx@@AAU?$MeshHitCallback@UPxRaycastHit@physx@@@23@IPAI2ABVPxVec3@3@3M_NPBV53@@Z 100cc910 f i GuMidphase.obj
 0001:000cbb40       ??0Callback@RTree@Gu@physx@@QAE@XZ 100ccb40 f i GuMidphase.obj
 0001:000cbb60       ??0CallbackRaycast@RTree@Gu@physx@@QAE@XZ 100ccb60 f i GuMidphase.obj
 0001:000cbb80       ??0PxActorShape@physx@@QAE@XZ 100ccb80 f i GuMidphase.obj
 0001:000cbbb0       ??0PxLocationHit@physx@@QAE@XZ 100ccbb0 f i GuMidphase.obj
 0001:000cbc30       ??0PxQueryHit@physx@@QAE@XZ 100ccc30 f i GuMidphase.obj
 0001:000cbc60       ??0PxRaycastHit@physx@@QAE@XZ 100ccc60 f i GuMidphase.obj
 0001:000cbcb0       ??0SimpleRayTriOverlap@@QAE@ABVPxVec3@physx@@0_NM@Z 100cccb0 f i GuMidphase.obj
 0001:000cbd10       ??1?$RayRTreeCallback@$00$00@@UAE@XZ 100ccd10 f i GuMidphase.obj
 0001:000cbe20       ??1?$RayRTreeCallback@$00$0A@@@UAE@XZ 100cce20 f i GuMidphase.obj
 0001:000cbf30       ??1?$RayRTreeCallback@$0A@$00@@UAE@XZ 100ccf30 f i GuMidphase.obj
 0001:000cc040       ??1?$RayRTreeCallback@$0A@$0A@@@UAE@XZ 100cd040 f i GuMidphase.obj
 0001:000cc150       ??1Callback@RTree@Gu@physx@@UAE@XZ 100cd150 f i GuMidphase.obj
 0001:000cc170       ??1CallbackRaycast@RTree@Gu@physx@@UAE@XZ 100cd170 f i GuMidphase.obj
 0001:000cc190       ??4PxLocationHit@physx@@QAEAAU01@ABU01@@Z 100cd190 f i GuMidphase.obj
 0001:000cc220       ??4PxRaycastHit@physx@@QAEAAU01@ABU01@@Z 100cd220 f i GuMidphase.obj
 0001:000cc29f       ??_E?$RayRTreeCallback@$00$00@@W3AEPAXI@Z 100cd29f f i GuMidphase.obj
 0001:000cc2a9       ??_E?$RayRTreeCallback@$00$0A@@@W3AEPAXI@Z 100cd2a9 f i GuMidphase.obj
 0001:000cc2b3       ??_E?$RayRTreeCallback@$0A@$00@@W3AEPAXI@Z 100cd2b3 f i GuMidphase.obj
 0001:000cc2bd       ??_E?$RayRTreeCallback@$0A@$0A@@@W3AEPAXI@Z 100cd2bd f i GuMidphase.obj
 0001:000cc2d0       ??_G?$RayRTreeCallback@$00$00@@UAEPAXI@Z 100cd2d0 f i GuMidphase.obj
 0001:000cc2d0       ??_E?$RayRTreeCallback@$00$00@@UAEPAXI@Z 100cd2d0 f i GuMidphase.obj
 0001:000cc310       ??_G?$RayRTreeCallback@$00$0A@@@UAEPAXI@Z 100cd310 f i GuMidphase.obj
 0001:000cc310       ??_E?$RayRTreeCallback@$00$0A@@@UAEPAXI@Z 100cd310 f i GuMidphase.obj
 0001:000cc350       ??_G?$RayRTreeCallback@$0A@$00@@UAEPAXI@Z 100cd350 f i GuMidphase.obj
 0001:000cc350       ??_E?$RayRTreeCallback@$0A@$00@@UAEPAXI@Z 100cd350 f i GuMidphase.obj
 0001:000cc390       ??_G?$RayRTreeCallback@$0A@$0A@@@UAEPAXI@Z 100cd390 f i GuMidphase.obj
 0001:000cc390       ??_E?$RayRTreeCallback@$0A@$0A@@@UAEPAXI@Z 100cd390 f i GuMidphase.obj
 0001:000cc3d0       ??_ECallback@RTree@Gu@physx@@UAEPAXI@Z 100cd3d0 f i GuMidphase.obj
 0001:000cc3d0       ??_GCallback@RTree@Gu@physx@@UAEPAXI@Z 100cd3d0 f i GuMidphase.obj
 0001:000cc410       ??_GCallbackRaycast@RTree@Gu@physx@@UAEPAXI@Z 100cd410 f i GuMidphase.obj
 0001:000cc410       ??_ECallbackRaycast@RTree@Gu@physx@@UAEPAXI@Z 100cd410 f i GuMidphase.obj
 0001:000cc450       ?GetNbTriangles@LeafTriangles@Gu@physx@@QBEIXZ 100cd450 f i GuMidphase.obj
 0001:000cc470       ?GetTriangleIndex@LeafTriangles@Gu@physx@@QBEIXZ 100cd470 f i GuMidphase.obj
 0001:000cc490       ?LeafGetNbTriangles@Gu@physx@@YAII@Z 100cd490 f i GuMidphase.obj
 0001:000cc4b0       ?LeafGetTriangleIndex@Gu@physx@@YAII@Z 100cd4b0 f i GuMidphase.obj
 0001:000cc4c0       ?getVertIndices@?$RayRTreeCallback@$00$00@@QAEXIAAI00@Z 100cd4c0 f i GuMidphase.obj
 0001:000cc5a0       ?getVertIndices@?$RayRTreeCallback@$00$0A@@@QAEXIAAI00@Z 100cd5a0 f i GuMidphase.obj
 0001:000cc680       ?getVertIndices@?$RayRTreeCallback@$0A@$00@@QAEXIAAI00@Z 100cd680 f i GuMidphase.obj
 0001:000cc760       ?getVertIndices@?$RayRTreeCallback@$0A@$0A@@@QAEXIAAI00@Z 100cd760 f i GuMidphase.obj
 0001:000cc840       ?inAnyMode@?$MeshHitCallback@UPxRaycastHit@physx@@@Gu@physx@@QBE_NXZ 100cd840 f i GuMidphase.obj
 0001:000cc880       ?inClosestMode@?$MeshHitCallback@UPxRaycastHit@physx@@@Gu@physx@@QBE_NXZ 100cd880 f i GuMidphase.obj
 0001:000cc8c0       ?overlap@SimpleRayTriOverlap@@QBEHABVPxVec3@physx@@00AAUPxRaycastHit@3@@Z 100cd8c0 f i GuMidphase.obj
 0001:000ccce0       ?processResults@?$RayRTreeCallback@$00$00@@UAE_NIPAI@Z 100cdce0 f i GuMidphase.obj
 0001:000ccd10       ?processResults@?$RayRTreeCallback@$00$00@@UAE_NIPAIAAM@Z 100cdd10 f i GuMidphase.obj
 0001:000cd440       ?processResults@?$RayRTreeCallback@$00$0A@@@UAE_NIPAI@Z 100ce440 f i GuMidphase.obj
 0001:000cd470       ?processResults@?$RayRTreeCallback@$00$0A@@@UAE_NIPAIAAM@Z 100ce470 f i GuMidphase.obj
 0001:000cdba0       ?processResults@?$RayRTreeCallback@$0A@$00@@UAE_NIPAI@Z 100ceba0 f i GuMidphase.obj
 0001:000cdbd0       ?processResults@?$RayRTreeCallback@$0A@$00@@UAE_NIPAIAAM@Z 100cebd0 f i GuMidphase.obj
 0001:000ce300       ?processResults@?$RayRTreeCallback@$0A@$0A@@@UAE_NIPAI@Z 100cf300 f i GuMidphase.obj
 0001:000ce330       ?processResults@?$RayRTreeCallback@$0A@$0A@@@UAE_NIPAIAAM@Z 100cf330 f i GuMidphase.obj
 0001:000cea50       ?profile@Callback@RTree@Gu@physx@@UAEXXZ 100cfa50 f i GuMidphase.obj
 0001:000cea60       ?findOverlapSphereMesh@Gu@physx@@YAIABVSphere@12@ABVRTreeMidphase@12@ABVPxTransform@2@ABVPxMeshScale@2@PIAIIIAA_N@Z 100cfa60 f   GuOverlapTestsMesh.obj
 0001:000ceab0       ?findOverlapCapsuleMesh@Gu@physx@@YAIABVCapsule@12@ABVRTreeMidphase@12@ABVPxTransform@2@ABVPxMeshScale@2@PIAIIIAA_N@Z 100cfab0 f   GuOverlapTestsMesh.obj
 0001:000ceb00       ?findOverlapOBBMesh@Gu@physx@@YAIABVBox@12@ABVRTreeMidphase@12@ABVPxTransform@2@ABVPxMeshScale@2@PIAIIIAA_N@Z 100cfb00 f   GuOverlapTestsMesh.obj
 0001:000ceb60       ?checkOverlapOBB_triangleGeom@Gu@physx@@YA_NABVPxGeometry@2@ABVPxTransform@2@ABVBox@12@@Z 100cfb60 f   GuOverlapTestsMesh.obj
 0001:000ced10       ?checkOverlapSphere_triangleGeom@@YA_NABVPxGeometry@physx@@ABVPxTransform@2@ABVSphere@Gu@2@@Z 100cfd10 f   GuOverlapTestsMesh.obj
 0001:000ceda0       ?checkOverlapCapsule_triangleGeom@@YA_NABVPxGeometry@physx@@ABVPxTransform@2@ABVCapsule@Gu@2@@Z 100cfda0 f   GuOverlapTestsMesh.obj
 0001:000cee30       ?GeomOverlapCallback_SphereMesh@@YA_NABVPxGeometry@physx@@ABVPxTransform@2@01PAUTriggerCache@Gu@2@@Z 100cfe30 f   GuOverlapTestsMesh.obj
 0001:000cef40       ?GeomOverlapCallback_CapsuleMesh@@YA_NABVPxGeometry@physx@@ABVPxTransform@2@01PAUTriggerCache@Gu@2@@Z 100cff40 f   GuOverlapTestsMesh.obj
 0001:000cf050       ?GeomOverlapCallback_BoxMesh@@YA_NABVPxGeometry@physx@@ABVPxTransform@2@01PAUTriggerCache@Gu@2@@Z 100d0050 f   GuOverlapTestsMesh.obj
 0001:000cf160       ?GeomOverlapCallback_ConvexMesh@@YA_NABVPxGeometry@physx@@ABVPxTransform@2@01PAUTriggerCache@Gu@2@@Z 100d0160 f   GuOverlapTestsMesh.obj
 0001:000d2980       ??$PX_UNUSED@PAUTriggerCache@Gu@physx@@@@YAXABQAUTriggerCache@Gu@physx@@@Z 100d3980 f i GuOverlapTestsMesh.obj
 0001:000d2990       ??0?$IntersectAnyVsMeshCallback@$00$00@@QAE@ABVRTreeMidphase@Gu@physx@@ABVPxMat33@3@PAULimitedResults@@@Z 100d3990 f i GuOverlapTestsMesh.obj
 0001:000d2a10       ??0?$IntersectAnyVsMeshCallback@$00$0A@@@QAE@ABVRTreeMidphase@Gu@physx@@ABVPxMat33@3@PAULimitedResults@@@Z 100d3a10 f i GuOverlapTestsMesh.obj
 0001:000d2a90       ??0?$IntersectAnyVsMeshCallback@$01$00@@QAE@ABVRTreeMidphase@Gu@physx@@ABVPxMat33@3@PAULimitedResults@@@Z 100d3a90 f i GuOverlapTestsMesh.obj
 0001:000d2b10       ??0?$IntersectAnyVsMeshCallback@$01$0A@@@QAE@ABVRTreeMidphase@Gu@physx@@ABVPxMat33@3@PAULimitedResults@@@Z 100d3b10 f i GuOverlapTestsMesh.obj
 0001:000d2b90       ??0?$IntersectAnyVsMeshCallback@$0A@$00@@QAE@ABVRTreeMidphase@Gu@physx@@ABVPxMat33@3@PAULimitedResults@@@Z 100d3b90 f i GuOverlapTestsMesh.obj
 0001:000d2c10       ??0?$IntersectAnyVsMeshCallback@$0A@$0A@@@QAE@ABVRTreeMidphase@Gu@physx@@ABVPxMat33@3@PAULimitedResults@@@Z 100d3c10 f i GuOverlapTestsMesh.obj
 0001:000d2c90       ??0ConvexHullV@Gu@physx@@QAE@PBUConvexHullData@12@ABT__m128@@11@Z 100d3c90 f i GuOverlapTestsMesh.obj
 0001:000d2e70       ??0ConvexHullV@Gu@physx@@QAE@XZ 100d3e70 f i GuOverlapTestsMesh.obj
 0001:000d2eb0       ??0ConvexVsMeshOverlapCallback@@QAE@ABVConvexMesh@Gu@physx@@ABVPxMeshScale@3@ABVFastVertex2ShapeScaling@Cm@3@ABVPxTransform@3@3_NABVBox@23@@Z 100d3eb0 f i GuOverlapTestsMesh.obj
 0001:000d3300       ??0LimitedResults@@QAE@PAIII@Z 100d4300 f i GuOverlapTestsMesh.obj
 0001:000d3340       ??0PsMatTransformV@aos@shdfnd@physx@@QAE@ABT__m128@@ABUMat33V@123@@Z 100d4340 f i GuOverlapTestsMesh.obj
 0001:000d3390       ??0PsMatTransformV@aos@shdfnd@physx@@QAE@ABVPsTransformV@123@@Z 100d4390 f i GuOverlapTestsMesh.obj
 0001:000d3410       ??0PsMatTransformV@aos@shdfnd@physx@@QAE@XZ 100d4410 f i GuOverlapTestsMesh.obj
 0001:000d3490       ??0PsTransformV@aos@shdfnd@physx@@QAE@ABVPxTransform@3@@Z 100d4490 f i GuOverlapTestsMesh.obj
 0001:000d3550       ??1?$IntersectAnyVsMeshCallback@$00$00@@UAE@XZ 100d4550 f i GuOverlapTestsMesh.obj
 0001:000d3580       ??1?$IntersectAnyVsMeshCallback@$00$0A@@@UAE@XZ 100d4580 f i GuOverlapTestsMesh.obj
 0001:000d35b0       ??1?$IntersectAnyVsMeshCallback@$01$00@@UAE@XZ 100d45b0 f i GuOverlapTestsMesh.obj
 0001:000d35e0       ??1?$IntersectAnyVsMeshCallback@$01$0A@@@UAE@XZ 100d45e0 f i GuOverlapTestsMesh.obj
 0001:000d3610       ??1?$IntersectAnyVsMeshCallback@$0A@$00@@UAE@XZ 100d4610 f i GuOverlapTestsMesh.obj
 0001:000d3640       ??1?$IntersectAnyVsMeshCallback@$0A@$0A@@@UAE@XZ 100d4640 f i GuOverlapTestsMesh.obj
 0001:000d3670       ??1ConvexHullV@Gu@physx@@QAE@XZ 100d4670 f i GuOverlapTestsMesh.obj
 0001:000d3690       ??1ConvexVsMeshOverlapCallback@@UAE@XZ 100d4690 f i GuOverlapTestsMesh.obj
 0001:000d36c0       ??DMatrix34@Cm@physx@@QBE?AV012@ABV012@@Z 100d46c0 f i GuOverlapTestsMesh.obj
 0001:000d3760       ??_E?$IntersectAnyVsMeshCallback@$00$00@@UAEPAXI@Z 100d4760 f i GuOverlapTestsMesh.obj
 0001:000d3760       ??_G?$IntersectAnyVsMeshCallback@$00$00@@UAEPAXI@Z 100d4760 f i GuOverlapTestsMesh.obj
 0001:000d37a0       ??_E?$IntersectAnyVsMeshCallback@$00$0A@@@UAEPAXI@Z 100d47a0 f i GuOverlapTestsMesh.obj
 0001:000d37a0       ??_G?$IntersectAnyVsMeshCallback@$00$0A@@@UAEPAXI@Z 100d47a0 f i GuOverlapTestsMesh.obj
 0001:000d37e0       ??_G?$IntersectAnyVsMeshCallback@$01$00@@UAEPAXI@Z 100d47e0 f i GuOverlapTestsMesh.obj
 0001:000d37e0       ??_E?$IntersectAnyVsMeshCallback@$01$00@@UAEPAXI@Z 100d47e0 f i GuOverlapTestsMesh.obj
 0001:000d3820       ??_E?$IntersectAnyVsMeshCallback@$01$0A@@@UAEPAXI@Z 100d4820 f i GuOverlapTestsMesh.obj
 0001:000d3820       ??_G?$IntersectAnyVsMeshCallback@$01$0A@@@UAEPAXI@Z 100d4820 f i GuOverlapTestsMesh.obj
 0001:000d3860       ??_E?$IntersectAnyVsMeshCallback@$0A@$00@@UAEPAXI@Z 100d4860 f i GuOverlapTestsMesh.obj
 0001:000d3860       ??_G?$IntersectAnyVsMeshCallback@$0A@$00@@UAEPAXI@Z 100d4860 f i GuOverlapTestsMesh.obj
 0001:000d38a0       ??_E?$IntersectAnyVsMeshCallback@$0A@$0A@@@UAEPAXI@Z 100d48a0 f i GuOverlapTestsMesh.obj
 0001:000d38a0       ??_G?$IntersectAnyVsMeshCallback@$0A@$0A@@@UAEPAXI@Z 100d48a0 f i GuOverlapTestsMesh.obj
 0001:000d38e0       ??_EConvexVsMeshOverlapCallback@@UAEPAXI@Z 100d48e0 f i GuOverlapTestsMesh.obj
 0001:000d38e0       ??_GConvexVsMeshOverlapCallback@@UAEPAXI@Z 100d48e0 f i GuOverlapTestsMesh.obj
 0001:000d3920       ?CalculateConvexMargin@Gu@physx@@YAXPBUConvexHullData@12@AAT__m128@@1ABT4@@Z 100d4920 f i GuOverlapTestsMesh.obj
 0001:000d3a60       ?CalculateConvexTolerance@Gu@physx@@YA?AT__m128@@PBUConvexHullData@12@ABT3@@Z 100d4a60 f i GuOverlapTestsMesh.obj
 0001:000d3b40       ?ConstructSkewMatrix@Gu@physx@@YAXABT__m128@@0AAUMat33V@aos@shdfnd@2@1@Z 100d4b40 f i GuOverlapTestsMesh.obj
 0001:000d3db0       ?QuatGetMat33V@aos@shdfnd@physx@@YA?AUMat33V@123@ABT__m128@@@Z 100d4db0 f i GuOverlapTestsMesh.obj
 0001:000d42d0       ?QuatVLoadU@aos@shdfnd@physx@@YA?AT__m128@@PBM@Z 100d52d0 f i GuOverlapTestsMesh.obj
 0001:000d4320       ?QuatVLoadXYZW@aos@shdfnd@physx@@YA?AT__m128@@MMMM@Z 100d5320 f i GuOverlapTestsMesh.obj
 0001:000d4370       ?V3LoadU@aos@shdfnd@physx@@YA?AT__m128@@PBM@Z 100d5370 f i GuOverlapTestsMesh.obj
 0001:000d4400       ?V4LoadU@aos@shdfnd@physx@@YA?AT__m128@@QBM@Z 100d5400 f i GuOverlapTestsMesh.obj
 0001:000d4440       ?Vec4VLoadXYZW@aos@shdfnd@physx@@YA?AT__m128@@ABM000@Z 100d5440 f i GuOverlapTestsMesh.obj
 0001:000d44a0       ?abs@PxVec3@physx@@QBE?AV12@XZ 100d54a0 f i GuOverlapTestsMesh.obj
 0001:000d4510       ?add@LimitedResults@@QAE_NI@Z 100d5510 f i GuOverlapTestsMesh.obj
 0001:000d4590       ?computeSweptAABBAroundOBB@Gu@physx@@YAXABVBox@12@AAVPxVec3@2@11AAM@Z 100d5590 f i GuOverlapTestsMesh.obj
 0001:000d4720       ?getInverse@PxTransform@physx@@QBE?AV12@XZ 100d5720 f i GuOverlapTestsMesh.obj
 0001:000d47d0       ?largestAxis@shdfnd@physx@@YAIABVPxVec3@2@AAI1@Z 100d57d0 f i GuOverlapTestsMesh.obj
 0001:000d4890       ?processHit@?$IntersectAnyVsMeshCallback@$00$00@@UAE_NABUPxRaycastHit@physx@@ABVPxVec3@3@11AAMPBI@Z 100d5890 f i GuOverlapTestsMesh.obj
 0001:000d4e20       ?processHit@?$IntersectAnyVsMeshCallback@$00$0A@@@UAE_NABUPxRaycastHit@physx@@ABVPxVec3@3@11AAMPBI@Z 100d5e20 f i GuOverlapTestsMesh.obj
 0001:000d5390       ?processHit@?$IntersectAnyVsMeshCallback@$01$00@@UAE_NABUPxRaycastHit@physx@@ABVPxVec3@3@11AAMPBI@Z 100d6390 f i GuOverlapTestsMesh.obj
 0001:000d58d0       ?processHit@?$IntersectAnyVsMeshCallback@$01$0A@@@UAE_NABUPxRaycastHit@physx@@ABVPxVec3@3@11AAMPBI@Z 100d68d0 f i GuOverlapTestsMesh.obj
 0001:000d5e00       ?processHit@?$IntersectAnyVsMeshCallback@$0A@$00@@UAE_NABUPxRaycastHit@physx@@ABVPxVec3@3@11AAMPBI@Z 100d6e00 f i GuOverlapTestsMesh.obj
 0001:000d6390       ?processHit@?$IntersectAnyVsMeshCallback@$0A@$0A@@@UAE_NABUPxRaycastHit@physx@@ABVPxVec3@3@11AAMPBI@Z 100d7390 f i GuOverlapTestsMesh.obj
 0001:000d6900       ?processHit@ConvexVsMeshOverlapCallback@@UAE_NABUPxRaycastHit@physx@@ABVPxVec3@3@11AAMPBI@Z 100d7900 f i GuOverlapTestsMesh.obj
 0001:000d6d00       ?reset@LimitedResults@@QAEXXZ 100d7d00 f i GuOverlapTestsMesh.obj
 0001:000d6d30       ?transformBoxOrthonormal@physx@@YA?AVBox@Gu@1@ABV231@ABVPxTransform@1@@Z 100d7d30 f i GuOverlapTestsMesh.obj
 0001:000d6e10       ??0RTree@Gu@physx@@QAE@ABW4PxEMPTY@2@@Z 100d7e10 f   GuRTree.obj
 0001:000d6e60       ?exportExtraData@RTree@Gu@physx@@QAEXAAVPxSerializationContext@3@@Z 100d7e60 f   GuRTree.obj
 0001:000d6ea0       ?importExtraData@RTree@Gu@physx@@QAEXAAVPxDeserializationContext@3@@Z 100d7ea0 f   GuRTree.obj
 0001:000d6ed0       ??0RTree@Gu@physx@@QAE@XZ  100d7ed0 f   GuRTree.obj
 0001:000d6f80       ?release@RTree@Gu@physx@@QAEXXZ 100d7f80 f   GuRTree.obj
 0001:000d6fd0       ?save@RTree@Gu@physx@@QBE_NAAVPxOutputStream@3@@Z 100d7fd0 f   GuRTree.obj
 0001:000d7240       ?load@RTree@Gu@physx@@QAE_NAAVPxInputStream@3@I@Z 100d8240 f   GuRTree.obj
 0001:000d7580       ?validate@RTree@Gu@physx@@QAEXXZ 100d8580 f   GuRTree.obj
 0001:000d75f0       ?computeBottomLevelCount@RTree@Gu@physx@@QBEII@Z 100d85f0 f   GuRTree.obj
 0001:000d77b0       ?validateRecursive@RTree@Gu@physx@@IAEXIURTreeNodeQ@23@PAURTreePage@23@@Z 100d87b0 f   GuRTree.obj
 0001:000d7f30       ??$PX_UNUSED@URTreeNodeQ@Gu@physx@@@@YAXABURTreeNodeQ@Gu@physx@@@Z 100d8f30 f i GuRTree.obj
 0001:000d7f40       ??$readExtraData@URTreePage@Gu@physx@@@PxDeserializationContext@physx@@QAEPAURTreePage@Gu@1@I@Z 100d8f40 f i GuRTree.obj
 0001:000d7f80       ??0?$AlignedAllocator@$0IA@VAllocator@shdfnd@physx@@@shdfnd@physx@@QAE@ABVAllocator@12@@Z 100d8f80 f i GuRTree.obj
 0001:000d7fa0       ?WriteDwordBuffer@physx@@YAXPBII_NAAVPxOutputStream@1@@Z 100d8fa0 f i GuRTree.obj
 0001:000d7fd0       ?allocate@?$AlignedAllocator@$0IA@VAllocator@shdfnd@physx@@@shdfnd@physx@@QAEPAXIPBDH@Z 100d8fd0 f i GuRTree.obj
 0001:000d8050       ?computeBounds@RTreePage@Gu@physx@@QAEXAAURTreeNodeQ@23@@Z 100d9050 f i GuRTree.obj
 0001:000d82a0       ?deallocate@?$AlignedAllocator@$0IA@VAllocator@shdfnd@physx@@@shdfnd@physx@@QAEXPAX@Z 100d92a0 f i GuRTree.obj
 0001:000d82f0       ?getNode@RTreePage@Gu@physx@@QBEXIAAURTreeNodeQ@23@@Z 100d92f0 f i GuRTree.obj
 0001:000d83e0       ?isLeaf@RTreeNodeQ@Gu@physx@@QBEIXZ 100d93e0 f i GuRTree.obj
 0001:000d8400       ?littleEndian@shdfnd@physx@@YADXZ 100d9400 f i GuRTree.obj
 0001:000d8420       ?nodeCount@RTreePage@Gu@physx@@QBEIXZ 100d9420 f i GuRTree.obj
 0001:000d8480       ?traverseAABB@RTree@Gu@physx@@QBEXABVPxVec3@3@0IPAIPAUCallback@123@@Z 100d9480 f   GuRTreeQueries.obj
 0001:000d8c00       ?traverseOBB@RTree@Gu@physx@@QBEXABVBox@23@IPAIPAUCallback@123@@Z 100d9c00 f   GuRTreeQueries.obj
 0001:000db210       ??$PX_UNUSED@PAI@@YAXABQAI@Z 100dc210 f i GuRTreeQueries.obj
 0001:000db220       ??$V4SplatElement@$00@aos@shdfnd@physx@@YA?AT__m128@@T3@@Z 100dc220 f i GuRTreeQueries.obj
 0001:000db290       ??$V4SplatElement@$01@aos@shdfnd@physx@@YA?AT__m128@@T3@@Z 100dc290 f i GuRTreeQueries.obj
 0001:000db300       ??$V4SplatElement@$0A@@aos@shdfnd@physx@@YA?AT__m128@@T3@@Z 100dc300 f i GuRTreeQueries.obj
 0001:000db370       ??$traverseRay@$00@RTree@Gu@physx@@QBEXABVPxVec3@2@0IPAIPAUCallbackRaycast@012@PBV32@M@Z 100dc370 f i GuRTreeQueries.obj
 0001:000dc370       ??$traverseRay@$0A@@RTree@Gu@physx@@QBEXABVPxVec3@2@0IPAIPAUCallbackRaycast@012@PBV32@M@Z 100dd370 f i GuRTreeQueries.obj
 0001:000dd370       ?U4Load@aos@shdfnd@physx@@YA?AT__m128@@I@Z 100de370 f i GuRTreeQueries.obj
 0001:000dd3b0       ?U4StoreA@aos@shdfnd@physx@@YAXT__m128@@PAI@Z 100de3b0 f i GuRTreeQueries.obj
 0001:000dd3f0       ?V4Andc@aos@shdfnd@physx@@YA?AT__m128@@T4@0@Z 100de3f0 f i GuRTreeQueries.obj
 0001:000dd460       ?V4IsGrtrV32u@aos@shdfnd@physx@@YA?AT__m128@@T4@0@Z 100de460 f i GuRTreeQueries.obj
 0001:000dd4b0       ?V4NegMulSub@aos@shdfnd@physx@@YA?AT__m128@@T4@00@Z 100de4b0 f i GuRTreeQueries.obj
 0001:000dd520       ?V4RecipFast@aos@shdfnd@physx@@YA?AT__m128@@T4@@Z 100de520 f i GuRTreeQueries.obj
 0001:000dd560       ?V4U32Andc@aos@shdfnd@physx@@YA?AT__m128@@T4@0@Z 100de560 f i GuRTreeQueries.obj
 0001:000dd5e0       ?V4U32StoreAligned@aos@shdfnd@physx@@YAXT__m128@@PAT4@@Z 100de5e0 f i GuRTreeQueries.obj
 0001:000dd620       ?V4U32and@aos@shdfnd@physx@@YA?AT__m128@@T4@0@Z 100de620 f i GuRTreeQueries.obj
 0001:000dd6a0       ?V4U32or@aos@shdfnd@physx@@YA?AT__m128@@T4@0@Z 100de6a0 f i GuRTreeQueries.obj
 0001:000dd720       ?Vec4V_From_PxVec3_WUndefined@aos@shdfnd@physx@@YA?AT__m128@@ABVPxVec3@3@@Z 100de720 f i GuRTreeQueries.obj
 0001:000dd790       ?Vec4V_ReinterpretFrom_VecU32V@aos@shdfnd@physx@@YA?AT__m128@@T4@@Z 100de790 f i GuRTreeQueries.obj
 0001:000dd7d0       ?VecU32VLoadXYZW@aos@shdfnd@physx@@YA?AT__m128@@IIII@Z 100de7d0 f i GuRTreeQueries.obj
 0001:000dd850       ?VecU32V_From_BoolV@aos@shdfnd@physx@@YA?AT__m128@@ABT4@@Z 100de850 f i GuRTreeQueries.obj
 0001:000dd860       ?VecU32V_ReinterpretFrom_Vec4V@aos@shdfnd@physx@@YA?AT__m128@@T4@@Z 100de860 f i GuRTreeQueries.obj
 0001:000dd8a0       ?isLeaf@RTreePage@Gu@physx@@QBEII@Z 100de8a0 f i GuRTreeQueries.obj
 0001:000dddf0       ?sweepCapsule_MeshGeom@@YA_NABVPxGeometry@physx@@ABVPxTransform@2@ABVCapsule@Gu@2@ABVPxVec3@2@MAAUPxSweepHit@2@V?$PxFlags@W4Enum@PxHitFlag@physx@@G@2@M@Z 100dedf0 f   GuSweepsMesh.obj
 0001:000de2f0       ?sweepBox_MeshGeom@@YA_NABVPxGeometry@physx@@ABVPxTransform@2@ABVBox@Gu@2@ABVPxVec3@2@MAAUPxSweepHit@2@V?$PxFlags@W4Enum@PxHitFlag@physx@@G@2@M@Z 100df2f0 f   GuSweepsMesh.obj
 0001:000decf0       ?sweepConvex_MeshGeom@@YA_NABVPxGeometry@physx@@ABVPxTransform@2@ABVPxConvexMeshGeometry@2@1ABVPxVec3@2@MAAUPxSweepHit@2@V?$PxFlags@W4Enum@PxHitFlag@physx@@G@2@M@Z 100dfcf0 f   GuSweepsMesh.obj
 0001:000df8a0       ??0?$PxFlags@W4Enum@PxMeshGeometryFlag@physx@@E@physx@@QAE@ABV01@@Z 100e08a0 f i GuSweepsMesh.obj
 0001:000df8c0       ??0BoxV@Gu@physx@@QAE@ABT__m128@@0@Z 100e08c0 f i GuSweepsMesh.obj
 0001:000df930       ??0CapsuleV@Gu@physx@@QAE@XZ 100e0930 f i GuSweepsMesh.obj
 0001:000df990       ??0ConvexVsMeshSweepCallback@@QAE@ABUConvexHullData@Gu@physx@@ABVPxMeshScale@3@ABVFastVertex2ShapeScaling@Cm@3@ABVPxTransform@3@3ABVPxVec3@3@MV?$PxFlags@W4Enum@PxHitFlag@physx@@G@3@_NM6@Z 100e0990 f i GuSweepsMesh.obj
 0001:000dfdc0       ??0FastVertex2ShapeScaling@Cm@physx@@QAE@ABVPxMeshScale@2@@Z 100e0dc0 f i GuSweepsMesh.obj
 0001:000dfe00       ??0Matrix34Padded@@QAE@ABVMatrix34@Cm@physx@@@Z 100e0e00 f i GuSweepsMesh.obj
 0001:000dfe30       ??0PsTransformV@aos@shdfnd@physx@@QAE@ABT__m128@@0@Z 100e0e30 f i GuSweepsMesh.obj
 0001:000dfec0       ??0PxMeshScale@physx@@QAE@ABVPxVec3@1@ABVPxQuat@1@@Z 100e0ec0 f i GuSweepsMesh.obj
 0001:000dff60       ??0PxSweepHit@physx@@QAE@XZ 100e0f60 f i GuSweepsMesh.obj
 0001:000dff80       ??0SweepBoxMeshHitCallback@@QAE@W4Enum@CallbackMode@Gu@physx@@ABVMatrix34Padded@@M_NABVBox@34@ABVPxVec3@4@44ABV?$PxFlags@W4Enum@PxHitFlag@physx@@G@4@M@Z 100e0f80 f i GuSweepsMesh.obj
 0001:000e0230       ??0SweepCapsuleCallback@@QAE@AAUPxSweepHit@physx@@ABVMatrix34@Cm@2@M_NABVCapsule@Gu@2@ABVPxVec3@2@ABV?$PxFlags@W4Enum@PxHitFlag@physx@@G@2@@Z 100e1230 f i GuSweepsMesh.obj
 0001:000e0330       ??1CapsuleV@Gu@physx@@QAE@XZ 100e1330 f i GuSweepsMesh.obj
 0001:000e0350       ??1ConvexVsMeshSweepCallback@@UAE@XZ 100e1350 f i GuSweepsMesh.obj
 0001:000e0380       ??1Matrix34Padded@@QAE@XZ  100e1380 f i GuSweepsMesh.obj
 0001:000e0390       ??1SweepBoxMeshHitCallback@@UAE@XZ 100e1390 f i GuSweepsMesh.obj
 0001:000e03c0       ??1SweepCapsuleCallback@@UAE@XZ 100e13c0 f i GuSweepsMesh.obj
 0001:000e03e0       ??4PxSweepHit@physx@@QAEAAU01@ABU01@@Z 100e13e0 f i GuSweepsMesh.obj
 0001:000e0420       ??B?$PxFlags@W4Enum@PxMeshGeometryFlag@physx@@E@physx@@QBE_NXZ 100e1420 f i GuSweepsMesh.obj
 0001:000e0450       ??I?$PxFlags@W4Enum@PxMeshGeometryFlag@physx@@E@physx@@QBE?AV01@W4Enum@PxMeshGeometryFlag@1@@Z 100e1450 f i GuSweepsMesh.obj
 0001:000e04a0       ??_EConvexVsMeshSweepCallback@@UAEPAXI@Z 100e14a0 f i GuSweepsMesh.obj
 0001:000e04a0       ??_GConvexVsMeshSweepCallback@@UAEPAXI@Z 100e14a0 f i GuSweepsMesh.obj
 0001:000e04e0       ??_GSweepBoxMeshHitCallback@@UAEPAXI@Z 100e14e0 f i GuSweepsMesh.obj
 0001:000e04e0       ??_ESweepBoxMeshHitCallback@@UAEPAXI@Z 100e14e0 f i GuSweepsMesh.obj
 0001:000e0520       ??_GSweepCapsuleCallback@@UAEPAXI@Z 100e1520 f i GuSweepsMesh.obj
 0001:000e0520       ??_ESweepCapsuleCallback@@UAEPAXI@Z 100e1520 f i GuSweepsMesh.obj
 0001:000e0560       ?QuatConjugate@aos@shdfnd@physx@@YA?AT__m128@@T4@@Z 100e1560 f i GuSweepsMesh.obj
 0001:000e05d0       ?QuatIdentity@aos@shdfnd@physx@@YA?AT__m128@@XZ 100e15d0 f i GuSweepsMesh.obj
 0001:000e0630       ?QuatLength@aos@shdfnd@physx@@YA?AT__m128@@T4@@Z 100e1630 f i GuSweepsMesh.obj
 0001:000e0680       ?QuatMul@aos@shdfnd@physx@@YA?AT__m128@@T4@0@Z 100e1680 f i GuSweepsMesh.obj
 0001:000e08b0       ?QuatRotateInv@aos@shdfnd@physx@@YA?AT__m128@@T4@0@Z 100e18b0 f i GuSweepsMesh.obj
 0001:000e0a90       ?QuatTransform@aos@shdfnd@physx@@YA?AT__m128@@T4@00@Z 100e1a90 f i GuSweepsMesh.obj
 0001:000e0ca0       ?V4Dot@aos@shdfnd@physx@@YA?AT__m128@@T4@0@Z 100e1ca0 f i GuSweepsMesh.obj
 0001:000e0da0       ?V4Length@aos@shdfnd@physx@@YA?AT__m128@@T4@@Z 100e1da0 f i GuSweepsMesh.obj
 0001:000e0e00       ?V4Scale@aos@shdfnd@physx@@YA?AT__m128@@T4@0@Z 100e1e00 f i GuSweepsMesh.obj
 0001:000e0e50       ?V4ScaleAdd@aos@shdfnd@physx@@YA?AT__m128@@T4@00@Z 100e1e50 f i GuSweepsMesh.obj
 0001:000e0ec0       ?V4StoreA@aos@shdfnd@physx@@YAXT__m128@@PAM@Z 100e1ec0 f i GuSweepsMesh.obj
 0001:000e0f00       ?finalize@SweepCapsuleCallback@@QAE_NAAUPxSweepHit@physx@@ABVCapsule@Gu@3@ABVPxTriangleMeshGeometry@3@ABVPxTransform@3@_NM@Z 100e1f00 f i GuSweepsMesh.obj
 0001:000e11b0       ?getHull@ConvexMesh@Gu@physx@@QAEAAUConvexHullData@23@XZ 100e21b0 f i GuSweepsMesh.obj
 0001:000e11d0       ?getInverse@PxMeshScale@physx@@QBE?AV12@XZ 100e21d0 f i GuSweepsMesh.obj
 0001:000e1260       ?initialize@CapsuleV@Gu@physx@@QAEXABT__m128@@00@Z 100e2260 f i GuSweepsMesh.obj
 0001:000e1330       ?initialize@ConvexHullV@Gu@physx@@QAEXPBUConvexHullData@23@ABT__m128@@11@Z 100e2330 f i GuSweepsMesh.obj
 0001:000e1470       ?isFinite@PsTransformV@aos@shdfnd@physx@@QBE_NXZ 100e2470 f i GuSweepsMesh.obj
 0001:000e14b0       ?isFiniteQuatV@aos@shdfnd@physx@@YA_NT__m128@@@Z 100e24b0 f i GuSweepsMesh.obj
 0001:000e14f0       ?isFiniteVec3V@aos@shdfnd@physx@@YA_NT__m128@@@Z 100e24f0 f i GuSweepsMesh.obj
 0001:000e15d0       ?isFiniteVec4V@aos@shdfnd@physx@@YA_NT__m128@@@Z 100e25d0 f i GuSweepsMesh.obj
 0001:000e16e0       ?isSane@PsTransformV@aos@shdfnd@physx@@QBE_NXZ 100e26e0 f i GuSweepsMesh.obj
 0001:000e1720       ?isSaneQuatV@aos@shdfnd@physx@@YA_NT__m128@@@Z 100e2720 f i GuSweepsMesh.obj
 0001:000e1850       ?isSet@?$PxFlags@W4Enum@PxHitFlag@physx@@G@physx@@QBE_NW4Enum@PxHitFlag@2@@Z 100e2850 f i GuSweepsMesh.obj
 0001:000e18a0       ?normalizeSafe@PxVec3@physx@@QAEMXZ 100e28a0 f i GuSweepsMesh.obj
 0001:000e1900       ?processHit@ConvexVsMeshSweepCallback@@UAE_NABUPxRaycastHit@physx@@ABVPxVec3@3@11AAMPBI@Z 100e2900 f i GuSweepsMesh.obj
 0001:000e1ab0       ?processHit@SweepBoxMeshHitCallback@@UAE_NABUPxRaycastHit@physx@@ABVPxVec3@3@11AAMPBI@Z 100e2ab0 f i GuSweepsMesh.obj
 0001:000e2210       ?processHit@SweepCapsuleCallback@@UAE_NABUPxRaycastHit@physx@@ABVPxVec3@3@11AAMPBI@Z 100e3210 f i GuSweepsMesh.obj
 0001:000e2600       ?rotate@PsTransformV@aos@shdfnd@physx@@QBE?AT__m128@@ABT5@@Z 100e3600 f i GuSweepsMesh.obj
 0001:000e26b0       ?rotateInv@PsTransformV@aos@shdfnd@physx@@QBE?AT__m128@@ABT5@@Z 100e36b0 f i GuSweepsMesh.obj
 0001:000e2760       ?rotateInv@PxTransform@physx@@QBE?AVPxVec3@2@ABV32@@Z 100e3760 f i GuSweepsMesh.obj
 0001:000e27e0       ?transform@PsTransformV@aos@shdfnd@physx@@QBE?AT__m128@@ABT5@@Z 100e37e0 f i GuSweepsMesh.obj
 0001:000e28a0       ?transformBounds@FastVertex2ShapeScaling@Cm@physx@@QBE?AVPxBounds3@3@ABV43@@Z 100e38a0 f i GuSweepsMesh.obj
 0001:000e2930       ?transformInv@PsTransformV@aos@shdfnd@physx@@QBE?AV1234@ABV1234@@Z 100e3930 f i GuSweepsMesh.obj
 0001:000e2aa0       ?onRefCountZero@TriangleMesh@Gu@physx@@UAEXXZ 100e3aa0 f   GuTriangleMesh.obj
 0001:000e2b20       ?exportExtraData@TriangleMesh@Gu@physx@@UAEXAAVPxSerializationContext@3@@Z 100e3b20 f   GuTriangleMesh.obj
 0001:000e2b40       ?importExtraData@TriangleMesh@Gu@physx@@QAEXAAVPxDeserializationContext@3@@Z 100e3b40 f   GuTriangleMesh.obj
 0001:000e2b60       ?createObject@TriangleMesh@Gu@physx@@SAPAV123@AAPAEAAVPxDeserializationContext@3@@Z 100e3b60 f   GuTriangleMesh.obj
 0001:000e2be0       ??0TriangleMesh@Gu@physx@@QAE@XZ 100e3be0 f   GuTriangleMesh.obj
 0001:000e2c50       ?load@TriangleMesh@Gu@physx@@QAE_NAAVPxInputStream@3@@Z 100e3c50 f   GuTriangleMesh.obj
 0001:000e3310       ?setupMeshInterface@TriangleMesh@Gu@physx@@QAEXXZ 100e4310 f   GuTriangleMesh.obj
 0001:000e3340       ?checkMeshIndicesSize@TriangleMesh@Gu@physx@@QAEXXZ 100e4340 f   GuTriangleMesh.obj
 0001:000e3450       ?release@TriangleMesh@Gu@physx@@UAEXXZ 100e4450 f   GuTriangleMesh.obj
 0001:000e34a0       ?getReferenceCount@TriangleMesh@Gu@physx@@UBEIXZ 100e44a0 f   GuTriangleMesh.obj
 0001:000e34c0       ??1TriangleMesh@Gu@physx@@UAE@XZ 100e44c0 f   GuTriangleMesh.obj
 0001:000e3510       ?debugVisualize@TriangleMesh@Gu@physx@@QBEXAAVRenderOutput@Cm@3@ABVMatrix34@53@ABVPxMeshScale@3@ABVPxBounds3@3@_KMI@Z 100e4510 f   GuTriangleMesh.obj
 0001:000e4c00       ??$?_UE@@YAPAXIV?$ReflectionAllocator@E@shdfnd@physx@@PBDH@Z 100e5c00 f i GuTriangleMesh.obj
 0001:000e4c20       ??$deletePxBase@VTriangleMesh@Gu@physx@@@Cm@physx@@YAXPAVTriangleMesh@Gu@1@@Z 100e5c20 f i GuTriangleMesh.obj
 0001:000e4cb0       ??0?$ReflectionAllocator@E@shdfnd@physx@@QAE@PBD@Z 100e5cb0 f i GuTriangleMesh.obj
 0001:000e4cd0       ??0PxTransform@physx@@QAE@XZ 100e5cd0 f i GuTriangleMesh.obj
 0001:000e4d00       ??0PxTriangleMesh@physx@@IAE@GV?$PxFlags@W4Enum@PxBaseFlag@physx@@G@1@@Z 100e5d00 f i GuTriangleMesh.obj
 0001:000e4d40       ??4PxDebugLine@physx@@QAEAAU01@ABU01@@Z 100e5d40 f i GuTriangleMesh.obj
 0001:000e4da0       ?allocate@?$ReflectionAllocator@E@shdfnd@physx@@QAEPAXIPBDH@Z 100e5da0 f i GuTriangleMesh.obj
 0001:000e4e00       ?empty@PxBounds3@physx@@SA?AV12@XZ 100e5e00 f i GuTriangleMesh.obj
 0001:000e4e60       ?flip@physx@@YAXAAI@Z      100e5e60 f i GuTriangleMesh.obj
 0001:000e4f10       ?getName@?$ReflectionAllocator@E@shdfnd@physx@@CAPBDXZ 100e5f10 f i GuTriangleMesh.obj
 0001:000e4f60       ?isZero@PxVec3@physx@@QBE_NXZ 100e5f60 f i GuTriangleMesh.obj
 0001:000e4fe0       ?resolveReferences@TriangleMesh@Gu@physx@@QAEXAAVPxDeserializationContext@3@@Z 100e5fe0 f i GuTriangleMesh.obj
 0001:000e4ff0       ?exportExtraData@HeightField@Gu@physx@@UAEXAAVPxSerializationContext@3@@Z 100e5ff0 f   GuHeightField.obj
 0001:000e5040       ?importExtraData@HeightField@Gu@physx@@QAEXAAVPxDeserializationContext@3@@Z 100e6040 f   GuHeightField.obj
 0001:000e5070       ?createObject@HeightField@Gu@physx@@SAPAV123@AAPAEAAVPxDeserializationContext@3@@Z 100e6070 f   GuHeightField.obj
 0001:000e50e0       ??0HeightField@Gu@physx@@QAE@PAVGuMeshFactory@2@@Z 100e60e0 f   GuHeightField.obj
 0001:000e51d0       ?release@HeightField@Gu@physx@@UAEXXZ 100e61d0 f   GuHeightField.obj
 0001:000e5220       ?saveCells@HeightField@Gu@physx@@UBEIPAXI@Z 100e6220 f   GuHeightField.obj
 0001:000e5270       ?modifySamples@HeightField@Gu@physx@@UAE_NHHABVPxHeightFieldDesc@3@_N@Z 100e6270 f   GuHeightField.obj
 0001:000e5550       ?getReferenceCount@HeightField@Gu@physx@@UBEIXZ 100e6550 f   GuHeightField.obj
 0001:000e5570       ?onRefCountZero@HeightField@Gu@physx@@UAEXXZ 100e6570 f   GuHeightField.obj
 0001:000e5620       ?loadFromDesc@HeightField@Gu@physx@@QAE_NABVPxHeightFieldDesc@3@_N@Z 100e6620 f   GuHeightField.obj
 0001:000e5a70       ?load@HeightField@Gu@physx@@QAE_NAAVPxInputStream@3@@Z 100e6a70 f   GuHeightField.obj
 0001:000e5dd0       ?computeCellCoordinates@HeightField@Gu@physx@@QBEIMMAAM0@Z 100e6dd0 f   GuHeightField.obj
 0001:000e6080       ?isSolidVertex@HeightField@Gu@physx@@QBE_NIIIGAA_N@Z 100e7080 f   GuHeightField.obj
 0001:000e6210       ?isCollisionVertexPreca@HeightField@Gu@physx@@QBE_NIIIG@Z 100e7210 f   GuHeightField.obj
 0001:000e6360       ?parseTrianglesForCollisionVertices@HeightField@Gu@physx@@QAEXG@Z 100e7360 f   GuHeightField.obj
 0001:000e6630       ?computeExtreme@HeightField@Gu@physx@@QBEMIIII@Z 100e7630 f   GuHeightField.obj
 0001:000e6770       ?releaseMemory@HeightField@Gu@physx@@QAEX_N@Z 100e7770 f   GuHeightField.obj
 0001:000e6800       ??1HeightField@Gu@physx@@UAE@XZ 100e7800 f   GuHeightField.obj
 0001:000e6840       ?getVertexEdgeIndices@physx@@YAIABVHeightField@Gu@1@IIIQAUEdgeData@1@@Z 100e7840 f   GuHeightField.obj
 0001:000e6c40       ?getEdgeTriangleIndices@physx@@YAIABVHeightField@Gu@1@ABUEdgeData@1@PIAI@Z 100e7c40 f   GuHeightField.obj
 0001:000e7690       ??$PxMax@H@physx@@YAHHH@Z  100e8690 f i GuHeightField.obj
 0001:000e76c0       ??$PxMin@H@physx@@YAHHH@Z  100e86c0 f i GuHeightField.obj
 0001:000e76f0       ??$deletePxBase@VHeightField@Gu@physx@@@Cm@physx@@YAXPAVHeightField@Gu@1@@Z 100e86f0 f i GuHeightField.obj
 0001:000e7780       ??$readExtraData@UPxHeightFieldSample@physx@@$0BA@@PxDeserializationContext@physx@@QAEPAUPxHeightFieldSample@1@I@Z 100e8780 f i GuHeightField.obj
 0001:000e77b0       ??$readExtraData@UPxHeightFieldSample@physx@@@PxDeserializationContext@physx@@QAEPAUPxHeightFieldSample@1@I@Z 100e87b0 f i GuHeightField.obj
 0001:000e77f0       ??0?$AlignedAllocator@$0BA@VAllocator@shdfnd@physx@@@shdfnd@physx@@QAE@ABVAllocator@12@@Z 100e87f0 f i GuHeightField.obj
 0001:000e7810       ??0?$BitMapBase@VAllocator@shdfnd@physx@@@Cm@physx@@QAE@XZ 100e8810 f i GuHeightField.obj
 0001:000e7850       ??0?$PxFlags@W4Enum@PxHeightFieldFlag@physx@@G@physx@@QAE@G@Z 100e8850 f i GuHeightField.obj
 0001:000e7870       ??0HeightField@Gu@physx@@QAE@V?$PxFlags@W4Enum@PxBaseFlag@physx@@G@2@@Z 100e8870 f i GuHeightField.obj
 0001:000e78f0       ??0PxHeightField@physx@@IAE@GV?$PxFlags@W4Enum@PxBaseFlag@physx@@G@1@@Z 100e88f0 f i GuHeightField.obj
 0001:000e7930       ??0PxHeightField@physx@@IAE@V?$PxFlags@W4Enum@PxBaseFlag@physx@@G@1@@Z 100e8930 f i GuHeightField.obj
 0001:000e7970       ??1?$BitMapBase@VAllocator@shdfnd@physx@@@Cm@physx@@QAE@XZ 100e8970 f i GuHeightField.obj
 0001:000e79b0       ??9?$PxFlags@W4Enum@PxHeightFieldFlag@physx@@G@physx@@QBE_NABV01@@Z 100e89b0 f i GuHeightField.obj
 0001:000e79f0       ??_EHeightField@Gu@physx@@UAEPAXI@Z 100e89f0 f i GuHeightField.obj
 0001:000e7a74       ??_EHeightField@Gu@physx@@W7AEPAXI@Z 100e8a74 f i GuHeightField.obj
 0001:000e7a80       ?anyHole@@YAIIG@Z          100e8a80 f i GuHeightField.obj
 0001:000e7af0       ?clear@?$BitMapBase@VAllocator@shdfnd@physx@@@Cm@physx@@QAEXI@Z 100e8af0 f i GuHeightField.obj
 0001:000e7b40       ?clearBit@?$PxBitAndDataT@E$0IA@@physx@@QAEXXZ 100e8b40 f i GuHeightField.obj
 0001:000e7b70       ?deallocate@?$AlignedAllocator@$0BA@VAllocator@shdfnd@physx@@@shdfnd@physx@@QAEXPAX@Z 100e8b70 f i GuHeightField.obj
 0001:000e7bc0       ?extendUninitialized@?$BitMapBase@VAllocator@shdfnd@physx@@@Cm@physx@@IAEXI@Z 100e8bc0 f i GuHeightField.obj
 0001:000e7c60       ?flip@physx@@YAXAAF@Z      100e8c60 f i GuHeightField.obj
 0001:000e7cd0       ?getMaterialIndex01@HeightField@Gu@physx@@QBEII@Z 100e8cd0 f i GuHeightField.obj
 0001:000e7d30       ?getMaxHeight@HeightField@Gu@physx@@QBEMXZ 100e8d30 f i GuHeightField.obj
 0001:000e7d50       ?getMinHeight@HeightField@Gu@physx@@QBEMXZ 100e8d50 f i GuHeightField.obj
 0001:000e7d70       ?getThicknessFast@HeightField@Gu@physx@@QBEMXZ 100e8d70 f i GuHeightField.obj
 0001:000e7d90       ?getWordCount@?$BitMapBase@VAllocator@shdfnd@physx@@@Cm@physx@@QBEIXZ 100e8d90 f i GuHeightField.obj
 0001:000e7db0       ?isConvexVertex@HeightField@Gu@physx@@QBE_NIII@Z 100e8db0 f i GuHeightField.obj
 0001:000e8030       ?isInUserMemory@?$BitMapBase@VAllocator@shdfnd@physx@@@Cm@physx@@QBEIXZ 100e9030 f i GuHeightField.obj
 0001:000e8050       ?isValid@PxHeightFieldDesc@physx@@QBE_NXZ 100e9050 f i GuHeightField.obj
 0001:000e8140       ?requires@HeightField@Gu@physx@@UAEXAAVPxProcessPxBaseCallback@3@@Z 100e9140 f i GuHeightField.obj
 0001:000e8150       ?resolveReferences@HeightField@Gu@physx@@QAEXAAVPxDeserializationContext@3@@Z 100e9150 f i GuHeightField.obj
 0001:000e8160       ?set@?$BitMapBase@VAllocator@shdfnd@physx@@@Cm@physx@@QAEXI@Z 100e9160 f i GuHeightField.obj
 0001:000e8200       ?setBit@?$PxBitAndDataT@E$0IA@@physx@@QAEXXZ 100e9200 f i GuHeightField.obj
 0001:000e8230       ?test@?$BitMapBase@VAllocator@shdfnd@physx@@@Cm@physx@@QBEHI@Z 100e9230 f i GuHeightField.obj
 0001:000e8310       ?computeLocalBounds@HeightFieldUtil@Gu@physx@@QBEXAAVPxBounds3@3@@Z 100e9310 f   GuHeightFieldUtil.obj
 0001:000e8420       ?isCollisionEdge@HeightFieldUtil@Gu@physx@@QBE_NI@Z 100e9420 f   GuHeightFieldUtil.obj
 0001:000e8540       ?isCollisionEdge@HeightFieldUtil@Gu@physx@@QBE_NIIPIBIIII@Z 100e9540 f   GuHeightFieldUtil.obj
 0001:000e8660       ?isBoundaryEdge@HeightFieldUtil@Gu@physx@@QBE_NI@Z 100e9660 f   GuHeightFieldUtil.obj
 0001:000e8760       ?getFaceIndexAtShapePoint@HeightFieldUtil@Gu@physx@@QBEIMM@Z 100e9760 f   GuHeightFieldUtil.obj
 0001:000e8800       ?getFaceIndexAtShapePointNoTest@HeightFieldUtil@Gu@physx@@QBEIMM@Z 100e9800 f   GuHeightFieldUtil.obj
 0001:000e88d0       ?getFaceIndexAtShapePointNoTest2@HeightFieldUtil@Gu@physx@@QBEIIMM@Z 100e98d0 f   GuHeightFieldUtil.obj
 0001:000e8930       ?getFaceIndexAtTriangleIndex@HeightFieldUtil@Gu@physx@@QBEII@Z 100e9930 f   GuHeightFieldUtil.obj
 0001:000e8970       ?getSmoothNormalAtShapePoint@HeightFieldUtil@Gu@physx@@QBE?AVPxVec3@3@MM@Z 100e9970 f   GuHeightFieldUtil.obj
 0001:000e8d60       ?getVertexNormal@HeightFieldUtil@Gu@physx@@QBE?AVPxVec3@3@III@Z 100e9d60 f   GuHeightFieldUtil.obj
 0001:000e8fa0       ?getVertexFaceIndex@HeightFieldUtil@Gu@physx@@QBEIIII@Z 100e9fa0 f   GuHeightFieldUtil.obj
 0001:000e90e0       ?getEdge@HeightFieldUtil@Gu@physx@@QBEXIIIIAAVPxVec3@3@0@Z 100ea0e0 f   GuHeightFieldUtil.obj
 0001:000e96f0       ?getEdgeFaceIndex@HeightFieldUtil@Gu@physx@@QBEII@Z 100ea6f0 f   GuHeightFieldUtil.obj
 0001:000e97b0       ?getEdgeFaceIndex@HeightFieldUtil@Gu@physx@@QBEIIIII@Z 100ea7b0 f   GuHeightFieldUtil.obj
 0001:000e9880       ?getEdgeFaceIndex@HeightFieldUtil@Gu@physx@@QBEIIIPIBI@Z 100ea880 f   GuHeightFieldUtil.obj
 0001:000e9940       ?findClosestPointsOnCell@HeightFieldUtil@Gu@physx@@QBEIIIVPxVec3@3@PIAV43@PIAI_N33@Z 100ea940 f   GuHeightFieldUtil.obj
 0001:000ea330       ?findProjectionOnTriangle@HeightFieldUtil@Gu@physx@@QBE_NIIIABVPxVec3@3@AAV43@@Z 100eb330 f   GuHeightFieldUtil.obj
 0001:000ea9e0       ?findClosestPointOnEdge@HeightFieldUtil@Gu@physx@@QBEMIIIIABVPxVec3@3@AAV43@@Z 100eb9e0 f   GuHeightFieldUtil.obj
 0001:000eb270       ?getTriangle@HeightFieldUtil@Gu@physx@@QBEIABVPxTransform@3@AAVPxTriangle@3@PAI2I_N3@Z 100ec270 f   GuHeightFieldUtil.obj
 0001:000eb6e0       ?overlapAABBTriangles@HeightFieldUtil@Gu@physx@@QBE_NABVPxTransform@3@ABVPxBounds3@3@IPAV?$EntityReport@I@23@@Z 100ec6e0 f   GuHeightFieldUtil.obj
 0001:000eca70       ??$PxClamp@H@physx@@YAHHHH@Z 100eda70 f i GuHeightFieldUtil.obj
 0001:000ecaf0       ??B?$PxFlags@W4Enum@PxHeightFieldFlag@physx@@G@physx@@QBEIXZ 100edaf0 f i GuHeightFieldUtil.obj
 0001:000ecb10       ?ceil@shdfnd@physx@@YAMM@Z 100edb10 f i GuHeightFieldUtil.obj
 0001:000ecb30       ?floatFloor@shdfnd@physx@@YAMM@Z 100edb30 f i GuHeightFieldUtil.obj
 0001:000ecb50       ?floor@shdfnd@physx@@YAMM@Z 100edb50 f i GuHeightFieldUtil.obj
 0001:000ecb70       ?getEdgeTriangleIndices@HeightField@Gu@physx@@QBEIIQAI@Z 100edb70 f i GuHeightFieldUtil.obj
 0001:000ecd70       ?getEdgeTriangleIndices@HeightField@Gu@physx@@QBEIIQAIIII@Z 100edd70 f i GuHeightFieldUtil.obj
 0001:000ecf30       ?getFlagsFast@HeightField@Gu@physx@@QBEIXZ 100edf30 f i GuHeightFieldUtil.obj
 0001:000ecf50       ?getMaxColumn@HeightField@Gu@physx@@QBEIM@Z 100edf50 f i GuHeightFieldUtil.obj
 0001:000ecfa0       ?getMaxRow@HeightField@Gu@physx@@QBEIM@Z 100edfa0 f i GuHeightFieldUtil.obj
 0001:000ecff0       ?getMinColumn@HeightField@Gu@physx@@QBEIM@Z 100edff0 f i GuHeightFieldUtil.obj
 0001:000ed040       ?getMinRow@HeightField@Gu@physx@@QBEIM@Z 100ee040 f i GuHeightFieldUtil.obj
 0001:000ed090       ?getTriangleAdjacencyIndices@HeightField@Gu@physx@@QBEXIIIIAAI00@Z 100ee090 f i GuHeightFieldUtil.obj
 0001:000ed310       ?getTriangleIndex2@HeightField@Gu@physx@@QBEIIMM@Z 100ee310 f i GuHeightFieldUtil.obj
 0001:000ed3a0       ?getTriangleIndex@HeightField@Gu@physx@@QBEIMM@Z 100ee3a0 f i GuHeightFieldUtil.obj
 0001:000ed410       ?getVertex@HeightField@Gu@physx@@QBE?AVPxVec3@3@I@Z 100ee410 f i GuHeightFieldUtil.obj
 0001:000ed4d0       ?isConvexEdge@HeightField@Gu@physx@@QBE_NI@Z 100ee4d0 f i GuHeightFieldUtil.obj
 0001:000ed540       ?isConvexEdge@HeightField@Gu@physx@@QBE_NIIII@Z 100ee540 f i GuHeightFieldUtil.obj
 0001:000eda10       ?isValidTriangle@HeightField@Gu@physx@@QBE_NI@Z 100eea10 f i GuHeightFieldUtil.obj
 0001:000eda80       ?intersectHeightFieldSphere@Gu@physx@@YA_NABVHeightFieldUtil@12@ABVSphere@12@@Z 100eea80 f   GuOverlapTestsHF.obj
 0001:000edd30       ?intersectHeightFieldCapsule@Gu@physx@@YA_NABVHeightFieldUtil@12@ABVCapsule@12@@Z 100eed30 f   GuOverlapTestsHF.obj
 0001:000ee390       ?intersectHeightFieldBox@Gu@physx@@YA_NABVHeightFieldUtil@12@ABVBox@12@@Z 100ef390 f   GuOverlapTestsHF.obj
 0001:000eeab0       ?intersectHeightFieldConvex@Gu@physx@@YA_NABVHeightFieldUtil@12@ABVPxTransform@2@ABVConvexMesh@12@1ABVPxMeshScale@2@@Z 100efab0 f   GuOverlapTestsHF.obj
 0001:000ef480       ?checkOverlapSphere_heightFieldGeom@Gu@physx@@YA_NABVPxGeometry@2@ABVPxTransform@2@ABVSphere@12@@Z 100f0480 f   GuOverlapTestsHF.obj
 0001:000ef540       ?checkOverlapOBB_heightFieldGeom@Gu@physx@@YA_NABVPxGeometry@2@ABVPxTransform@2@ABVBox@12@@Z 100f0540 f   GuOverlapTestsHF.obj
 0001:000ef630       ?checkOverlapCapsule_heightFieldGeom@Gu@physx@@YA_NABVPxGeometry@2@ABVPxTransform@2@ABVCapsule@12@@Z 100f0630 f   GuOverlapTestsHF.obj
 0001:000ef7b0       ?GeomOverlapCallback_SphereHeightfield@@YA_NABVPxGeometry@physx@@ABVPxTransform@2@01PAUTriggerCache@Gu@2@@Z 100f07b0 f   GuOverlapTestsHF.obj
 0001:000ef8b0       ?GeomOverlapCallback_PlaneHeightfield@@YA_NABVPxGeometry@physx@@ABVPxTransform@2@01PAUTriggerCache@Gu@2@@Z 100f08b0 f   GuOverlapTestsHF.obj
 0001:000ef9b0       ?GeomOverlapCallback_CapsuleHeightfield@@YA_NABVPxGeometry@physx@@ABVPxTransform@2@01PAUTriggerCache@Gu@2@@Z 100f09b0 f   GuOverlapTestsHF.obj
 0001:000efab0       ?GeomOverlapCallback_BoxHeightfield@@YA_NABVPxGeometry@physx@@ABVPxTransform@2@01PAUTriggerCache@Gu@2@@Z 100f0ab0 f   GuOverlapTestsHF.obj
 0001:000efbc0       ?GeomOverlapCallback_ConvexHeightfield@@YA_NABVPxGeometry@physx@@ABVPxTransform@2@01PAUTriggerCache@Gu@2@@Z 100f0bc0 f   GuOverlapTestsHF.obj
 0001:000f0520       ??$PX_UNUSED@PAV?$Array@IVNamedAllocator@shdfnd@physx@@@shdfnd@physx@@@@YAXABQAV?$Array@IVNamedAllocator@shdfnd@physx@@@shdfnd@physx@@@Z 100f1520 f i GuOverlapTestsHF.obj
 0001:000f0530       ??$PX_UNUSED@VPxGeometry@physx@@@@YAXABVPxGeometry@physx@@@Z 100f1530 f i GuOverlapTestsHF.obj
 0001:000f0540       ??$PX_UNUSED@VPxTransform@physx@@@@YAXABVPxTransform@physx@@@Z 100f1540 f i GuOverlapTestsHF.obj
 0001:000f0550       ??$traceSegment@UTriggerTraceSegmentCallback@Gu@physx@@$0A@$0A@$0A@@HeightFieldUtil@Gu@physx@@QBEXABVPxVec3@2@0PAUTriggerTraceSegmentCallback@12@PBV32@@Z 100f1550 f i GuOverlapTestsHF.obj
 0001:000f27d0       ??0?$OverlapTraceSegment@UTriggerTraceSegmentCallback@Gu@physx@@@HeightFieldUtil@Gu@physx@@QAE@ABV123@ABVHeightField@23@@Z 100f37d0 f i GuOverlapTestsHF.obj
 0001:000f2830       ??0EdgeCache@Gu@physx@@QAE@XZ 100f3830 f i GuOverlapTestsHF.obj
 0001:000f2860       ??0Matrix34@Cm@physx@@QAE@ABVPxMat33@2@@Z 100f3860 f i GuOverlapTestsHF.obj
 0001:000f28d0       ??0TriggerTraceSegmentCallback@Gu@physx@@QAE@XZ 100f38d0 f i GuOverlapTestsHF.obj
 0001:000f28f0       ?V4AllGrtr@aos@shdfnd@physx@@YAIT__m128@@0@Z 100f38f0 f i GuOverlapTestsHF.obj
 0001:000f2950       ?addIndex@?$OverlapTraceSegment@UTriggerTraceSegmentCallback@Gu@physx@@@HeightFieldUtil@Gu@physx@@QAE_NI@Z 100f3950 f i GuOverlapTestsHF.obj
 0001:000f29c0       ?computeRectangleDifference@?$OverlapTraceSegment@UTriggerTraceSegmentCallback@Gu@physx@@@HeightFieldUtil@Gu@physx@@QAEXABUOverlapRectangle@1234@0AAUOverlapLine@1234@@Z 100f39c0 f i GuOverlapTestsHF.obj
 0001:000f2ab0       ?distanceSegmentSegmentSquared@Gu@physx@@YAMABVSegment@12@0PAM1@Z 100f3ab0 f i GuOverlapTestsHF.obj
 0001:000f2b00       ?faceHit@TriggerTraceSegmentCallback@Gu@physx@@QAE_NABVHeightFieldUtil@23@ABVPxVec3@3@I@Z 100f3b00 f i GuOverlapTestsHF.obj
 0001:000f2b20       ?getInverse@PsTransformV@aos@shdfnd@physx@@QBE?AV1234@XZ 100f3b20 f i GuOverlapTestsHF.obj
 0001:000f2c00       ?hash@EdgeCache@Gu@physx@@QBEII@Z 100f3c00 f i GuOverlapTestsHF.obj
 0001:000f2c30       ?init@?$OverlapTraceSegment@UTriggerTraceSegmentCallback@Gu@physx@@@HeightFieldUtil@Gu@physx@@QAE_NHHHHHPAUTriggerTraceSegmentCallback@34@PAV?$Array@IVNamedAllocator@shdfnd@physx@@@shdfnd@4@@Z 100f3c30 f i GuOverlapTestsHF.obj
 0001:000f2d50       ?initialized@?$OverlapTraceSegment@UTriggerTraceSegmentCallback@Gu@physx@@@HeightFieldUtil@Gu@physx@@QBE_NXZ 100f3d50 f i GuOverlapTestsHF.obj
 0001:000f2d70       ?intersectRayTriangle@Gu@physx@@YA_NABVPxVec3@2@0000AAM11_NM@Z 100f3d70 f i GuOverlapTestsHF.obj
 0001:000f2e20       ?invalidate@OverlapRectangle@?$OverlapTraceSegment@UTriggerTraceSegmentCallback@Gu@physx@@@HeightFieldUtil@Gu@physx@@QAEXXZ 100f3e20 f i GuOverlapTestsHF.obj
 0001:000f2e60       ?isDeltaHeightInsideExtent@HeightField@Gu@physx@@QBE_NMM@Z 100f3e60 f i GuOverlapTestsHF.obj
 0001:000f2f10       ?isDeltaHeightOppositeExtent@HeightField@Gu@physx@@QBE_NM@Z 100f3f10 f i GuOverlapTestsHF.obj
 0001:000f2f90       ?isInCache@EdgeCache@Gu@physx@@QAE_NEE@Z 100f3f90 f i GuOverlapTestsHF.obj
 0001:000f3050       ?onEvent@TriggerTraceSegmentCallback@Gu@physx@@QAE_NIPAI@Z 100f4050 f i GuOverlapTestsHF.obj
 0001:000f3070       ?prepare@?$OverlapTraceSegment@UTriggerTraceSegmentCallback@Gu@physx@@@HeightFieldUtil@Gu@physx@@QAEXABVPxVec3@4@00AAM1@Z 100f4070 f i GuOverlapTestsHF.obj
 0001:000f3400       ?reportOverlaps@?$OverlapTraceSegment@UTriggerTraceSegmentCallback@Gu@physx@@@HeightFieldUtil@Gu@physx@@QAE_NXZ 100f4400 f i GuOverlapTestsHF.obj
 0001:000f3460       ?step@?$OverlapTraceSegment@UTriggerTraceSegmentCallback@Gu@physx@@@HeightFieldUtil@Gu@physx@@QAE_NHH@Z 100f4460 f i GuOverlapTestsHF.obj
 0001:000f3540       ?testVertexIndex@?$OverlapTraceSegment@UTriggerTraceSegmentCallback@Gu@physx@@@HeightFieldUtil@Gu@physx@@QAE_NI@Z 100f4540 f i GuOverlapTestsHF.obj
 0001:000f36e0       ?underFaceHit@TriggerTraceSegmentCallback@Gu@physx@@QAE_NABVHeightFieldUtil@23@ABVPxVec3@3@1MMMI@Z 100f46e0 f i GuOverlapTestsHF.obj
 0001:000f3700       ?visitCells@?$OverlapTraceSegment@UTriggerTraceSegmentCallback@Gu@physx@@@HeightFieldUtil@Gu@physx@@QAE_NABUOverlapLine@1234@@Z 100f4700 f i GuOverlapTestsHF.obj
 0001:000f38d0       ?visitCells@?$OverlapTraceSegment@UTriggerTraceSegmentCallback@Gu@physx@@@HeightFieldUtil@Gu@physx@@QAE_NABUOverlapRectangle@1234@@Z 100f48d0 f i GuOverlapTestsHF.obj
 0001:000f3d40       ?sweepCapsule_HeightFieldGeom@@YA_NABVPxGeometry@physx@@ABVPxTransform@2@ABVCapsule@Gu@2@ABVPxVec3@2@MAAUPxSweepHit@2@V?$PxFlags@W4Enum@PxHitFlag@physx@@G@2@M@Z 100f4d40 f   GuSweepsHF.obj
 0001:000f41d0       ?sweepConvex_HeightFieldGeom@@YA_NABVPxGeometry@physx@@ABVPxTransform@2@ABVPxConvexMeshGeometry@2@1ABVPxVec3@2@MAAUPxSweepHit@2@V?$PxFlags@W4Enum@PxHitFlag@physx@@G@2@M@Z 100f51d0 f   GuSweepsHF.obj
 0001:000f46d0       ?sweepBox_HeightFieldGeom@@YA_NABVPxGeometry@physx@@ABVPxTransform@2@ABVBox@Gu@2@ABVPxVec3@2@MAAUPxSweepHit@2@V?$PxFlags@W4Enum@PxHitFlag@physx@@G@2@M@Z 100f56d0 f   GuSweepsHF.obj
 0001:000f50d0       ??$PX_UNUSED@V?$PxFlags@W4Enum@PxHitFlag@physx@@G@physx@@@@YAXABV?$PxFlags@W4Enum@PxHitFlag@physx@@G@physx@@@Z 100f60d0 f i GuSweepsHF.obj
 0001:000f50e0       ??$traceSegment@UBoxTraceSegmentReport@@$0A@$0A@$00@HeightFieldUtil@Gu@physx@@QBEXABVPxVec3@2@0PAUBoxTraceSegmentReport@@PBV32@@Z 100f60e0 f i GuSweepsHF.obj
 0001:000f7370       ??$traceSegment@UCapsuleTraceSegmentReport@@$0A@$0A@$00@HeightFieldUtil@Gu@physx@@QBEXABVPxVec3@2@0PAUCapsuleTraceSegmentReport@@PBV32@@Z 100f8370 f i GuSweepsHF.obj
 0001:000f9600       ??$traceSegment@VConvexVsHeightfieldSweep@@$0A@$0A@$00@HeightFieldUtil@Gu@physx@@QBEXABVPxVec3@2@0PAVConvexVsHeightfieldSweep@@PBV32@@Z 100fa600 f i GuSweepsHF.obj
 0001:000fb890       ??0?$OverlapTraceSegment@UBoxTraceSegmentReport@@@HeightFieldUtil@Gu@physx@@QAE@ABV123@ABVHeightField@23@@Z 100fc890 f i GuSweepsHF.obj
 0001:000fb8f0       ??0?$OverlapTraceSegment@UCapsuleTraceSegmentReport@@@HeightFieldUtil@Gu@physx@@QAE@ABV123@ABVHeightField@23@@Z 100fc8f0 f i GuSweepsHF.obj
 0001:000fb950       ??0?$OverlapTraceSegment@VConvexVsHeightfieldSweep@@@HeightFieldUtil@Gu@physx@@QAE@ABV123@ABVHeightField@23@@Z 100fc950 f i GuSweepsHF.obj
 0001:000fb9b0       ??0BoxTraceSegmentReport@@QAE@XZ 100fc9b0 f i GuSweepsHF.obj
 0001:000fb9f0       ??0CapsuleTraceSegmentReport@@QAE@XZ 100fc9f0 f i GuSweepsHF.obj
 0001:000fba30       ??0ConvexVsHeightfieldSweep@@QAE@AAVHeightFieldUtil@Gu@physx@@ABUConvexHullData@23@ABVPxMeshScale@3@ABVPxTransform@3@3ABVPxVec3@3@MV?$PxFlags@W4Enum@PxHitFlag@physx@@G@3@M_N_N@Z 100fca30 f i GuSweepsHF.obj
 0001:000fbe50       ??1BoxTraceSegmentReport@@UAE@XZ 100fce50 f i GuSweepsHF.obj
 0001:000fbe70       ??1CapsuleTraceSegmentReport@@UAE@XZ 100fce70 f i GuSweepsHF.obj
 0001:000fbe90       ??1ConvexVsHeightfieldSweep@@UAE@XZ 100fce90 f i GuSweepsHF.obj
 0001:000fbec0       ??4PxTransform@physx@@QAEAAV01@ABV01@@Z 100fcec0 f i GuSweepsHF.obj
 0001:000fbf00       ??_GBoxTraceSegmentReport@@UAEPAXI@Z 100fcf00 f i GuSweepsHF.obj
 0001:000fbf00       ??_EBoxTraceSegmentReport@@UAEPAXI@Z 100fcf00 f i GuSweepsHF.obj
 0001:000fbf40       ??_ECapsuleTraceSegmentReport@@UAEPAXI@Z 100fcf40 f i GuSweepsHF.obj
 0001:000fbf40       ??_GCapsuleTraceSegmentReport@@UAEPAXI@Z 100fcf40 f i GuSweepsHF.obj
 0001:000fbf80       ??_EConvexVsHeightfieldSweep@@UAEPAXI@Z 100fcf80 f i GuSweepsHF.obj
 0001:000fbf80       ??_GConvexVsHeightfieldSweep@@UAEPAXI@Z 100fcf80 f i GuSweepsHF.obj
 0001:000fbfc0       ?QuatVLoadA@aos@shdfnd@physx@@YA?AT__m128@@PBM@Z 100fcfc0 f i GuSweepsHF.obj
 0001:000fc010       ?V3LoadA@aos@shdfnd@physx@@YA?AT__m128@@PBM@Z 100fd010 f i GuSweepsHF.obj
 0001:000fc060       ?addIndex@?$OverlapTraceSegment@UBoxTraceSegmentReport@@@HeightFieldUtil@Gu@physx@@QAE_NI@Z 100fd060 f i GuSweepsHF.obj
 0001:000fc0d0       ?addIndex@?$OverlapTraceSegment@UCapsuleTraceSegmentReport@@@HeightFieldUtil@Gu@physx@@QAE_NI@Z 100fd0d0 f i GuSweepsHF.obj
 0001:000fc140       ?addIndex@?$OverlapTraceSegment@VConvexVsHeightfieldSweep@@@HeightFieldUtil@Gu@physx@@QAE_NI@Z 100fd140 f i GuSweepsHF.obj
 0001:000fc1b0       ?computeRectangleDifference@?$OverlapTraceSegment@UBoxTraceSegmentReport@@@HeightFieldUtil@Gu@physx@@QAEXABUOverlapRectangle@1234@0AAUOverlapLine@1234@@Z 100fd1b0 f i GuSweepsHF.obj
 0001:000fc2a0       ?computeRectangleDifference@?$OverlapTraceSegment@UCapsuleTraceSegmentReport@@@HeightFieldUtil@Gu@physx@@QAEXABUOverlapRectangle@1234@0AAUOverlapLine@1234@@Z 100fd2a0 f i GuSweepsHF.obj
 0001:000fc390       ?computeRectangleDifference@?$OverlapTraceSegment@VConvexVsHeightfieldSweep@@@HeightFieldUtil@Gu@physx@@QAEXABUOverlapRectangle@1234@0AAUOverlapLine@1234@@Z 100fd390 f i GuSweepsHF.obj
 0001:000fc480       ?faceHit@BoxTraceSegmentReport@@QAE_NABVHeightFieldUtil@Gu@physx@@ABVPxVec3@4@I@Z 100fd480 f i GuSweepsHF.obj
 0001:000fc4a0       ?faceHit@CapsuleTraceSegmentReport@@QAE_NABVHeightFieldUtil@Gu@physx@@ABVPxVec3@4@I@Z 100fd4a0 f i GuSweepsHF.obj
 0001:000fc4c0       ?faceHit@ConvexVsHeightfieldSweep@@QAE_NABVHeightFieldUtil@Gu@physx@@ABVPxVec3@4@I@Z 100fd4c0 f i GuSweepsHF.obj
 0001:000fc4e0       ?init@?$OverlapTraceSegment@UBoxTraceSegmentReport@@@HeightFieldUtil@Gu@physx@@QAE_NHHHHHPAUBoxTraceSegmentReport@@PAV?$Array@IVNamedAllocator@shdfnd@physx@@@shdfnd@4@@Z 100fd4e0 f i GuSweepsHF.obj
 0001:000fc600       ?init@?$OverlapTraceSegment@UCapsuleTraceSegmentReport@@@HeightFieldUtil@Gu@physx@@QAE_NHHHHHPAUCapsuleTraceSegmentReport@@PAV?$Array@IVNamedAllocator@shdfnd@physx@@@shdfnd@4@@Z 100fd600 f i GuSweepsHF.obj
 0001:000fc720       ?init@?$OverlapTraceSegment@VConvexVsHeightfieldSweep@@@HeightFieldUtil@Gu@physx@@QAE_NHHHHHPAVConvexVsHeightfieldSweep@@PAV?$Array@IVNamedAllocator@shdfnd@physx@@@shdfnd@4@@Z 100fd720 f i GuSweepsHF.obj
 0001:000fc840       ?initialized@?$OverlapTraceSegment@UBoxTraceSegmentReport@@@HeightFieldUtil@Gu@physx@@QBE_NXZ 100fd840 f i GuSweepsHF.obj
 0001:000fc860       ?initialized@?$OverlapTraceSegment@UCapsuleTraceSegmentReport@@@HeightFieldUtil@Gu@physx@@QBE_NXZ 100fd860 f i GuSweepsHF.obj
 0001:000fc880       ?initialized@?$OverlapTraceSegment@VConvexVsHeightfieldSweep@@@HeightFieldUtil@Gu@physx@@QBE_NXZ 100fd880 f i GuSweepsHF.obj
 0001:000fc8a0       ?invalidate@OverlapRectangle@?$OverlapTraceSegment@UBoxTraceSegmentReport@@@HeightFieldUtil@Gu@physx@@QAEXXZ 100fd8a0 f i GuSweepsHF.obj
 0001:000fc8e0       ?invalidate@OverlapRectangle@?$OverlapTraceSegment@UCapsuleTraceSegmentReport@@@HeightFieldUtil@Gu@physx@@QAEXXZ 100fd8e0 f i GuSweepsHF.obj
 0001:000fc920       ?invalidate@OverlapRectangle@?$OverlapTraceSegment@VConvexVsHeightfieldSweep@@@HeightFieldUtil@Gu@physx@@QAEXXZ 100fd920 f i GuSweepsHF.obj
 0001:000fc960       ?onEvent@BoxTraceSegmentReport@@UAE_NIPAI@Z 100fd960 f i GuSweepsHF.obj
 0001:000fcea0       ?onEvent@CapsuleTraceSegmentReport@@UAE_NIPAI@Z 100fdea0 f i GuSweepsHF.obj
 0001:000fd0a0       ?onEvent@ConvexVsHeightfieldSweep@@UAE_NIPAI@Z 100fe0a0 f i GuSweepsHF.obj
 0001:000fd290       ?prepare@?$OverlapTraceSegment@UBoxTraceSegmentReport@@@HeightFieldUtil@Gu@physx@@QAEXABVPxVec3@4@00AAM1@Z 100fe290 f i GuSweepsHF.obj
 0001:000fd620       ?prepare@?$OverlapTraceSegment@UCapsuleTraceSegmentReport@@@HeightFieldUtil@Gu@physx@@QAEXABVPxVec3@4@00AAM1@Z 100fe620 f i GuSweepsHF.obj
 0001:000fd9b0       ?prepare@?$OverlapTraceSegment@VConvexVsHeightfieldSweep@@@HeightFieldUtil@Gu@physx@@QAEXABVPxVec3@4@00AAM1@Z 100fe9b0 f i GuSweepsHF.obj
 0001:000fdd40       ?reportOverlaps@?$OverlapTraceSegment@UBoxTraceSegmentReport@@@HeightFieldUtil@Gu@physx@@QAE_NXZ 100fed40 f i GuSweepsHF.obj
 0001:000fdda0       ?reportOverlaps@?$OverlapTraceSegment@UCapsuleTraceSegmentReport@@@HeightFieldUtil@Gu@physx@@QAE_NXZ 100feda0 f i GuSweepsHF.obj
 0001:000fde00       ?reportOverlaps@?$OverlapTraceSegment@VConvexVsHeightfieldSweep@@@HeightFieldUtil@Gu@physx@@QAE_NXZ 100fee00 f i GuSweepsHF.obj
 0001:000fde60       ?step@?$OverlapTraceSegment@UBoxTraceSegmentReport@@@HeightFieldUtil@Gu@physx@@QAE_NHH@Z 100fee60 f i GuSweepsHF.obj
 0001:000fdf40       ?step@?$OverlapTraceSegment@UCapsuleTraceSegmentReport@@@HeightFieldUtil@Gu@physx@@QAE_NHH@Z 100fef40 f i GuSweepsHF.obj
 0001:000fe020       ?step@?$OverlapTraceSegment@VConvexVsHeightfieldSweep@@@HeightFieldUtil@Gu@physx@@QAE_NHH@Z 100ff020 f i GuSweepsHF.obj
 0001:000fe100       ?testVertexIndex@?$OverlapTraceSegment@UBoxTraceSegmentReport@@@HeightFieldUtil@Gu@physx@@QAE_NI@Z 100ff100 f i GuSweepsHF.obj
 0001:000fe2a0       ?testVertexIndex@?$OverlapTraceSegment@UCapsuleTraceSegmentReport@@@HeightFieldUtil@Gu@physx@@QAE_NI@Z 100ff2a0 f i GuSweepsHF.obj
 0001:000fe440       ?testVertexIndex@?$OverlapTraceSegment@VConvexVsHeightfieldSweep@@@HeightFieldUtil@Gu@physx@@QAE_NI@Z 100ff440 f i GuSweepsHF.obj
 0001:000fe5e0       ?underFaceHit@BoxTraceSegmentReport@@QAE_NABVHeightFieldUtil@Gu@physx@@ABVPxVec3@4@1MMMI@Z 100ff5e0 f i GuSweepsHF.obj
 0001:000fe600       ?underFaceHit@CapsuleTraceSegmentReport@@QAE_NABVHeightFieldUtil@Gu@physx@@ABVPxVec3@4@1MMMI@Z 100ff600 f i GuSweepsHF.obj
 0001:000fe620       ?underFaceHit@ConvexVsHeightfieldSweep@@QAE_NABVHeightFieldUtil@Gu@physx@@ABVPxVec3@4@1MMMI@Z 100ff620 f i GuSweepsHF.obj
 0001:000fe640       ?visitCells@?$OverlapTraceSegment@UBoxTraceSegmentReport@@@HeightFieldUtil@Gu@physx@@QAE_NABUOverlapLine@1234@@Z 100ff640 f i GuSweepsHF.obj
 0001:000fe810       ?visitCells@?$OverlapTraceSegment@UBoxTraceSegmentReport@@@HeightFieldUtil@Gu@physx@@QAE_NABUOverlapRectangle@1234@@Z 100ff810 f i GuSweepsHF.obj
 0001:000fe910       ?visitCells@?$OverlapTraceSegment@UCapsuleTraceSegmentReport@@@HeightFieldUtil@Gu@physx@@QAE_NABUOverlapLine@1234@@Z 100ff910 f i GuSweepsHF.obj
 0001:000feae0       ?visitCells@?$OverlapTraceSegment@UCapsuleTraceSegmentReport@@@HeightFieldUtil@Gu@physx@@QAE_NABUOverlapRectangle@1234@@Z 100ffae0 f i GuSweepsHF.obj
 0001:000febe0       ?visitCells@?$OverlapTraceSegment@VConvexVsHeightfieldSweep@@@HeightFieldUtil@Gu@physx@@QAE_NABUOverlapLine@1234@@Z 100ffbe0 f i GuSweepsHF.obj
 0001:000fedb0       ?visitCells@?$OverlapTraceSegment@VConvexVsHeightfieldSweep@@@HeightFieldUtil@Gu@physx@@QAE_NABUOverlapRectangle@1234@@Z 100ffdb0 f i GuSweepsHF.obj
 0001:000feeb0       ?pcmContactBoxBox@Gu@physx@@YA_NABVGeometryUnion@12@0ABVPxTransform@2@1ABMAAUCache@12@AAVContactBuffer@12@@Z 100ffeb0 f   GuPCMContactBoxBox.obj
 0001:00104db0       ??0ShrunkBoxV@Gu@physx@@QAE@ABT__m128@@0@Z 10105db0 f i GuPCMContactBoxBox.obj
 0001:00104e90       ??1ShrunkBoxV@Gu@physx@@QAE@XZ 10105e90 f i GuPCMContactBoxBox.obj
 0001:00104eb0       ?BTTFT@aos@shdfnd@physx@@YA?AT__m128@@XZ 10105eb0 f i GuPCMContactBoxBox.obj
 0001:00104f00       ?CalculatePCMBoxMargin@Gu@physx@@YA?AT__m128@@ABT3@@Z 10105f00 f i GuPCMContactBoxBox.obj
 0001:00104f90       ?QuatDot@aos@shdfnd@physx@@YA?AT__m128@@T4@0@Z 10105f90 f i GuPCMContactBoxBox.obj
 0001:00104fe0       ?V3ExtractMax@aos@shdfnd@physx@@YA?AT__m128@@T4@@Z 10105fe0 f i GuPCMContactBoxBox.obj
 0001:00105090       ?V3RecipFast@aos@shdfnd@physx@@YA?AT__m128@@T4@@Z 10106090 f i GuPCMContactBoxBox.obj
 0001:00105120       ?V3SetZ@aos@shdfnd@physx@@YA?AT__m128@@T4@0@Z 10106120 f i GuPCMContactBoxBox.obj
 0001:00105180       ?V4ExtractMax@aos@shdfnd@physx@@YA?AT__m128@@T4@@Z 10106180 f i GuPCMContactBoxBox.obj
 0001:00105240       ?contains@Gu@physx@@YA_NPAT__m128@@IABT3@11@Z 10106240 f i GuPCMContactBoxBox.obj
 0001:00105790       ?getCol0@PsMatTransformV@aos@shdfnd@physx@@QBE?AT__m128@@XZ 10106790 f i GuPCMContactBoxBox.obj
 0001:001057c0       ?getCol1@PsMatTransformV@aos@shdfnd@physx@@QBE?AT__m128@@XZ 101067c0 f i GuPCMContactBoxBox.obj
 0001:001057f0       ?getCol2@PsMatTransformV@aos@shdfnd@physx@@QBE?AT__m128@@XZ 101067f0 f i GuPCMContactBoxBox.obj
 0001:00105820       ?getManifold@Cache@Gu@physx@@QAEAAVPersistentContactManifold@23@XZ 10106820 f i GuPCMContactBoxBox.obj
 0001:00105880       ?getNumContacts@PersistentContactManifold@Gu@physx@@QBEIXZ 10106880 f i GuPCMContactBoxBox.obj
 0001:001058a0       ?getWorldNormal@PersistentContactManifold@Gu@physx@@QAE?AT__m128@@ABVPsTransformV@aos@shdfnd@3@@Z 101068a0 f i GuPCMContactBoxBox.obj
 0001:00105990       ?invalidate_BoxConvex@PersistentContactManifold@Gu@physx@@QAEIABVPsTransformV@aos@shdfnd@3@ABT__m128@@@Z 10106990 f i GuPCMContactBoxBox.obj
 0001:00105b90       ?loadTransformA@aos@shdfnd@physx@@YA?AVPsTransformV@123@ABVPxTransform@3@@Z 10106b90 f i GuPCMContactBoxBox.obj
 0001:00105c10       ?maxTransformPositionDelta@PersistentContactManifold@Gu@physx@@QAE?AT__m128@@ABT4@@Z 10106c10 f i GuPCMContactBoxBox.obj
 0001:00105cb0       ?refreshContactPoints@PersistentContactManifold@Gu@physx@@QAEXABVPsMatTransformV@aos@shdfnd@3@ABT__m128@@1@Z 10106cb0 f i GuPCMContactBoxBox.obj
 0001:00105f30       ?removeContactPoint@PersistentContactManifold@Gu@physx@@QAEXI@Z 10106f30 f i GuPCMContactBoxBox.obj
 0001:00105f90       ?rotate@PsMatTransformV@aos@shdfnd@physx@@QBE?AT__m128@@ABT5@@Z 10106f90 f i GuPCMContactBoxBox.obj
 0001:00105ff0       ?setRelativeTransform@PersistentContactManifold@Gu@physx@@QAEXABVPsTransformV@aos@shdfnd@3@@Z 10106ff0 f i GuPCMContactBoxBox.obj
 0001:00106020       ?transformInv@PsMatTransformV@aos@shdfnd@physx@@QBE?AT__m128@@ABT5@@Z 10107020 f i GuPCMContactBoxBox.obj
 0001:001060a0       ?transformInv@PsMatTransformV@aos@shdfnd@physx@@QBE?AV1234@ABV1234@@Z 101070a0 f i GuPCMContactBoxBox.obj
 0001:00106160       ?pcmContactBoxConvex@Gu@physx@@YA_NABVGeometryUnion@12@0ABVPxTransform@2@1ABMAAUCache@12@AAVContactBuffer@12@@Z 10107160 f   GuPCMContactBoxConvex.obj
 0001:001071f0       ??0?$SupportLocalImpl@VBoxV@Gu@physx@@@Gu@physx@@QAE@ABVBoxV@12@ABVPsTransformV@aos@shdfnd@2@ABUMat33V@562@2_N@Z 101081f0 f i GuPCMContactBoxConvex.obj
 0001:00107240       ??0?$SupportLocalImpl@VConvexHullNoScaleV@Gu@physx@@@Gu@physx@@QAE@ABVConvexHullNoScaleV@12@ABVPsTransformV@aos@shdfnd@2@ABUMat33V@562@2_N@Z 10108240 f i GuPCMContactBoxConvex.obj
 0001:00107290       ??0?$SupportLocalImpl@VConvexHullV@Gu@physx@@@Gu@physx@@QAE@ABVConvexHullV@12@ABVPsTransformV@aos@shdfnd@2@ABUMat33V@562@2_N@Z 10108290 f i GuPCMContactBoxConvex.obj
 0001:001072e0       ??0ShrunkConvexHullV@Gu@physx@@QAE@PBUConvexHullData@12@ABT__m128@@11@Z 101082e0 f i GuPCMContactBoxConvex.obj
 0001:00107320       ??0SupportLocal@Gu@physx@@QAE@ABVPsTransformV@aos@shdfnd@2@ABUMat33V@452@1_N@Z 10108320 f i GuPCMContactBoxConvex.obj
 0001:00107370       ??1?$SupportLocalImpl@VBoxV@Gu@physx@@@Gu@physx@@UAE@XZ 10108370 f i GuPCMContactBoxConvex.obj
 0001:00107390       ??1?$SupportLocalImpl@VConvexHullNoScaleV@Gu@physx@@@Gu@physx@@UAE@XZ 10108390 f i GuPCMContactBoxConvex.obj
 0001:001073b0       ??1?$SupportLocalImpl@VConvexHullV@Gu@physx@@@Gu@physx@@UAE@XZ 101083b0 f i GuPCMContactBoxConvex.obj
 0001:001073d0       ??1ShrunkConvexHullV@Gu@physx@@QAE@XZ 101083d0 f i GuPCMContactBoxConvex.obj
 0001:001073f0       ??1SupportLocal@Gu@physx@@UAE@XZ 101083f0 f i GuPCMContactBoxConvex.obj
 0001:00107410       ??_G?$SupportLocalImpl@VBoxV@Gu@physx@@@Gu@physx@@UAEPAXI@Z 10108410 f i GuPCMContactBoxConvex.obj
 0001:00107410       ??_E?$SupportLocalImpl@VBoxV@Gu@physx@@@Gu@physx@@UAEPAXI@Z 10108410 f i GuPCMContactBoxConvex.obj
 0001:00107450       ??_G?$SupportLocalImpl@VConvexHullNoScaleV@Gu@physx@@@Gu@physx@@UAEPAXI@Z 10108450 f i GuPCMContactBoxConvex.obj
 0001:00107450       ??_E?$SupportLocalImpl@VConvexHullNoScaleV@Gu@physx@@@Gu@physx@@UAEPAXI@Z 10108450 f i GuPCMContactBoxConvex.obj
 0001:00107490       ??_E?$SupportLocalImpl@VConvexHullV@Gu@physx@@@Gu@physx@@UAEPAXI@Z 10108490 f i GuPCMContactBoxConvex.obj
 0001:00107490       ??_G?$SupportLocalImpl@VConvexHullV@Gu@physx@@@Gu@physx@@UAEPAXI@Z 10108490 f i GuPCMContactBoxConvex.obj
 0001:001074d0       ??_ESupportLocal@Gu@physx@@UAEPAXI@Z 101084d0 f i GuPCMContactBoxConvex.obj
 0001:001074d0       ??_GSupportLocal@Gu@physx@@UAEPAXI@Z 101084d0 f i GuPCMContactBoxConvex.obj
 0001:00107510       ?BruteForceSearchMinMax@ConvexHullNoScaleV@Gu@physx@@QBEXABT__m128@@AAT4@1@Z 10108510 f i GuPCMContactBoxConvex.obj
 0001:001076b0       ?BruteForceSearchMinMax@ConvexHullV@Gu@physx@@QBEXABT__m128@@AAT4@1@Z 101086b0 f i GuPCMContactBoxConvex.obj
 0001:00107890       ?CalculatePCMConvexMargin@Gu@physx@@YA?AT__m128@@PBUConvexHullData@12@ABT3@@Z 10108890 f i GuPCMContactBoxConvex.obj
 0001:00107950       ?doSupport@?$SupportLocalImpl@VBoxV@Gu@physx@@@Gu@physx@@UBE?AT__m128@@ABT4@@Z 10108950 f i GuPCMContactBoxConvex.obj
 0001:00107980       ?doSupport@?$SupportLocalImpl@VBoxV@Gu@physx@@@Gu@physx@@UBEXABT__m128@@AAT4@1@Z 10108980 f i GuPCMContactBoxConvex.obj
 0001:001079b0       ?doSupport@?$SupportLocalImpl@VConvexHullNoScaleV@Gu@physx@@@Gu@physx@@UBE?AT__m128@@ABT4@@Z 101089b0 f i GuPCMContactBoxConvex.obj
 0001:001079e0       ?doSupport@?$SupportLocalImpl@VConvexHullNoScaleV@Gu@physx@@@Gu@physx@@UBEXABT__m128@@AAT4@1@Z 101089e0 f i GuPCMContactBoxConvex.obj
 0001:00107a10       ?doSupport@?$SupportLocalImpl@VConvexHullV@Gu@physx@@@Gu@physx@@UBE?AT__m128@@ABT4@@Z 10108a10 f i GuPCMContactBoxConvex.obj
 0001:00107a40       ?doSupport@?$SupportLocalImpl@VConvexHullV@Gu@physx@@@Gu@physx@@UBEXABT__m128@@AAT4@1@Z 10108a40 f i GuPCMContactBoxConvex.obj
 0001:00107a70       ?populateVerts@?$SupportLocalImpl@VBoxV@Gu@physx@@@Gu@physx@@UBEXPBEIPBVPxVec3@3@PAT__m128@@@Z 10108a70 f i GuPCMContactBoxConvex.obj
 0001:00107ab0       ?populateVerts@?$SupportLocalImpl@VConvexHullNoScaleV@Gu@physx@@@Gu@physx@@UBEXPBEIPBVPxVec3@3@PAT__m128@@@Z 10108ab0 f i GuPCMContactBoxConvex.obj
 0001:00107af0       ?populateVerts@?$SupportLocalImpl@VConvexHullV@Gu@physx@@@Gu@physx@@UBEXPBEIPBVPxVec3@3@PAT__m128@@@Z 10108af0 f i GuPCMContactBoxConvex.obj
 0001:00107b30       ?populateVerts@BoxV@Gu@physx@@QBEXPBEIPBVPxVec3@3@PAT__m128@@@Z 10108b30 f i GuPCMContactBoxConvex.obj
 0001:00107bc0       ?populateVerts@ConvexHullNoScaleV@Gu@physx@@QBEXPBEIPBVPxVec3@3@PAT__m128@@@Z 10108bc0 f i GuPCMContactBoxConvex.obj
 0001:00107c50       ?populateVerts@ConvexHullV@Gu@physx@@QBEXPBEIPBVPxVec3@3@PAT__m128@@@Z 10108c50 f i GuPCMContactBoxConvex.obj
 0001:00107d00       ?supportLocal@BoxV@Gu@physx@@QBEXABT__m128@@AAT4@1@Z 10108d00 f i GuPCMContactBoxConvex.obj
 0001:00107de0       ?supportLocal@ConvexHullNoScaleV@Gu@physx@@QBEXABT__m128@@AAT4@1@Z 10108de0 f i GuPCMContactBoxConvex.obj
 0001:00107e10       ?supportLocal@ConvexHullV@Gu@physx@@QBEXABT__m128@@AAT4@1@Z 10108e10 f i GuPCMContactBoxConvex.obj
 0001:00107e40       ?supportVertexMinMax@ConvexHullNoScaleV@Gu@physx@@QBEXABT__m128@@AAT4@1@Z 10108e40 f i GuPCMContactBoxConvex.obj
 0001:00107f80       ?supportVertexMinMax@ConvexHullV@Gu@physx@@QBEXABT__m128@@AAT4@1@Z 10108f80 f i GuPCMContactBoxConvex.obj
 0001:00108140       ?pcmContactCapsuleBox@Gu@physx@@YA_NABVGeometryUnion@12@0ABVPxTransform@2@1ABMAAUCache@12@AAVContactBuffer@12@@Z 10109140 f   GuPCMContactCapsuleBox.obj
 0001:00108e10       ??0CapsuleV@Gu@physx@@QAE@ABT__m128@@00@Z 10109e10 f i GuPCMContactCapsuleBox.obj
 0001:00108f00       ?invalidate_SphereCapsule@PersistentContactManifold@Gu@physx@@QAEIABVPsTransformV@aos@shdfnd@3@ABT__m128@@@Z 10109f00 f i GuPCMContactCapsuleBox.obj
 0001:00109100       ?setMargin@ConvexV@Gu@physx@@QAEXABT__m128@@@Z 1010a100 f i GuPCMContactCapsuleBox.obj
 0001:00109120       ?transformInv@PsTransformV@aos@shdfnd@physx@@QBE?AT__m128@@ABT5@@Z 1010a120 f i GuPCMContactCapsuleBox.obj
 0001:001091f0       ?pcmContactCapsuleConvex@Gu@physx@@YA_NABVGeometryUnion@12@0ABVPxTransform@2@1ABMAAUCache@12@AAVContactBuffer@12@@Z 1010a1f0 f   GuPCMContactCapsuleConvex.obj
 0001:0010a020       ?CalculateCapsuleMinMargin@Gu@physx@@YA?AT__m128@@ABT3@@Z 1010b020 f i GuPCMContactCapsuleConvex.obj
 0001:0010a090       ?pcmContactCapsuleHeightField@Gu@physx@@YA_NABVGeometryUnion@12@0ABVPxTransform@2@1ABMAAUCache@12@AAVContactBuffer@12@@Z 1010b090 f   GuPCMContactCapsuleHeightField.obj
 0001:0010a5b0       ??$PX_UNUSED@PAVMeshPersistentContact@Gu@physx@@@@YAXABQAVMeshPersistentContact@Gu@physx@@@Z 1010b5b0 f i GuPCMContactCapsuleHeightField.obj
 0001:0010a5c0       ??$processTriangleCache@$0BA@@PCMCapsuleVsHeightfieldContactGenerationCallback@physx@@QAEXAAU?$TriangleCache@$0BA@@Gu@1@@Z 1010b5c0 f i GuPCMContactCapsuleHeightField.obj
 0001:0010a5f0       ??$processTriangleCache@$0BA@VPCMCapsuleVsMeshContactGeneration@Gu@physx@@@PCMMeshContactGeneration@Gu@physx@@QAE_NAAU?$TriangleCache@$0BA@@12@@Z 1010b5f0 f i GuPCMContactCapsuleHeightField.obj
 0001:0010a6c0       ??0?$PCMHeightfieldContactGenerationCallback@UPCMCapsuleVsHeightfieldContactGenerationCallback@physx@@@Gu@physx@@QAE@ABVHeightFieldUtil@12@ABVPxTransform@2@@Z 1010b6c0 f i GuPCMContactCapsuleHeightField.obj
 0001:0010a700       ??0PCMCapsuleVsHeightfieldContactGenerationCallback@physx@@QAE@ABVCapsuleV@Gu@1@ABT__m128@@1ABVPsTransformV@aos@shdfnd@1@2ABVPxTransform@1@AAVMultiplePersistentContactManifold@31@AAVContactBuffer@31@AAVHeightFieldUtil@31@@Z 1010b700 f i GuPCMContactCapsuleHeightField.obj
 0001:0010a770       ??0PCMCapsuleVsMeshContactGeneration@Gu@physx@@QAE@ABVCapsuleV@12@ABT__m128@@1ABVPsTransformV@aos@shdfnd@2@2AAVMultiplePersistentContactManifold@12@AAVContactBuffer@12@@Z 1010b770 f i GuPCMContactCapsuleHeightField.obj
 0001:0010a840       ??0PCMContactPatch@Gu@physx@@QAE@XZ 1010b840 f i GuPCMContactCapsuleHeightField.obj
 0001:0010a8b0       ??0PCMMeshContactGeneration@Gu@physx@@QAE@ABT__m128@@0ABVPsTransformV@aos@shdfnd@2@1AAVMultiplePersistentContactManifold@12@AAVContactBuffer@12@@Z 1010b8b0 f i GuPCMContactCapsuleHeightField.obj
 0001:0010aaa0       ??1?$PCMHeightfieldContactGenerationCallback@UPCMCapsuleVsHeightfieldContactGenerationCallback@physx@@@Gu@physx@@UAE@XZ 1010baa0 f i GuPCMContactCapsuleHeightField.obj
 0001:0010aac0       ??1PCMCapsuleVsHeightfieldContactGenerationCallback@physx@@UAE@XZ 1010bac0 f i GuPCMContactCapsuleHeightField.obj
 0001:0010aae0       ??_G?$PCMHeightfieldContactGenerationCallback@UPCMCapsuleVsHeightfieldContactGenerationCallback@physx@@@Gu@physx@@UAEPAXI@Z 1010bae0 f i GuPCMContactCapsuleHeightField.obj
 0001:0010aae0       ??_E?$PCMHeightfieldContactGenerationCallback@UPCMCapsuleVsHeightfieldContactGenerationCallback@physx@@@Gu@physx@@UAEPAXI@Z 1010bae0 f i GuPCMContactCapsuleHeightField.obj
 0001:0010ab20       ??_EPCMCapsuleVsHeightfieldContactGenerationCallback@physx@@UAEPAXI@Z 1010bb20 f i GuPCMContactCapsuleHeightField.obj
 0001:0010ab20       ??_GPCMCapsuleVsHeightfieldContactGenerationCallback@physx@@UAEPAXI@Z 1010bb20 f i GuPCMContactCapsuleHeightField.obj
 0001:0010ab60       ?getMultipleManifold@Cache@Gu@physx@@QAEAAVMultiplePersistentContactManifold@23@XZ 1010bb60 f i GuPCMContactCapsuleHeightField.obj
 0001:0010abd0       ?invalidate@MultiplePersistentContactManifold@Gu@physx@@QAEIABVPsTransformV@aos@shdfnd@3@ABT__m128@@1@Z 1010bbd0 f i GuPCMContactCapsuleHeightField.obj
 0001:0010ad30       ?isEmpty@SinglePersistentContactManifold@Gu@physx@@QAE_NXZ 1010bd30 f i GuPCMContactCapsuleHeightField.obj
 0001:0010ad70       ?maxTransformPositionDelta@MultiplePersistentContactManifold@Gu@physx@@QAE?AT__m128@@ABT4@@Z 1010bd70 f i GuPCMContactCapsuleHeightField.obj
 0001:0010ae10       ?onEvent@?$PCMHeightfieldContactGenerationCallback@UPCMCapsuleVsHeightfieldContactGenerationCallback@physx@@@Gu@physx@@UAE_NIPAI@Z 1010be10 f i GuPCMContactCapsuleHeightField.obj
 0001:0010b2c0       ?prioritizeContactPatches@PCMMeshContactGeneration@Gu@physx@@QAEXXZ 1010c2c0 f i GuPCMContactCapsuleHeightField.obj
 0001:0010b450       ?processContacts@PCMMeshContactGeneration@Gu@physx@@QAEXE_N@Z 1010c450 f i GuPCMContactCapsuleHeightField.obj
 0001:0010b5e0       ?reduceManifoldContactsInDifferentPatches@MultiplePersistentContactManifold@Gu@physx@@QAEIPAPAUPCMContactPatch@23@IPAVMeshPersistentContact@23@IABT__m128@@@Z 1010c5e0 f i GuPCMContactCapsuleHeightField.obj
 0001:0010b7c0       ?refineContactPatchConnective@MultiplePersistentContactManifold@Gu@physx@@QAEXPAPAUPCMContactPatch@23@IPAVMeshPersistentContact@23@ABT__m128@@@Z 1010c7c0 f i GuPCMContactCapsuleHeightField.obj
 0001:0010b940       ?refreshManifold@MultiplePersistentContactManifold@Gu@physx@@QAEXABVPsMatTransformV@aos@shdfnd@3@ABT__m128@@1@Z 1010c940 f i GuPCMContactCapsuleHeightField.obj
 0001:0010bb80       ?setRelativeTransform@MultiplePersistentContactManifold@Gu@physx@@QAEXABVPsTransformV@aos@shdfnd@3@@Z 1010cb80 f i GuPCMContactCapsuleHeightField.obj
 0001:0010bbb0       ?pcmContactCapsuleMesh@Gu@physx@@YA_NABVGeometryUnion@12@0ABVPxTransform@2@1ABMAAUCache@12@AAVContactBuffer@12@@Z 1010cbb0 f   GuPCMContactCapsuleMesh.obj
 0001:0010c1e0       ??$processTriangleCache@$0BA@@PCMCapsuleVsMeshContactGenerationCallback@physx@@QAEXAAU?$TriangleCache@$0BA@@Gu@1@@Z 1010d1e0 f i GuPCMContactCapsuleMesh.obj
 0001:0010c210       ??0?$PCMMeshContactGenerationCallback@UPCMCapsuleVsMeshContactGenerationCallback@physx@@@Gu@physx@@QAE@ABVFastVertex2ShapeScaling@Cm@2@PBE_N@Z 1010d210 f i GuPCMContactCapsuleMesh.obj
 0001:0010c270       ??0PCMCapsuleVsMeshContactGenerationCallback@physx@@QAE@ABVCapsuleV@Gu@1@ABT__m128@@1ABVPsTransformV@aos@shdfnd@1@2AAVMultiplePersistentContactManifold@31@AAVContactBuffer@31@PBEABVFastVertex2ShapeScaling@Cm@1@_N@Z 1010d270 f i GuPCMContactCapsuleMesh.obj
 0001:0010c2e0       ??1?$PCMMeshContactGenerationCallback@UPCMCapsuleVsMeshContactGenerationCallback@physx@@@Gu@physx@@UAE@XZ 1010d2e0 f i GuPCMContactCapsuleMesh.obj
 0001:0010c300       ??1PCMCapsuleVsMeshContactGenerationCallback@physx@@UAE@XZ 1010d300 f i GuPCMContactCapsuleMesh.obj
 0001:0010c320       ??_G?$PCMMeshContactGenerationCallback@UPCMCapsuleVsMeshContactGenerationCallback@physx@@@Gu@physx@@UAEPAXI@Z 1010d320 f i GuPCMContactCapsuleMesh.obj
 0001:0010c320       ??_E?$PCMMeshContactGenerationCallback@UPCMCapsuleVsMeshContactGenerationCallback@physx@@@Gu@physx@@UAEPAXI@Z 1010d320 f i GuPCMContactCapsuleMesh.obj
 0001:0010c360       ??_EPCMCapsuleVsMeshContactGenerationCallback@physx@@UAEPAXI@Z 1010d360 f i GuPCMContactCapsuleMesh.obj
 0001:0010c360       ??_GPCMCapsuleVsMeshContactGenerationCallback@physx@@UAEPAXI@Z 1010d360 f i GuPCMContactCapsuleMesh.obj
 0001:0010c3a0       ?doTest@PCMCapsuleVsMeshContactGenerationCallback@physx@@QAE_NABVPxVec3@2@00@Z 1010d3a0 f i GuPCMContactCapsuleMesh.obj
 0001:0010c3c0       ?flushCache@?$PCMMeshContactGenerationCallback@UPCMCapsuleVsMeshContactGenerationCallback@physx@@@Gu@physx@@QAEXXZ 1010d3c0 f i GuPCMContactCapsuleMesh.obj
 0001:0010c410       ?processHit@?$PCMMeshContactGenerationCallback@UPCMCapsuleVsMeshContactGenerationCallback@physx@@@Gu@physx@@UAE_NABUPxRaycastHit@3@ABVPxVec3@3@11AAMPBI@Z 1010d410 f i GuPCMContactCapsuleMesh.obj
 0001:0010c5f0       ?generateLastContacts@PCMConvexVsMeshContactGeneration@Gu@physx@@QAEXXZ 1010d5f0 f   GuPCMContactConvexCommon.obj
 0001:0010c7f0       ?addContactsToPatch@PCMConvexVsMeshContactGeneration@Gu@physx@@QAEXABT__m128@@II@Z 1010d7f0 f   GuPCMContactConvexCommon.obj
 0001:0010cb20       ?processTriangle@PCMConvexVsMeshContactGeneration@Gu@physx@@QAE_NPBVPxVec3@3@IEPBI@Z 1010db20 f   GuPCMContactConvexCommon.obj
 0001:0010cf40       ?processTriangle@PCMConvexVsMeshContactGeneration@Gu@physx@@SA_NABUPolygonalData@23@PAVSupportLocal@23@PBVPxVec3@3@IEABT__m128@@_NABVPsTransformV@aos@shdfnd@3@ABVPsMatTransformV@9shdfnd@3@PAVMeshPersistentContact@23@AAI@Z 1010df40 f   GuPCMContactConvexCommon.obj
 0001:0010d1e0       ?processTriangle@PCMSphereVsMeshContactGeneration@Gu@physx@@QAE_NPBVPxVec3@3@IEPBI@Z 1010e1e0 f   GuPCMContactConvexCommon.obj
 0001:0010d880       ?generateEEContacts@PCMCapsuleVsMeshContactGeneration@Gu@physx@@QAEXABT__m128@@000I000PAVMeshPersistentContact@23@AAI@Z 1010e880 f   GuPCMContactConvexCommon.obj
 0001:0010d920       ?generateEE@PCMCapsuleVsMeshContactGeneration@Gu@physx@@QAEXABT__m128@@000I00PAVMeshPersistentContact@23@AAI@Z 1010e920 f   GuPCMContactConvexCommon.obj
 0001:0010de00       ?generateContacts@PCMCapsuleVsMeshContactGeneration@Gu@physx@@SA_NABT__m128@@0000I000PAVMeshPersistentContact@23@AAI@Z 1010ee00 f   GuPCMContactConvexCommon.obj
 0001:0010e610       ?generateEEContactsMTD@PCMCapsuleVsMeshContactGeneration@Gu@physx@@SAXABT__m128@@000I000PAVMeshPersistentContact@23@AAI@Z 1010f610 f   GuPCMContactConvexCommon.obj
 0001:0010e6a0       ?generateEEMTD@PCMCapsuleVsMeshContactGeneration@Gu@physx@@SAXABT__m128@@000I00PAVMeshPersistentContact@23@AAI@Z 1010f6a0 f   GuPCMContactConvexCommon.obj
 0001:0010ead0       ?processTriangle@PCMCapsuleVsMeshContactGeneration@Gu@physx@@QAE_NPBVPxVec3@3@IEPBI@Z 1010fad0 f   GuPCMContactConvexCommon.obj
 0001:0010f2b0       ?processTriangle@PCMCapsuleVsMeshContactGeneration@Gu@physx@@SA_NABVTriangleV@23@IABVCapsuleV@23@ABT__m128@@EPAVMeshPersistentContact@23@AAI@Z 101102b0 f   GuPCMContactConvexCommon.obj
 0001:00110230       ?pcmDistanceSegmentTriangleSquared@Gu@physx@@YA?AT__m128@@ABT3@0000AAT3@11@Z 10111230 f   GuPCMContactConvexCommon.obj
 0001:00112670       ??$PX_UNUSED@PBI@@YAXABQBI@Z 10113670 f i GuPCMContactConvexCommon.obj
 0001:00112680       ??0?$SupportLocalImpl@VTriangleV@Gu@physx@@@Gu@physx@@QAE@ABVTriangleV@12@ABVPsTransformV@aos@shdfnd@2@ABUMat33V@562@2_N@Z 10113680 f i GuPCMContactConvexCommon.obj
 0001:001126d0       ??0TriangleV@Gu@physx@@QAE@PBVPxVec3@2@@Z 101136d0 f i GuPCMContactConvexCommon.obj
 0001:001128b0       ??1?$SupportLocalImpl@VTriangleV@Gu@physx@@@Gu@physx@@UAE@XZ 101138b0 f i GuPCMContactConvexCommon.obj
 0001:001128d0       ??_G?$SupportLocalImpl@VTriangleV@Gu@physx@@@Gu@physx@@UAEPAXI@Z 101138d0 f i GuPCMContactConvexCommon.obj
 0001:001128d0       ??_E?$SupportLocalImpl@VTriangleV@Gu@physx@@@Gu@physx@@UAEPAXI@Z 101138d0 f i GuPCMContactConvexCommon.obj
 0001:00112910       ?FNegMulSub@aos@shdfnd@physx@@YA?AT__m128@@T4@00@Z 10113910 f i GuPCMContactConvexCommon.obj
 0001:00112970       ?V4Perm_XZXZ@aos@shdfnd@physx@@YA?AT__m128@@T4@@Z 10113970 f i GuPCMContactConvexCommon.obj
 0001:001129c0       ?V4Perm_YWYW@aos@shdfnd@physx@@YA?AT__m128@@T4@@Z 101139c0 f i GuPCMContactConvexCommon.obj
 0001:00112a10       ?V4Perm_YXWZ@aos@shdfnd@physx@@YA?AT__m128@@T4@@Z 10113a10 f i GuPCMContactConvexCommon.obj
 0001:00112a60       ?addManifoldPointToPatch@PCMMeshContactGeneration@Gu@physx@@QAEXABT__m128@@0I@Z 10113a60 f i GuPCMContactConvexCommon.obj
 0001:00112df0       ?doSupport@?$SupportLocalImpl@VTriangleV@Gu@physx@@@Gu@physx@@UBE?AT__m128@@ABT4@@Z 10113df0 f i GuPCMContactConvexCommon.obj
 0001:00112e20       ?doSupport@?$SupportLocalImpl@VTriangleV@Gu@physx@@@Gu@physx@@UBEXABT__m128@@AAT4@1@Z 10113e20 f i GuPCMContactConvexCommon.obj
 0001:00112e50       ?get@?$CacheMap@UCachedEdge@Gu@physx@@$0IA@@Gu@physx@@QBEPBUCachedEdge@23@ABU423@@Z 10113e50 f i GuPCMContactConvexCommon.obj
 0001:00112ef0       ?isValidTriangleBarycentricCoord2@Gu@physx@@YA?AT__m128@@ABT3@@Z 10113ef0 f i GuPCMContactConvexCommon.obj
 0001:001130e0       ?normal@TriangleV@Gu@physx@@QBE?AT__m128@@XZ 101140e0 f i GuPCMContactConvexCommon.obj
 0001:001131d0       ?pcmDistanceSegmentSegmentSquared4@Gu@physx@@YA?AT__m128@@ABT3@000000000AAT3@1@Z 101141d0 f i GuPCMContactConvexCommon.obj
 0001:00114090       ?populateVerts@?$SupportLocalImpl@VTriangleV@Gu@physx@@@Gu@physx@@UBEXPBEIPBVPxVec3@3@PAT__m128@@@Z 10115090 f i GuPCMContactConvexCommon.obj
 0001:001140d0       ?populateVerts@TriangleV@Gu@physx@@QBEXPBEIPBVPxVec3@3@PAT__m128@@@Z 101150d0 f i GuPCMContactConvexCommon.obj
 0001:00114160       ?supportLocal@TriangleV@Gu@physx@@QBEXABT__m128@@AAT4@1@Z 10115160 f i GuPCMContactConvexCommon.obj
 0001:001142e0       ?pcmContactConvexConvex@Gu@physx@@YA_NABVGeometryUnion@12@0ABVPxTransform@2@1ABMAAUCache@12@AAVContactBuffer@12@@Z 101152e0 f   GuPCMContactConvexConvex.obj
 0001:00115650       ?pcmContactBoxHeightField@Gu@physx@@YA_NABVGeometryUnion@12@0ABVPxTransform@2@1ABMAAUCache@12@AAVContactBuffer@12@@Z 10116650 f   GuPCMContactConvexHeightField.obj
 0001:00115860       ?pcmContactConvexHeightField@Gu@physx@@YA_NABVGeometryUnion@12@0ABVPxTransform@2@1ABMAAUCache@12@AAVContactBuffer@12@@Z 10116860 f   GuPCMContactConvexHeightField.obj
 0001:00115b20       ?PCMContactConvexHeightfield@Gu@physx@@YA_NABUPolygonalData@12@PAVSupportLocal@12@ABT__m128@@ABVPxBounds3@2@ABVPxHeightFieldGeometry@2@ABVPxTransform@2@5MAAVContactBuffer@12@ABVFastVertex2ShapeScaling@Cm@2@_NAAVMultiplePersistentContactManifold@12@@Z 10116b20 f   GuPCMContactConvexHeightField.obj
 0001:001160b0       ??$processTriangleCache@$0BA@@PCMConvexVsHeightfieldContactGenerationCallback@physx@@QAEXAAU?$TriangleCache@$0BA@@Gu@1@@Z 101170b0 f i GuPCMContactConvexHeightField.obj
 0001:001160e0       ??$processTriangleCache@$0BA@VPCMConvexVsMeshContactGeneration@Gu@physx@@@PCMMeshContactGeneration@Gu@physx@@QAE_NAAU?$TriangleCache@$0BA@@12@@Z 101170e0 f i GuPCMContactConvexHeightField.obj
 0001:001161b0       ??0?$PCMHeightfieldContactGenerationCallback@UPCMConvexVsHeightfieldContactGenerationCallback@physx@@@Gu@physx@@QAE@ABVHeightFieldUtil@12@ABVPxTransform@2@@Z 101171b0 f i GuPCMContactConvexHeightField.obj
 0001:001161f0       ??0?$SupportLocalShrunkImpl@VBoxV@Gu@physx@@VShrunkBoxV@23@@Gu@physx@@QAE@ABVBoxV@12@ABVPsTransformV@aos@shdfnd@2@ABUMat33V@562@2_N@Z 101171f0 f i GuPCMContactConvexHeightField.obj
 0001:00116250       ??0?$SupportLocalShrunkImpl@VConvexHullNoScaleV@Gu@physx@@VShrunkConvexHullNoScaleV@23@@Gu@physx@@QAE@ABVConvexHullNoScaleV@12@ABVPsTransformV@aos@shdfnd@2@ABUMat33V@562@2_N@Z 10117250 f i GuPCMContactConvexHeightField.obj
 0001:001162b0       ??0?$SupportLocalShrunkImpl@VConvexHullV@Gu@physx@@VShrunkConvexHullV@23@@Gu@physx@@QAE@ABVConvexHullV@12@ABVPsTransformV@aos@shdfnd@2@ABUMat33V@562@2_N@Z 101172b0 f i GuPCMContactConvexHeightField.obj
 0001:00116310       ??0PCMConvexVsHeightfieldContactGenerationCallback@physx@@QAE@ABT__m128@@0ABUPolygonalData@Gu@1@PAVSupportLocal@41@ABVFastVertex2ShapeScaling@Cm@1@_NABVPsTransformV@aos@shdfnd@1@5ABVPxTransform@1@AAVMultiplePersistentContactManifold@41@AAVContactBuffer@41@AAVHeightFieldUtil@41@AAVContainer@41@@Z 10117310 f i GuPCMContactConvexHeightField.obj
 0001:00116390       ??0PCMConvexVsMeshContactGeneration@Gu@physx@@QAE@ABT__m128@@0ABVPsTransformV@aos@shdfnd@2@1AAVMultiplePersistentContactManifold@12@AAVContactBuffer@12@ABUPolygonalData@12@PAVSupportLocal@12@AAVContainer@12@ABVFastVertex2ShapeScaling@Cm@2@_N@Z 10117390 f i GuPCMContactConvexHeightField.obj
 0001:001164a0       ??1?$PCMHeightfieldContactGenerationCallback@UPCMConvexVsHeightfieldContactGenerationCallback@physx@@@Gu@physx@@UAE@XZ 101174a0 f i GuPCMContactConvexHeightField.obj
 0001:001164c0       ??1?$SupportLocalShrunkImpl@VBoxV@Gu@physx@@VShrunkBoxV@23@@Gu@physx@@UAE@XZ 101174c0 f i GuPCMContactConvexHeightField.obj
 0001:001164e0       ??1?$SupportLocalShrunkImpl@VConvexHullNoScaleV@Gu@physx@@VShrunkConvexHullNoScaleV@23@@Gu@physx@@UAE@XZ 101174e0 f i GuPCMContactConvexHeightField.obj
 0001:00116500       ??1?$SupportLocalShrunkImpl@VConvexHullV@Gu@physx@@VShrunkConvexHullV@23@@Gu@physx@@UAE@XZ 10117500 f i GuPCMContactConvexHeightField.obj
 0001:00116520       ??1PCMConvexVsHeightfieldContactGenerationCallback@physx@@UAE@XZ 10117520 f i GuPCMContactConvexHeightField.obj
 0001:00116540       ??_E?$PCMHeightfieldContactGenerationCallback@UPCMConvexVsHeightfieldContactGenerationCallback@physx@@@Gu@physx@@UAEPAXI@Z 10117540 f i GuPCMContactConvexHeightField.obj
 0001:00116540       ??_G?$PCMHeightfieldContactGenerationCallback@UPCMConvexVsHeightfieldContactGenerationCallback@physx@@@Gu@physx@@UAEPAXI@Z 10117540 f i GuPCMContactConvexHeightField.obj
 0001:00116580       ??_G?$SupportLocalShrunkImpl@VBoxV@Gu@physx@@VShrunkBoxV@23@@Gu@physx@@UAEPAXI@Z 10117580 f i GuPCMContactConvexHeightField.obj
 0001:00116580       ??_E?$SupportLocalShrunkImpl@VBoxV@Gu@physx@@VShrunkBoxV@23@@Gu@physx@@UAEPAXI@Z 10117580 f i GuPCMContactConvexHeightField.obj
 0001:001165c0       ??_G?$SupportLocalShrunkImpl@VConvexHullNoScaleV@Gu@physx@@VShrunkConvexHullNoScaleV@23@@Gu@physx@@UAEPAXI@Z 101175c0 f i GuPCMContactConvexHeightField.obj
 0001:001165c0       ??_E?$SupportLocalShrunkImpl@VConvexHullNoScaleV@Gu@physx@@VShrunkConvexHullNoScaleV@23@@Gu@physx@@UAEPAXI@Z 101175c0 f i GuPCMContactConvexHeightField.obj
 0001:00116600       ??_E?$SupportLocalShrunkImpl@VConvexHullV@Gu@physx@@VShrunkConvexHullV@23@@Gu@physx@@UAEPAXI@Z 10117600 f i GuPCMContactConvexHeightField.obj
 0001:00116600       ??_G?$SupportLocalShrunkImpl@VConvexHullV@Gu@physx@@VShrunkConvexHullV@23@@Gu@physx@@UAEPAXI@Z 10117600 f i GuPCMContactConvexHeightField.obj
 0001:00116640       ??_GPCMConvexVsHeightfieldContactGenerationCallback@physx@@UAEPAXI@Z 10117640 f i GuPCMContactConvexHeightField.obj
 0001:00116640       ??_EPCMConvexVsHeightfieldContactGenerationCallback@physx@@UAEPAXI@Z 10117640 f i GuPCMContactConvexHeightField.obj
 0001:00116680       ?doSupport@?$SupportLocalShrunkImpl@VBoxV@Gu@physx@@VShrunkBoxV@23@@Gu@physx@@UBE?AT__m128@@ABT4@@Z 10117680 f i GuPCMContactConvexHeightField.obj
 0001:001166b0       ?doSupport@?$SupportLocalShrunkImpl@VBoxV@Gu@physx@@VShrunkBoxV@23@@Gu@physx@@UBEXABT__m128@@AAT4@1@Z 101176b0 f i GuPCMContactConvexHeightField.obj
 0001:001166e0       ?doSupport@?$SupportLocalShrunkImpl@VConvexHullNoScaleV@Gu@physx@@VShrunkConvexHullNoScaleV@23@@Gu@physx@@UBE?AT__m128@@ABT4@@Z 101176e0 f i GuPCMContactConvexHeightField.obj
 0001:00116710       ?doSupport@?$SupportLocalShrunkImpl@VConvexHullNoScaleV@Gu@physx@@VShrunkConvexHullNoScaleV@23@@Gu@physx@@UBEXABT__m128@@AAT4@1@Z 10117710 f i GuPCMContactConvexHeightField.obj
 0001:00116740       ?doSupport@?$SupportLocalShrunkImpl@VConvexHullV@Gu@physx@@VShrunkConvexHullV@23@@Gu@physx@@UBE?AT__m128@@ABT4@@Z 10117740 f i GuPCMContactConvexHeightField.obj
 0001:00116770       ?doSupport@?$SupportLocalShrunkImpl@VConvexHullV@Gu@physx@@VShrunkConvexHullV@23@@Gu@physx@@UBEXABT__m128@@AAT4@1@Z 10117770 f i GuPCMContactConvexHeightField.obj
 0001:001167a0       ?invalidate@MultiplePersistentContactManifold@Gu@physx@@QAEIABVPsTransformV@aos@shdfnd@3@ABT__m128@@@Z 101177a0 f i GuPCMContactConvexHeightField.obj
 0001:00116810       ?onEvent@?$PCMHeightfieldContactGenerationCallback@UPCMConvexVsHeightfieldContactGenerationCallback@physx@@@Gu@physx@@UAE_NIPAI@Z 10117810 f i GuPCMContactConvexHeightField.obj
 0001:00116cc0       ?populateVerts@?$SupportLocalShrunkImpl@VBoxV@Gu@physx@@VShrunkBoxV@23@@Gu@physx@@UBEXPBEIPBVPxVec3@3@PAT__m128@@@Z 10117cc0 f i GuPCMContactConvexHeightField.obj
 0001:00116d00       ?populateVerts@?$SupportLocalShrunkImpl@VConvexHullNoScaleV@Gu@physx@@VShrunkConvexHullNoScaleV@23@@Gu@physx@@UBEXPBEIPBVPxVec3@3@PAT__m128@@@Z 10117d00 f i GuPCMContactConvexHeightField.obj
 0001:00116d40       ?populateVerts@?$SupportLocalShrunkImpl@VConvexHullV@Gu@physx@@VShrunkConvexHullV@23@@Gu@physx@@UBEXPBEIPBVPxVec3@3@PAT__m128@@@Z 10117d40 f i GuPCMContactConvexHeightField.obj
 0001:00116d80       ?pcmContactBoxMesh@Gu@physx@@YA_NABVGeometryUnion@12@0ABVPxTransform@2@1ABMAAUCache@12@AAVContactBuffer@12@@Z 10117d80 f   GuPCMContactConvexMesh.obj
 0001:00116f60       ?pcmContactConvexMesh@Gu@physx@@YA_NABVGeometryUnion@12@0ABVPxTransform@2@1ABMAAUCache@12@AAVContactBuffer@12@@Z 10117f60 f   GuPCMContactConvexMesh.obj
 0001:00117220       ?PCMContactConvexMesh@Gu@physx@@YA_NABUPolygonalData@12@PAVSupportLocal@12@ABT__m128@@ABVPxBounds3@2@ABUPxTriangleMeshGeometryLL@2@ABVPxTransform@2@5MAAVContactBuffer@12@ABVFastVertex2ShapeScaling@Cm@2@7_N8AAVMultiplePersistentContactManifold@12@@Z 10118220 f   GuPCMContactConvexMesh.obj
 0001:00117850       ??$processTriangleCache@$0BA@@PCMConvexVsMeshContactGenerationCallback@physx@@QAEXAAU?$TriangleCache@$0BA@@Gu@1@@Z 10118850 f i GuPCMContactConvexMesh.obj
 0001:00117880       ??0?$PCMMeshContactGenerationCallback@UPCMConvexVsMeshContactGenerationCallback@physx@@@Gu@physx@@QAE@ABVFastVertex2ShapeScaling@Cm@2@PBE_N@Z 10118880 f i GuPCMContactConvexMesh.obj
 0001:001178e0       ??0PCMConvexVsMeshContactGenerationCallback@physx@@QAE@ABT__m128@@0ABVPsTransformV@aos@shdfnd@1@1AAVMultiplePersistentContactManifold@Gu@1@AAVContactBuffer@71@ABUPolygonalData@71@PAVSupportLocal@71@AAVContainer@71@ABVFastVertex2ShapeScaling@Cm@1@_N7PBE8ABVBox@71@@Z 101188e0 f i GuPCMContactConvexMesh.obj
 0001:00117980       ??1?$PCMMeshContactGenerationCallback@UPCMConvexVsMeshContactGenerationCallback@physx@@@Gu@physx@@UAE@XZ 10118980 f i GuPCMContactConvexMesh.obj
 0001:001179a0       ??1PCMConvexVsMeshContactGenerationCallback@physx@@UAE@XZ 101189a0 f i GuPCMContactConvexMesh.obj
 0001:001179c0       ??_G?$PCMMeshContactGenerationCallback@UPCMConvexVsMeshContactGenerationCallback@physx@@@Gu@physx@@UAEPAXI@Z 101189c0 f i GuPCMContactConvexMesh.obj
 0001:001179c0       ??_E?$PCMMeshContactGenerationCallback@UPCMConvexVsMeshContactGenerationCallback@physx@@@Gu@physx@@UAEPAXI@Z 101189c0 f i GuPCMContactConvexMesh.obj
 0001:00117a00       ??_GPCMConvexVsMeshContactGenerationCallback@physx@@UAEPAXI@Z 10118a00 f i GuPCMContactConvexMesh.obj
 0001:00117a00       ??_EPCMConvexVsMeshContactGenerationCallback@physx@@UAEPAXI@Z 10118a00 f i GuPCMContactConvexMesh.obj
 0001:00117a40       ?doTest@PCMConvexVsMeshContactGenerationCallback@physx@@QAEHABVPxVec3@2@00@Z 10118a40 f i GuPCMContactConvexMesh.obj
 0001:00117a70       ?flushCache@?$PCMMeshContactGenerationCallback@UPCMConvexVsMeshContactGenerationCallback@physx@@@Gu@physx@@QAEXXZ 10118a70 f i GuPCMContactConvexMesh.obj
 0001:00117ac0       ?processHit@?$PCMMeshContactGenerationCallback@UPCMConvexVsMeshContactGenerationCallback@physx@@@Gu@physx@@UAE_NABUPxRaycastHit@3@ABVPxVec3@3@11AAMPBI@Z 10118ac0 f i GuPCMContactConvexMesh.obj
 0001:00117ca0       ?generateFullContactManifold@Gu@physx@@YA_NAAUPolygonalData@12@0PAVSupportLocal@12@1PAVPersistentContact@12@AAIABT__m128@@4_N@Z 10118ca0 f   GuPCMContactGenBoxConvex.obj
 0001:00118170       ?computeMTD@Gu@physx@@YA_NAAUPolygonalData@12@0PAVSupportLocal@12@1AAT__m128@@2@Z 10119170 f   GuPCMContactGenBoxConvex.obj
 0001:001183a0       ?buildPartialHull@Gu@physx@@YAXABUPolygonalData@12@PAVSupportLocal@12@AAVSeparatingAxes@12@ABT__m128@@3@Z 101193a0 f   GuPCMContactGenBoxConvex.obj
 0001:00119630       ?generatedContacts@Gu@physx@@YAXAAUPolygonalData@12@0ABUHullPolygonData@12@1PAVSupportLocal@12@2ABVPsMatTransformV@aos@shdfnd@2@PAVPersistentContact@12@AAIABT__m128@@@Z 1011a630 f   GuPCMContactGenBoxConvex.obj
 0001:0011b000       ??$PX_UNUSED@UPolygonalData@Gu@physx@@@@YAXABUPolygonalData@Gu@physx@@@Z 1011c000 f i GuPCMContactGenBoxConvex.obj
 0001:0011b010       ?getPolygonIndex@Gu@physx@@YAHABUPolygonalData@12@PAVSupportLocal@12@ABT__m128@@@Z 1011c010 f i GuPCMContactGenBoxConvex.obj
 0001:0011b5f0       ?signed2DTriArea@Gu@physx@@YA?AT__m128@@ABT3@00@Z 1011c5f0 f i GuPCMContactGenBoxConvex.obj
 0001:0011b730       ?generateFullContactManifold@Gu@physx@@YA_NABVCapsuleV@12@AAUPolygonalData@12@PAVSupportLocal@12@ABVPsMatTransformV@aos@shdfnd@2@PAVPersistentContact@12@AAIABT__m128@@AAT__m128@@_N@Z 1011c730 f   GuPCMContactGenSphereCapsule.obj
 0001:0011b830       ?generateCapsuleBoxFullContactManifold@Gu@physx@@YA_NABVCapsuleV@12@AAUPolygonalData@12@PAVSupportLocal@12@ABVPsMatTransformV@aos@shdfnd@2@PAVPersistentContact@12@AAIABT__m128@@AAT__m128@@_N@Z 1011c830 f   GuPCMContactGenSphereCapsule.obj
 0001:0011b930       ?computeMTD@Gu@physx@@YA_NABVCapsuleV@12@AAUPolygonalData@12@PAVSupportLocal@12@AAT__m128@@3@Z 1011c930 f   GuPCMContactGenSphereCapsule.obj
 0001:0011b9c0       ?generateSphereFullContactManifold@Gu@physx@@YA_NABVCapsuleV@12@AAUPolygonalData@12@PAVSupportLocal@12@PAVPersistentContact@12@AAIABT__m128@@AAT7@_N@Z 1011c9c0 f   GuPCMContactGenSphereCapsule.obj
 0001:0011bfe0       ?generatedCapsuleBoxFaceContacts@Gu@physx@@YAXABVCapsuleV@12@AAUPolygonalData@12@ABUHullPolygonData@12@PAVSupportLocal@12@ABVPsMatTransformV@aos@shdfnd@2@PAVPersistentContact@12@AAIABT__m128@@7@Z 1011cfe0 f   GuPCMContactGenSphereCapsule.obj
 0001:0011cd70       ?generatedContactsEEContacts@Gu@physx@@YAXABVCapsuleV@12@AAUPolygonalData@12@ABUHullPolygonData@12@PAVSupportLocal@12@ABVPsMatTransformV@aos@shdfnd@2@PAVPersistentContact@12@AAIABT__m128@@7@Z 1011dd70 f   GuPCMContactGenSphereCapsule.obj
 0001:0011d450       ?BAndNot@aos@shdfnd@physx@@YA?AT__m128@@T4@0@Z 1011e450 f i GuPCMContactGenSphereCapsule.obj
 0001:0011d4a0       ?intersectSegmentPolyhedron@Gu@physx@@YA_NABT__m128@@0ABUPolygonalData@12@AAT3@2@Z 1011e4a0 f i GuPCMContactGenSphereCapsule.obj
 0001:0011d850       ?testPolyDataAxis@Gu@physx@@YA_NABVCapsuleV@12@ABUPolygonalData@12@PAVSupportLocal@12@ABT__m128@@AAT6@4@Z 1011e850 f i GuPCMContactGenSphereCapsule.obj
 0001:0011dd30       ?pcmContactPlaneBox@Gu@physx@@YA_NABVGeometryUnion@12@0ABVPxTransform@2@1ABMAAUCache@12@AAVContactBuffer@12@@Z 1011ed30 f   GuPCMContactPlaneBox.obj
 0001:0011f030       ?QuatGetBasisVector0@aos@shdfnd@physx@@YA?AT__m128@@T4@@Z 10120030 f i GuPCMContactPlaneBox.obj
 0001:0011f280       ?invalidate_PrimitivesPlane@PersistentContactManifold@Gu@physx@@QAEIABVPsTransformV@aos@shdfnd@3@ABT__m128@@1@Z 10120280 f i GuPCMContactPlaneBox.obj
 0001:0011f3e0       ?pcmContactPlaneCapsule@Gu@physx@@YA_NABVGeometryUnion@12@0ABVPxTransform@2@1ABMAAUCache@12@AAVContactBuffer@12@@Z 101203e0 f   GuPCMContactPlaneCapsule.obj
 0001:0011fae0       ?pcmContactPlaneConvex@Gu@physx@@YA_NABVGeometryUnion@12@0ABVPxTransform@2@1ABMAAUCache@12@AAVContactBuffer@12@@Z 10120ae0 f   GuPCMContactPlaneConvex.obj
 0001:00120100       ?ConstructVertex2ShapeMatrix@Gu@physx@@YA?AUMat33V@aos@shdfnd@2@ABT__m128@@0@Z 10121100 f i GuPCMContactPlaneConvex.obj
 0001:00120220       ?pcmContactSphereConvex@Gu@physx@@YA_NABVGeometryUnion@12@0ABVPxTransform@2@1ABMAAUCache@12@AAVContactBuffer@12@@Z 10121220 f   GuPCMContactSphereConvex.obj
 0001:00121230       ??0?$EPASupportMapPairLocalImpl@VCapsuleV@Gu@physx@@VConvexHullNoScaleV@23@@Gu@physx@@QAE@ABVCapsuleV@12@ABVConvexHullNoScaleV@12@@Z 10122230 f i GuPCMContactSphereConvex.obj
 0001:00121270       ??0CapsuleV@Gu@physx@@QAE@ABT__m128@@0@Z 10122270 f i GuPCMContactSphereConvex.obj
 0001:00121330       ??1?$EPASupportMapPairLocalImpl@VCapsuleV@Gu@physx@@VConvexHullNoScaleV@23@@Gu@physx@@UAE@XZ 10122330 f i GuPCMContactSphereConvex.obj
 0001:00121350       ??_G?$EPASupportMapPairLocalImpl@VCapsuleV@Gu@physx@@VConvexHullNoScaleV@23@@Gu@physx@@UAEPAXI@Z 10122350 f i GuPCMContactSphereConvex.obj
 0001:00121350       ??_E?$EPASupportMapPairLocalImpl@VCapsuleV@Gu@physx@@VConvexHullNoScaleV@23@@Gu@physx@@UAEPAXI@Z 10122350 f i GuPCMContactSphereConvex.obj
 0001:00121390       ?doSupport@?$EPASupportMapPairLocalImpl@VCapsuleV@Gu@physx@@VConvexHullNoScaleV@23@@Gu@physx@@UBEXABT__m128@@AAT4@11@Z 10122390 f i GuPCMContactSphereConvex.obj
 0001:00121440       ?doWarmStartSupport@?$EPASupportMapPairLocalImpl@VCapsuleV@Gu@physx@@VConvexHullNoScaleV@23@@Gu@physx@@UBEXHHAAT__m128@@00@Z 10122440 f i GuPCMContactSphereConvex.obj
 0001:001214e0       ?getContactPoint@PersistentContactManifold@Gu@physx@@QAEAAVPersistentContact@23@I@Z 101224e0 f i GuPCMContactSphereConvex.obj
 0001:00121550       ?getDir@?$EPASupportMapPairLocalImpl@VCapsuleV@Gu@physx@@VConvexHullNoScaleV@23@@Gu@physx@@UBE?AT__m128@@XZ 10122550 f i GuPCMContactSphereConvex.obj
 0001:001215d0       ?pcmContactSphereHeightField@Gu@physx@@YA_NABVGeometryUnion@12@0ABVPxTransform@2@1ABMAAUCache@12@AAVContactBuffer@12@@Z 101225d0 f   GuPCMContactSphereHeightField.obj
 0001:00121ab0       ??$processTriangleCache@$0BA@@PCMSphereVsHeightfieldContactGenerationCallback@physx@@QAEXAAU?$TriangleCache@$0BA@@Gu@1@@Z 10122ab0 f i GuPCMContactSphereHeightField.obj
 0001:00121ae0       ??$processTriangleCache@$0BA@VPCMSphereVsMeshContactGeneration@Gu@physx@@@PCMMeshContactGeneration@Gu@physx@@QAE_NAAU?$TriangleCache@$0BA@@12@@Z 10122ae0 f i GuPCMContactSphereHeightField.obj
 0001:00121bb0       ??0?$PCMHeightfieldContactGenerationCallback@UPCMSphereVsHeightfieldContactGenerationCallback@physx@@@Gu@physx@@QAE@ABVHeightFieldUtil@12@ABVPxTransform@2@@Z 10122bb0 f i GuPCMContactSphereHeightField.obj
 0001:00121bf0       ??0PCMSphereVsHeightfieldContactGenerationCallback@physx@@QAE@ABT__m128@@000ABVPsTransformV@aos@shdfnd@1@1ABVPxTransform@1@AAVMultiplePersistentContactManifold@Gu@1@AAVContactBuffer@81@AAVHeightFieldUtil@81@@Z 10122bf0 f i GuPCMContactSphereHeightField.obj
 0001:00121c60       ??0PCMSphereVsMeshContactGeneration@Gu@physx@@QAE@ABT__m128@@000ABVPsTransformV@aos@shdfnd@2@1AAVMultiplePersistentContactManifold@12@AAVContactBuffer@12@@Z 10122c60 f i GuPCMContactSphereHeightField.obj
 0001:00121d30       ??1?$PCMHeightfieldContactGenerationCallback@UPCMSphereVsHeightfieldContactGenerationCallback@physx@@@Gu@physx@@UAE@XZ 10122d30 f i GuPCMContactSphereHeightField.obj
 0001:00121d50       ??1PCMSphereVsHeightfieldContactGenerationCallback@physx@@UAE@XZ 10122d50 f i GuPCMContactSphereHeightField.obj
 0001:00121d70       ??_E?$PCMHeightfieldContactGenerationCallback@UPCMSphereVsHeightfieldContactGenerationCallback@physx@@@Gu@physx@@UAEPAXI@Z 10122d70 f i GuPCMContactSphereHeightField.obj
 0001:00121d70       ??_G?$PCMHeightfieldContactGenerationCallback@UPCMSphereVsHeightfieldContactGenerationCallback@physx@@@Gu@physx@@UAEPAXI@Z 10122d70 f i GuPCMContactSphereHeightField.obj
 0001:00121db0       ??_EPCMSphereVsHeightfieldContactGenerationCallback@physx@@UAEPAXI@Z 10122db0 f i GuPCMContactSphereHeightField.obj
 0001:00121db0       ??_GPCMSphereVsHeightfieldContactGenerationCallback@physx@@UAEPAXI@Z 10122db0 f i GuPCMContactSphereHeightField.obj
 0001:00121df0       ?onEvent@?$PCMHeightfieldContactGenerationCallback@UPCMSphereVsHeightfieldContactGenerationCallback@physx@@@Gu@physx@@UAE_NIPAI@Z 10122df0 f i GuPCMContactSphereHeightField.obj
 0001:001222a0       ?pcmContactSphereMesh@Gu@physx@@YA_NABVGeometryUnion@12@0ABVPxTransform@2@1ABMAAUCache@12@AAVContactBuffer@12@@Z 101232a0 f   GuPCMContactSphereMesh.obj
 0001:00122840       ??$processTriangleCache@$0BA@@PCMSphereVsMeshContactGenerationCallback@physx@@QAEXAAU?$TriangleCache@$0BA@@Gu@1@@Z 10123840 f i GuPCMContactSphereMesh.obj
 0001:00122870       ??0?$PCMMeshContactGenerationCallback@UPCMSphereVsMeshContactGenerationCallback@physx@@@Gu@physx@@QAE@ABVFastVertex2ShapeScaling@Cm@2@PBE_N@Z 10123870 f i GuPCMContactSphereMesh.obj
 0001:001228d0       ??0PCMSphereVsMeshContactGenerationCallback@physx@@QAE@ABT__m128@@000ABVPsTransformV@aos@shdfnd@1@1AAVMultiplePersistentContactManifold@Gu@1@AAVContactBuffer@71@PBEABVFastVertex2ShapeScaling@Cm@1@_N@Z 101238d0 f i GuPCMContactSphereMesh.obj
 0001:00122950       ??1?$PCMMeshContactGenerationCallback@UPCMSphereVsMeshContactGenerationCallback@physx@@@Gu@physx@@UAE@XZ 10123950 f i GuPCMContactSphereMesh.obj
 0001:00122970       ??1PCMSphereVsMeshContactGenerationCallback@physx@@UAE@XZ 10123970 f i GuPCMContactSphereMesh.obj
 0001:00122990       ??_G?$PCMMeshContactGenerationCallback@UPCMSphereVsMeshContactGenerationCallback@physx@@@Gu@physx@@UAEPAXI@Z 10123990 f i GuPCMContactSphereMesh.obj
 0001:00122990       ??_E?$PCMMeshContactGenerationCallback@UPCMSphereVsMeshContactGenerationCallback@physx@@@Gu@physx@@UAEPAXI@Z 10123990 f i GuPCMContactSphereMesh.obj
 0001:001229d0       ??_EPCMSphereVsMeshContactGenerationCallback@physx@@UAEPAXI@Z 101239d0 f i GuPCMContactSphereMesh.obj
 0001:001229d0       ??_GPCMSphereVsMeshContactGenerationCallback@physx@@UAEPAXI@Z 101239d0 f i GuPCMContactSphereMesh.obj
 0001:00122a10       ?doTest@PCMSphereVsMeshContactGenerationCallback@physx@@QAE_NABVPxVec3@2@00@Z 10123a10 f i GuPCMContactSphereMesh.obj
 0001:00122a30       ?flushCache@?$PCMMeshContactGenerationCallback@UPCMSphereVsMeshContactGenerationCallback@physx@@@Gu@physx@@QAEXXZ 10123a30 f i GuPCMContactSphereMesh.obj
 0001:00122a80       ?processHit@?$PCMMeshContactGenerationCallback@UPCMSphereVsMeshContactGenerationCallback@physx@@@Gu@physx@@UAE_NABUPxRaycastHit@3@ABVPxVec3@3@11AAMPBI@Z 10123a80 f i GuPCMContactSphereMesh.obj
 0001:00122c60       ??0PCMPolygonalBox@Gu@physx@@QAE@ABVPxVec3@2@@Z 10123c60 f   GuPCMShapeConvex.obj
 0001:00123480       ?getPolygonalData@PCMPolygonalBox@Gu@physx@@QBEXPIAUPolygonalData@23@@Z 10124480 f   GuPCMShapeConvex.obj
 0001:00123580       ?getPCMConvexData@Gu@physx@@YAXABVConvexHullV@12@_NAAUPolygonalData@12@@Z 10124580 f   GuPCMShapeConvex.obj
 0001:00123610       ?getPCMConvexData@Gu@physx@@YA_NABVGeometryUnion@12@AAVFastVertex2ShapeScaling@Cm@2@AAVPxBounds3@2@AAUPolygonalData@12@@Z 10124610 f   GuPCMShapeConvex.obj
 0001:00123bc0       ?generateTriangleFullContactManifold@PCMConvexVsMeshContactGeneration@Gu@physx@@QAE_NAAVTriangleV@23@IPBIEABUPolygonalData@23@PAV?$SupportLocalImpl@VTriangleV@Gu@physx@@@23@PAVSupportLocal@23@PAVMeshPersistentContact@23@AAIABT__m128@@AAT9@@Z 10124bc0 f   GuPCMTriangleContactGen.obj
 0001:00124060       ?generatePolyDataContactManifold@PCMConvexVsMeshContactGeneration@Gu@physx@@QAE_NAAVTriangleV@23@IIEPAVMeshPersistentContact@23@AAIABT__m128@@AAT6@@Z 10125060 f   GuPCMTriangleContactGen.obj
 0001:00124140       ?generateTriangleFullContactManifold@PCMConvexVsMeshContactGeneration@Gu@physx@@SA_NAAVTriangleV@23@IEABUPolygonalData@23@PAV?$SupportLocalImpl@VTriangleV@Gu@physx@@@23@PAVSupportLocal@23@PAVMeshPersistentContact@23@AAIABT__m128@@AAT9@@Z 10125140 f   GuPCMTriangleContactGen.obj
 0001:00128410       ??$PX_UNUSED@E@@YAXABE@Z   10129410 f i GuPCMTriangleContactGen.obj
 0001:00128420       ??$PX_UNUSED@PAV?$SupportLocalImpl@VTriangleV@Gu@physx@@@Gu@physx@@@@YAXABQAV?$SupportLocalImpl@VTriangleV@Gu@physx@@@Gu@physx@@@Z 10129420 f i GuPCMTriangleContactGen.obj
 0001:00128430       ??$PX_UNUSED@VTriangleV@Gu@physx@@@@YAXABVTriangleV@Gu@physx@@@Z 10129430 f i GuPCMTriangleContactGen.obj
 0001:00128440       ?FRsqrtFast@aos@shdfnd@physx@@YA?AT__m128@@T4@@Z 10129440 f i GuPCMTriangleContactGen.obj
 0001:00128480       ?V3AllGrtr@aos@shdfnd@physx@@YAIT__m128@@0@Z 10129480 f i GuPCMTriangleContactGen.obj
 0001:001284e0       ?V3LengthSq@aos@shdfnd@physx@@YA?AT__m128@@T4@@Z 101294e0 f i GuPCMTriangleContactGen.obj
 0001:00128530       ?doSupportFast@?$SupportLocalImpl@VTriangleV@Gu@physx@@@Gu@physx@@QBEXABT__m128@@AAT4@1@Z 10129530 f i GuPCMTriangleContactGen.obj
 0001:00128560       ?findRotationMatrixFromZAxis@Gu@physx@@YA?AUMat33V@aos@shdfnd@2@ABT__m128@@@Z 10129560 f   GuPersistentContactManifold.obj
 0001:00128d80       ?replaceManifoldPoint@PersistentContactManifold@Gu@physx@@QAE_NABT__m128@@000@Z 10129d80 f   GuPersistentContactManifold.obj
 0001:00128e90       ?addManifoldPoint@PersistentContactManifold@Gu@physx@@QAEIABT__m128@@000@Z 10129e90 f   GuPersistentContactManifold.obj
 0001:00128f60       ?addManifoldPoint2@PersistentContactManifold@Gu@physx@@QAEIABT__m128@@000@Z 10129f60 f   GuPersistentContactManifold.obj
 0001:00129070       ?addBatchManifoldContactsCluster@PersistentContactManifold@Gu@physx@@QAEXPBVPersistentContact@23@I@Z 1012a070 f   GuPersistentContactManifold.obj
 0001:00129120       ?addBatchManifoldContacts2@PersistentContactManifold@Gu@physx@@QAEXPBVPersistentContact@23@I@Z 1012a120 f   GuPersistentContactManifold.obj
 0001:001291d0       ?addBatchManifoldContacts@PersistentContactManifold@Gu@physx@@QAEXPBVPersistentContact@23@I@Z 1012a1d0 f   GuPersistentContactManifold.obj
 0001:00129280       ?reduceBatchContactsCluster@PersistentContactManifold@Gu@physx@@QAEXPBVPersistentContact@23@I@Z 1012a280 f   GuPersistentContactManifold.obj
 0001:001299f0       ?reduceBatchContacts2@PersistentContactManifold@Gu@physx@@QAEXPBVPersistentContact@23@I@Z 1012a9f0 f   GuPersistentContactManifold.obj
 0001:00129dc0       ?reduceBatchContacts@PersistentContactManifold@Gu@physx@@QAEXPBVPersistentContact@23@I@Z 1012adc0 f   GuPersistentContactManifold.obj
 0001:0012a2e0       ?reduceContactsForPCM@PersistentContactManifold@Gu@physx@@QAEIABT__m128@@00@Z 1012b2e0 f   GuPersistentContactManifold.obj
 0001:0012a8e0       ?reduceContactSegment@PersistentContactManifold@Gu@physx@@QAEIABT__m128@@00@Z 1012b8e0 f   GuPersistentContactManifold.obj
 0001:0012aa70       ?addManifoldContactsToContactBuffer@PersistentContactManifold@Gu@physx@@QAEXAAVContactBuffer@23@ABT__m128@@ABVPsMatTransformV@aos@shdfnd@3@@Z 1012ba70 f   GuPersistentContactManifold.obj
 0001:0012abc0       ?addManifoldContactsToContactBuffer@PersistentContactManifold@Gu@physx@@QAEXAAVContactBuffer@23@ABT__m128@@ABVPsTransformV@aos@shdfnd@3@@Z 1012bbc0 f   GuPersistentContactManifold.obj
 0001:0012ad10       ?addManifoldContactsToContactBuffer@PersistentContactManifold@Gu@physx@@QAEXAAVContactBuffer@23@ABT__m128@@ABVPsTransformV@aos@shdfnd@3@1@Z 1012bd10 f   GuPersistentContactManifold.obj
 0001:0012ae90       ?drawManifold@PersistentContactManifold@Gu@physx@@QAEXAAVRenderOutput@Cm@3@ABVPsTransformV@aos@shdfnd@3@1@Z 1012be90 f   GuPersistentContactManifold.obj
 0001:0012af30       ?drawManifold@PersistentContactManifold@Gu@physx@@QAEXAAVRenderOutput@Cm@3@ABVPsTransformV@aos@shdfnd@3@1ABT__m128@@@Z 1012bf30 f   GuPersistentContactManifold.obj
 0001:0012afd0       ?drawManifold@PersistentContactManifold@Gu@physx@@QAEXABVPersistentContact@23@AAVRenderOutput@Cm@3@ABVPsTransformV@aos@shdfnd@3@2@Z 1012bfd0 f   GuPersistentContactManifold.obj
 0001:0012b010       ?drawPoint@PersistentContactManifold@Gu@physx@@SAXAAVRenderOutput@Cm@3@ABT__m128@@MI@Z 1012c010 f   GuPersistentContactManifold.obj
 0001:0012b1d0       ?drawLine@PersistentContactManifold@Gu@physx@@SAXAAVRenderOutput@Cm@3@ABT__m128@@1I@Z 1012c1d0 f   GuPersistentContactManifold.obj
 0001:0012b310       ?drawTriangle@PersistentContactManifold@Gu@physx@@SAXAAVRenderOutput@Cm@3@ABT__m128@@11I@Z 1012c310 f   GuPersistentContactManifold.obj
 0001:0012b3e0       ?drawPolygon@PersistentContactManifold@Gu@physx@@SAXAAVRenderOutput@Cm@3@ABVPsTransformV@aos@shdfnd@3@PAT__m128@@II@Z 1012c3e0 f   GuPersistentContactManifold.obj
 0001:0012b490       ?drawPolygon@PersistentContactManifold@Gu@physx@@SAXAAVRenderOutput@Cm@3@ABVPsMatTransformV@aos@shdfnd@3@PAT__m128@@II@Z 1012c490 f   GuPersistentContactManifold.obj
 0001:0012b540       ?reduceBatchContactsConvex@SinglePersistentContactManifold@Gu@physx@@QAE?AT__m128@@PBVMeshPersistentContact@23@IAAUPCMContactPatch@23@@Z 1012c540 f   GuPersistentContactManifold.obj
 0001:0012bf90       ?reduceBatchContactsSphere@SinglePersistentContactManifold@Gu@physx@@QAE?AT__m128@@PBVMeshPersistentContact@23@IAAUPCMContactPatch@23@@Z 1012cf90 f   GuPersistentContactManifold.obj
 0001:0012c0c0       ?reduceBatchContactsCapsule@SinglePersistentContactManifold@Gu@physx@@QAE?AT__m128@@PBVMeshPersistentContact@23@IAAUPCMContactPatch@23@@Z 1012d0c0 f   GuPersistentContactManifold.obj
 0001:0012c4b0       ?addBatchManifoldContactsConvex@SinglePersistentContactManifold@Gu@physx@@QAE?AT__m128@@PBVMeshPersistentContact@23@IAAUPCMContactPatch@23@ABT4@@Z 1012d4b0 f   GuPersistentContactManifold.obj
 0001:0012c5b0       ?addBatchManifoldContactsSphere@SinglePersistentContactManifold@Gu@physx@@QAE?AT__m128@@PBVMeshPersistentContact@23@IAAUPCMContactPatch@23@ABT4@@Z 1012d5b0 f   GuPersistentContactManifold.obj
 0001:0012c620       ?addBatchManifoldContactsCapsule@SinglePersistentContactManifold@Gu@physx@@QAE?AT__m128@@PBVMeshPersistentContact@23@IAAUPCMContactPatch@23@ABT4@@Z 1012d620 f   GuPersistentContactManifold.obj
 0001:0012c720       ?reduceContacts@SinglePersistentContactManifold@Gu@physx@@SAIPAVMeshPersistentContact@23@I@Z 1012d720 f   GuPersistentContactManifold.obj
 0001:0012cc90       ?refreshContactPoints@SinglePersistentContactManifold@Gu@physx@@QAE?AT__m128@@ABVPsMatTransformV@aos@shdfnd@3@ABT4@1@Z 1012dc90 f   GuPersistentContactManifold.obj
 0001:0012cee0       ?drawManifold@SinglePersistentContactManifold@Gu@physx@@QAEXAAVRenderOutput@Cm@3@ABVPsTransformV@aos@shdfnd@3@1@Z 1012dee0 f   GuPersistentContactManifold.obj
 0001:0012cf80       ?addManifoldContactPoints@MultiplePersistentContactManifold@Gu@physx@@QAEXPAVMeshPersistentContact@23@IPAPAUPCMContactPatch@23@IABT__m128@@2E@Z 1012df80 f   GuPersistentContactManifold.obj
 0001:0012d530       ?addManifoldContactsToContactBuffer@MultiplePersistentContactManifold@Gu@physx@@QAE_NAAVContactBuffer@23@ABVPsTransformV@aos@shdfnd@3@@Z 1012e530 f   GuPersistentContactManifold.obj
 0001:0012d7a0       ?addManifoldContactsToContactBuffer@MultiplePersistentContactManifold@Gu@physx@@QAE_NAAVContactBuffer@23@ABVPsTransformV@aos@shdfnd@3@1ABT__m128@@@Z 1012e7a0 f   GuPersistentContactManifold.obj
 0001:0012da40       ?drawManifold@MultiplePersistentContactManifold@Gu@physx@@QAEXAAVRenderOutput@Cm@3@ABVPsTransformV@aos@shdfnd@3@1@Z 1012ea40 f   GuPersistentContactManifold.obj
 0001:0012daa0       ?drawLine@MultiplePersistentContactManifold@Gu@physx@@SAXAAVRenderOutput@Cm@3@ABT__m128@@1I@Z 1012eaa0 f   GuPersistentContactManifold.obj
 0001:0012db40       ?drawLine@MultiplePersistentContactManifold@Gu@physx@@SAXAAVRenderOutput@Cm@3@VPxVec3@3@1I@Z 1012eb40 f   GuPersistentContactManifold.obj
 0001:0012dba0       ?drawPoint@MultiplePersistentContactManifold@Gu@physx@@SAXAAVRenderOutput@Cm@3@ABT__m128@@MI@Z 1012eba0 f   GuPersistentContactManifold.obj
 0001:0012dd60       ?drawPolygon@MultiplePersistentContactManifold@Gu@physx@@SAXAAVRenderOutput@Cm@3@ABVPsTransformV@aos@shdfnd@3@PAT__m128@@II@Z 1012ed60 f   GuPersistentContactManifold.obj
 0001:001312b0       ??0MeshPersistentContact@Gu@physx@@QAE@XZ 101322b0 f i GuPersistentContactManifold.obj
 0001:001312d0       ??0PersistentContact@Gu@physx@@QAE@XZ 101322d0 f i GuPersistentContactManifold.obj
 0001:001312f0       ?createIdentity@PxMat44@physx@@SA?AV12@XZ 101322f0 f i GuPersistentContactManifold.obj
 0001:00131310       ?getContactPoint@SinglePersistentContactManifold@Gu@physx@@QAEAAVMeshPersistentContact@23@I@Z 10132310 f i GuPersistentContactManifold.obj
 0001:00131380       ?getEmptyManifold@MultiplePersistentContactManifold@Gu@physx@@QAEPAVSinglePersistentContactManifold@23@XZ 10132380 f i GuPersistentContactManifold.obj
 0001:001313d0       ?getLocalNormal@SinglePersistentContactManifold@Gu@physx@@QAE?AT__m128@@XZ 101323d0 f i GuPersistentContactManifold.obj
 0001:001314a0       ?getManifold@MultiplePersistentContactManifold@Gu@physx@@QAEPAVSinglePersistentContactManifold@23@I@Z 101324a0 f i GuPersistentContactManifold.obj
 0001:00131520       ?getNumContacts@SinglePersistentContactManifold@Gu@physx@@QBEIXZ 10132520 f i GuPersistentContactManifold.obj
 0001:00131540       ?getWorldNormal@SinglePersistentContactManifold@Gu@physx@@QAE?AT__m128@@ABVPsTransformV@aos@shdfnd@3@@Z 10132540 f i GuPersistentContactManifold.obj
 0001:00131630       ?removeContactPoint@SinglePersistentContactManifold@Gu@physx@@QAEXI@Z 10132630 f i GuPersistentContactManifold.obj
 0001:00131690       ?computeOBBPoints@Gu@physx@@YAXPIAVPxVec3@2@ABV32@1111@Z 10132690 f   GuBox.obj
 0001:00131890       ?create@Box@Gu@physx@@QAEXABVCapsule@23@@Z 10132890 f   GuBox.obj
 0001:00131950       ?getBoxEdges@Gu@physx@@YAPBEXZ 10132950 f   GuBox.obj
 0001:00131ca0       ?closestAxis@shdfnd@physx@@YAIABVPxVec3@2@@Z 10132ca0 f i GuBox.obj
 0001:00131da0       ?CompleteBoxPruning@Gu@physx@@YA_NPBVPxBounds3@2@IAAV?$Array@IVNamedAllocator@shdfnd@physx@@@shdfnd@2@ABVAxes@12@@Z 10132da0 f   GuBoxPruning.obj
 0001:00131ff0       ?BipartiteBoxPruning@Gu@physx@@YA_NPBVPxBounds3@2@I0IAAV?$Array@IVNamedAllocator@shdfnd@physx@@@shdfnd@2@ABVAxes@12@@Z 10132ff0 f   GuBoxPruning.obj
 0001:00132570       ?GetNbHits@RadixSort@Gu@physx@@QBEIXZ 10133570 f i GuBoxPruning.obj
 0001:00132590       ?GetNbTotalCalls@RadixSort@Gu@physx@@QBEIXZ 10133590 f i GuBoxPruning.obj
 0001:001325b0       ?GetRanks@RadixSort@Gu@physx@@QBEPBIXZ 101335b0 f i GuBoxPruning.obj
 0001:001325d0       ?GetRecyclable@RadixSort@Gu@physx@@QBEPAIXZ 101335d0 f i GuBoxPruning.obj
 0001:001325f0       ?allocate@?$Array@IVNamedAllocator@shdfnd@physx@@@shdfnd@physx@@IAEPAII@Z 101335f0 f i GuBoxPruning.obj
 0001:00132670       ?capacity@?$Array@IVNamedAllocator@shdfnd@physx@@@shdfnd@physx@@QBEIXZ 10133670 f i GuBoxPruning.obj
 0001:00132690       ?capacityIncrement@?$Array@IVNamedAllocator@shdfnd@physx@@@shdfnd@physx@@IBEIXZ 10133690 f i GuBoxPruning.obj
 0001:001326d0       ?clear@?$Array@IVNamedAllocator@shdfnd@physx@@@shdfnd@physx@@QAEXXZ 101336d0 f i GuBoxPruning.obj
 0001:00132710       ?copy@?$Array@IVNamedAllocator@shdfnd@physx@@@shdfnd@physx@@KAXPAI0PBI@Z 10133710 f i GuBoxPruning.obj
 0001:00132780       ?deallocate@?$Array@IVNamedAllocator@shdfnd@physx@@@shdfnd@physx@@IAEXPAX@Z 10133780 f i GuBoxPruning.obj
 0001:001327a0       ?destroy@?$Array@IVNamedAllocator@shdfnd@physx@@@shdfnd@physx@@KAXPAI0@Z 101337a0 f i GuBoxPruning.obj
 0001:001327c0       ?growAndPushBack@?$Array@IVNamedAllocator@shdfnd@physx@@@shdfnd@physx@@IAEAAIABI@Z 101337c0 f i GuBoxPruning.obj
 0001:00132950       ?intersects@PxBounds3@physx@@QBE_NABV12@@Z 10133950 f i GuBoxPruning.obj
 0001:00132a60       ?isInUserMemory@?$Array@IVNamedAllocator@shdfnd@physx@@@shdfnd@physx@@QBEIXZ 10133a60 f i GuBoxPruning.obj
 0001:00132a80       ?pushBack@?$Array@IVNamedAllocator@shdfnd@physx@@@shdfnd@physx@@QAEAAIABI@Z 10133a80 f i GuBoxPruning.obj
 0001:00132b30       ?computeBoxAroundCapsule@Gu@physx@@YAXABVCapsule@12@AAVBox@12@@Z 10133b30 f   GuCapsule.obj
 0001:00132c50       ?computeBasis@shdfnd@physx@@YAXABVPxVec3@2@0AAV32@11@Z 10133c50 f i GuCapsule.obj
 0001:00132cb0       ?computeBasis@shdfnd@physx@@YAXABVPxVec3@2@AAV32@1@Z 10133cb0 f i GuCapsule.obj
 0001:00132e20       ?sweepCCTBoxTriangles@Gu@physx@@YA_NIPBVPxTriangle@2@_NABVPxBoxGeometry@2@ABVPxTransform@2@ABVPxVec3@2@MAAV62@5AAMAAIPBIMV?$PxFlags@W4Enum@PxHitFlag@physx@@G@2@@Z 10133e20 f   GuCCTSweepTests.obj
 0001:00132ef0       ?sweepCCTCapsule_BoxGeom@@YA_NABVPxGeometry@physx@@ABVPxTransform@2@ABVCapsule@Gu@2@ABVPxVec3@2@MAAUPxSweepHit@2@V?$PxFlags@W4Enum@PxHitFlag@physx@@G@2@M@Z 10133ef0 f   GuCCTSweepTests.obj
 0001:001332d0       ?sweepCCTBox_SphereGeom@@YA_NABVPxGeometry@physx@@ABVPxTransform@2@ABVBox@Gu@2@ABVPxVec3@2@MAAUPxSweepHit@2@V?$PxFlags@W4Enum@PxHitFlag@physx@@G@2@M@Z 101342d0 f   GuCCTSweepTests.obj
 0001:001334e0       ?sweepCCTBox_CapsuleGeom@@YA_NABVPxGeometry@physx@@ABVPxTransform@2@ABVBox@Gu@2@ABVPxVec3@2@MAAUPxSweepHit@2@V?$PxFlags@W4Enum@PxHitFlag@physx@@G@2@M@Z 101344e0 f   GuCCTSweepTests.obj
 0001:00133770       ?sweepCCTBox_BoxGeom@@YA_NABVPxGeometry@physx@@ABVPxTransform@2@ABVBox@Gu@2@ABVPxVec3@2@MAAUPxSweepHit@2@V?$PxFlags@W4Enum@PxHitFlag@physx@@G@2@M@Z 10134770 f   GuCCTSweepTests.obj
 0001:00134060       ?sweepCCTBox_HeightFieldGeom@@YA_NABVPxGeometry@physx@@ABVPxTransform@2@ABVBox@Gu@2@ABVPxVec3@2@MAAUPxSweepHit@2@V?$PxFlags@W4Enum@PxHitFlag@physx@@G@2@M@Z 10135060 f   GuCCTSweepTests.obj
 0001:00134890       ??0Capsule@Gu@physx@@QAE@ABV012@@Z 10135890 f i GuCCTSweepTests.obj
 0001:001348d0       ??0LocalReport@?2??sweepCCTBox_HeightFieldGeom@@YA_NABVPxGeometry@physx@@ABVPxTransform@3@ABVBox@Gu@3@ABVPxVec3@3@MAAUPxSweepHit@3@V?$PxFlags@W4Enum@PxHitFlag@physx@@G@3@M@Z@QAE@XZ 101358d0 f i GuCCTSweepTests.obj
 0001:00134920       ??1LocalReport@?2??sweepCCTBox_HeightFieldGeom@@YA_NABVPxGeometry@physx@@ABVPxTransform@3@ABVBox@Gu@3@ABVPxVec3@3@MAAUPxSweepHit@3@V?$PxFlags@W4Enum@PxHitFlag@physx@@G@3@M@Z@UAE@XZ 10135920 f i GuCCTSweepTests.obj
 0001:00134950       ??4?$PxFlags@W4Enum@PxHitFlag@physx@@G@physx@@QAEAAV01@W4Enum@PxHitFlag@1@@Z 10135950 f i GuCCTSweepTests.obj
 0001:00134970       ??I?$PxFlags@W4Enum@PxHitFlag@physx@@G@physx@@QBE?AV01@ABV01@@Z 10135970 f i GuCCTSweepTests.obj
 0001:001349c0       ??_GLocalReport@?2??sweepCCTBox_HeightFieldGeom@@YA_NABVPxGeometry@physx@@ABVPxTransform@3@ABVBox@Gu@3@ABVPxVec3@3@MAAUPxSweepHit@3@V?$PxFlags@W4Enum@PxHitFlag@physx@@G@3@M@Z@UAEPAXI@Z 101359c0 f i GuCCTSweepTests.obj
 0001:001349c0       ??_ELocalReport@?2??sweepCCTBox_HeightFieldGeom@@YA_NABVPxGeometry@physx@@ABVPxTransform@3@ABVBox@Gu@3@ABVPxVec3@3@MAAUPxSweepHit@3@V?$PxFlags@W4Enum@PxHitFlag@physx@@G@3@M@Z@UAEPAXI@Z 101359c0 f i GuCCTSweepTests.obj
 0001:00134a00       ?distanceSegmentBoxSquared@Gu@physx@@YAMABVSegment@12@ABVBox@12@PAMPAVPxVec3@2@@Z 10135a00 f i GuCCTSweepTests.obj
 0001:00134a40       ??0Container@Gu@physx@@QAE@XZ 10135a40 f   GuContainer.obj
 0001:00134a80       ??0Container@Gu@physx@@QAE@ABV012@@Z 10135a80 f   GuContainer.obj
 0001:00134ad0       ??0Container@Gu@physx@@QAE@IM@Z 10135ad0 f   GuContainer.obj
 0001:00134b20       ??1Container@Gu@physx@@QAE@XZ 10135b20 f   GuContainer.obj
 0001:00134b40       ?Contains@Container@Gu@physx@@QBE_NIPAI@Z 10135b40 f   GuContainer.obj
 0001:00134ba0       ?Delete@Container@Gu@physx@@QAE_NI@Z 10135ba0 f   GuContainer.obj
 0001:00134c00       ?DeleteKeepingOrder@Container@Gu@physx@@QAE_NI@Z 10135c00 f   GuContainer.obj
 0001:00134c90       ??4Container@Gu@physx@@QAEXABV012@@Z 10135c90 f   GuContainer.obj
 0001:00134d80       ?InitSharedBuffers@Container@Gu@physx@@QAEXIPAI_N@Z 10135d80 f   GuContainerMemoryMgmt.obj
 0001:00134e20       ?Empty@Container@Gu@physx@@QAEAAV123@XZ 10135e20 f   GuContainerMemoryMgmt.obj
 0001:00134e80       ?SetSize@Container@Gu@physx@@QAE_NI@Z 10135e80 f   GuContainerMemoryMgmt.obj
 0001:00134ef0       ?Refit@Container@Gu@physx@@QAE_NXZ 10135ef0 f   GuContainerMemoryMgmt.obj
 0001:00134ff0       ?Resize@Container@Gu@physx@@AAE_NI@Z 10135ff0 f   GuContainerMemoryMgmt.obj
 0001:00135290       ?convertToPxMat44@Debug@Gu@physx@@SA?AVPxMat44@3@ABVMatrix34@Cm@3@@Z 10136290 f   GuDebug.obj
 0001:001353e0       ?convertToPxMat44@Debug@Gu@physx@@SA?AVPxMat44@3@ABVPxTransform@3@@Z 101363e0 f   GuDebug.obj
 0001:00135410       ?visualize@Debug@Gu@physx@@SAXABVPxBoxGeometry@3@AAVRenderOutput@Cm@3@ABVMatrix34@63@ABVPxBounds3@3@_KMI@Z 10136410 f   GuDebug.obj
 0001:001354d0       ?visualize@Debug@Gu@physx@@SAXABVPxSphereGeometry@3@AAVRenderOutput@Cm@3@ABVMatrix34@63@ABVPxBounds3@3@_KMI@Z 101364d0 f   GuDebug.obj
 0001:001356c0       ?visualize@Debug@Gu@physx@@SAXABVPxPlaneGeometry@3@AAVRenderOutput@Cm@3@ABVMatrix34@63@ABVPxBounds3@3@_KMI@Z 101366c0 f   GuDebug.obj
 0001:001357d0       ?visualize@Debug@Gu@physx@@SAXABVPxCapsuleGeometry@3@AAVRenderOutput@Cm@3@ABVMatrix34@63@ABVPxBounds3@3@_KMI@Z 101367d0 f   GuDebug.obj
 0001:00135930       ?visualize@Debug@Gu@physx@@SAXABVPxConvexMeshGeometry@3@AAVRenderOutput@Cm@3@ABVMatrix34@63@ABVPxBounds3@3@_KMI@Z 10136930 f   GuDebug.obj
 0001:00135970       ?visualize@Debug@Gu@physx@@SAXABVPxTriangleMeshGeometry@3@AAVRenderOutput@Cm@3@ABVMatrix34@63@ABVPxBounds3@3@_KMI@Z 10136970 f   GuDebug.obj
 0001:001359b0       ?visualize@Debug@Gu@physx@@SAXABVPxHeightFieldGeometry@3@AAVRenderOutput@Cm@3@ABVMatrix34@63@ABVPxBounds3@3@_KMI@Z 101369b0 f   GuDebug.obj
 0001:001362b0       ??0DebugBox@Cm@physx@@QAE@ABVPxVec3@2@_N@Z 101372b0 f i GuDebug.obj
 0001:00136300       ??0PxBoxGeometry@physx@@QAE@VPxVec3@1@@Z 10137300 f i GuDebug.obj
 0001:00136340       ??0PxTransform@physx@@QAE@ABVPxVec3@1@@Z 10137340 f i GuDebug.obj
 0001:00136380       ?sweep@PxGeometryQuery@physx@@SA_NABVPxVec3@2@MABVPxGeometry@2@ABVPxTransform@2@12AAUPxSweepHit@2@V?$PxFlags@W4Enum@PxHitFlag@physx@@G@2@M@Z 10137380 f   GuGeometryQuery.obj
 0001:00136970       ?overlap@PxGeometryQuery@physx@@SA_NABVPxGeometry@2@ABVPxTransform@2@01@Z 10137970 f   GuGeometryQuery.obj
 0001:00136b50       ?raycast@PxGeometryQuery@physx@@SAIABVPxVec3@2@0ABVPxGeometry@2@ABVPxTransform@2@MV?$PxFlags@W4Enum@PxHitFlag@physx@@G@2@IPIAUPxRaycastHit@2@_N@Z 10137b50 f   GuGeometryQuery.obj
 0001:00136e20       ?computePenetration@PxGeometryQuery@physx@@SA_NAAVPxVec3@2@AAMABVPxGeometry@2@ABVPxTransform@2@23@Z 10137e20 f   GuGeometryQuery.obj
 0001:00137040       ?pointDistance@PxGeometryQuery@physx@@SAMABVPxVec3@2@ABVPxGeometry@2@ABVPxTransform@2@PAV32@@Z 10138040 f   GuGeometryQuery.obj
 0001:00137480       ?getWorldBounds@PxGeometryQuery@physx@@SA?AVPxBounds3@2@ABVPxGeometry@2@ABVPxTransform@2@M@Z 10138480 f   GuGeometryQuery.obj
 0001:00137a50       ?distancePointBoxSquared@Gu@physx@@YAMABVPxVec3@2@ABVBox@12@PAV32@@Z 10138a50 f i GuGeometryQuery.obj
 0001:00137a80       ?set@GeometryUnion@Gu@physx@@QAEXABVPxGeometry@3@@Z 10138a80 f   GuGeometryUnion.obj
 0001:00137cc0       ??$checkType@UPxConvexMeshGeometryLL@physx@@@physx@@YAXABVGeometryUnion@Gu@0@@Z 10138cc0 f i GuGeometryUnion.obj
 0001:00137d30       ??$checkType@UPxHeightFieldGeometryLL@physx@@@physx@@YAXABVGeometryUnion@Gu@0@@Z 10138d30 f i GuGeometryUnion.obj
 0001:00137da0       ??$checkType@UPxTriangleMeshGeometryLL@physx@@@physx@@YAXABVGeometryUnion@Gu@0@@Z 10138da0 f i GuGeometryUnion.obj
 0001:00137e10       ??$get@UPxConvexMeshGeometryLL@physx@@@GeometryUnion@Gu@physx@@QAEAAUPxConvexMeshGeometryLL@2@XZ 10138e10 f i GuGeometryUnion.obj
 0001:00137e30       ??$get@UPxHeightFieldGeometryLL@physx@@@GeometryUnion@Gu@physx@@QAEAAUPxHeightFieldGeometryLL@2@XZ 10138e30 f i GuGeometryUnion.obj
 0001:00137e50       ??$get@UPxTriangleMeshGeometryLL@physx@@@GeometryUnion@Gu@physx@@QAEAAUPxTriangleMeshGeometryLL@2@XZ 10138e50 f i GuGeometryUnion.obj
 0001:00137e70       ??4?$PxFlags@W4Enum@PxMeshGeometryFlag@physx@@E@physx@@QAEAAV01@ABV01@@Z 10138e70 f i GuGeometryUnion.obj
 0001:00137e90       ??4PxConvexMeshGeometry@physx@@QAEAAV01@ABV01@@Z 10138e90 f i GuGeometryUnion.obj
 0001:00137ee0       ??4PxHeightFieldGeometry@physx@@QAEAAV01@ABV01@@Z 10138ee0 f i GuGeometryUnion.obj
 0001:00137f80       ??4PxMeshScale@physx@@QAEAAV01@ABV01@@Z 10138f80 f i GuGeometryUnion.obj
 0001:00137fc0       ??4PxTriangleMeshGeometry@physx@@QAEAAV01@ABV01@@Z 10138fc0 f i GuGeometryUnion.obj
 0001:00138040       ?getConvexMesh@Gu@physx@@YAAAVConvexMesh@12@PAVPxConvexMesh@2@@Z 10139040 f i GuGeometryUnion.obj
 0001:00138060       ?getHeightField@Gu@physx@@YAAAVHeightField@12@PAVPxHeightField@2@@Z 10139060 f i GuGeometryUnion.obj
 0001:00138080       ?getTriangleMesh@Gu@physx@@YAAAVTriangleMesh@12@PAVPxTriangleMesh@2@@Z 10139080 f i GuGeometryUnion.obj
 0001:001380f0       ?computeBoxPoints@Gu@physx@@YAXABVPxBounds3@2@PIAVPxVec3@2@@Z 101390f0 f   GuGeomUtilsInternal.obj
 0001:00138350       ?computeBoundsAroundVertices@Gu@physx@@YAXAAVPxBounds3@2@IPIBVPxVec3@2@@Z 10139350 f   GuGeomUtilsInternal.obj
 0001:001383a0       ?getPlane@Gu@physx@@YA?AVPxPlane@2@ABVPxTransform@2@@Z 101393a0 f   GuGeomUtilsInternal.obj
 0001:001383f0       ?getCapsuleTransform@Gu@physx@@YA?AVPxTransform@2@ABVCapsule@12@AAM@Z 101393f0 f   GuGeomUtilsInternal.obj
 0001:001384f0       ?computeSweptBox@Gu@physx@@YAXAAVBox@12@ABVPxVec3@2@1ABVPxMat33@2@1M@Z 101394f0 f   GuGeomUtilsInternal.obj
 0001:00138a70       ?getOrigin@Segment@Gu@physx@@QBEABVPxVec3@3@XZ 10139a70 f i GuGeomUtilsInternal.obj
 0001:00138a90       ?include@PxBounds3@physx@@QAEXABVPxVec3@2@@Z 10139a90 f i GuGeomUtilsInternal.obj
 0001:00138b40       ?maximum@PxVec3@physx@@QBE?AV12@ABV12@@Z 10139b40 f i GuGeomUtilsInternal.obj
 0001:00138bf0       ?minimum@PxVec3@physx@@QBE?AV12@ABV12@@Z 10139bf0 f i GuGeomUtilsInternal.obj
 0001:00138ca0       ??1GuMeshFactory@physx@@MAE@XZ 10139ca0 f   GuMeshFactory.obj
 0001:00138cf0       ?release@GuMeshFactory@physx@@QAEXXZ 10139cf0 f   GuMeshFactory.obj
 0001:00138ed0       ?addTriangleMesh@GuMeshFactory@physx@@QAEXPAVTriangleMesh@Gu@2@_N@Z 10139ed0 f   GuMeshFactory.obj
 0001:00138f10       ?createTriangleMesh@GuMeshFactory@physx@@QAEPAVPxTriangleMesh@2@AAVPxInputStream@2@@Z 10139f10 f   GuMeshFactory.obj
 0001:00138fd0       ?removeTriangleMesh@GuMeshFactory@physx@@QAE_NAAVPxTriangleMesh@2@@Z 10139fd0 f   GuMeshFactory.obj
 0001:00139030       ?getNbTriangleMeshes@GuMeshFactory@physx@@QBEIXZ 1013a030 f   GuMeshFactory.obj
 0001:00139070       ?getTriangleMeshes@GuMeshFactory@physx@@QBEIPAPAVPxTriangleMesh@2@II@Z 1013a070 f   GuMeshFactory.obj
 0001:00139120       ?addConvexMesh@GuMeshFactory@physx@@QAEXPAVConvexMesh@Gu@2@_N@Z 1013a120 f   GuMeshFactory.obj
 0001:00139160       ?createConvexMesh@GuMeshFactory@physx@@QAEPAVPxConvexMesh@2@AAVPxInputStream@2@@Z 1013a160 f   GuMeshFactory.obj
 0001:00139220       ?removeConvexMesh@GuMeshFactory@physx@@QAE_NAAVPxConvexMesh@2@@Z 1013a220 f   GuMeshFactory.obj
 0001:00139280       ?getNbConvexMeshes@GuMeshFactory@physx@@QBEIXZ 1013a280 f   GuMeshFactory.obj
 0001:001392c0       ?getConvexMeshes@GuMeshFactory@physx@@QBEIPAPAVPxConvexMesh@2@II@Z 1013a2c0 f   GuMeshFactory.obj
 0001:00139370       ?addHeightField@GuMeshFactory@physx@@QAEXPAVHeightField@Gu@2@_N@Z 1013a370 f   GuMeshFactory.obj
 0001:001393b0       ?createHeightField@GuMeshFactory@physx@@QAEPAVPxHeightField@2@ABVPxHeightFieldDesc@2@@Z 1013a3b0 f   GuMeshFactory.obj
 0001:00139470       ?createHeightField@GuMeshFactory@physx@@QAEPAVPxHeightField@2@AAVPxInputStream@2@@Z 1013a470 f   GuMeshFactory.obj
 0001:00139520       ?removeHeightField@GuMeshFactory@physx@@QAE_NAAVPxHeightField@2@@Z 1013a520 f   GuMeshFactory.obj
 0001:00139580       ?getNbHeightFields@GuMeshFactory@physx@@QBEIXZ 1013a580 f   GuMeshFactory.obj
 0001:001395c0       ?getHeightFields@GuMeshFactory@physx@@QBEIPAPAVPxHeightField@2@II@Z 1013a5c0 f   GuMeshFactory.obj
 0001:00139670       ?addFactoryListener@GuMeshFactory@physx@@QAEXAAVGuMeshFactoryListener@2@@Z 1013a670 f   GuMeshFactory.obj
 0001:001396b0       ?removeFactoryListener@GuMeshFactory@physx@@QAEXAAVGuMeshFactoryListener@2@@Z 1013a6b0 f   GuMeshFactory.obj
 0001:00139740       ?notifyFactoryListener@GuMeshFactory@physx@@QAEXPBVPxBase@2@G_N@Z 1013a740 f   GuMeshFactory.obj
 0001:00139a20       ??$addToHash@VConvexMesh@Gu@physx@@@?A0x342961e2@@YAXAAV?$CoalescedHashSet@PAVConvexMesh@Gu@physx@@U?$Hash@PAVConvexMesh@Gu@physx@@@shdfnd@3@VAllocator@53@@shdfnd@physx@@PAVConvexMesh@Gu@3@PAV?$MutexT@V?$ReflectionAllocator@VMutexImpl@shdfnd@physx@@@shdfnd@physx@@@23@@Z 1013aa20 f i GuMeshFactory.obj
 0001:00139a70       ??$addToHash@VHeightField@Gu@physx@@@?A0x342961e2@@YAXAAV?$CoalescedHashSet@PAVHeightField@Gu@physx@@U?$Hash@PAVHeightField@Gu@physx@@@shdfnd@3@VAllocator@53@@shdfnd@physx@@PAVHeightField@Gu@3@PAV?$MutexT@V?$ReflectionAllocator@VMutexImpl@shdfnd@physx@@@shdfnd@physx@@@23@@Z 1013aa70 f i GuMeshFactory.obj
 0001:00139ac0       ??$addToHash@VTriangleMesh@Gu@physx@@@?A0x342961e2@@YAXAAV?$CoalescedHashSet@PAVTriangleMesh@Gu@physx@@U?$Hash@PAVTriangleMesh@Gu@physx@@@shdfnd@3@VAllocator@53@@shdfnd@physx@@PAVTriangleMesh@Gu@3@PAV?$MutexT@V?$ReflectionAllocator@VMutexImpl@shdfnd@physx@@@shdfnd@physx@@@23@@Z 1013aac0 f i GuMeshFactory.obj
 0001:00139b10       ??$notifyReleaseFactoryItem@VPxBase@physx@@@?A0x342961e2@@YAXAAV?$Array@PAVGuMeshFactoryListener@physx@@VNamedAllocator@shdfnd@2@@shdfnd@physx@@PBVPxBase@3@G_N@Z 1013ab10 f i GuMeshFactory.obj
 0001:00139b90       ??0?$ReflectionAllocator@VConvexMesh@Gu@physx@@@shdfnd@physx@@QAE@PBD@Z 1013ab90 f i GuMeshFactory.obj
 0001:00139bb0       ??0?$ReflectionAllocator@VHeightField@Gu@physx@@@shdfnd@physx@@QAE@PBD@Z 1013abb0 f i GuMeshFactory.obj
 0001:00139bd0       ??0?$ReflectionAllocator@VTriangleMesh@Gu@physx@@@shdfnd@physx@@QAE@PBD@Z 1013abd0 f i GuMeshFactory.obj
 0001:00139bf0       ??1?$Array@PAVGuMeshFactoryListener@physx@@VNamedAllocator@shdfnd@2@@shdfnd@physx@@QAE@XZ 1013abf0 f i GuMeshFactory.obj
 0001:00139c60       ??1?$CoalescedHashSet@PAVConvexMesh@Gu@physx@@U?$Hash@PAVConvexMesh@Gu@physx@@@shdfnd@3@VAllocator@53@@shdfnd@physx@@QAE@XZ 1013ac60 f i GuMeshFactory.obj
 0001:00139c80       ??1?$CoalescedHashSet@PAVHeightField@Gu@physx@@U?$Hash@PAVHeightField@Gu@physx@@@shdfnd@3@VAllocator@53@@shdfnd@physx@@QAE@XZ 1013ac80 f i GuMeshFactory.obj
 0001:00139ca0       ??1?$CoalescedHashSet@PAVTriangleMesh@Gu@physx@@U?$Hash@PAVTriangleMesh@Gu@physx@@@shdfnd@3@VAllocator@53@@shdfnd@physx@@QAE@XZ 1013aca0 f i GuMeshFactory.obj
 0001:00139cc0       ??1?$HashBase@PAVConvexMesh@Gu@physx@@PAV123@U?$Hash@PAVConvexMesh@Gu@physx@@@shdfnd@3@UGetKey@?$HashSetBase@PAVConvexMesh@Gu@physx@@U?$Hash@PAVConvexMesh@Gu@physx@@@shdfnd@3@VAllocator@53@$00@internal@53@VAllocator@53@$00@internal@shdfnd@physx@@QAE@XZ 1013acc0 f i GuMeshFactory.obj
 0001:00139d00       ??1?$HashBase@PAVHeightField@Gu@physx@@PAV123@U?$Hash@PAVHeightField@Gu@physx@@@shdfnd@3@UGetKey@?$HashSetBase@PAVHeightField@Gu@physx@@U?$Hash@PAVHeightField@Gu@physx@@@shdfnd@3@VAllocator@53@$00@internal@53@VAllocator@53@$00@internal@shdfnd@physx@@QAE@XZ 1013ad00 f i GuMeshFactory.obj
 0001:00139d40       ??1?$HashBase@PAVTriangleMesh@Gu@physx@@PAV123@U?$Hash@PAVTriangleMesh@Gu@physx@@@shdfnd@3@UGetKey@?$HashSetBase@PAVTriangleMesh@Gu@physx@@U?$Hash@PAVTriangleMesh@Gu@physx@@@shdfnd@3@VAllocator@53@$00@internal@53@VAllocator@53@$00@internal@shdfnd@physx@@QAE@XZ 1013ad40 f i GuMeshFactory.obj
 0001:00139d80       ??1?$HashSetBase@PAVConvexMesh@Gu@physx@@U?$Hash@PAVConvexMesh@Gu@physx@@@shdfnd@3@VAllocator@53@$00@internal@shdfnd@physx@@QAE@XZ 1013ad80 f i GuMeshFactory.obj
 0001:00139da0       ??1?$HashSetBase@PAVHeightField@Gu@physx@@U?$Hash@PAVHeightField@Gu@physx@@@shdfnd@3@VAllocator@53@$00@internal@shdfnd@physx@@QAE@XZ 1013ada0 f i GuMeshFactory.obj
 0001:00139dc0       ??1?$HashSetBase@PAVTriangleMesh@Gu@physx@@U?$Hash@PAVTriangleMesh@Gu@physx@@@shdfnd@3@VAllocator@53@$00@internal@shdfnd@physx@@QAE@XZ 1013adc0 f i GuMeshFactory.obj
 0001:00139de0       ??A?$Array@PAVGuMeshFactoryListener@physx@@VNamedAllocator@shdfnd@2@@shdfnd@physx@@QAEAAPAVGuMeshFactoryListener@2@I@Z 1013ade0 f i GuMeshFactory.obj
 0001:00139e50       ??R?$Hash@PAVConvexMesh@Gu@physx@@@shdfnd@physx@@QBE_NABQAVConvexMesh@Gu@2@0@Z 1013ae50 f i GuMeshFactory.obj
 0001:00139e90       ??R?$Hash@PAVHeightField@Gu@physx@@@shdfnd@physx@@QBE_NABQAVHeightField@Gu@2@0@Z 1013ae90 f i GuMeshFactory.obj
 0001:00139ed0       ??R?$Hash@PAVTriangleMesh@Gu@physx@@@shdfnd@physx@@QBE_NABQAVTriangleMesh@Gu@2@0@Z 1013aed0 f i GuMeshFactory.obj
 0001:00139f10       ?allocate@?$Array@PAVGuMeshFactoryListener@physx@@VNamedAllocator@shdfnd@2@@shdfnd@physx@@IAEPAPAVGuMeshFactoryListener@3@I@Z 1013af10 f i GuMeshFactory.obj
 0001:00139f90       ?allocate@?$ReflectionAllocator@VConvexMesh@Gu@physx@@@shdfnd@physx@@QAEPAXIPBDH@Z 1013af90 f i GuMeshFactory.obj
 0001:00139ff0       ?allocate@?$ReflectionAllocator@VHeightField@Gu@physx@@@shdfnd@physx@@QAEPAXIPBDH@Z 1013aff0 f i GuMeshFactory.obj
 0001:0013a050       ?allocate@?$ReflectionAllocator@VTriangleMesh@Gu@physx@@@shdfnd@physx@@QAEPAXIPBDH@Z 1013b050 f i GuMeshFactory.obj
 0001:0013a0b0       ?capacity@?$Array@PAVGuMeshFactoryListener@physx@@VNamedAllocator@shdfnd@2@@shdfnd@physx@@QBEIXZ 1013b0b0 f i GuMeshFactory.obj
 0001:0013a0d0       ?capacityIncrement@?$Array@PAVGuMeshFactoryListener@physx@@VNamedAllocator@shdfnd@2@@shdfnd@physx@@IBEIXZ 1013b0d0 f i GuMeshFactory.obj
 0001:0013a110       ?copy@?$Array@PAVGuMeshFactoryListener@physx@@VNamedAllocator@shdfnd@2@@shdfnd@physx@@KAXPAPAVGuMeshFactoryListener@3@0PBQAV43@@Z 1013b110 f i GuMeshFactory.obj
 0001:0013a180       ?create@?$HashBase@PAVConvexMesh@Gu@physx@@PAV123@U?$Hash@PAVConvexMesh@Gu@physx@@@shdfnd@3@UGetKey@?$HashSetBase@PAVConvexMesh@Gu@physx@@U?$Hash@PAVConvexMesh@Gu@physx@@@shdfnd@3@VAllocator@53@$00@internal@53@VAllocator@53@$00@internal@shdfnd@physx@@QAEPAPAVConvexMesh@Gu@4@ABQAV564@AA_N@Z 1013b180 f i GuMeshFactory.obj
 0001:0013a330       ?create@?$HashBase@PAVHeightField@Gu@physx@@PAV123@U?$Hash@PAVHeightField@Gu@physx@@@shdfnd@3@UGetKey@?$HashSetBase@PAVHeightField@Gu@physx@@U?$Hash@PAVHeightField@Gu@physx@@@shdfnd@3@VAllocator@53@$00@internal@53@VAllocator@53@$00@internal@shdfnd@physx@@QAEPAPAVHeightField@Gu@4@ABQAV564@AA_N@Z 1013b330 f i GuMeshFactory.obj
 0001:0013a4e0       ?create@?$HashBase@PAVTriangleMesh@Gu@physx@@PAV123@U?$Hash@PAVTriangleMesh@Gu@physx@@@shdfnd@3@UGetKey@?$HashSetBase@PAVTriangleMesh@Gu@physx@@U?$Hash@PAVTriangleMesh@Gu@physx@@@shdfnd@3@VAllocator@53@$00@internal@53@VAllocator@53@$00@internal@shdfnd@physx@@QAEPAPAVTriangleMesh@Gu@4@ABQAV564@AA_N@Z 1013b4e0 f i GuMeshFactory.obj
 0001:0013a690       ?deallocate@?$Array@PAVGuMeshFactoryListener@physx@@VNamedAllocator@shdfnd@2@@shdfnd@physx@@IAEXPAX@Z 1013b690 f i GuMeshFactory.obj
 0001:0013a6b0       ?destroy@?$Array@PAVGuMeshFactoryListener@physx@@VNamedAllocator@shdfnd@2@@shdfnd@physx@@KAXPAPAVGuMeshFactoryListener@3@0@Z 1013b6b0 f i GuMeshFactory.obj
 0001:0013a6d0       ?destroy@?$HashBase@PAVConvexMesh@Gu@physx@@PAV123@U?$Hash@PAVConvexMesh@Gu@physx@@@shdfnd@3@UGetKey@?$HashSetBase@PAVConvexMesh@Gu@physx@@U?$Hash@PAVConvexMesh@Gu@physx@@@shdfnd@3@VAllocator@53@$00@internal@53@VAllocator@53@$00@internal@shdfnd@physx@@AAEXXZ 1013b6d0 f i GuMeshFactory.obj
 0001:0013a740       ?destroy@?$HashBase@PAVHeightField@Gu@physx@@PAV123@U?$Hash@PAVHeightField@Gu@physx@@@shdfnd@3@UGetKey@?$HashSetBase@PAVHeightField@Gu@physx@@U?$Hash@PAVHeightField@Gu@physx@@@shdfnd@3@VAllocator@53@$00@internal@53@VAllocator@53@$00@internal@shdfnd@physx@@AAEXXZ 1013b740 f i GuMeshFactory.obj
 0001:0013a7b0       ?destroy@?$HashBase@PAVTriangleMesh@Gu@physx@@PAV123@U?$Hash@PAVTriangleMesh@Gu@physx@@@shdfnd@3@UGetKey@?$HashSetBase@PAVTriangleMesh@Gu@physx@@U?$Hash@PAVTriangleMesh@Gu@physx@@@shdfnd@3@VAllocator@53@$00@internal@53@VAllocator@53@$00@internal@shdfnd@physx@@AAEXXZ 1013b7b0 f i GuMeshFactory.obj
 0001:0013a820       ?erase@?$HashBase@PAVConvexMesh@Gu@physx@@PAV123@U?$Hash@PAVConvexMesh@Gu@physx@@@shdfnd@3@UGetKey@?$HashSetBase@PAVConvexMesh@Gu@physx@@U?$Hash@PAVConvexMesh@Gu@physx@@@shdfnd@3@VAllocator@53@$00@internal@53@VAllocator@53@$00@internal@shdfnd@physx@@QAE_NABQAVConvexMesh@Gu@4@@Z 1013b820 f i GuMeshFactory.obj
 0001:0013a960       ?erase@?$HashBase@PAVHeightField@Gu@physx@@PAV123@U?$Hash@PAVHeightField@Gu@physx@@@shdfnd@3@UGetKey@?$HashSetBase@PAVHeightField@Gu@physx@@U?$Hash@PAVHeightField@Gu@physx@@@shdfnd@3@VAllocator@53@$00@internal@53@VAllocator@53@$00@internal@shdfnd@physx@@QAE_NABQAVHeightField@Gu@4@@Z 1013b960 f i GuMeshFactory.obj
 0001:0013aaa0       ?erase@?$HashBase@PAVTriangleMesh@Gu@physx@@PAV123@U?$Hash@PAVTriangleMesh@Gu@physx@@@shdfnd@3@UGetKey@?$HashSetBase@PAVTriangleMesh@Gu@physx@@U?$Hash@PAVTriangleMesh@Gu@physx@@@shdfnd@3@VAllocator@53@$00@internal@53@VAllocator@53@$00@internal@shdfnd@physx@@QAE_NABQAVTriangleMesh@Gu@4@@Z 1013baa0 f i GuMeshFactory.obj
 0001:0013abe0       ?erase@?$HashSetBase@PAVConvexMesh@Gu@physx@@U?$Hash@PAVConvexMesh@Gu@physx@@@shdfnd@3@VAllocator@53@$00@internal@shdfnd@physx@@QAE_NABQAVConvexMesh@Gu@4@@Z 1013bbe0 f i GuMeshFactory.obj
 0001:0013ac00       ?erase@?$HashSetBase@PAVHeightField@Gu@physx@@U?$Hash@PAVHeightField@Gu@physx@@@shdfnd@3@VAllocator@53@$00@internal@shdfnd@physx@@QAE_NABQAVHeightField@Gu@4@@Z 1013bc00 f i GuMeshFactory.obj
 0001:0013ac20       ?erase@?$HashSetBase@PAVTriangleMesh@Gu@physx@@U?$Hash@PAVTriangleMesh@Gu@physx@@@shdfnd@3@VAllocator@53@$00@internal@shdfnd@physx@@QAE_NABQAVTriangleMesh@Gu@4@@Z 1013bc20 f i GuMeshFactory.obj
 0001:0013ac40       ?freeListAdd@?$HashBase@PAVConvexMesh@Gu@physx@@PAV123@U?$Hash@PAVConvexMesh@Gu@physx@@@shdfnd@3@UGetKey@?$HashSetBase@PAVConvexMesh@Gu@physx@@U?$Hash@PAVConvexMesh@Gu@physx@@@shdfnd@3@VAllocator@53@$00@internal@53@VAllocator@53@$00@internal@shdfnd@physx@@AAEXI@Z 1013bc40 f i GuMeshFactory.obj
 0001:0013acf0       ?freeListAdd@?$HashBase@PAVHeightField@Gu@physx@@PAV123@U?$Hash@PAVHeightField@Gu@physx@@@shdfnd@3@UGetKey@?$HashSetBase@PAVHeightField@Gu@physx@@U?$Hash@PAVHeightField@Gu@physx@@@shdfnd@3@VAllocator@53@$00@internal@53@VAllocator@53@$00@internal@shdfnd@physx@@AAEXI@Z 1013bcf0 f i GuMeshFactory.obj
 0001:0013ada0       ?freeListAdd@?$HashBase@PAVTriangleMesh@Gu@physx@@PAV123@U?$Hash@PAVTriangleMesh@Gu@physx@@@shdfnd@3@UGetKey@?$HashSetBase@PAVTriangleMesh@Gu@physx@@U?$Hash@PAVTriangleMesh@Gu@physx@@@shdfnd@3@VAllocator@53@$00@internal@53@VAllocator@53@$00@internal@shdfnd@physx@@AAEXI@Z 1013bda0 f i GuMeshFactory.obj
 0001:0013ae50       ?freeListEmpty@?$HashBase@PAVConvexMesh@Gu@physx@@PAV123@U?$Hash@PAVConvexMesh@Gu@physx@@@shdfnd@3@UGetKey@?$HashSetBase@PAVConvexMesh@Gu@physx@@U?$Hash@PAVConvexMesh@Gu@physx@@@shdfnd@3@VAllocator@53@$00@internal@53@VAllocator@53@$00@internal@shdfnd@physx@@ABE_NXZ 1013be50 f i GuMeshFactory.obj
 0001:0013aec0       ?freeListEmpty@?$HashBase@PAVHeightField@Gu@physx@@PAV123@U?$Hash@PAVHeightField@Gu@physx@@@shdfnd@3@UGetKey@?$HashSetBase@PAVHeightField@Gu@physx@@U?$Hash@PAVHeightField@Gu@physx@@@shdfnd@3@VAllocator@53@$00@internal@53@VAllocator@53@$00@internal@shdfnd@physx@@ABE_NXZ 1013bec0 f i GuMeshFactory.obj
 0001:0013af30       ?freeListEmpty@?$HashBase@PAVTriangleMesh@Gu@physx@@PAV123@U?$Hash@PAVTriangleMesh@Gu@physx@@@shdfnd@3@UGetKey@?$HashSetBase@PAVTriangleMesh@Gu@physx@@U?$Hash@PAVTriangleMesh@Gu@physx@@@shdfnd@3@VAllocator@53@$00@internal@53@VAllocator@53@$00@internal@shdfnd@physx@@ABE_NXZ 1013bf30 f i GuMeshFactory.obj
 0001:0013afa0       ?freeListGetNext@?$HashBase@PAVConvexMesh@Gu@physx@@PAV123@U?$Hash@PAVConvexMesh@Gu@physx@@@shdfnd@3@UGetKey@?$HashSetBase@PAVConvexMesh@Gu@physx@@U?$Hash@PAVConvexMesh@Gu@physx@@@shdfnd@3@VAllocator@53@$00@internal@53@VAllocator@53@$00@internal@shdfnd@physx@@AAEIXZ 1013bfa0 f i GuMeshFactory.obj
 0001:0013b0c0       ?freeListGetNext@?$HashBase@PAVHeightField@Gu@physx@@PAV123@U?$Hash@PAVHeightField@Gu@physx@@@shdfnd@3@UGetKey@?$HashSetBase@PAVHeightField@Gu@physx@@U?$Hash@PAVHeightField@Gu@physx@@@shdfnd@3@VAllocator@53@$00@internal@53@VAllocator@53@$00@internal@shdfnd@physx@@AAEIXZ 1013c0c0 f i GuMeshFactory.obj
 0001:0013b1e0       ?freeListGetNext@?$HashBase@PAVTriangleMesh@Gu@physx@@PAV123@U?$Hash@PAVTriangleMesh@Gu@physx@@@shdfnd@3@UGetKey@?$HashSetBase@PAVTriangleMesh@Gu@physx@@U?$Hash@PAVTriangleMesh@Gu@physx@@@shdfnd@3@VAllocator@53@$00@internal@53@VAllocator@53@$00@internal@shdfnd@physx@@AAEIXZ 1013c1e0 f i GuMeshFactory.obj
 0001:0013b300       ?getEntries@?$CoalescedHashSet@PAVConvexMesh@Gu@physx@@U?$Hash@PAVConvexMesh@Gu@physx@@@shdfnd@3@VAllocator@53@@shdfnd@physx@@QBEPBQAVConvexMesh@Gu@3@XZ 1013c300 f i GuMeshFactory.obj
 0001:0013b320       ?getEntries@?$CoalescedHashSet@PAVHeightField@Gu@physx@@U?$Hash@PAVHeightField@Gu@physx@@@shdfnd@3@VAllocator@53@@shdfnd@physx@@QBEPBQAVHeightField@Gu@3@XZ 1013c320 f i GuMeshFactory.obj
 0001:0013b340       ?getEntries@?$CoalescedHashSet@PAVTriangleMesh@Gu@physx@@U?$Hash@PAVTriangleMesh@Gu@physx@@@shdfnd@3@VAllocator@53@@shdfnd@physx@@QBEPBQAVTriangleMesh@Gu@3@XZ 1013c340 f i GuMeshFactory.obj
 0001:0013b360       ?getEntries@?$HashBase@PAVConvexMesh@Gu@physx@@PAV123@U?$Hash@PAVConvexMesh@Gu@physx@@@shdfnd@3@UGetKey@?$HashSetBase@PAVConvexMesh@Gu@physx@@U?$Hash@PAVConvexMesh@Gu@physx@@@shdfnd@3@VAllocator@53@$00@internal@53@VAllocator@53@$00@internal@shdfnd@physx@@QBEPBQAVConvexMesh@Gu@4@XZ 1013c360 f i GuMeshFactory.obj
 0001:0013b380       ?getEntries@?$HashBase@PAVHeightField@Gu@physx@@PAV123@U?$Hash@PAVHeightField@Gu@physx@@@shdfnd@3@UGetKey@?$HashSetBase@PAVHeightField@Gu@physx@@U?$Hash@PAVHeightField@Gu@physx@@@shdfnd@3@VAllocator@53@$00@internal@53@VAllocator@53@$00@internal@shdfnd@physx@@QBEPBQAVHeightField@Gu@4@XZ 1013c380 f i GuMeshFactory.obj
 0001:0013b3a0       ?getEntries@?$HashBase@PAVTriangleMesh@Gu@physx@@PAV123@U?$Hash@PAVTriangleMesh@Gu@physx@@@shdfnd@3@UGetKey@?$HashSetBase@PAVTriangleMesh@Gu@physx@@U?$Hash@PAVTriangleMesh@Gu@physx@@@shdfnd@3@VAllocator@53@$00@internal@53@VAllocator@53@$00@internal@shdfnd@physx@@QBEPBQAVTriangleMesh@Gu@4@XZ 1013c3a0 f i GuMeshFactory.obj
 0001:0013b3c0       ?getName@?$ReflectionAllocator@VConvexMesh@Gu@physx@@@shdfnd@physx@@CAPBDXZ 1013c3c0 f i GuMeshFactory.obj
 0001:0013b410       ?getName@?$ReflectionAllocator@VHeightField@Gu@physx@@@shdfnd@physx@@CAPBDXZ 1013c410 f i GuMeshFactory.obj
 0001:0013b460       ?getName@?$ReflectionAllocator@VTriangleMesh@Gu@physx@@@shdfnd@physx@@CAPBDXZ 1013c460 f i GuMeshFactory.obj
 0001:0013b4b0       ?grow@?$HashBase@PAVConvexMesh@Gu@physx@@PAV123@U?$Hash@PAVConvexMesh@Gu@physx@@@shdfnd@3@UGetKey@?$HashSetBase@PAVConvexMesh@Gu@physx@@U?$Hash@PAVConvexMesh@Gu@physx@@@shdfnd@3@VAllocator@53@$00@internal@53@VAllocator@53@$00@internal@shdfnd@physx@@AAEXXZ 1013c4b0 f i GuMeshFactory.obj
 0001:0013b570       ?grow@?$HashBase@PAVHeightField@Gu@physx@@PAV123@U?$Hash@PAVHeightField@Gu@physx@@@shdfnd@3@UGetKey@?$HashSetBase@PAVHeightField@Gu@physx@@U?$Hash@PAVHeightField@Gu@physx@@@shdfnd@3@VAllocator@53@$00@internal@53@VAllocator@53@$00@internal@shdfnd@physx@@AAEXXZ 1013c570 f i GuMeshFactory.obj
 0001:0013b630       ?grow@?$HashBase@PAVTriangleMesh@Gu@physx@@PAV123@U?$Hash@PAVTriangleMesh@Gu@physx@@@shdfnd@3@UGetKey@?$HashSetBase@PAVTriangleMesh@Gu@physx@@U?$Hash@PAVTriangleMesh@Gu@physx@@@shdfnd@3@VAllocator@53@$00@internal@53@VAllocator@53@$00@internal@shdfnd@physx@@AAEXXZ 1013c630 f i GuMeshFactory.obj
 0001:0013b6f0       ?growAndPushBack@?$Array@PAVGuMeshFactoryListener@physx@@VNamedAllocator@shdfnd@2@@shdfnd@physx@@IAEAAPAVGuMeshFactoryListener@3@ABQAV43@@Z 1013c6f0 f i GuMeshFactory.obj
 0001:0013b880       ?hash@?$HashBase@PAVConvexMesh@Gu@physx@@PAV123@U?$Hash@PAVConvexMesh@Gu@physx@@@shdfnd@3@UGetKey@?$HashSetBase@PAVConvexMesh@Gu@physx@@U?$Hash@PAVConvexMesh@Gu@physx@@@shdfnd@3@VAllocator@53@$00@internal@53@VAllocator@53@$00@internal@shdfnd@physx@@ABEIABQAVConvexMesh@Gu@4@@Z 1013c880 f i GuMeshFactory.obj
 0001:0013b8b0       ?hash@?$HashBase@PAVHeightField@Gu@physx@@PAV123@U?$Hash@PAVHeightField@Gu@physx@@@shdfnd@3@UGetKey@?$HashSetBase@PAVHeightField@Gu@physx@@U?$Hash@PAVHeightField@Gu@physx@@@shdfnd@3@VAllocator@53@$00@internal@53@VAllocator@53@$00@internal@shdfnd@physx@@ABEIABQAVHeightField@Gu@4@@Z 1013c8b0 f i GuMeshFactory.obj
 0001:0013b8e0       ?hash@?$HashBase@PAVTriangleMesh@Gu@physx@@PAV123@U?$Hash@PAVTriangleMesh@Gu@physx@@@shdfnd@3@UGetKey@?$HashSetBase@PAVTriangleMesh@Gu@physx@@U?$Hash@PAVTriangleMesh@Gu@physx@@@shdfnd@3@VAllocator@53@$00@internal@53@VAllocator@53@$00@internal@shdfnd@physx@@ABEIABQAVTriangleMesh@Gu@4@@Z 1013c8e0 f i GuMeshFactory.obj
 0001:0013b910       ?insert@?$HashSetBase@PAVConvexMesh@Gu@physx@@U?$Hash@PAVConvexMesh@Gu@physx@@@shdfnd@3@VAllocator@53@$00@internal@shdfnd@physx@@QAE_NABQAVConvexMesh@Gu@4@@Z 1013c910 f i GuMeshFactory.obj
 0001:0013b9b0       ?insert@?$HashSetBase@PAVHeightField@Gu@physx@@U?$Hash@PAVHeightField@Gu@physx@@@shdfnd@3@VAllocator@53@$00@internal@shdfnd@physx@@QAE_NABQAVHeightField@Gu@4@@Z 1013c9b0 f i GuMeshFactory.obj
 0001:0013ba50       ?insert@?$HashSetBase@PAVTriangleMesh@Gu@physx@@U?$Hash@PAVTriangleMesh@Gu@physx@@@shdfnd@3@VAllocator@53@$00@internal@shdfnd@physx@@QAE_NABQAVTriangleMesh@Gu@4@@Z 1013ca50 f i GuMeshFactory.obj
 0001:0013baf0       ?isInUserMemory@?$Array@PAVGuMeshFactoryListener@physx@@VNamedAllocator@shdfnd@2@@shdfnd@physx@@QBEIXZ 1013caf0 f i GuMeshFactory.obj
 0001:0013bb10       ?pushBack@?$Array@PAVGuMeshFactoryListener@physx@@VNamedAllocator@shdfnd@2@@shdfnd@physx@@QAEAAPAVGuMeshFactoryListener@3@ABQAV43@@Z 1013cb10 f i GuMeshFactory.obj
 0001:0013bbc0       ?replaceWithLast@?$Array@PAVGuMeshFactoryListener@physx@@VNamedAllocator@shdfnd@2@@shdfnd@physx@@QAEXI@Z 1013cbc0 f i GuMeshFactory.obj
 0001:0013bc60       ?replaceWithLast@?$HashBase@PAVConvexMesh@Gu@physx@@PAV123@U?$Hash@PAVConvexMesh@Gu@physx@@@shdfnd@3@UGetKey@?$HashSetBase@PAVConvexMesh@Gu@physx@@U?$Hash@PAVConvexMesh@Gu@physx@@@shdfnd@3@VAllocator@53@$00@internal@53@VAllocator@53@$00@internal@shdfnd@physx@@AAEXI@Z 1013cc60 f i GuMeshFactory.obj
 0001:0013bdb0       ?replaceWithLast@?$HashBase@PAVHeightField@Gu@physx@@PAV123@U?$Hash@PAVHeightField@Gu@physx@@@shdfnd@3@UGetKey@?$HashSetBase@PAVHeightField@Gu@physx@@U?$Hash@PAVHeightField@Gu@physx@@@shdfnd@3@VAllocator@53@$00@internal@53@VAllocator@53@$00@internal@shdfnd@physx@@AAEXI@Z 1013cdb0 f i GuMeshFactory.obj
 0001:0013bf00       ?replaceWithLast@?$HashBase@PAVTriangleMesh@Gu@physx@@PAV123@U?$Hash@PAVTriangleMesh@Gu@physx@@@shdfnd@3@UGetKey@?$HashSetBase@PAVTriangleMesh@Gu@physx@@U?$Hash@PAVTriangleMesh@Gu@physx@@@shdfnd@3@VAllocator@53@$00@internal@53@VAllocator@53@$00@internal@shdfnd@physx@@AAEXI@Z 1013cf00 f i GuMeshFactory.obj
 0001:0013c050       ?reserve@?$HashBase@PAVConvexMesh@Gu@physx@@PAV123@U?$Hash@PAVConvexMesh@Gu@physx@@@shdfnd@3@UGetKey@?$HashSetBase@PAVConvexMesh@Gu@physx@@U?$Hash@PAVConvexMesh@Gu@physx@@@shdfnd@3@VAllocator@53@$00@internal@53@VAllocator@53@$00@internal@shdfnd@physx@@QAEXI@Z 1013d050 f i GuMeshFactory.obj
 0001:0013c080       ?reserve@?$HashBase@PAVHeightField@Gu@physx@@PAV123@U?$Hash@PAVHeightField@Gu@physx@@@shdfnd@3@UGetKey@?$HashSetBase@PAVHeightField@Gu@physx@@U?$Hash@PAVHeightField@Gu@physx@@@shdfnd@3@VAllocator@53@$00@internal@53@VAllocator@53@$00@internal@shdfnd@physx@@QAEXI@Z 1013d080 f i GuMeshFactory.obj
 0001:0013c0b0       ?reserve@?$HashBase@PAVTriangleMesh@Gu@physx@@PAV123@U?$Hash@PAVTriangleMesh@Gu@physx@@@shdfnd@3@UGetKey@?$HashSetBase@PAVTriangleMesh@Gu@physx@@U?$Hash@PAVTriangleMesh@Gu@physx@@@shdfnd@3@VAllocator@53@$00@internal@53@VAllocator@53@$00@internal@shdfnd@physx@@QAEXI@Z 1013d0b0 f i GuMeshFactory.obj
 0001:0013c0e0       ?setMeshFactory@ConvexMesh@Gu@physx@@QAEXPAVGuMeshFactory@3@@Z 1013d0e0 f i GuMeshFactory.obj
 0001:0013c100       ?setMeshFactory@TriangleMesh@Gu@physx@@QAEXPAVGuMeshFactory@3@@Z 1013d100 f i GuMeshFactory.obj
 0001:0013c120       ?size@?$Array@PAVGuMeshFactoryListener@physx@@VNamedAllocator@shdfnd@2@@shdfnd@physx@@QBEIXZ 1013d120 f i GuMeshFactory.obj
 0001:0013c140       ?size@?$HashBase@PAVConvexMesh@Gu@physx@@PAV123@U?$Hash@PAVConvexMesh@Gu@physx@@@shdfnd@3@UGetKey@?$HashSetBase@PAVConvexMesh@Gu@physx@@U?$Hash@PAVConvexMesh@Gu@physx@@@shdfnd@3@VAllocator@53@$00@internal@53@VAllocator@53@$00@internal@shdfnd@physx@@QBEIXZ 1013d140 f i GuMeshFactory.obj
 0001:0013c160       ?size@?$HashBase@PAVHeightField@Gu@physx@@PAV123@U?$Hash@PAVHeightField@Gu@physx@@@shdfnd@3@UGetKey@?$HashSetBase@PAVHeightField@Gu@physx@@U?$Hash@PAVHeightField@Gu@physx@@@shdfnd@3@VAllocator@53@$00@internal@53@VAllocator@53@$00@internal@shdfnd@physx@@QBEIXZ 1013d160 f i GuMeshFactory.obj
 0001:0013c180       ?size@?$HashBase@PAVTriangleMesh@Gu@physx@@PAV123@U?$Hash@PAVTriangleMesh@Gu@physx@@@shdfnd@3@UGetKey@?$HashSetBase@PAVTriangleMesh@Gu@physx@@U?$Hash@PAVTriangleMesh@Gu@physx@@@shdfnd@3@VAllocator@53@$00@internal@53@VAllocator@53@$00@internal@shdfnd@physx@@QBEIXZ 1013d180 f i GuMeshFactory.obj
 0001:0013c1a0       ?size@?$HashSetBase@PAVConvexMesh@Gu@physx@@U?$Hash@PAVConvexMesh@Gu@physx@@@shdfnd@3@VAllocator@53@$00@internal@shdfnd@physx@@QBEIXZ 1013d1a0 f i GuMeshFactory.obj
 0001:0013c1c0       ?size@?$HashSetBase@PAVHeightField@Gu@physx@@U?$Hash@PAVHeightField@Gu@physx@@@shdfnd@3@VAllocator@53@$00@internal@shdfnd@physx@@QBEIXZ 1013d1c0 f i GuMeshFactory.obj
 0001:0013c1e0       ?size@?$HashSetBase@PAVTriangleMesh@Gu@physx@@U?$Hash@PAVTriangleMesh@Gu@physx@@@shdfnd@3@VAllocator@53@$00@internal@shdfnd@physx@@QBEIXZ 1013d1e0 f i GuMeshFactory.obj
 0001:0013c200       ?getBinaryMetaData@HeightField@Gu@physx@@SAXAAVPxOutputStream@3@@Z 1013d200 f   GuMetaData.obj
 0001:0013c670       ?getBinaryMetaData@BigConvexData@physx@@SAXAAVPxOutputStream@2@@Z 1013d670 f   GuMetaData.obj
 0001:0013c960       ?getBinaryMetaData@ConvexMesh@Gu@physx@@SAXAAVPxOutputStream@3@@Z 1013d960 f   GuMetaData.obj
 0001:0013d110       ?getBinaryMetaData@MeshInterface@Gu@physx@@SAXAAVPxOutputStream@3@@Z 1013e110 f   GuMetaData.obj
 0001:0013d310       ?getBinaryMetaData@RTree@Gu@physx@@SAXAAVPxOutputStream@3@@Z 1013e310 f   GuMetaData.obj
 0001:0013d850       ?getBinaryMetaData@RTreeMidphase@Gu@physx@@SAXAAVPxOutputStream@3@@Z 1013e850 f   GuMetaData.obj
 0001:0013d9a0       ?getBinaryMetaData@InternalTriangleMesh@physx@@SAXAAVPxOutputStream@2@@Z 1013e9a0 f   GuMetaData.obj
 0001:0013de30       ?getBinaryMetaData@TriangleMesh@Gu@physx@@SAXAAVPxOutputStream@3@@Z 1013ee30 f   GuMetaData.obj
 0001:0013e030       ?getBinaryMetaData@MaterialIndicesStruct@physx@@SAXAAVPxOutputStream@2@@Z 1013f030 f   GuMetaData.obj
 0001:0013e1d0       ?getBinaryMetaData@GeometryUnion@Gu@physx@@SAXAAVPxOutputStream@3@@Z 1013f1d0 f   GuMetaData.obj
 0001:00142480       ?computeMTD_SphereSphere@Gu@physx@@YA_NAAVPxVec3@2@AAMABVSphere@12@2@Z 10143480 f   GuMTD.obj
 0001:00142510       ?computeMTD_SphereCapsule@Gu@physx@@YA_NAAVPxVec3@2@AAMABVSphere@12@ABVCapsule@12@@Z 10143510 f   GuMTD.obj
 0001:001425d0       ?computeMTD_SphereBox@Gu@physx@@YA_NAAVPxVec3@2@AAMABVSphere@12@ABVBox@12@@Z 101435d0 f   GuMTD.obj
 0001:00142670       ?computeMTD_CapsuleCapsule@Gu@physx@@YA_NAAVPxVec3@2@AAMABVCapsule@12@2@Z 10143670 f   GuMTD.obj
 0001:00142750       ?computeMTD_CapsuleBox@Gu@physx@@YA_NAAVPxVec3@2@AAMABVCapsule@12@ABVBox@12@@Z 10143750 f   GuMTD.obj
 0001:001428c0       ?computeMTD_BoxBox@Gu@physx@@YA_NAAVPxVec3@2@AAMABVBox@12@2@Z 101438c0 f   GuMTD.obj
 0001:00142af0       ?computeMTD_SphereConvex@Gu@physx@@YA_NAAVPxVec3@2@AAMABVSphere@12@ABVPxConvexMeshGeometry@2@ABVPxTransform@2@@Z 10143af0 f   GuMTD.obj
 0001:00142c70       ?computeMTD_BoxConvex@Gu@physx@@YA_NAAVPxVec3@2@AAMABVBox@12@ABVPxConvexMeshGeometry@2@ABVPxTransform@2@@Z 10143c70 f   GuMTD.obj
 0001:00142f00       ?computeMTD_CapsuleConvex@Gu@physx@@YA_NAAVPxVec3@2@AAMABVCapsule@12@ABVPxTransform@2@ABVPxConvexMeshGeometry@2@3@Z 10143f00 f   GuMTD.obj
 0001:00143200       ?computeMTD_ConvexConvex@Gu@physx@@YA_NAAVPxVec3@2@AAMABVPxConvexMeshGeometry@2@ABVPxTransform@2@23@Z 10144200 f   GuMTD.obj
 0001:001434c0       ?computeMTD_SpherePlane@Gu@physx@@YA_NAAVPxVec3@2@AAMABVSphere@12@ABVPxPlane@2@@Z 101444c0 f   GuMTD.obj
 0001:00143520       ?computeMTD_PlaneBox@Gu@physx@@YA_NAAVPxVec3@2@AAMABVPxPlane@2@ABVBox@12@@Z 10144520 f   GuMTD.obj
 0001:00143600       ?computeMTD_PlaneCapsule@Gu@physx@@YA_NAAVPxVec3@2@AAMABVPxPlane@2@ABVCapsule@12@@Z 10144600 f   GuMTD.obj
 0001:001436b0       ?computeMTD_PlaneConvex@Gu@physx@@YA_NAAVPxVec3@2@AAMABVPxPlane@2@ABVPxConvexMeshGeometry@2@ABVPxTransform@2@@Z 101446b0 f   GuMTD.obj
 0001:001437b0       ?computeMTD_SphereMesh@Gu@physx@@YA_NAAVPxVec3@2@AAMABVSphere@12@ABVPxTriangleMeshGeometry@2@ABVPxTransform@2@@Z 101447b0 f   GuMTD.obj
 0001:001438e0       ?computeMTD_BoxMesh@Gu@physx@@YA_NAAVPxVec3@2@AAMABVBox@12@ABVPxTriangleMeshGeometry@2@ABVPxTransform@2@@Z 101448e0 f   GuMTD.obj
 0001:00143a20       ?computeMTD_CapsuleMesh@Gu@physx@@YA_NAAVPxVec3@2@AAMABVCapsule@12@ABVPxTriangleMeshGeometry@2@ABVPxTransform@2@@Z 10144a20 f   GuMTD.obj
 0001:00143b70       ?computeMTD_ConvexMesh@Gu@physx@@YA_NAAVPxVec3@2@AAMABVPxConvexMeshGeometry@2@ABVPxTransform@2@ABVPxTriangleMeshGeometry@2@3@Z 10144b70 f   GuMTD.obj
 0001:00143c80       ?computeMTD_SphereHeightField@Gu@physx@@YA_NAAVPxVec3@2@AAMABVSphere@12@ABVPxHeightFieldGeometry@2@ABVPxTransform@2@@Z 10144c80 f   GuMTD.obj
 0001:00143db0       ?computeMTD_CapsuleHeightField@Gu@physx@@YA_NAAVPxVec3@2@AAMABVCapsule@12@ABVPxHeightFieldGeometry@2@ABVPxTransform@2@@Z 10144db0 f   GuMTD.obj
 0001:00143f00       ?computeMTD_BoxHeightField@Gu@physx@@YA_NAAVPxVec3@2@AAMABVBox@12@ABVPxHeightFieldGeometry@2@ABVPxTransform@2@@Z 10144f00 f   GuMTD.obj
 0001:00144040       ?computeMTD_ConvexHeightField@Gu@physx@@YA_NAAVPxVec3@2@AAMABVPxConvexMeshGeometry@2@ABVPxTransform@2@ABVPxHeightFieldGeometry@2@3@Z 10145040 f   GuMTD.obj
 0001:00144d30       ?pointConvexDistance@@YA_NAAVPxVec3@physx@@0AAMABV12@PBVConvexMesh@Gu@2@ABVPxMeshScale@2@ABVPxTransform@2@@Z 10145d30 f   GuMTD.obj
 0001:00147d50       ??0Cache@Gu@physx@@QAE@XZ  10148d50 f i GuMTD.obj
 0001:00147d70       ??0ContactBuffer@Gu@physx@@QAE@XZ 10148d70 f i GuMTD.obj
 0001:00147da0       ??0ContactPoint@Gu@physx@@QAE@XZ 10148da0 f i GuMTD.obj
 0001:00147de0       ??0PxSphereGeometry@physx@@QAE@M@Z 10148de0 f i GuMTD.obj
 0001:00147e10       ?getNbVerts@ConvexMesh@Gu@physx@@QBEIXZ 10148e10 f i GuMTD.obj
 0001:00147e30       ?getPolygons@ConvexMesh@Gu@physx@@QBEPBUHullPolygonData@23@XZ 10148e30 f i GuMTD.obj
 0001:00147e50       ?getVerts@ConvexMesh@Gu@physx@@QBEPBVPxVec3@3@XZ 10148e50 f i GuMTD.obj
 0001:00147e70       ?length@Segment@Gu@physx@@QBEMXZ 10148e70 f i GuMTD.obj
 0001:00147ea0       ?reset@ContactBuffer@Gu@physx@@QAEXXZ 10148ea0 f i GuMTD.obj
 0001:00147ec0       ?computeBounds@GeometryUnion@Gu@physx@@QBEXAAVPxBounds3@3@ABVPxTransform@3@MPIBV43@@Z 10148ec0 f   GuObjectBounds.obj
 0001:00148670       ?computeBoundsWithCCDThreshold@GeometryUnion@Gu@physx@@QBEMAAVPxVec3@3@0ABVPxTransform@3@PIBVPxBounds3@3@@Z 10149670 f   GuObjectBounds.obj
 0001:00149800       ??$memFetchAsync@UConvexHullData@Gu@physx@@@Cm@physx@@YAPAUConvexHullData@Gu@1@IIAAU?$MemFetchBufferA@UConvexHullData@Gu@physx@@$00@01@@Z 1014a800 f i GuObjectBounds.obj
 0001:00149810       ??$memFetchAsync@UHeightFieldData@Gu@physx@@@Cm@physx@@YAPAUHeightFieldData@Gu@1@IIAAU?$MemFetchBufferA@UHeightFieldData@Gu@physx@@$00@01@@Z 1014a810 f i GuObjectBounds.obj
 0001:00149820       ??$memFetchAsync@UInternalTriangleMeshData@Gu@physx@@@Cm@physx@@YAPAUInternalTriangleMeshData@Gu@1@IIAAU?$MemFetchBufferA@UInternalTriangleMeshData@Gu@physx@@$00@01@@Z 1014a820 f i GuObjectBounds.obj
 0001:00149830       ??0PxPlane@physx@@QAE@ABVPxVec3@1@0@Z 1014a830 f i GuObjectBounds.obj
 0001:00149890       ?intersectPlaneBox@Gu@physx@@YA_NABVPxPlane@2@ABVBox@12@@Z 1014a890 f   GuOverlapTests.obj
 0001:00149900       ?intersectPlaneCapsule@Gu@physx@@YA_NABVCapsule@12@ABVPxPlane@2@@Z 1014a900 f   GuOverlapTests.obj
 0001:00149960       ?intersectSphereSphere@Gu@physx@@YA_NABVSphere@12@0@Z 1014a960 f   GuOverlapTests.obj
 0001:001499c0       ?intersectSphereCapsule@Gu@physx@@YA_NABVSphere@12@ABVCapsule@12@@Z 1014a9c0 f   GuOverlapTests.obj
 0001:00149a20       ?intersectSphereBox@Gu@physx@@YA_NABVSphere@12@ABVBox@12@@Z 1014aa20 f   GuOverlapTests.obj
 0001:00149ba0       ?intersectBoxCapsule@Gu@physx@@YA_NABVBox@12@ABVCapsule@12@@Z 1014aba0 f   GuOverlapTests.obj
 0001:00149c00       ?intersectSphereConvex@Gu@physx@@YA_NABVSphere@12@ABVConvexMesh@12@ABVPxMeshScale@2@ABVPxTransform@2@PAVPxVec3@2@@Z 1014ac00 f   GuOverlapTests.obj
 0001:00149dc0       ?intersectCapsuleConvex@Gu@physx@@YA_NABVPxCapsuleGeometry@2@ABVPxTransform@2@ABVConvexMesh@12@ABVPxMeshScale@2@1PAVPxVec3@2@@Z 1014adc0 f   GuOverlapTests.obj
 0001:00149fd0       ?intersectBoxConvex@Gu@physx@@YA_NABVPxBoxGeometry@2@ABVPxTransform@2@ABVConvexMesh@12@ABVPxMeshScale@2@1PAVPxVec3@2@@Z 1014afd0 f   GuOverlapTests.obj
 0001:0014a1d0       ?checkOverlapSphere_boxGeom@Gu@physx@@YA_NABVPxGeometry@2@ABVPxTransform@2@ABVSphere@12@@Z 1014b1d0 f   GuOverlapTests.obj
 0001:0014a270       ?checkOverlapSphere_sphereGeom@Gu@physx@@YA_NABVPxGeometry@2@ABVPxTransform@2@ABVSphere@12@@Z 1014b270 f   GuOverlapTests.obj
 0001:0014a300       ?checkOverlapSphere_capsuleGeom@Gu@physx@@YA_NABVPxGeometry@2@ABVPxTransform@2@ABVSphere@12@@Z 1014b300 f   GuOverlapTests.obj
 0001:0014a390       ?checkOverlapSphere_planeGeom@Gu@physx@@YA_NABVPxGeometry@2@ABVPxTransform@2@ABVSphere@12@@Z 1014b390 f   GuOverlapTests.obj
 0001:0014a440       ?checkOverlapSphere_convexGeom@Gu@physx@@YA_NABVPxGeometry@2@ABVPxTransform@2@ABVSphere@12@@Z 1014b440 f   GuOverlapTests.obj
 0001:0014a500       ?checkOverlapOBB_boxGeom@Gu@physx@@YA_NABVPxGeometry@2@ABVPxTransform@2@ABVBox@12@@Z 1014b500 f   GuOverlapTests.obj
 0001:0014a590       ?checkOverlapOBB_sphereGeom@Gu@physx@@YA_NABVPxGeometry@2@ABVPxTransform@2@ABVBox@12@@Z 1014b590 f   GuOverlapTests.obj
 0001:0014a620       ?checkOverlapOBB_capsuleGeom@Gu@physx@@YA_NABVPxGeometry@2@ABVPxTransform@2@ABVBox@12@@Z 1014b620 f   GuOverlapTests.obj
 0001:0014a6b0       ?checkOverlapOBB_planeGeom@Gu@physx@@YA_NABVPxGeometry@2@ABVPxTransform@2@ABVBox@12@@Z 1014b6b0 f   GuOverlapTests.obj
 0001:0014a730       ?checkOverlapOBB_convexGeom@Gu@physx@@YA_NABVPxGeometry@2@ABVPxTransform@2@ABVBox@12@@Z 1014b730 f   GuOverlapTests.obj
 0001:0014a820       ?checkOverlapCapsule_boxGeom@Gu@physx@@YA_NABVPxGeometry@2@ABVPxTransform@2@ABVCapsule@12@@Z 1014b820 f   GuOverlapTests.obj
 0001:0014a8c0       ?checkOverlapCapsule_sphereGeom@Gu@physx@@YA_NABVPxGeometry@2@ABVPxTransform@2@ABVCapsule@12@@Z 1014b8c0 f   GuOverlapTests.obj
 0001:0014a950       ?checkOverlapCapsule_capsuleGeom@Gu@physx@@YA_NABVPxGeometry@2@ABVPxTransform@2@ABVCapsule@12@@Z 1014b950 f   GuOverlapTests.obj
 0001:0014aa20       ?checkOverlapCapsule_planeGeom@Gu@physx@@YA_NABVPxGeometry@2@ABVPxTransform@2@ABVCapsule@12@@Z 1014ba20 f   GuOverlapTests.obj
 0001:0014aaa0       ?checkOverlapCapsule_convexGeom@Gu@physx@@YA_NABVPxGeometry@2@ABVPxTransform@2@ABVCapsule@12@@Z 1014baa0 f   GuOverlapTests.obj
 0001:0014abc0       ?GetGeomOverlapMethodTable@Gu@physx@@YAPAY06P6A_NABVPxGeometry@2@ABVPxTransform@2@01PAUTriggerCache@12@@ZXZ 1014bbc0 f   GuOverlapTests.obj
 0001:0014abd0       ?registerHeightFields@Gu@physx@@YAXXZ 1014bbd0 f   GuOverlapTests.obj
 0001:0014d630       ??0PxCapsuleGeometry@physx@@QAE@XZ 1014e630 f i GuOverlapTests.obj
 0001:0014d680       ?CalculateBoxTolerance@Gu@physx@@YA?AT__m128@@ABT3@@Z 1014e680 f i GuOverlapTests.obj
 0001:0014d710       ?isNormalized@PxVec3@physx@@QBE_NXZ 1014e710 f i GuOverlapTests.obj
 0001:0014d7a0       ?multiply@PxVec3@physx@@QBE?AV12@ABV12@@Z 1014e7a0 f i GuOverlapTests.obj
 0001:0014d810       ?sqr@shdfnd@physx@@YAMM@Z  1014e810 f i GuOverlapTests.obj
 0001:0014d830       ?transform@PxTransform@physx@@QBE?AV12@ABV12@@Z 1014e830 f i GuOverlapTests.obj
 0001:0014d990       ?GetRaycastFuncTable@Gu@physx@@YAAAY06P6AIABVPxGeometry@2@ABVPxTransform@2@ABVPxVec3@2@2MV?$PxFlags@W4Enum@PxHitFlag@physx@@G@2@IPIAUPxRaycastHit@2@_NP6A_NAAU72@PAX@Z7@ZXZ 1014e990 f   GuRaycastTests.obj
 0001:0014d9a0       ?raycast_box@@YAIABVPxGeometry@physx@@ABVPxTransform@2@ABVPxVec3@2@2MV?$PxFlags@W4Enum@PxHitFlag@physx@@G@2@IPIAUPxRaycastHit@2@_NP6A_NAAU62@PAX@Z7@Z 1014e9a0 f   GuRaycastTests.obj
 0001:0014dcf0       ?raycast_sphere@@YAIABVPxGeometry@physx@@ABVPxTransform@2@ABVPxVec3@2@2MV?$PxFlags@W4Enum@PxHitFlag@physx@@G@2@IPIAUPxRaycastHit@2@_NP6A_NAAU62@PAX@Z7@Z 1014ecf0 f   GuRaycastTests.obj
 0001:0014def0       ?raycast_capsule@@YAIABVPxGeometry@physx@@ABVPxTransform@2@ABVPxVec3@2@2MV?$PxFlags@W4Enum@PxHitFlag@physx@@G@2@IPIAUPxRaycastHit@2@_NP6A_NAAU62@PAX@Z7@Z 1014eef0 f   GuRaycastTests.obj
 0001:0014e2a0       ?raycast_plane@@YAIABVPxGeometry@physx@@ABVPxTransform@2@ABVPxVec3@2@2MV?$PxFlags@W4Enum@PxHitFlag@physx@@G@2@IPIAUPxRaycastHit@2@_NP6A_NAAU62@PAX@Z7@Z 1014f2a0 f   GuRaycastTests.obj
 0001:0014e470       ?raycast_convexMesh@@YAIABVPxGeometry@physx@@ABVPxTransform@2@ABVPxVec3@2@2MV?$PxFlags@W4Enum@PxHitFlag@physx@@G@2@IPIAUPxRaycastHit@2@_NP6A_NAAU62@PAX@Z7@Z 1014f470 f   GuRaycastTests.obj
 0001:0014e9f0       ?raycast_triangleMesh@@YAIABVPxGeometry@physx@@ABVPxTransform@2@ABVPxVec3@2@2MV?$PxFlags@W4Enum@PxHitFlag@physx@@G@2@IPIAUPxRaycastHit@2@_NP6A_NAAU62@PAX@Z7@Z 1014f9f0 f   GuRaycastTests.obj
 0001:0014ed70       ?raycast_heightField@@YAIABVPxGeometry@physx@@ABVPxTransform@2@ABVPxVec3@2@2MV?$PxFlags@W4Enum@PxHitFlag@physx@@G@2@IPIAUPxRaycastHit@2@_NP6A_NAAU62@PAX@Z7@Z 1014fd70 f   GuRaycastTests.obj
 0001:0014f6e0       ??$PX_UNUSED@P6A_NAAUPxRaycastHit@physx@@PAX@Z@@YAXABQ6A_NAAUPxRaycastHit@physx@@PAX@Z@Z 101506e0 f i GuRaycastTests.obj
 0001:0014f6f0       ??$PX_UNUSED@PAX@@YAXABQAX@Z 101506f0 f i GuRaycastTests.obj
 0001:0014f700       ??$memFetchAsync@VConvexMesh@Gu@physx@@@Cm@physx@@YAPAVConvexMesh@Gu@1@PAXIII@Z 10150700 f i GuRaycastTests.obj
 0001:0014f710       ??$memFetchAsync@VHeightField@Gu@physx@@@Cm@physx@@YAPAVHeightField@Gu@1@PAXIII@Z 10150710 f i GuRaycastTests.obj
 0001:0014f720       ??$traceSegment@VRayCastCallback@Gu@physx@@$0A@$0A@$0A@@HeightFieldUtil@Gu@physx@@QBEXABVPxVec3@2@0PAVRayCastCallback@12@PBV32@@Z 10150720 f i GuRaycastTests.obj
 0001:001519a0       ??0?$OverlapTraceSegment@VRayCastCallback@Gu@physx@@@HeightFieldUtil@Gu@physx@@QAE@ABV123@ABVHeightField@23@@Z 101529a0 f i GuRaycastTests.obj
 0001:00151a00       ??0PxLocationHit@physx@@QAE@ABU01@@Z 10152a00 f i GuRaycastTests.obj
 0001:00151a90       ??0PxRaycastHit@physx@@QAE@ABU01@@Z 10152a90 f i GuRaycastTests.obj
 0001:00151b00       ??0RayCastCallback@Gu@physx@@QAE@XZ 10152b00 f i GuRaycastTests.obj
 0001:00151b30       ??0RayMeshColliderCallback@@QAE@W4Enum@CallbackMode@Gu@physx@@PAUPxRaycastHit@4@IPBVPxMeshScale@4@PBVPxTransform@4@PBVMatrix34@Cm@4@IP6A_NAAU54@PAX@Z6ABVPxVec3@4@_NM@Z 10152b30 f i GuRaycastTests.obj
 0001:00151c00       ??1RayMeshColliderCallback@@UAE@XZ 10152c00 f i GuRaycastTests.obj
 0001:00151c20       ??Dphysx@@YA?AVMatrix34@Cm@0@ABVPxMeshScale@0@ABVPxTransform@0@@Z 10152c20 f i GuRaycastTests.obj
 0001:00151c90       ??_GRayMeshColliderCallback@@UAEPAXI@Z 10152c90 f i GuRaycastTests.obj
 0001:00151c90       ??_ERayMeshColliderCallback@@UAEPAXI@Z 10152c90 f i GuRaycastTests.obj
 0001:00151cd0       ?addIndex@?$OverlapTraceSegment@VRayCastCallback@Gu@physx@@@HeightFieldUtil@Gu@physx@@QAE_NI@Z 10152cd0 f i GuRaycastTests.obj
 0001:00151d40       ?computeRectangleDifference@?$OverlapTraceSegment@VRayCastCallback@Gu@physx@@@HeightFieldUtil@Gu@physx@@QAEXABUOverlapRectangle@1234@0AAUOverlapLine@1234@@Z 10152d40 f i GuRaycastTests.obj
 0001:00151e30       ?faceHit@RayCastCallback@Gu@physx@@QAE_NABVHeightFieldUtil@23@ABVPxVec3@3@I@Z 10152e30 f i GuRaycastTests.obj
 0001:00151e70       ?init@?$OverlapTraceSegment@VRayCastCallback@Gu@physx@@@HeightFieldUtil@Gu@physx@@QAE_NHHHHHPAVRayCastCallback@34@PAV?$Array@IVNamedAllocator@shdfnd@physx@@@shdfnd@4@@Z 10152e70 f i GuRaycastTests.obj
 0001:00151f90       ?initialized@?$OverlapTraceSegment@VRayCastCallback@Gu@physx@@@HeightFieldUtil@Gu@physx@@QBE_NXZ 10152f90 f i GuRaycastTests.obj
 0001:00151fb0       ?intersectRayPlane@Gu@physx@@YA_NABVPxVec3@2@0ABVPxPlane@2@AAMPAV32@@Z 10152fb0 f i GuRaycastTests.obj
 0001:00152080       ?invalidate@OverlapRectangle@?$OverlapTraceSegment@VRayCastCallback@Gu@physx@@@HeightFieldUtil@Gu@physx@@QAEXXZ 10153080 f i GuRaycastTests.obj
 0001:001520c0       ?isSet@?$PxFlags@W4Enum@PxMeshGeometryFlag@physx@@E@physx@@QBE_NW4Enum@PxMeshGeometryFlag@2@@Z 101530c0 f i GuRaycastTests.obj
 0001:00152110       ?onEvent@RayCastCallback@Gu@physx@@QAE_NIPAI@Z 10153110 f i GuRaycastTests.obj
 0001:00152130       ?prepare@?$OverlapTraceSegment@VRayCastCallback@Gu@physx@@@HeightFieldUtil@Gu@physx@@QAEXABVPxVec3@4@00AAM1@Z 10153130 f i GuRaycastTests.obj
 0001:001524c0       ?processHit@RayMeshColliderCallback@@UAE_NABUPxRaycastHit@physx@@ABVPxVec3@3@11AAMPBI@Z 101534c0 f i GuRaycastTests.obj
 0001:00152880       ?reportOverlaps@?$OverlapTraceSegment@VRayCastCallback@Gu@physx@@@HeightFieldUtil@Gu@physx@@QAE_NXZ 10153880 f i GuRaycastTests.obj
 0001:001528e0       ?step@?$OverlapTraceSegment@VRayCastCallback@Gu@physx@@@HeightFieldUtil@Gu@physx@@QAE_NHH@Z 101538e0 f i GuRaycastTests.obj
 0001:001529c0       ?testVertexIndex@?$OverlapTraceSegment@VRayCastCallback@Gu@physx@@@HeightFieldUtil@Gu@physx@@QAE_NI@Z 101539c0 f i GuRaycastTests.obj
 0001:00152b60       ?transform@PxMeshScale@physx@@QBE?AVPxVec3@2@ABV32@@Z 10153b60 f i GuRaycastTests.obj
 0001:00152bc0       ?underFaceHit@RayCastCallback@Gu@physx@@QAE_NABVHeightFieldUtil@23@ABVPxVec3@3@1MMMI@Z 10153bc0 f i GuRaycastTests.obj
 0001:00152be0       ?visitCells@?$OverlapTraceSegment@VRayCastCallback@Gu@physx@@@HeightFieldUtil@Gu@physx@@QAE_NABUOverlapLine@1234@@Z 10153be0 f i GuRaycastTests.obj
 0001:00152db0       ?visitCells@?$OverlapTraceSegment@VRayCastCallback@Gu@physx@@@HeightFieldUtil@Gu@physx@@QAE_NABUOverlapRectangle@1234@@Z 10153db0 f i GuRaycastTests.obj
 0001:00152eb0       ??0RadixSort@Gu@physx@@QAE@XZ 10153eb0 f   GuRevisitedRadix.obj
 0001:00152f30       ??1RadixSort@Gu@physx@@UAE@XZ 10153f30 f   GuRevisitedRadix.obj
 0001:00152f50       ?Sort@RadixSort@Gu@physx@@QAEAAV123@PBIIW4RadixHint@23@@Z 10153f50 f   GuRevisitedRadix.obj
 0001:00153a80       ?Sort@RadixSort@Gu@physx@@QAEAAV123@PBMI@Z 10154a80 f   GuRevisitedRadix.obj
 0001:001544f0       ?SetBuffers@RadixSort@Gu@physx@@QAE_NPAI00PAPAI@Z 101554f0 f   GuRevisitedRadix.obj
 0001:00154b10       ??_ERadixSort@Gu@physx@@UAEPAXI@Z 10155b10 f i GuRevisitedRadix.obj
 0001:00154ba0       ??_GRadixSort@Gu@physx@@UAEPAXI@Z 10155ba0 f i GuRevisitedRadix.obj
 0001:00154be0       ?CheckPassValidity@@YAPBIIPBIIPBXAAE@Z 10155be0 f i GuRevisitedRadix.obj
 0001:00154c30       ??0RadixSortBuffered@Gu@physx@@QAE@XZ 10155c30 f   GuRevisitedRadixBuffered.obj
 0001:00154c50       ??1RadixSortBuffered@Gu@physx@@UAE@XZ 10155c50 f   GuRevisitedRadixBuffered.obj
 0001:00154cc0       ?Sort@RadixSortBuffered@Gu@physx@@QAEAAV123@PBIIW4RadixHint@23@@Z 10155cc0 f   GuRevisitedRadixBuffered.obj
 0001:00154d30       ?Sort@RadixSortBuffered@Gu@physx@@QAEAAV123@PBMI@Z 10155d30 f   GuRevisitedRadixBuffered.obj
 0001:00154da0       ?Resize@RadixSortBuffered@Gu@physx@@AAE_NI@Z 10155da0 f   GuRevisitedRadixBuffered.obj
 0001:00154f00       ??_ERadixSortBuffered@Gu@physx@@UAEPAXI@Z 10155f00 f i GuRevisitedRadixBuffered.obj
 0001:00154f90       ??_GRadixSortBuffered@Gu@physx@@UAEPAXI@Z 10155f90 f i GuRevisitedRadixBuffered.obj
 0001:00154fd0       ?CheckResize@RadixSortBuffered@Gu@physx@@AAEXI@Z 10155fd0 f i GuRevisitedRadixBuffered.obj
 0001:00155040       ?writeChunk@physx@@YAXCCCCAAVPxOutputStream@1@@Z 10156040 f   GuSerialize.obj
 0001:00155090       ?readChunk@physx@@YAXAAC000AAVPxInputStream@1@@Z 10156090 f   GuSerialize.obj
 0001:001550e0       ?readWord@physx@@YAG_NAAVPxInputStream@1@@Z 101560e0 f   GuSerialize.obj
 0001:00155120       ?readDword@physx@@YAI_NAAVPxInputStream@1@@Z 10156120 f   GuSerialize.obj
 0001:00155160       ?readFloat@physx@@YAM_NAAVPxInputStream@1@@Z 10156160 f   GuSerialize.obj
 0001:001551a0       ?writeWord@physx@@YAXG_NAAVPxOutputStream@1@@Z 101561a0 f   GuSerialize.obj
 0001:001551d0       ?writeDword@physx@@YAXI_NAAVPxOutputStream@1@@Z 101561d0 f   GuSerialize.obj
 0001:00155200       ?writeFloat@physx@@YAXM_NAAVPxOutputStream@1@@Z 10156200 f   GuSerialize.obj
 0001:00155230       ?readFloatBuffer@physx@@YA_NPAMI_NAAVPxInputStream@1@@Z 10156230 f   GuSerialize.obj
 0001:00155290       ?writeWordBuffer@physx@@YAXPBGI_NAAVPxOutputStream@1@@Z 10156290 f   GuSerialize.obj
 0001:001552f0       ?writeFloatBuffer@physx@@YAXPBMI_NAAVPxOutputStream@1@@Z 101562f0 f   GuSerialize.obj
 0001:00155350       ?writeHeader@physx@@YA_NCCCCI_NAAVPxOutputStream@1@@Z 10156350 f   GuSerialize.obj
 0001:001553c0       ?readHeader@physx@@YA_NCCCCAAIAA_NAAVPxInputStream@1@@Z 101563c0 f   GuSerialize.obj
 0001:001554b0       ?computeMaxIndex@physx@@YAIPBII@Z 101564b0 f   GuSerialize.obj
 0001:00155500       ?computeMaxIndex@physx@@YAGPBGI@Z 10156500 f   GuSerialize.obj
 0001:00155560       ?storeIndices@physx@@YAXIIPBIAAVPxOutputStream@1@_N@Z 10156560 f   GuSerialize.obj
 0001:00155620       ?readIndices@physx@@YAXIIPAIAAVPxInputStream@1@_N@Z 10156620 f   GuSerialize.obj
 0001:001556d0       ?WriteHeader@Gu@physx@@YA_NEEEEI_NAAVPxOutputStream@2@@Z 101566d0 f   GuSerialize.obj
 0001:00155740       ?ReadHeader@Gu@physx@@YA_NEEEEAAIAA_NAAVPxInputStream@2@@Z 10156740 f   GuSerialize.obj
 0001:00155830       ?StoreIndices@Gu@physx@@YAXIIPBIAAVPxOutputStream@2@_N@Z 10156830 f   GuSerialize.obj
 0001:00155910       ?ReadIndices@Gu@physx@@YAXIIPAIAAVPxInputStream@2@_N@Z 10156910 f   GuSerialize.obj
 0001:00155a00       ?StoreIndices@Gu@physx@@YAXGIPBGAAVPxOutputStream@2@_N@Z 10156a00 f   GuSerialize.obj
 0001:00155a90       ?ReadIndices@Gu@physx@@YAXGIPAGAAVPxInputStream@2@_N@Z 10156a90 f   GuSerialize.obj
 0001:00155ea0       ?readIntBuffer@physx@@YA_NPAII_NAAVPxInputStream@1@@Z 10156ea0 f i GuSerialize.obj
 0001:00155ed0       ?writeIntBuffer@physx@@YAXPBII_NAAVPxOutputStream@1@@Z 10156ed0 f i GuSerialize.obj
 0001:00155f00       ?computeCapsule_TriangleMeshMTD@Gu@physx@@YA_NABVPxTriangleMeshGeometry@2@ABVPxTransform@2@AAVCapsuleV@12@MM_NAAUPxSweepHit@2@@Z 10156f00 f   GuSweepMTD.obj
 0001:00156540       ?computeCapsule_HeightFieldMTD@Gu@physx@@YA_NABVPxHeightFieldGeometry@2@ABVPxTransform@2@AAVCapsuleV@12@MM_NIAAUPxSweepHit@2@@Z 10157540 f   GuSweepMTD.obj
 0001:00156b90       ?computeBox_TriangleMeshMTD@Gu@physx@@YA_NABVPxTriangleMeshGeometry@2@ABVPxTransform@2@ABVBox@12@1MM_NAAUPxSweepHit@2@@Z 10157b90 f   GuSweepMTD.obj
 0001:00157440       ?computeBox_HeightFieldMTD@Gu@physx@@YA_NABVPxHeightFieldGeometry@2@ABVPxTransform@2@ABVBox@12@1MM_NIAAUPxSweepHit@2@@Z 10158440 f   GuSweepMTD.obj
 0001:00157d10       ?computeConvex_TriangleMeshMTD@Gu@physx@@YA_NABVPxTriangleMeshGeometry@2@ABVPxTransform@2@ABVPxConvexMeshGeometry@2@1MM_NAAUPxSweepHit@2@@Z 10158d10 f   GuSweepMTD.obj
 0001:00158760       ?computeConvex_HeightFieldMTD@Gu@physx@@YA_NABVPxHeightFieldGeometry@2@ABVPxTransform@2@ABVPxConvexMeshGeometry@2@1MM_NIAAUPxSweepHit@2@@Z 10159760 f   GuSweepMTD.obj
 0001:00159180       ?computeSphere_SphereMTD@Gu@physx@@YA_NABVSphere@12@0AAUPxSweepHit@2@@Z 1015a180 f   GuSweepMTD.obj
 0001:00159240       ?computeSphere_CapsuleMTD@Gu@physx@@YA_NABVSphere@12@ABVCapsule@12@AAUPxSweepHit@2@@Z 1015a240 f   GuSweepMTD.obj
 0001:00159330       ?computeCapsule_CapsuleMTD@Gu@physx@@YA_NABVCapsule@12@0AAUPxSweepHit@2@@Z 1015a330 f   GuSweepMTD.obj
 0001:00159440       ?computePlane_CapsuleMTD@Gu@physx@@YA_NABVPxPlane@2@ABVCapsule@12@AAUPxSweepHit@2@@Z 1015a440 f   GuSweepMTD.obj
 0001:00159510       ?computePlane_BoxMTD@Gu@physx@@YA_NABVPxPlane@2@ABVBox@12@AAUPxSweepHit@2@@Z 1015a510 f   GuSweepMTD.obj
 0001:00159610       ?computePlane_ConvexMTD@Gu@physx@@YA_NABVPxPlane@2@ABVPxConvexMeshGeometry@2@ABVPxTransform@2@AAUPxSweepHit@2@@Z 1015a610 f   GuSweepMTD.obj
 0001:001599b0       ?calculateMTD@@YA_NABVCapsuleV@Gu@physx@@ABT__m128@@_NPBUMTDTriangle@@IIPAVMeshPersistentContact@23@AAIAAT4@6656@Z 1015a9b0 f   GuSweepMTD.obj
 0001:00159c10       ?calculateMTD@@YA_NABUPolygonalData@Gu@physx@@PAVSupportLocal@23@AAVPsTransformV@aos@shdfnd@3@ABVPsMatTransformV@673@_NABT__m128@@PBUMTDTriangle@@IIPAVMeshPersistentContact@23@AAIAAT9@9989@Z 1015ac10 f   GuSweepMTD.obj
 0001:0015ac80       ??0MTDTriangle@@QAE@XZ     1015bc80 f i GuSweepMTD.obj
 0001:0015aca0       ??0MeshMTDGenerationCallback@@QAE@AAVContainer@Gu@physx@@@Z 1015bca0 f i GuSweepMTD.obj
 0001:0015ace0       ??0MidPhaseQueryLocalReport@@QAE@AAVContainer@Gu@physx@@@Z 1015bce0 f i GuSweepMTD.obj
 0001:0015ad20       ??0TriangleV@Gu@physx@@QAE@XZ 1015bd20 f i GuSweepMTD.obj
 0001:0015adb0       ??1MTDTriangle@@QAE@XZ     1015bdb0 f i GuSweepMTD.obj
 0001:0015add0       ??1MeshMTDGenerationCallback@@UAE@XZ 1015bdd0 f i GuSweepMTD.obj
 0001:0015adf0       ??1MidPhaseQueryLocalReport@@UAE@XZ 1015bdf0 f i GuSweepMTD.obj
 0001:0015ae10       ??_EMeshMTDGenerationCallback@@UAEPAXI@Z 1015be10 f i GuSweepMTD.obj
 0001:0015ae10       ??_GMeshMTDGenerationCallback@@UAEPAXI@Z 1015be10 f i GuSweepMTD.obj
 0001:0015ae50       ??_GMidPhaseQueryLocalReport@@UAEPAXI@Z 1015be50 f i GuSweepMTD.obj
 0001:0015ae50       ??_EMidPhaseQueryLocalReport@@UAEPAXI@Z 1015be50 f i GuSweepMTD.obj
 0001:0015ae90       ?getLocalTriangle@TriangleMesh@Gu@physx@@QBEXAAVPxTriangle@3@I@Z 1015be90 f i GuSweepMTD.obj
 0001:0015afd0       ?getScaledTriangle@physx@@YAXABVPxTriangleMeshGeometry@1@ABVMatrix34@Cm@1@AAVPxTriangle@1@I@Z 1015bfd0 f i GuSweepMTD.obj
 0001:0015b010       ?onEvent@MidPhaseQueryLocalReport@@UAE_NIPAI@Z 1015c010 f i GuSweepMTD.obj
 0001:0015b070       ?processHit@MeshMTDGenerationCallback@@UAE_NABUPxRaycastHit@physx@@ABVPxVec3@3@11AAMPBI@Z 1015c070 f i GuSweepMTD.obj
 0001:0015b0a0       ?setCenter@CapsuleV@Gu@physx@@QAEXABT__m128@@@Z 1015c0a0 f i GuSweepMTD.obj
 0001:0015b150       ?setShapeSpaceCenterofMass@SupportLocal@Gu@physx@@QAEXABT__m128@@@Z 1015c150 f i GuSweepMTD.obj
 0001:0015b1c0       ?SweepCapsuleTriangles@Gu@physx@@YA_NIPBVPxTriangle@2@_NABVPxCapsuleGeometry@2@ABVPxTransform@2@ABVPxVec3@2@MPBIAAV62@6AAMAAIMV?$PxFlags@W4Enum@PxHitFlag@physx@@G@2@@Z 1015c1c0 f   GuSweepSharedTests.obj
 0001:0015b460       ?sweepCapsule_SphereGeom@@YA_NABVPxGeometry@physx@@ABVPxTransform@2@ABVCapsule@Gu@2@ABVPxVec3@2@MAAUPxSweepHit@2@V?$PxFlags@W4Enum@PxHitFlag@physx@@G@2@M@Z 1015c460 f   GuSweepSharedTests.obj
 0001:0015b6a0       ?sweepCapsule_PlaneGeom@@YA_NABVPxGeometry@physx@@ABVPxTransform@2@ABVCapsule@Gu@2@ABVPxVec3@2@MAAUPxSweepHit@2@V?$PxFlags@W4Enum@PxHitFlag@physx@@G@2@M@Z 1015c6a0 f   GuSweepSharedTests.obj
 0001:0015b980       ?sweepCapsule_CapsuleGeom@@YA_NABVPxGeometry@physx@@ABVPxTransform@2@ABVCapsule@Gu@2@ABVPxVec3@2@MAAUPxSweepHit@2@V?$PxFlags@W4Enum@PxHitFlag@physx@@G@2@M@Z 1015c980 f   GuSweepSharedTests.obj
 0001:0015bb00       ?sweepCapsule_ConvexGeom@@YA_NABVPxGeometry@physx@@ABVPxTransform@2@ABVCapsule@Gu@2@ABVPxVec3@2@MAAUPxSweepHit@2@V?$PxFlags@W4Enum@PxHitFlag@physx@@G@2@M@Z 1015cb00 f   GuSweepSharedTests.obj
 0001:0015c140       ?sweepBox_PlaneGeom@@YA_NABVPxGeometry@physx@@ABVPxTransform@2@ABVBox@Gu@2@ABVPxVec3@2@MAAUPxSweepHit@2@V?$PxFlags@W4Enum@PxHitFlag@physx@@G@2@M@Z 1015d140 f   GuSweepSharedTests.obj
 0001:0015c3e0       ?sweepBox_ConvexGeom@@YA_NABVPxGeometry@physx@@ABVPxTransform@2@ABVBox@Gu@2@ABVPxVec3@2@MAAUPxSweepHit@2@V?$PxFlags@W4Enum@PxHitFlag@physx@@G@2@M@Z 1015d3e0 f   GuSweepSharedTests.obj
 0001:0015c940       ?sweepConvex_SphereGeom@@YA_NABVPxGeometry@physx@@ABVPxTransform@2@ABVPxConvexMeshGeometry@2@1ABVPxVec3@2@MAAUPxSweepHit@2@V?$PxFlags@W4Enum@PxHitFlag@physx@@G@2@M@Z 1015d940 f   GuSweepSharedTests.obj
 0001:0015ce30       ?sweepConvex_PlaneGeom@@YA_NABVPxGeometry@physx@@ABVPxTransform@2@ABVPxConvexMeshGeometry@2@1ABVPxVec3@2@MAAUPxSweepHit@2@V?$PxFlags@W4Enum@PxHitFlag@physx@@G@2@M@Z 1015de30 f   GuSweepSharedTests.obj
 0001:0015d100       ?sweepConvex_CapsuleGeom@@YA_NABVPxGeometry@physx@@ABVPxTransform@2@ABVPxConvexMeshGeometry@2@1ABVPxVec3@2@MAAUPxSweepHit@2@V?$PxFlags@W4Enum@PxHitFlag@physx@@G@2@M@Z 1015e100 f   GuSweepSharedTests.obj
 0001:0015d250       ?sweepConvex_BoxGeom@@YA_NABVPxGeometry@physx@@ABVPxTransform@2@ABVPxConvexMeshGeometry@2@1ABVPxVec3@2@MAAUPxSweepHit@2@V?$PxFlags@W4Enum@PxHitFlag@physx@@G@2@M@Z 1015e250 f   GuSweepSharedTests.obj
 0001:0015d3a0       ?sweepConvex_ConvexGeom@@YA_NABVPxGeometry@physx@@ABVPxTransform@2@ABVPxConvexMeshGeometry@2@1ABVPxVec3@2@MAAUPxSweepHit@2@V?$PxFlags@W4Enum@PxHitFlag@physx@@G@2@M@Z 1015e3a0 f   GuSweepSharedTests.obj
 0001:0015e2e0       ?loadTransformU@aos@shdfnd@physx@@YA?AVPsTransformV@123@ABVPxTransform@3@@Z 1015f2e0 f i GuSweepSharedTests.obj
 0001:0015e360       ?GetGeomSweepFuncs@Gu@physx@@YAABUGeomSweepFuncs@12@XZ 1015f360 f   GuSweepTests.obj
 0001:0015e370       ?SweepBoxTriangles@Gu@physx@@YA_NIPBVPxTriangle@2@_NABVPxBoxGeometry@2@ABVPxTransform@2@ABVPxVec3@2@MAAV62@5AAMAAIPBIMV?$PxFlags@W4Enum@PxHitFlag@physx@@G@2@@Z 1015f370 f   GuSweepTests.obj
 0001:0015ed10       ?sweepCapsule_BoxGeom@@YA_NABVPxGeometry@physx@@ABVPxTransform@2@ABVCapsule@Gu@2@ABVPxVec3@2@MAAUPxSweepHit@2@V?$PxFlags@W4Enum@PxHitFlag@physx@@G@2@M@Z 1015fd10 f   GuSweepTests.obj
 0001:0015f260       ?sweepBox_SphereGeom@@YA_NABVPxGeometry@physx@@ABVPxTransform@2@ABVBox@Gu@2@ABVPxVec3@2@MAAUPxSweepHit@2@V?$PxFlags@W4Enum@PxHitFlag@physx@@G@2@M@Z 10160260 f   GuSweepTests.obj
 0001:0015f6e0       ?sweepBox_CapsuleGeom@@YA_NABVPxGeometry@physx@@ABVPxTransform@2@ABVBox@Gu@2@ABVPxVec3@2@MAAUPxSweepHit@2@V?$PxFlags@W4Enum@PxHitFlag@physx@@G@2@M@Z 101606e0 f   GuSweepTests.obj
 0001:0015fbe0       ?sweepBox_BoxGeom@@YA_NABVPxGeometry@physx@@ABVPxTransform@2@ABVBox@Gu@2@ABVPxVec3@2@MAAUPxSweepHit@2@V?$PxFlags@W4Enum@PxHitFlag@physx@@G@2@M@Z 10160be0 f   GuSweepTests.obj
 0001:001607a0       _CloseHandle@4             101617a0 f   kernel32:KERNEL32.dll
 0001:001607a6       _MapViewOfFile@20          101617a6 f   kernel32:KERNEL32.dll
 0001:001607ac       _UnmapViewOfFile@4         101617ac f   kernel32:KERNEL32.dll
 0001:001607b2       _CreateFileMappingA@24     101617b2 f   kernel32:KERNEL32.dll
 0001:001607b8       _OpenFileMappingA@12       101617b8 f   kernel32:KERNEL32.dll
 0001:001607be       _FreeLibrary@4             101617be f   kernel32:KERNEL32.dll
 0001:001607c4       _GetProcAddress@8          101617c4 f   kernel32:KERNEL32.dll
 0001:001607ca       _LoadLibraryA@4            101617ca f   kernel32:KERNEL32.dll
 0001:001607d0       _InitializeCriticalSection@4 101617d0 f   kernel32:KERNEL32.dll
 0001:001607d6       _EnterCriticalSection@4    101617d6 f   kernel32:KERNEL32.dll
 0001:001607dc       _LeaveCriticalSection@4    101617dc f   kernel32:KERNEL32.dll
 0001:001607e2       _TryEnterCriticalSection@4 101617e2 f   kernel32:KERNEL32.dll
 0001:001607e8       _DeleteCriticalSection@4   101617e8 f   kernel32:KERNEL32.dll
 0001:001607ee       _GetCurrentThread@0        101617ee f   kernel32:KERNEL32.dll
 0001:001607f4       _GetCurrentThreadId@0      101617f4 f   kernel32:KERNEL32.dll
 0001:001607fa       _OutputDebugStringA@4      101617fa f   kernel32:KERNEL32.dll
 0001:00160800       _InitializeSListHead@4     10161800 f   kernel32:KERNEL32.dll
 0001:00160806       _InterlockedPopEntrySList@4 10161806 f   kernel32:KERNEL32.dll
 0001:0016080c       _InterlockedPushEntrySList@8 1016180c f   kernel32:KERNEL32.dll
 0001:00160812       _InterlockedFlushSList@4   10161812 f   kernel32:KERNEL32.dll
 0001:00160818       _SetEvent@4                10161818 f   kernel32:KERNEL32.dll
 0001:0016081e       _ResetEvent@4              1016181e f   kernel32:KERNEL32.dll
 0001:00160824       _WaitForSingleObject@8     10161824 f   kernel32:KERNEL32.dll
 0001:0016082a       _CreateEventA@16           1016182a f   kernel32:KERNEL32.dll
 0001:00160830       _RaiseException@16         10161830 f   kernel32:KERNEL32.dll
 0001:00160836       _GetLastError@0            10161836 f   kernel32:KERNEL32.dll
 0001:0016083c       _Sleep@4                   1016183c f   kernel32:KERNEL32.dll
 0001:00160842       _SwitchToThread@0          10161842 f   kernel32:KERNEL32.dll
 0001:00160848       _CreateThread@24           10161848 f   kernel32:KERNEL32.dll
 0001:0016084e       _SetThreadPriority@8       1016184e f   kernel32:KERNEL32.dll
 0001:00160854       _GetThreadPriority@4       10161854 f   kernel32:KERNEL32.dll
 0001:0016085a       _ExitThread@4              1016185a f   kernel32:KERNEL32.dll
 0001:00160860       _TerminateThread@8         10161860 f   kernel32:KERNEL32.dll
 0001:00160866       _ResumeThread@4            10161866 f   kernel32:KERNEL32.dll
 0001:0016086c       _TlsAlloc@0                1016186c f   kernel32:KERNEL32.dll
 0001:00160872       _TlsGetValue@4             10161872 f   kernel32:KERNEL32.dll
 0001:00160878       _TlsSetValue@8             10161878 f   kernel32:KERNEL32.dll
