 PhysX3Cooking_x86

 Timestamp is 55b9694e (Wed Jul 29 17:01:18 2015)

 Preferred load address is 10000000

 Start         Length     Name                   Class
 0001:00000000 000001d4H .text$di                CODE
 0001:000001e0 00042aeaH .text$mn                CODE
 0002:00000000 0000013cH .idata$5                DATA
 0002:0000013c 00000004H .CRT$XCA                DATA
 0002:00000140 00000048H .CRT$XCU                DATA
 0002:00000188 00000004H .CRT$XCZ                DATA
 0002:0000018c 00000004H .CRT$XIA                DATA
 0002:00000190 00000014H .CRT$XIC                DATA
 0002:000001a4 00000004H .CRT$XIZ                DATA
 0002:000001a8 00000004H .CRT$XPA                DATA
 0002:000001ac 00000008H .CRT$XPX                DATA
 0002:000001b4 00000004H .CRT$XPXA               DATA
 0002:000001b8 00000004H .CRT$XPZ                DATA
 0002:000001bc 00000004H .CRT$XTA                DATA
 0002:000001c0 00000004H .CRT$XTZ                DATA
 0002:000001d0 00008fc8H .rdata                  DATA
 0002:00009198 00000078H .rdata$debug            DATA
 0002:00009210 00000388H .rdata$r                DATA
 0002:000095a0 0000000cH .rdata$sxdata           DATA
 0002:000095ac 00000004H .rtc$IAA                DATA
 0002:000095b0 00000004H .rtc$IZZ                DATA
 0002:000095b4 00000004H .rtc$TAA                DATA
 0002:000095b8 00000004H .rtc$TZZ                DATA
 0002:000095c0 000005f4H .xdata$x                DATA
 0002:00009bb4 00000020H .didat$2                DATA
 0002:00009bd4 00000020H .didat$3                DATA
 0002:00009bf4 00000144H .didat$4                DATA
 0002:00009d38 00000fecH .didat$6                DATA
 0002:0000ad24 00000144H .didat$7                DATA
 0002:0000ae70 00000081H .edata                  DATA
 0002:0000aef4 00000014H .idata$2                DATA
 0002:0000af08 00000014H .idata$3                DATA
 0002:0000af1c 0000013cH .idata$4                DATA
 0002:0000b058 000005aaH .idata$6                DATA
 0003:00000000 000012c8H .data                   DATA
 0003:000012c8 000003f0H .data$r                 DATA
 0003:000016b8 00000144H .didat$5                DATA
 0003:00001800 0000200cH .bss                    DATA
 0004:00000000 000000a0H .rsrc$01                DATA
 0004:000000a0 000004b8H .rsrc$02                DATA

  Address         Publics by Value              Rva+Base       Lib:Object

 0000:00000000       ___guard_fids_table        00000000     <absolute>
 0000:00000000       ___guard_flags             00000000     <absolute>
 0000:00000000       __except_list              00000000     <absolute>
 0000:00000000       ___guard_fids_count        00000000     <absolute>
 0000:00000003       ___safe_se_handler_count   00000003     <absolute>
 0000:00000000       ___ImageBase               10000000     <linker-defined>
 0001:000001e0       _PxSetPhysXCookingDelayLoadHook 100011e0 f   WindowsCookingDelayLoadHook.obj
 0001:000001f0       ?delayHook@@YGP6GHXZIPAUDelayLoadInfo@@@Z 100011f0 f   WindowsCookingDelayLoadHook.obj
 0001:00000240       ?loadLibrary@shdfnd@physx@@YGPAUHINSTANCE__@@PBD@Z 10001240 f i WindowsCookingDelayLoadHook.obj
 0001:00000250       ?physXCommonDliNotePreLoadLibrary@shdfnd@physx@@YGP6GHXZPBDPBVPxDelayLoadHook@2@@Z 10001250 f i WindowsCookingDelayLoadHook.obj
 0001:00000680       ?strstr@@YAPADPADPBD@Z     10001680 f i WindowsCookingDelayLoadHook.obj
 0001:00000690       ?saveHeightField@physx@@YA_NABVHeightField@Gu@1@AAVPxOutputStream@1@_N@Z 10001690 f   HeightFieldCooking.obj
 0001:000008c0       ??B?$PxFlags@W4Enum@PxHeightFieldFlag@physx@@G@physx@@QBEGXZ 100018c0 f i HeightFieldCooking.obj
 0001:000008d0       ?getData@HeightField@Gu@physx@@QBEABUHeightFieldData@23@XZ 100018d0 f i HeightFieldCooking.obj
 0001:000008e0       ?buildFromTriangles@RTreeCooker@physx@@SAXAAURTree@Gu@2@PBVPxVec3@2@IPBGPBIIAAV?$Array@IV?$ReflectionAllocator@I@shdfnd@physx@@@shdfnd@2@PAURemapCallback@12@MW4Enum@PxMeshCookingHint@2@@Z 100018e0 f   RTreeCooking.obj
 0001:00001400       ??$PX_UNUSED@I@@YAXABI@Z   10002400 f i RTreeCooking.obj
 0001:00001410       ??$PX_UNUSED@M@@YAXABM@Z   10002410 f i RTreeCooking.obj
 0001:00001420       ??$PX_UNUSED@PAURTreeNodeNQ@physx@@@@YAXABQAURTreeNodeNQ@physx@@@Z 10002420 f i RTreeCooking.obj
 0001:00001430       ??$PX_UNUSED@URTreeNodeNQ@physx@@@@YAXABURTreeNodeNQ@physx@@@Z 10002430 f i RTreeCooking.obj
 0001:00001440       ??$PxMax@H@physx@@YAHHH@Z  10002440 f i RTreeCooking.obj
 0001:00001450       ??$PxMax@I@physx@@YAIII@Z  10002450 f i RTreeCooking.obj
 0001:00001460       ??$PxMax@M@physx@@YAMMM@Z  10002460 f i RTreeCooking.obj
 0001:00001490       ??$PxMin@I@physx@@YAIII@Z  10002490 f i RTreeCooking.obj
 0001:000014a0       ??$PxMin@M@physx@@YAMMM@Z  100024a0 f i RTreeCooking.obj
 0001:000014d0       ??$median3@I$$CBU?$Less@I@shdfnd@physx@@@internal@shdfnd@physx@@YAXPAIHHABU?$Less@I@12@@Z 100024d0 f i RTreeCooking.obj
 0001:00001530       ??$median3@I$$CBUSortBoundsPredicate@physx@@@internal@shdfnd@physx@@YAXPAIHHABUSortBoundsPredicate@2@@Z 10002530 f i RTreeCooking.obj
 0001:00001630       ??$partition@I$$CBU?$Less@I@shdfnd@physx@@@internal@shdfnd@physx@@YAHPAIHHABU?$Less@I@12@@Z 10002630 f i RTreeCooking.obj
 0001:000016c0       ??$partition@I$$CBUSortBoundsPredicate@physx@@@internal@shdfnd@physx@@YAHPAIHHABUSortBoundsPredicate@2@@Z 100026c0 f i RTreeCooking.obj
 0001:00001780       ??$partition@UBoundsLTE@physx@@@quickSelect@physx@@YAIPIAIIIIABUBoundsLTE@1@@Z 10002780 f i RTreeCooking.obj
 0001:00001800       ??$quickSelectFirstK@UBoundsLTE@physx@@@quickSelect@physx@@YAXPIAIIIIABUBoundsLTE@1@@Z 10002800 f i RTreeCooking.obj
 0001:000018b0       ??$smallSort@I$$CBU?$Less@I@shdfnd@physx@@@internal@shdfnd@physx@@YAXPAIHHABU?$Less@I@12@@Z 100028b0 f i RTreeCooking.obj
 0001:00001930       ??$smallSort@I$$CBUSortBoundsPredicate@physx@@@internal@shdfnd@physx@@YAXPAIHHABUSortBoundsPredicate@2@@Z 10002930 f i RTreeCooking.obj
 0001:00001a00       ??$sort@I@shdfnd@physx@@YAXPAII@Z 10002a00 f i RTreeCooking.obj
 0001:00001a20       ??$sort@IU?$Less@I@shdfnd@physx@@V?$ReflectionAllocator@I@23@@shdfnd@physx@@YAXPAIIABU?$Less@I@01@ABV?$ReflectionAllocator@I@01@I@Z 10002a20 f i RTreeCooking.obj
 0001:00001b90       ??$sort@IUSortBoundsPredicate@physx@@@shdfnd@physx@@YAXPAIIABUSortBoundsPredicate@1@@Z 10002b90 f i RTreeCooking.obj
 0001:00001bb0       ??$sort@IUSortBoundsPredicate@physx@@V?$ReflectionAllocator@I@shdfnd@2@@shdfnd@physx@@YAXPAIIABUSortBoundsPredicate@1@ABV?$ReflectionAllocator@I@01@I@Z 10002bb0 f i RTreeCooking.obj
 0001:00001d20       ??$swap@I@shdfnd@physx@@YAXAAI0@Z 10002d20 f i RTreeCooking.obj
 0001:00001d40       ??0?$AlignedAllocator@$0IA@VAllocator@shdfnd@physx@@@shdfnd@physx@@QAE@ABVAllocator@12@@Z 10002d40 f i RTreeCooking.obj
 0001:00001d50       ??0?$Array@IV?$ReflectionAllocator@I@shdfnd@physx@@@shdfnd@physx@@QAE@IABIABV?$ReflectionAllocator@I@12@@Z 10002d50 f i RTreeCooking.obj
 0001:00001d80       ??0?$Array@UInterval@physx@@V?$InlineAllocator@$0CA@V?$ReflectionAllocator@UInterval@physx@@@shdfnd@physx@@@shdfnd@2@@shdfnd@physx@@QAE@ABV?$InlineAllocator@$0CA@V?$ReflectionAllocator@UInterval@physx@@@shdfnd@physx@@@12@@Z 10002d80 f i RTreeCooking.obj
 0001:00001da0       ??0?$Array@UPxBounds3V@physx@@V?$ReflectionAllocator@UPxBounds3V@physx@@@shdfnd@2@@shdfnd@physx@@QAE@ABV?$ReflectionAllocator@UPxBounds3V@physx@@@12@@Z 10002da0 f i RTreeCooking.obj
 0001:00001dc0       ??0?$Array@URTreeNodeNQ@physx@@V?$ReflectionAllocator@URTreeNodeNQ@physx@@@shdfnd@2@@shdfnd@physx@@QAE@ABV?$ReflectionAllocator@URTreeNodeNQ@physx@@@12@@Z 10002dc0 f i RTreeCooking.obj
 0001:00001de0       ??0?$Array@URTreeNodeQ@Gu@physx@@V?$ReflectionAllocator@URTreeNodeQ@Gu@physx@@@shdfnd@3@@shdfnd@physx@@QAE@ABV?$ReflectionAllocator@URTreeNodeQ@Gu@physx@@@12@@Z 10002de0 f i RTreeCooking.obj
 0001:00001e00       ??0?$Array@VPxVec3@physx@@V?$ReflectionAllocator@VPxVec3@physx@@@shdfnd@2@@shdfnd@physx@@QAE@ABV?$ReflectionAllocator@VPxVec3@physx@@@12@@Z 10002e00 f i RTreeCooking.obj
 0001:00001e20       ??0?$InlineAllocator@$0CA@V?$ReflectionAllocator@UInterval@physx@@@shdfnd@physx@@@shdfnd@physx@@QAE@ABV012@@Z 10002e20 f i RTreeCooking.obj
 0001:00001e30       ??0?$InlineAllocator@$0CA@V?$ReflectionAllocator@UInterval@physx@@@shdfnd@physx@@@shdfnd@physx@@QAE@ABV?$ReflectionAllocator@UInterval@physx@@@12@@Z 10002e30 f i RTreeCooking.obj
 0001:00001e40       ??0?$InlineArray@UInterval@physx@@$03V?$ReflectionAllocator@UInterval@physx@@@shdfnd@2@@shdfnd@physx@@QAE@ABV?$ReflectionAllocator@UInterval@physx@@@12@@Z 10002e40 f i RTreeCooking.obj
 0001:00001e80       ??0?$ReflectionAllocator@I@shdfnd@physx@@QAE@ABV012@@Z 10002e80 f i RTreeCooking.obj
 0001:00001e90       ??0?$ReflectionAllocator@I@shdfnd@physx@@QAE@PBD@Z 10002e90 f i RTreeCooking.obj
 0001:00001ea0       ??0?$ReflectionAllocator@UInterval@physx@@@shdfnd@physx@@QAE@ABV012@@Z 10002ea0 f i RTreeCooking.obj
 0001:00001eb0       ??0?$ReflectionAllocator@UInterval@physx@@@shdfnd@physx@@QAE@PBD@Z 10002eb0 f i RTreeCooking.obj
 0001:00001ec0       ??0?$ReflectionAllocator@UPxBounds3V@physx@@@shdfnd@physx@@QAE@ABV012@@Z 10002ec0 f i RTreeCooking.obj
 0001:00001ed0       ??0?$ReflectionAllocator@UPxBounds3V@physx@@@shdfnd@physx@@QAE@PBD@Z 10002ed0 f i RTreeCooking.obj
 0001:00001ee0       ??0?$ReflectionAllocator@URTreeNodeNQ@physx@@@shdfnd@physx@@QAE@ABV012@@Z 10002ee0 f i RTreeCooking.obj
 0001:00001ef0       ??0?$ReflectionAllocator@URTreeNodeNQ@physx@@@shdfnd@physx@@QAE@PBD@Z 10002ef0 f i RTreeCooking.obj
 0001:00001f00       ??0?$ReflectionAllocator@URTreeNodeQ@Gu@physx@@@shdfnd@physx@@QAE@ABV012@@Z 10002f00 f i RTreeCooking.obj
 0001:00001f10       ??0?$ReflectionAllocator@URTreeNodeQ@Gu@physx@@@shdfnd@physx@@QAE@PBD@Z 10002f10 f i RTreeCooking.obj
 0001:00001f20       ??0?$ReflectionAllocator@VPxVec3@physx@@@shdfnd@physx@@QAE@ABV012@@Z 10002f20 f i RTreeCooking.obj
 0001:00001f30       ??0?$ReflectionAllocator@VPxVec3@physx@@@shdfnd@physx@@QAE@PBD@Z 10002f30 f i RTreeCooking.obj
 0001:00001f40       ??0?$ScopedPointer@HVTempAllocator@shdfnd@physx@@@shdfnd@physx@@QAE@XZ 10002f40 f i RTreeCooking.obj
 0001:00001f50       ??0?$Stack@V?$ReflectionAllocator@I@shdfnd@physx@@@internal@shdfnd@physx@@QAE@PAHIABV?$ReflectionAllocator@I@23@@Z 10002f50 f i RTreeCooking.obj
 0001:00001f70       ??0BoundsLTE@physx@@QAE@IPBVPxVec3@1@@Z 10002f70 f i RTreeCooking.obj
 0001:00001f90       ??0Interval@physx@@QAE@II@Z 10002f90 f i RTreeCooking.obj
 0001:00001fb0       ??0PxBounds3@physx@@QAE@ABV01@@Z 10002fb0 f i RTreeCooking.obj
 0001:00001fe0       ??0PxBounds3@physx@@QAE@ABVPxVec3@1@0@Z 10002fe0 f i RTreeCooking.obj
 0001:00002020       ??0PxBounds3V@physx@@QAE@AAT__m128@@0@Z 10003020 f i RTreeCooking.obj
 0001:00002040       ??0PxBounds3V@physx@@QAE@UU@01@@Z 10003040 f i RTreeCooking.obj
 0001:00002050       ??0PxVec3@physx@@QAE@ABV01@@Z 10003050 f i RTreeCooking.obj
 0001:00002070       ??0PxVec3@physx@@QAE@M@Z   10003070 f i RTreeCooking.obj
 0001:00002090       ??0PxVec3@physx@@QAE@MMM@Z 10003090 f i RTreeCooking.obj
 0001:000020c0       ??0PxVec4@physx@@QAE@ABVPxVec3@1@M@Z 100030c0 f i RTreeCooking.obj
 0001:000020f0       ??0PxVec4@physx@@QAE@M@Z   100030f0 f i RTreeCooking.obj
 0001:00002110       ??0PxVec4@physx@@QAE@MMMM@Z 10003110 f i RTreeCooking.obj
 0001:00002140       ??0RTreeNodeNQ@physx@@QAE@ABU01@@Z 10003140 f i RTreeCooking.obj
 0001:00002180       ??0RTreeNodeNQ@physx@@QAE@XZ 10003180 f i RTreeCooking.obj
 0001:000021c0       ??0SortBoundsPredicate@physx@@QAE@IPBUPxBounds3V@1@@Z 100031c0 f i RTreeCooking.obj
 0001:000021e0       ??0SubSortQuick@physx@@QAE@PAIPBUPxBounds3V@1@IM@Z 100031e0 f i RTreeCooking.obj
 0001:00002300       ??0SubSortSAH@physx@@QAE@PAIPBUPxBounds3V@1@IPBI22222M@Z 10003300 f i RTreeCooking.obj
 0001:000023e0       ??1?$Array@IV?$ReflectionAllocator@I@shdfnd@physx@@@shdfnd@physx@@QAE@XZ 100033e0 f i RTreeCooking.obj
 0001:00002410       ??1?$Array@UInterval@physx@@V?$InlineAllocator@$0CA@V?$ReflectionAllocator@UInterval@physx@@@shdfnd@physx@@@shdfnd@2@@shdfnd@physx@@QAE@XZ 10003410 f i RTreeCooking.obj
 0001:00002440       ??1?$Array@UPxBounds3V@physx@@V?$ReflectionAllocator@UPxBounds3V@physx@@@shdfnd@2@@shdfnd@physx@@QAE@XZ 10003440 f i RTreeCooking.obj
 0001:00002470       ??1?$Array@URTreeNodeNQ@physx@@V?$ReflectionAllocator@URTreeNodeNQ@physx@@@shdfnd@2@@shdfnd@physx@@QAE@XZ 10003470 f i RTreeCooking.obj
 0001:000024a0       ??1?$Array@URTreeNodeQ@Gu@physx@@V?$ReflectionAllocator@URTreeNodeQ@Gu@physx@@@shdfnd@3@@shdfnd@physx@@QAE@XZ 100034a0 f i RTreeCooking.obj
 0001:000024d0       ??1?$Array@VPxVec3@physx@@V?$ReflectionAllocator@VPxVec3@physx@@@shdfnd@2@@shdfnd@physx@@QAE@XZ 100034d0 f i RTreeCooking.obj
 0001:00002500       ??1?$InlineArray@UInterval@physx@@$03V?$ReflectionAllocator@UInterval@physx@@@shdfnd@2@@shdfnd@physx@@QAE@XZ 10003500 f i RTreeCooking.obj
 0001:00002530       ??1?$ScopedPointer@HVTempAllocator@shdfnd@physx@@@shdfnd@physx@@QAE@XZ 10003530 f i RTreeCooking.obj
 0001:00002540       ??1?$Stack@V?$ReflectionAllocator@I@shdfnd@physx@@@internal@shdfnd@physx@@QAE@XZ 10003540 f i RTreeCooking.obj
 0001:00002560       ??1SubSortQuick@physx@@QAE@XZ 10003560 f i RTreeCooking.obj
 0001:00002590       ??1SubSortSAH@physx@@QAE@XZ 10003590 f i RTreeCooking.obj
 0001:000025e0       ??2@YAPAXIPAX@Z            100035e0 f i RTreeCooking.obj
 0001:000025f0       ??4PxVec3@physx@@QAEAAV01@ABV01@@Z 100035f0 f i RTreeCooking.obj
 0001:00002610       ??4PxVec4@physx@@QAEAAV01@ABV01@@Z 10003610 f i RTreeCooking.obj
 0001:00002640       ??A?$Array@IV?$ReflectionAllocator@I@shdfnd@physx@@@shdfnd@physx@@QAEAAII@Z 10003640 f i RTreeCooking.obj
 0001:00002650       ??A?$Array@UInterval@physx@@V?$InlineAllocator@$0CA@V?$ReflectionAllocator@UInterval@physx@@@shdfnd@physx@@@shdfnd@2@@shdfnd@physx@@QAEAAUInterval@2@I@Z 10003650 f i RTreeCooking.obj
 0001:00002660       ??A?$Array@URTreeNodeNQ@physx@@V?$ReflectionAllocator@URTreeNodeNQ@physx@@@shdfnd@2@@shdfnd@physx@@QAEAAURTreeNodeNQ@2@I@Z 10003660 f i RTreeCooking.obj
 0001:00002670       ??A?$Array@URTreeNodeQ@Gu@physx@@V?$ReflectionAllocator@URTreeNodeQ@Gu@physx@@@shdfnd@3@@shdfnd@physx@@QAEAAURTreeNodeQ@Gu@2@I@Z 10003670 f i RTreeCooking.obj
 0001:00002690       ??APxVec3@physx@@QBEABMI@Z 10003690 f i RTreeCooking.obj
 0001:000026a0       ??B?$ScopedPointer@HVTempAllocator@shdfnd@physx@@@shdfnd@physx@@QBEPAHXZ 100036a0 f i RTreeCooking.obj
 0001:000026b0       ??GPxVec4@physx@@QBE?AV01@ABV01@@Z 100036b0 f i RTreeCooking.obj
 0001:00002700       ??HPxVec3@physx@@QBE?AV01@ABV01@@Z 10003700 f i RTreeCooking.obj
 0001:00002740       ??KPxVec4@physx@@QBE?AV01@M@Z 10003740 f i RTreeCooking.obj
 0001:00002770       ??R?$Less@I@shdfnd@physx@@QBE_NABI0@Z 10003770 f i RTreeCooking.obj
 0001:00002790       ??RBoundsLTE@physx@@QBE_NABI0@Z 10003790 f i RTreeCooking.obj
 0001:000027d0       ??RSortBoundsPredicate@physx@@QBE_NABI0@Z 100037d0 f i RTreeCooking.obj
 0001:00002810       ?FLoad@aos@shdfnd@physx@@YA?AT__m128@@M@Z 10003810 f i RTreeCooking.obj
 0001:00002820       ?FMax@aos@shdfnd@physx@@YA?AT__m128@@XZ 10003820 f i RTreeCooking.obj
 0001:00002830       ?FNegMax@aos@shdfnd@physx@@YA?AT__m128@@XZ 10003830 f i RTreeCooking.obj
 0001:00002840       ?FStore@aos@shdfnd@physx@@YAXT__m128@@PIAM@Z 10003840 f i RTreeCooking.obj
 0001:00002850       ?PxAbs@physx@@YAHH@Z       10003850 f i RTreeCooking.obj
 0001:00002860       ?PxMemCopy@physx@@YAPAXPIAXPIBXI@Z 10003860 f i RTreeCooking.obj
 0001:00002870       ?V3Add@aos@shdfnd@physx@@YA?AT__m128@@T4@0@Z 10003870 f i RTreeCooking.obj
 0001:00002880       ?V3Dot@aos@shdfnd@physx@@YA?AT__m128@@T4@0@Z 10003880 f i RTreeCooking.obj
 0001:000028a0       ?V3Load@aos@shdfnd@physx@@YA?AT__m128@@M@Z 100038a0 f i RTreeCooking.obj
 0001:000028c0       ?V3LoadU@aos@shdfnd@physx@@YA?AT__m128@@ABVPxVec3@3@@Z 100038c0 f i RTreeCooking.obj
 0001:000028f0       ?V3Max@aos@shdfnd@physx@@YA?AT__m128@@T4@0@Z 100038f0 f i RTreeCooking.obj
 0001:00002900       ?V3Min@aos@shdfnd@physx@@YA?AT__m128@@T4@0@Z 10003900 f i RTreeCooking.obj
 0001:00002910       ?V3PermZXY@aos@shdfnd@physx@@YA?AT__m128@@T4@@Z 10003910 f i RTreeCooking.obj
 0001:00002920       ?V3ReadXYZ@aos@shdfnd@physx@@YAABVPxVec3@3@ABT__m128@@@Z 10003920 f i RTreeCooking.obj
 0001:00002930       ?V3Splat@aos@shdfnd@physx@@YA?AT__m128@@T4@@Z 10003930 f i RTreeCooking.obj
 0001:00002940       ?V3StoreA@aos@shdfnd@physx@@YAXT__m128@@AAVPxVec3@3@@Z 10003940 f i RTreeCooking.obj
 0001:00002970       ?V3Sub@aos@shdfnd@physx@@YA?AT__m128@@T4@0@Z 10003970 f i RTreeCooking.obj
 0001:00002980       ?V3Zero@aos@shdfnd@physx@@YA?AT__m128@@XZ 10003980 f i RTreeCooking.obj
 0001:00002990       ?V4ClearW@aos@shdfnd@physx@@YA?AT__m128@@T4@@Z 10003990 f i RTreeCooking.obj
 0001:000029a0       ?V4Load@aos@shdfnd@physx@@YA?AT__m128@@M@Z 100039a0 f i RTreeCooking.obj
 0001:000029b0       ?Vec3V_From_FloatV@aos@shdfnd@physx@@YA?AT__m128@@T4@@Z 100039b0 f i RTreeCooking.obj
 0001:000029c0       ?Vec3V_From_Vec4V@aos@shdfnd@physx@@YA?AT__m128@@T4@@Z 100039c0 f i RTreeCooking.obj
 0001:000029d0       ?Vec4V_From_FloatV@aos@shdfnd@physx@@YA?AT__m128@@T4@@Z 100039d0 f i RTreeCooking.obj
 0001:000029e0       ?allocate@?$AlignedAllocator@$0IA@VAllocator@shdfnd@physx@@@shdfnd@physx@@QAEPAXIPBDH@Z 100039e0 f i RTreeCooking.obj
 0001:00002a20       ?allocate@?$Array@IV?$ReflectionAllocator@I@shdfnd@physx@@@shdfnd@physx@@IAEPAII@Z 10003a20 f i RTreeCooking.obj
 0001:00002a90       ?allocate@?$Array@UInterval@physx@@V?$InlineAllocator@$0CA@V?$ReflectionAllocator@UInterval@physx@@@shdfnd@physx@@@shdfnd@2@@shdfnd@physx@@IAEPAUInterval@3@I@Z 10003a90 f i RTreeCooking.obj
 0001:00002ac0       ?allocate@?$Array@UPxBounds3V@physx@@V?$ReflectionAllocator@UPxBounds3V@physx@@@shdfnd@2@@shdfnd@physx@@IAEPAUPxBounds3V@3@I@Z 10003ac0 f i RTreeCooking.obj
 0001:00002b30       ?allocate@?$Array@URTreeNodeNQ@physx@@V?$ReflectionAllocator@URTreeNodeNQ@physx@@@shdfnd@2@@shdfnd@physx@@IAEPAURTreeNodeNQ@3@I@Z 10003b30 f i RTreeCooking.obj
 0001:00002ba0       ?allocate@?$Array@URTreeNodeQ@Gu@physx@@V?$ReflectionAllocator@URTreeNodeQ@Gu@physx@@@shdfnd@3@@shdfnd@physx@@IAEPAURTreeNodeQ@Gu@3@I@Z 10003ba0 f i RTreeCooking.obj
 0001:00002c20       ?allocate@?$Array@VPxVec3@physx@@V?$ReflectionAllocator@VPxVec3@physx@@@shdfnd@2@@shdfnd@physx@@IAEPAVPxVec3@3@I@Z 10003c20 f i RTreeCooking.obj
 0001:00002c90       ?allocate@?$InlineAllocator@$0CA@V?$ReflectionAllocator@UInterval@physx@@@shdfnd@physx@@@shdfnd@physx@@QAEPAXIPBDH@Z 10003c90 f i RTreeCooking.obj
 0001:00002d00       ?allocate@?$ReflectionAllocator@I@shdfnd@physx@@QAEPAXIPBDH@Z 10003d00 f i RTreeCooking.obj
 0001:00002d60       ?allocate@?$ReflectionAllocator@UInterval@physx@@@shdfnd@physx@@QAEPAXIPBDH@Z 10003d60 f i RTreeCooking.obj
 0001:00002dc0       ?allocate@?$ReflectionAllocator@UPxBounds3V@physx@@@shdfnd@physx@@QAEPAXIPBDH@Z 10003dc0 f i RTreeCooking.obj
 0001:00002e20       ?allocate@?$ReflectionAllocator@URTreeNodeNQ@physx@@@shdfnd@physx@@QAEPAXIPBDH@Z 10003e20 f i RTreeCooking.obj
 0001:00002e80       ?allocate@?$ReflectionAllocator@URTreeNodeQ@Gu@physx@@@shdfnd@physx@@QAEPAXIPBDH@Z 10003e80 f i RTreeCooking.obj
 0001:00002ee0       ?allocate@?$ReflectionAllocator@VPxVec3@physx@@@shdfnd@physx@@QAEPAXIPBDH@Z 10003ee0 f i RTreeCooking.obj
 0001:00002f40       ?begin@?$Array@IV?$ReflectionAllocator@I@shdfnd@physx@@@shdfnd@physx@@QAEPAIXZ 10003f40 f i RTreeCooking.obj
 0001:00002f50       ?begin@?$Array@UPxBounds3V@physx@@V?$ReflectionAllocator@UPxBounds3V@physx@@@shdfnd@2@@shdfnd@physx@@QAEPAUPxBounds3V@3@XZ 10003f50 f i RTreeCooking.obj
 0001:00002f60       ?begin@?$Array@VPxVec3@physx@@V?$ReflectionAllocator@VPxVec3@physx@@@shdfnd@2@@shdfnd@physx@@QAEPAVPxVec3@3@XZ 10003f60 f i RTreeCooking.obj
 0001:00002f70       ?capacity@?$Array@IV?$ReflectionAllocator@I@shdfnd@physx@@@shdfnd@physx@@QBEIXZ 10003f70 f i RTreeCooking.obj
 0001:00002f80       ?capacity@?$Array@UInterval@physx@@V?$InlineAllocator@$0CA@V?$ReflectionAllocator@UInterval@physx@@@shdfnd@physx@@@shdfnd@2@@shdfnd@physx@@QBEIXZ 10003f80 f i RTreeCooking.obj
 0001:00002f90       ?capacity@?$Array@UPxBounds3V@physx@@V?$ReflectionAllocator@UPxBounds3V@physx@@@shdfnd@2@@shdfnd@physx@@QBEIXZ 10003f90 f i RTreeCooking.obj
 0001:00002fa0       ?capacity@?$Array@URTreeNodeNQ@physx@@V?$ReflectionAllocator@URTreeNodeNQ@physx@@@shdfnd@2@@shdfnd@physx@@QBEIXZ 10003fa0 f i RTreeCooking.obj
 0001:00002fb0       ?capacity@?$Array@URTreeNodeQ@Gu@physx@@V?$ReflectionAllocator@URTreeNodeQ@Gu@physx@@@shdfnd@3@@shdfnd@physx@@QBEIXZ 10003fb0 f i RTreeCooking.obj
 0001:00002fc0       ?capacity@?$Array@VPxVec3@physx@@V?$ReflectionAllocator@VPxVec3@physx@@@shdfnd@2@@shdfnd@physx@@QBEIXZ 10003fc0 f i RTreeCooking.obj
 0001:00002fd0       ?capacityIncrement@?$Array@IV?$ReflectionAllocator@I@shdfnd@physx@@@shdfnd@physx@@IBEIXZ 10003fd0 f i RTreeCooking.obj
 0001:00002ff0       ?capacityIncrement@?$Array@UInterval@physx@@V?$InlineAllocator@$0CA@V?$ReflectionAllocator@UInterval@physx@@@shdfnd@physx@@@shdfnd@2@@shdfnd@physx@@IBEIXZ 10003ff0 f i RTreeCooking.obj
 0001:00003010       ?capacityIncrement@?$Array@UPxBounds3V@physx@@V?$ReflectionAllocator@UPxBounds3V@physx@@@shdfnd@2@@shdfnd@physx@@IBEIXZ 10004010 f i RTreeCooking.obj
 0001:00003030       ?capacityIncrement@?$Array@URTreeNodeNQ@physx@@V?$ReflectionAllocator@URTreeNodeNQ@physx@@@shdfnd@2@@shdfnd@physx@@IBEIXZ 10004030 f i RTreeCooking.obj
 0001:00003050       ?capacityIncrement@?$Array@URTreeNodeQ@Gu@physx@@V?$ReflectionAllocator@URTreeNodeQ@Gu@physx@@@shdfnd@3@@shdfnd@physx@@IBEIXZ 10004050 f i RTreeCooking.obj
 0001:00003070       ?capacityIncrement@?$Array@VPxVec3@physx@@V?$ReflectionAllocator@VPxVec3@physx@@@shdfnd@2@@shdfnd@physx@@IBEIXZ 10004070 f i RTreeCooking.obj
 0001:00003090       ?computeSA@SubSortSAH@physx@@QAEMPBIABUInterval@2@@Z 10004090 f i RTreeCooking.obj
 0001:00003110       ?copy@?$Array@IV?$ReflectionAllocator@I@shdfnd@physx@@@shdfnd@physx@@KAXPAI0PBI@Z 10004110 f i RTreeCooking.obj
 0001:00003140       ?copy@?$Array@UInterval@physx@@V?$InlineAllocator@$0CA@V?$ReflectionAllocator@UInterval@physx@@@shdfnd@physx@@@shdfnd@2@@shdfnd@physx@@KAXPAUInterval@3@0PBU43@@Z 10004140 f i RTreeCooking.obj
 0001:00003170       ?copy@?$Array@UPxBounds3V@physx@@V?$ReflectionAllocator@UPxBounds3V@physx@@@shdfnd@2@@shdfnd@physx@@KAXPAUPxBounds3V@3@0PBU43@@Z 10004170 f i RTreeCooking.obj
 0001:000031b0       ?copy@?$Array@URTreeNodeNQ@physx@@V?$ReflectionAllocator@URTreeNodeNQ@physx@@@shdfnd@2@@shdfnd@physx@@KAXPAURTreeNodeNQ@3@0PBU43@@Z 100041b0 f i RTreeCooking.obj
 0001:00003220       ?copy@?$Array@URTreeNodeQ@Gu@physx@@V?$ReflectionAllocator@URTreeNodeQ@Gu@physx@@@shdfnd@3@@shdfnd@physx@@KAXPAURTreeNodeQ@Gu@3@0PBU453@@Z 10004220 f i RTreeCooking.obj
 0001:00003260       ?copy@?$Array@VPxVec3@physx@@V?$ReflectionAllocator@VPxVec3@physx@@@shdfnd@2@@shdfnd@physx@@KAXPAVPxVec3@3@0PBV43@@Z 10004260 f i RTreeCooking.obj
 0001:00003330       ?create@?$Array@IV?$ReflectionAllocator@I@shdfnd@physx@@@shdfnd@physx@@KAXPAI0ABI@Z 10004330 f i RTreeCooking.obj
 0001:00003360       ?deallocate@?$Array@IV?$ReflectionAllocator@I@shdfnd@physx@@@shdfnd@physx@@IAEXPAX@Z 10004360 f i RTreeCooking.obj
 0001:00003380       ?deallocate@?$Array@UInterval@physx@@V?$InlineAllocator@$0CA@V?$ReflectionAllocator@UInterval@physx@@@shdfnd@physx@@@shdfnd@2@@shdfnd@physx@@IAEXPAX@Z 10004380 f i RTreeCooking.obj
 0001:000033b0       ?deallocate@?$Array@UPxBounds3V@physx@@V?$ReflectionAllocator@UPxBounds3V@physx@@@shdfnd@2@@shdfnd@physx@@IAEXPAX@Z 100043b0 f i RTreeCooking.obj
 0001:000033d0       ?deallocate@?$Array@URTreeNodeNQ@physx@@V?$ReflectionAllocator@URTreeNodeNQ@physx@@@shdfnd@2@@shdfnd@physx@@IAEXPAX@Z 100043d0 f i RTreeCooking.obj
 0001:000033f0       ?deallocate@?$Array@URTreeNodeQ@Gu@physx@@V?$ReflectionAllocator@URTreeNodeQ@Gu@physx@@@shdfnd@3@@shdfnd@physx@@IAEXPAX@Z 100043f0 f i RTreeCooking.obj
 0001:00003410       ?deallocate@?$Array@VPxVec3@physx@@V?$ReflectionAllocator@VPxVec3@physx@@@shdfnd@2@@shdfnd@physx@@IAEXPAX@Z 10004410 f i RTreeCooking.obj
 0001:00003430       ?deallocate@?$InlineAllocator@$0CA@V?$ReflectionAllocator@UInterval@physx@@@shdfnd@physx@@@shdfnd@physx@@QAEXPAX@Z 10004430 f i RTreeCooking.obj
 0001:00003460       ?deallocate@?$ReflectionAllocator@I@shdfnd@physx@@QAEXPAX@Z 10004460 f i RTreeCooking.obj
 0001:00003480       ?deallocate@?$ReflectionAllocator@UInterval@physx@@@shdfnd@physx@@QAEXPAX@Z 10004480 f i RTreeCooking.obj
 0001:000034a0       ?deallocate@?$ReflectionAllocator@UPxBounds3V@physx@@@shdfnd@physx@@QAEXPAX@Z 100044a0 f i RTreeCooking.obj
 0001:000034c0       ?deallocate@?$ReflectionAllocator@URTreeNodeNQ@physx@@@shdfnd@physx@@QAEXPAX@Z 100044c0 f i RTreeCooking.obj
 0001:000034e0       ?deallocate@?$ReflectionAllocator@URTreeNodeQ@Gu@physx@@@shdfnd@physx@@QAEXPAX@Z 100044e0 f i RTreeCooking.obj
 0001:00003500       ?deallocate@?$ReflectionAllocator@VPxVec3@physx@@@shdfnd@physx@@QAEXPAX@Z 10004500 f i RTreeCooking.obj
 0001:00003520       ?destroy@?$Array@IV?$ReflectionAllocator@I@shdfnd@physx@@@shdfnd@physx@@KAXPAI0@Z 10004520 f i RTreeCooking.obj
 0001:00003530       ?destroy@?$Array@UInterval@physx@@V?$InlineAllocator@$0CA@V?$ReflectionAllocator@UInterval@physx@@@shdfnd@physx@@@shdfnd@2@@shdfnd@physx@@KAXPAUInterval@3@0@Z 10004530 f i RTreeCooking.obj
 0001:00003540       ?destroy@?$Array@UPxBounds3V@physx@@V?$ReflectionAllocator@UPxBounds3V@physx@@@shdfnd@2@@shdfnd@physx@@KAXPAUPxBounds3V@3@0@Z 10004540 f i RTreeCooking.obj
 0001:00003550       ?destroy@?$Array@URTreeNodeNQ@physx@@V?$ReflectionAllocator@URTreeNodeNQ@physx@@@shdfnd@2@@shdfnd@physx@@KAXPAURTreeNodeNQ@3@0@Z 10004550 f i RTreeCooking.obj
 0001:00003560       ?destroy@?$Array@URTreeNodeQ@Gu@physx@@V?$ReflectionAllocator@URTreeNodeQ@Gu@physx@@@shdfnd@3@@shdfnd@physx@@KAXPAURTreeNodeQ@Gu@3@0@Z 10004560 f i RTreeCooking.obj
 0001:00003570       ?destroy@?$Array@VPxVec3@physx@@V?$ReflectionAllocator@VPxVec3@physx@@@shdfnd@2@@shdfnd@physx@@KAXPAVPxVec3@3@0@Z 10004570 f i RTreeCooking.obj
 0001:00003580       ?empty@?$Stack@V?$ReflectionAllocator@I@shdfnd@physx@@@internal@shdfnd@physx@@QAE_NXZ 10004580 f i RTreeCooking.obj
 0001:00003590       ?empty@PxBounds3@physx@@SA?AV12@XZ 10004590 f i RTreeCooking.obj
 0001:000035d0       ?getExtents@PxBounds3V@physx@@QBE?AT__m128@@XZ 100045d0 f i RTreeCooking.obj
 0001:000035f0       ?getMaxVec3@PxBounds3V@physx@@QBEABVPxVec3@2@XZ 100045f0 f i RTreeCooking.obj
 0001:00003600       ?getMinVec3@PxBounds3V@physx@@QBEABVPxVec3@2@XZ 10004600 f i RTreeCooking.obj
 0001:00003610       ?getName@?$ReflectionAllocator@I@shdfnd@physx@@CAPBDXZ 10004610 f i RTreeCooking.obj
 0001:00003640       ?getName@?$ReflectionAllocator@UInterval@physx@@@shdfnd@physx@@CAPBDXZ 10004640 f i RTreeCooking.obj
 0001:00003670       ?getName@?$ReflectionAllocator@UPxBounds3V@physx@@@shdfnd@physx@@CAPBDXZ 10004670 f i RTreeCooking.obj
 0001:000036a0       ?getName@?$ReflectionAllocator@URTreeNodeNQ@physx@@@shdfnd@physx@@CAPBDXZ 100046a0 f i RTreeCooking.obj
 0001:000036d0       ?getName@?$ReflectionAllocator@URTreeNodeQ@Gu@physx@@@shdfnd@physx@@CAPBDXZ 100046d0 f i RTreeCooking.obj
 0001:00003700       ?getName@?$ReflectionAllocator@VPxVec3@physx@@@shdfnd@physx@@CAPBDXZ 10004700 f i RTreeCooking.obj
 0001:00003730       ?grow@?$Array@IV?$ReflectionAllocator@I@shdfnd@physx@@@shdfnd@physx@@IAEXI@Z 10004730 f i RTreeCooking.obj
 0001:00003740       ?grow@?$Array@UPxBounds3V@physx@@V?$ReflectionAllocator@UPxBounds3V@physx@@@shdfnd@2@@shdfnd@physx@@IAEXI@Z 10004740 f i RTreeCooking.obj
 0001:00003750       ?grow@?$Array@URTreeNodeNQ@physx@@V?$ReflectionAllocator@URTreeNodeNQ@physx@@@shdfnd@2@@shdfnd@physx@@IAEXI@Z 10004750 f i RTreeCooking.obj
 0001:00003760       ?grow@?$Array@URTreeNodeQ@Gu@physx@@V?$ReflectionAllocator@URTreeNodeQ@Gu@physx@@@shdfnd@3@@shdfnd@physx@@IAEXI@Z 10004760 f i RTreeCooking.obj
 0001:00003770       ?grow@?$Array@VPxVec3@physx@@V?$ReflectionAllocator@VPxVec3@physx@@@shdfnd@2@@shdfnd@physx@@IAEXI@Z 10004770 f i RTreeCooking.obj
 0001:00003780       ?grow@?$Stack@V?$ReflectionAllocator@I@shdfnd@physx@@@internal@shdfnd@physx@@QAEXXZ 10004780 f i RTreeCooking.obj
 0001:00003820       ?growAndPushBack@?$Array@IV?$ReflectionAllocator@I@shdfnd@physx@@@shdfnd@physx@@IAEAAIABI@Z 10004820 f i RTreeCooking.obj
 0001:000038b0       ?growAndPushBack@?$Array@UInterval@physx@@V?$InlineAllocator@$0CA@V?$ReflectionAllocator@UInterval@physx@@@shdfnd@physx@@@shdfnd@2@@shdfnd@physx@@IAEAAUInterval@3@ABU43@@Z 100048b0 f i RTreeCooking.obj
 0001:00003980       ?growAndPushBack@?$Array@UPxBounds3V@physx@@V?$ReflectionAllocator@UPxBounds3V@physx@@@shdfnd@2@@shdfnd@physx@@IAEAAUPxBounds3V@3@ABU43@@Z 10004980 f i RTreeCooking.obj
 0001:00003a40       ?growAndPushBack@?$Array@URTreeNodeNQ@physx@@V?$ReflectionAllocator@URTreeNodeNQ@physx@@@shdfnd@2@@shdfnd@physx@@IAEAAURTreeNodeNQ@3@ABU43@@Z 10004a40 f i RTreeCooking.obj
 0001:00003af0       ?growAndPushBack@?$Array@URTreeNodeQ@Gu@physx@@V?$ReflectionAllocator@URTreeNodeQ@Gu@physx@@@shdfnd@3@@shdfnd@physx@@IAEAAURTreeNodeQ@Gu@3@ABU453@@Z 10004af0 f i RTreeCooking.obj
 0001:00003bd0       ?growAndPushBack@?$Array@VPxVec3@physx@@V?$ReflectionAllocator@VPxVec3@physx@@@shdfnd@2@@shdfnd@physx@@IAEAAVPxVec3@3@ABV43@@Z 10004bd0 f i RTreeCooking.obj
 0001:00003c70       ?include@PxBounds3V@physx@@QAEXABU12@@Z 10004c70 f i RTreeCooking.obj
 0001:00003c90       ?isInUserMemory@?$Array@IV?$ReflectionAllocator@I@shdfnd@physx@@@shdfnd@physx@@QBEIXZ 10004c90 f i RTreeCooking.obj
 0001:00003ca0       ?isInUserMemory@?$Array@UInterval@physx@@V?$InlineAllocator@$0CA@V?$ReflectionAllocator@UInterval@physx@@@shdfnd@physx@@@shdfnd@2@@shdfnd@physx@@QBEIXZ 10004ca0 f i RTreeCooking.obj
 0001:00003cb0       ?isInUserMemory@?$Array@UPxBounds3V@physx@@V?$ReflectionAllocator@UPxBounds3V@physx@@@shdfnd@2@@shdfnd@physx@@QBEIXZ 10004cb0 f i RTreeCooking.obj
 0001:00003cc0       ?isInUserMemory@?$Array@URTreeNodeNQ@physx@@V?$ReflectionAllocator@URTreeNodeNQ@physx@@@shdfnd@2@@shdfnd@physx@@QBEIXZ 10004cc0 f i RTreeCooking.obj
 0001:00003cd0       ?isInUserMemory@?$Array@URTreeNodeQ@Gu@physx@@V?$ReflectionAllocator@URTreeNodeQ@Gu@physx@@@shdfnd@3@@shdfnd@physx@@QBEIXZ 10004cd0 f i RTreeCooking.obj
 0001:00003ce0       ?isInUserMemory@?$Array@VPxVec3@physx@@V?$ReflectionAllocator@VPxVec3@physx@@@shdfnd@2@@shdfnd@physx@@QBEIXZ 10004ce0 f i RTreeCooking.obj
 0001:00003cf0       ?memCopy@intrinsics@physx@@YAPAXPIAXPIBXI@Z 10004cf0 f i RTreeCooking.obj
 0001:00003d00       ?pop@?$Stack@V?$ReflectionAllocator@I@shdfnd@physx@@@internal@shdfnd@physx@@QAEXAAH0@Z 10004d00 f i RTreeCooking.obj
 0001:00003d30       ?popBack@?$Array@IV?$ReflectionAllocator@I@shdfnd@physx@@@shdfnd@physx@@QAEIXZ 10004d30 f i RTreeCooking.obj
 0001:00003d40       ?push@?$Stack@V?$ReflectionAllocator@I@shdfnd@physx@@@internal@shdfnd@physx@@QAEXHH@Z 10004d40 f i RTreeCooking.obj
 0001:00003d80       ?pushBack@?$Array@IV?$ReflectionAllocator@I@shdfnd@physx@@@shdfnd@physx@@QAEAAIABI@Z 10004d80 f i RTreeCooking.obj
 0001:00003dc0       ?pushBack@?$Array@UInterval@physx@@V?$InlineAllocator@$0CA@V?$ReflectionAllocator@UInterval@physx@@@shdfnd@physx@@@shdfnd@2@@shdfnd@physx@@QAEAAUInterval@3@ABU43@@Z 10004dc0 f i RTreeCooking.obj
 0001:00003e10       ?pushBack@?$Array@UPxBounds3V@physx@@V?$ReflectionAllocator@UPxBounds3V@physx@@@shdfnd@2@@shdfnd@physx@@QAEAAUPxBounds3V@3@ABU43@@Z 10004e10 f i RTreeCooking.obj
 0001:00003e70       ?pushBack@?$Array@URTreeNodeNQ@physx@@V?$ReflectionAllocator@URTreeNodeNQ@physx@@@shdfnd@2@@shdfnd@physx@@QAEAAURTreeNodeNQ@3@ABU43@@Z 10004e70 f i RTreeCooking.obj
 0001:00003ee0       ?pushBack@?$Array@URTreeNodeQ@Gu@physx@@V?$ReflectionAllocator@URTreeNodeQ@Gu@physx@@@shdfnd@3@@shdfnd@physx@@QAEAAURTreeNodeQ@Gu@3@ABU453@@Z 10004ee0 f i RTreeCooking.obj
 0001:00003f50       ?pushBack@?$Array@VPxVec3@physx@@V?$ReflectionAllocator@VPxVec3@physx@@@shdfnd@2@@shdfnd@physx@@QAEAAVPxVec3@3@ABV43@@Z 10004f50 f i RTreeCooking.obj
 0001:00003fb0       ?recreate@?$Array@IV?$ReflectionAllocator@I@shdfnd@physx@@@shdfnd@physx@@IAEXI@Z 10004fb0 f i RTreeCooking.obj
 0001:00004010       ?recreate@?$Array@UPxBounds3V@physx@@V?$ReflectionAllocator@UPxBounds3V@physx@@@shdfnd@2@@shdfnd@physx@@IAEXI@Z 10005010 f i RTreeCooking.obj
 0001:00004080       ?recreate@?$Array@URTreeNodeNQ@physx@@V?$ReflectionAllocator@URTreeNodeNQ@physx@@@shdfnd@2@@shdfnd@physx@@IAEXI@Z 10005080 f i RTreeCooking.obj
 0001:000040e0       ?recreate@?$Array@URTreeNodeQ@Gu@physx@@V?$ReflectionAllocator@URTreeNodeQ@Gu@physx@@@shdfnd@3@@shdfnd@physx@@IAEXI@Z 100050e0 f i RTreeCooking.obj
 0001:00004170       ?recreate@?$Array@VPxVec3@physx@@V?$ReflectionAllocator@VPxVec3@physx@@@shdfnd@2@@shdfnd@physx@@IAEXI@Z 10005170 f i RTreeCooking.obj
 0001:000041d0       ?replaceWithLast@?$Array@UInterval@physx@@V?$InlineAllocator@$0CA@V?$ReflectionAllocator@UInterval@physx@@@shdfnd@physx@@@shdfnd@2@@shdfnd@physx@@QAEXI@Z 100051d0 f i RTreeCooking.obj
 0001:00004200       ?reserve@?$Array@IV?$ReflectionAllocator@I@shdfnd@physx@@@shdfnd@physx@@QAEXI@Z 10005200 f i RTreeCooking.obj
 0001:00004220       ?reserve@?$Array@UPxBounds3V@physx@@V?$ReflectionAllocator@UPxBounds3V@physx@@@shdfnd@2@@shdfnd@physx@@QAEXI@Z 10005220 f i RTreeCooking.obj
 0001:00004240       ?reserve@?$Array@URTreeNodeNQ@physx@@V?$ReflectionAllocator@URTreeNodeNQ@physx@@@shdfnd@2@@shdfnd@physx@@QAEXI@Z 10005240 f i RTreeCooking.obj
 0001:00004260       ?reserve@?$Array@URTreeNodeQ@Gu@physx@@V?$ReflectionAllocator@URTreeNodeQ@Gu@physx@@@shdfnd@3@@shdfnd@physx@@QAEXI@Z 10005260 f i RTreeCooking.obj
 0001:00004280       ?reserve@?$Array@VPxVec3@physx@@V?$ReflectionAllocator@VPxVec3@physx@@@shdfnd@2@@shdfnd@physx@@QAEXI@Z 10005280 f i RTreeCooking.obj
 0001:000042a0       ?resize@?$Array@IV?$ReflectionAllocator@I@shdfnd@physx@@@shdfnd@physx@@QAEXIABI@Z 100052a0 f i RTreeCooking.obj
 0001:000042f0       ?resizeUninitialized@?$Array@URTreeNodeNQ@physx@@V?$ReflectionAllocator@URTreeNodeNQ@physx@@@shdfnd@2@@shdfnd@physx@@QAEXI@Z 100052f0 f i RTreeCooking.obj
 0001:00004320       ?selectMax@intrinsics@physx@@YAMMM@Z 10005320 f i RTreeCooking.obj
 0001:00004350       ?selectMin@intrinsics@physx@@YAMMM@Z 10005350 f i RTreeCooking.obj
 0001:00004380       ?setEmpty@PxBounds3@physx@@QAEXXZ 10005380 f i RTreeCooking.obj
 0001:000043b0       ?setLeaf@RTreeNodeQ@Gu@physx@@QAEX_N@Z 100053b0 f i RTreeCooking.obj
 0001:000043d0       ?size@?$Array@IV?$ReflectionAllocator@I@shdfnd@physx@@@shdfnd@physx@@QBEIXZ 100053d0 f i RTreeCooking.obj
 0001:000043e0       ?size@?$Array@UInterval@physx@@V?$InlineAllocator@$0CA@V?$ReflectionAllocator@UInterval@physx@@@shdfnd@physx@@@shdfnd@2@@shdfnd@physx@@QBEIXZ 100053e0 f i RTreeCooking.obj
 0001:000043f0       ?size@?$Array@URTreeNodeNQ@physx@@V?$ReflectionAllocator@URTreeNodeNQ@physx@@@shdfnd@2@@shdfnd@physx@@QBEIXZ 100053f0 f i RTreeCooking.obj
 0001:00004400       ?size@?$Array@URTreeNodeQ@Gu@physx@@V?$ReflectionAllocator@URTreeNodeQ@Gu@physx@@@shdfnd@3@@shdfnd@physx@@QBEIXZ 10005400 f i RTreeCooking.obj
 0001:00004410       ?sort4@SubSortQuick@physx@@QAEXPIAIIAAV?$Array@URTreeNodeNQ@physx@@V?$ReflectionAllocator@URTreeNodeNQ@physx@@@shdfnd@2@@shdfnd@2@AAIAAUPxBounds3V@2@I@Z 10005410 f i RTreeCooking.obj
 0001:00004740       ?sort4@SubSortSAH@physx@@QAEXPAIIAAV?$Array@URTreeNodeNQ@physx@@V?$ReflectionAllocator@URTreeNodeNQ@physx@@@shdfnd@2@@shdfnd@2@AAIIPAURTreeNodeNQ@2@@Z 10005740 f i RTreeCooking.obj
 0001:00004cd0       ?split@SubSortSAH@physx@@QAEIPAII@Z 10005cd0 f i RTreeCooking.obj
 0001:000050d0       ?loadFromDesc@TriangleMeshBuilder@physx@@QAE_NABVPxTriangleMeshDesc@2@ABUPxCookingParams@2@_N@Z 100060d0 f   TriangleMeshBuilder.obj
 0001:00005390       ?save@TriangleMeshBuilder@physx@@QBE_NAAVPxOutputStream@2@_NABUPxCookingParams@2@@Z 10006390 f   TriangleMeshBuilder.obj
 0001:000056b0       ?computeLocalBounds@TriangleMeshBuilder@physx@@IAEXXZ 100066b0 f   TriangleMeshBuilder.obj
 0001:00005770       ?importMesh@TriangleMeshBuilder@physx@@IAE_NABVPxTriangleMeshDesc@2@ABUPxCookingParams@2@_N@Z 10006770 f   TriangleMeshBuilder.obj
 0001:00005930       ??$?_UI@@YAPAXIV?$ReflectionAllocator@I@shdfnd@physx@@PBDH@Z 10006930 f i TriangleMeshBuilder.obj
 0001:00005990       ??0?$PxFlags@W4Enum@PxMeshFlag@physx@@G@physx@@QAE@ABV01@@Z 10006990 f i TriangleMeshBuilder.obj
 0001:000059b0       ??0?$PxFlags@W4Enum@PxMeshFlag@physx@@G@physx@@QAE@W4Enum@PxMeshFlag@1@@Z 100069b0 f i TriangleMeshBuilder.obj
 0001:000059c0       ??0?$PxFlags@W4Enum@PxMeshFlag@physx@@G@physx@@QAE@XZ 100069c0 f i TriangleMeshBuilder.obj
 0001:000059d0       ??0?$PxFlags@W4Enum@PxMeshPreprocessingFlag@physx@@I@physx@@QAE@ABV01@@Z 100069d0 f i TriangleMeshBuilder.obj
 0001:000059e0       ??0PxSimpleTriangleMesh@physx@@QAE@ABV01@@Z 100069e0 f i TriangleMeshBuilder.obj
 0001:00005a20       ??0PxTriangleMeshDesc@physx@@QAE@ABV01@@Z 10006a20 f i TriangleMeshBuilder.obj
 0001:00005a70       ??APxVec3@physx@@QAEAAMI@Z 10006a70 f i TriangleMeshBuilder.obj
 0001:00005a80       ??B?$PxFlags@W4Enum@PxMeshFlag@physx@@G@physx@@QBE_NXZ 10006a80 f i TriangleMeshBuilder.obj
 0001:00005a90       ??B?$PxFlags@W4Enum@PxMeshPreprocessingFlag@physx@@I@physx@@QBE_NXZ 10006a90 f i TriangleMeshBuilder.obj
 0001:00005aa0       ??I?$PxFlags@W4Enum@PxMeshFlag@physx@@G@physx@@QBE?AV01@W4Enum@PxMeshFlag@1@@Z 10006aa0 f i TriangleMeshBuilder.obj
 0001:00005ac0       ??I?$PxFlags@W4Enum@PxMeshPreprocessingFlag@physx@@I@physx@@QBE?AV01@W4Enum@PxMeshPreprocessingFlag@1@@Z 10006ac0 f i TriangleMeshBuilder.obj
 0001:00005ae0       ??S?$PxFlags@W4Enum@PxMeshFlag@physx@@G@physx@@QBE?AV01@XZ 10006ae0 f i TriangleMeshBuilder.obj
 0001:00005b00       ??Sphysx@@YA?AV?$PxFlags@W4Enum@PxMeshFlag@physx@@G@0@W4Enum@PxMeshFlag@0@@Z 10006b00 f i TriangleMeshBuilder.obj
 0001:00005b10       ??_4?$PxFlags@W4Enum@PxMeshFlag@physx@@G@physx@@QAEAAV01@ABV01@@Z 10006b10 f i TriangleMeshBuilder.obj
 0001:00005b30       ??_H@YGXPAXIHP6EPAX0@Z@Z   10006b30 f i TriangleMeshBuilder.obj
 0001:00005b60       ?PxAbs@physx@@YAMM@Z       10006b60 f i TriangleMeshBuilder.obj
 0001:00005b80       ?abs@intrinsics@physx@@YAMM@Z 10006b80 f i TriangleMeshBuilder.obj
 0001:00005ba0       ?fabs@@YAMM@Z              10006ba0 f i TriangleMeshBuilder.obj
 0001:00005bc0       ?gatherStrided@shdfnd@physx@@YAXPBXPAXIII@Z 10006bc0 f i TriangleMeshBuilder.obj
 0001:00005c00       ?getFoundation@shdfnd@physx@@YAAAVFoundation@12@XZ 10006c00 f i TriangleMeshBuilder.obj
 0001:00005c10       ?isValid@PxSimpleTriangleMesh@physx@@QBE_NXZ 10006c10 f i TriangleMeshBuilder.obj
 0001:00005c50       ?isValid@PxTriangleMeshDesc@physx@@QBE_NXZ 10006c50 f i TriangleMeshBuilder.obj
 0001:00005cc0       ?to16@shdfnd@physx@@YAGI@Z 10006cc0 f i TriangleMeshBuilder.obj
 0001:00005cd0       ?writeIntBuffer@physx@@YAXPBII_NAAVPxOutputStream@1@@Z 10006cd0 f i TriangleMeshBuilder.obj
 0001:00005ce0       _fabsf                     10006ce0 f i TriangleMeshBuilder.obj
 0001:00005d00       _powf                      10006d00 f i TriangleMeshBuilder.obj
 0001:00005d20       ??0BigConvexDataBuilder@physx@@QAE@PBUConvexHullData@Gu@1@PAVBigConvexData@1@PBVPxVec3@1@@Z 10006d20 f   BigConvexDataBuilder.obj
 0001:00005d40       ??1BigConvexDataBuilder@physx@@QAE@XZ 10006d40 f   BigConvexDataBuilder.obj
 0001:00005d50       ?Precompute@BigConvexDataBuilder@physx@@QAE_NI@Z 10006d50 f   BigConvexDataBuilder.obj
 0001:00006040       ?Initialize@BigConvexDataBuilder@physx@@QAE_NXZ 10007040 f   BigConvexDataBuilder.obj
 0001:000060b0       ?PrecomputeSample@BigConvexDataBuilder@physx@@QAE_NIABVPxVec3@2@@Z 100070b0 f   BigConvexDataBuilder.obj
 0001:00006170       ?Save@BigConvexDataBuilder@physx@@QBE_NAAVPxOutputStream@2@_NIPBUHullTriangleData@2@@Z 10007170 f   BigConvexDataBuilder.obj
 0001:00006250       ?ComputeValencies@BigConvexDataBuilder@physx@@QBE_NIPBUHullTriangleData@2@@Z 10007250 f   BigConvexDataBuilder.obj
 0001:000062a0       ?Compute@BigConvexDataBuilder@physx@@QBE_NABUVALENCIESCREATE@2@@Z 100072a0 f   BigConvexDataBuilder.obj
 0001:000064c0       ?Save@BigConvexDataBuilder@physx@@QBE_NAAVPxOutputStream@2@_N@Z 100074c0 f   BigConvexDataBuilder.obj
 0001:000065f0       ??$?_UE@@YAPAXIV?$ReflectionAllocator@E@shdfnd@physx@@PBDH@Z 100075f0 f i BigConvexDataBuilder.obj
 0001:00006650       ??$?_UG@@YAPAXIV?$ReflectionAllocator@G@shdfnd@physx@@PBDH@Z 10007650 f i BigConvexDataBuilder.obj
 0001:000066b0       ??$?_UUValency@Gu@physx@@@@YAPAXIV?$ReflectionAllocator@UValency@Gu@physx@@@shdfnd@physx@@PBDH@Z 100076b0 f i BigConvexDataBuilder.obj
 0001:00006710       ??0?$ReflectionAllocator@E@shdfnd@physx@@QAE@PBD@Z 10007710 f i BigConvexDataBuilder.obj
 0001:00006720       ??0?$ReflectionAllocator@G@shdfnd@physx@@QAE@PBD@Z 10007720 f i BigConvexDataBuilder.obj
 0001:00006730       ??0?$ReflectionAllocator@UValency@Gu@physx@@@shdfnd@physx@@QAE@PBD@Z 10007730 f i BigConvexDataBuilder.obj
 0001:00006740       ??0EDGELISTCREATE@Gu@physx@@QAE@XZ 10007740 f i BigConvexDataBuilder.obj
 0001:00006770       ??0PxVec3@physx@@QAE@XZ    10007770 f i BigConvexDataBuilder.obj
 0001:00006780       ??0VALENCIESCREATE@physx@@QAE@XZ 10007780 f i BigConvexDataBuilder.obj
 0001:000067a0       ??_0PxVec3@physx@@QAEAAV01@M@Z 100077a0 f i BigConvexDataBuilder.obj
 0001:000067e0       ?GetEdge@EdgeList@Gu@physx@@QBEABUEdgeData@23@I@Z 100077e0 f i BigConvexDataBuilder.obj
 0001:000067f0       ?GetNbEdges@EdgeList@Gu@physx@@QBEIXZ 100077f0 f i BigConvexDataBuilder.obj
 0001:00006800       ?PxMemZero@physx@@YAPAXPIAXI@Z 10007800 f i BigConvexDataBuilder.obj
 0001:00006820       ?PxSqrt@physx@@YAMM@Z      10007820 f i BigConvexDataBuilder.obj
 0001:00006840       ?allocate@?$ReflectionAllocator@E@shdfnd@physx@@QAEPAXIPBDH@Z 10007840 f i BigConvexDataBuilder.obj
 0001:000068a0       ?allocate@?$ReflectionAllocator@G@shdfnd@physx@@QAEPAXIPBDH@Z 100078a0 f i BigConvexDataBuilder.obj
 0001:00006900       ?allocate@?$ReflectionAllocator@UValency@Gu@physx@@@shdfnd@physx@@QAEPAXIPBDH@Z 10007900 f i BigConvexDataBuilder.obj
 0001:00006960       ?dot@PxVec3@physx@@QBEMABV12@@Z 10007960 f i BigConvexDataBuilder.obj
 0001:00006980       ?getName@?$ReflectionAllocator@E@shdfnd@physx@@CAPBDXZ 10007980 f i BigConvexDataBuilder.obj
 0001:000069b0       ?getName@?$ReflectionAllocator@G@shdfnd@physx@@CAPBDXZ 100079b0 f i BigConvexDataBuilder.obj
 0001:000069e0       ?getName@?$ReflectionAllocator@UValency@Gu@physx@@@shdfnd@physx@@CAPBDXZ 100079e0 f i BigConvexDataBuilder.obj
 0001:00006a10       ?magnitude@PxVec3@physx@@QBEMXZ 10007a10 f i BigConvexDataBuilder.obj
 0001:00006a50       ?magnitudeSquared@PxVec3@physx@@QBEMXZ 10007a50 f i BigConvexDataBuilder.obj
 0001:00006a90       ?memZero@intrinsics@physx@@YAPAXPIAXI@Z 10007a90 f i BigConvexDataBuilder.obj
 0001:00006ab0       ?normalize@PxVec3@physx@@QAEMXZ 10007ab0 f i BigConvexDataBuilder.obj
 0001:00006b20       ?sqrt@intrinsics@physx@@YAMM@Z 10007b20 f i BigConvexDataBuilder.obj
 0001:00006b40       _sqrtf                     10007b40 f i BigConvexDataBuilder.obj
 0001:00006bc0       ??0ConvexHullBuilder@physx@@QAE@PAUConvexHullData@Gu@1@@Z 10007bc0 f   ConvexHullBuilder.obj
 0001:00006c10       ??1ConvexHullBuilder@physx@@QAE@XZ 10007c10 f   ConvexHullBuilder.obj
 0001:00006c90       ?Init@ConvexHullBuilder@physx@@QAE_NIPBVPxVec3@2@IPBIIPBUPxHullPolygon@2@@Z 10007c90 f   ConvexHullBuilder.obj
 0001:000071c0       ?Save@ConvexHullBuilder@physx@@QBE_NAAVPxOutputStream@2@_N@Z 100081c0 f   ConvexHullBuilder.obj
 0001:00007440       ?CreateEdgeList@ConvexHullBuilder@physx@@QAE_NXZ 10008440 f   ConvexHullBuilder.obj
 0001:00007c70       ?CreatePolygonData@ConvexHullBuilder@physx@@QAE_NXZ 10008c70 f   ConvexHullBuilder.obj
 0001:00008450       ?CheckHullPolygons@ConvexHullBuilder@physx@@QBE_NXZ 10009450 f   ConvexHullBuilder.obj
 0001:000086c0       ?CreateTrianglesFromPolygons@ConvexHullBuilder@physx@@QAE_NXZ 100096c0 f   ConvexHullBuilder.obj
 0001:00008bc0       ?ComputeGeomCenter@ConvexHullBuilder@physx@@QBE_NAAVPxVec3@2@@Z 10009bc0 f   ConvexHullBuilder.obj
 0001:00008dc0       ?CalculateVertexMapTable@ConvexHullBuilder@physx@@QAE_NI_N@Z 10009dc0 f   ConvexHullBuilder.obj
 0001:00008f70       ?ComputeHullPolygons@ConvexHullBuilder@physx@@QAE_NABIPBVPxVec3@2@0PBI@Z 10009f70 f   ConvexHullBuilder.obj
 0001:0000acb0       ??$?_UUEdgeDescData@Gu@physx@@@@YAPAXIV?$ReflectionAllocator@UEdgeDescData@Gu@physx@@@shdfnd@physx@@PBDH@Z 1000bcb0 f i ConvexHullBuilder.obj
 0001:0000ad10       ??$?_UUHullTriangleData@physx@@@@YAPAXIV?$ReflectionAllocator@UHullTriangleData@physx@@@shdfnd@physx@@PBDH@Z 1000bd10 f i ConvexHullBuilder.obj
 0001:0000ad70       ??$PX_UNUSED@H@@YAXABH@Z   1000bd70 f i ConvexHullBuilder.obj
 0001:0000ad80       ??$PlaneEquation@U?$TriangleT@I@Gu@physx@@@@YA?AVPxPlane@physx@@ABU?$TriangleT@I@Gu@1@PBVPxVec3@1@@Z 1000bd80 f i ConvexHullBuilder.obj
 0001:0000aee0       ??$swap@E@shdfnd@physx@@YAXAAE0@Z 1000bee0 f i ConvexHullBuilder.obj
 0001:0000af00       ??0?$ReflectionAllocator@UEdgeDescData@Gu@physx@@@shdfnd@physx@@QAE@PBD@Z 1000bf00 f i ConvexHullBuilder.obj
 0001:0000af10       ??0?$ReflectionAllocator@UHullTriangleData@physx@@@shdfnd@physx@@QAE@PBD@Z 1000bf10 f i ConvexHullBuilder.obj
 0001:0000af20       ??0?$TriangleT@I@Gu@physx@@QAE@III@Z 1000bf20 f i ConvexHullBuilder.obj
 0001:0000af40       ??0ADJACENCIESCREATE@physx@@QAE@XZ 1000bf40 f i ConvexHullBuilder.obj
 0001:0000af70       ??0HullPolygonData@Gu@physx@@QAE@ABU012@@Z 1000bf70 f i ConvexHullBuilder.obj
 0001:0000afb0       ??0PxPlane@physx@@QAE@ABV01@@Z 1000bfb0 f i ConvexHullBuilder.obj
 0001:0000afe0       ??0PxPlane@physx@@QAE@ABVPxVec3@1@00@Z 1000bfe0 f i ConvexHullBuilder.obj
 0001:0000b130       ??0PxPlane@physx@@QAE@MMMM@Z 1000c130 f i ConvexHullBuilder.obj
 0001:0000b160       ??4PxPlane@physx@@QAEAAV01@ABV01@@Z 1000c160 f i ConvexHullBuilder.obj
 0001:0000b190       ??DPxVec3@physx@@QBE?AV01@M@Z 1000c190 f i ConvexHullBuilder.obj
 0001:0000b1d0       ??GPxVec3@physx@@QBE?AV01@ABV01@@Z 1000c1d0 f i ConvexHullBuilder.obj
 0001:0000b210       ??GPxVec3@physx@@QBE?AV01@XZ 1000c210 f i ConvexHullBuilder.obj
 0001:0000b250       ??YPxVec3@physx@@QAEAAV01@ABV01@@Z 1000c250 f i ConvexHullBuilder.obj
 0001:0000b290       ?ComputeNbPolygons@ConvexHullBuilder@physx@@QBEIXZ 1000c290 f i ConvexHullBuilder.obj
 0001:0000b2b0       ?Flip@physx@@YAXAAUHullTriangleData@1@@Z 1000c2b0 f i ConvexHullBuilder.obj
 0001:0000b2d0       ?GetAdjTri@AdjTriangle@physx@@QBEIW4SharedEdgeIndex@2@@Z 1000c2d0 f i ConvexHullBuilder.obj
 0001:0000b2f0       ?GetFaces@ConvexHullBuilder@physx@@QBEPBUHullTriangleData@2@XZ 1000c2f0 f i ConvexHullBuilder.obj
 0001:0000b300       ?GetNbFaces@ConvexHullBuilder@physx@@QBEIXZ 1000c300 f i ConvexHullBuilder.obj
 0001:0000b310       ?HasActiveEdge01@AdjTriangle@physx@@QBEHXZ 1000c310 f i ConvexHullBuilder.obj
 0001:0000b320       ?HasActiveEdge12@AdjTriangle@physx@@QBEHXZ 1000c320 f i ConvexHullBuilder.obj
 0001:0000b330       ?HasActiveEdge20@AdjTriangle@physx@@QBEHXZ 1000c330 f i ConvexHullBuilder.obj
 0001:0000b340       ?HasActiveEdge@AdjTriangle@physx@@QBEHI@Z 1000c340 f i ConvexHullBuilder.obj
 0001:0000b360       ?PxRecipSqrt@physx@@YAMM@Z 1000c360 f i ConvexHullBuilder.obj
 0001:0000b390       ?allocate@?$ReflectionAllocator@UEdgeDescData@Gu@physx@@@shdfnd@physx@@QAEPAXIPBDH@Z 1000c390 f i ConvexHullBuilder.obj
 0001:0000b3f0       ?allocate@?$ReflectionAllocator@UHullTriangleData@physx@@@shdfnd@physx@@QAEPAXIPBDH@Z 1000c3f0 f i ConvexHullBuilder.obj
 0001:0000b450       ?area@?$TriangleT@I@Gu@physx@@QBEMPBVPxVec3@3@@Z 1000c450 f i ConvexHullBuilder.obj
 0001:0000b510       ?center@?$TriangleT@I@Gu@physx@@QBEXPBVPxVec3@3@AAV43@@Z 1000c510 f i ConvexHullBuilder.obj
 0001:0000b5a0       ?cross@PxVec3@physx@@QBE?AV12@ABV12@@Z 1000c5a0 f i ConvexHullBuilder.obj
 0001:0000b610       ?distance@PxPlane@physx@@QBEMABVPxVec3@2@@Z 1000c610 f i ConvexHullBuilder.obj
 0001:0000b650       ?flip@?$TriangleT@I@Gu@physx@@QAEXXZ 1000c650 f i ConvexHullBuilder.obj
 0001:0000b660       ?flip@physx@@YAXAAG@Z      1000c660 f i ConvexHullBuilder.obj
 0001:0000b680       ?flip@physx@@YAXAAM@Z      1000c680 f i ConvexHullBuilder.obj
 0001:0000b6a0       ?flipData@Gu@physx@@YAXAAUHullPolygonData@12@@Z 1000c6a0 f i ConvexHullBuilder.obj
 0001:0000b720       ?getName@?$ReflectionAllocator@UEdgeDescData@Gu@physx@@@shdfnd@physx@@CAPBDXZ 1000c720 f i ConvexHullBuilder.obj
 0001:0000b750       ?getName@?$ReflectionAllocator@UHullTriangleData@physx@@@shdfnd@physx@@CAPBDXZ 1000c750 f i ConvexHullBuilder.obj
 0001:0000b780       ?getNormalized@PxVec3@physx@@QBE?AV12@XZ 1000c780 f i ConvexHullBuilder.obj
 0001:0000b820       ?recipSqrt@intrinsics@physx@@YAMM@Z 1000c820 f i ConvexHullBuilder.obj
 0001:0000b850       ?to8@shdfnd@physx@@YAEI@Z  1000c850 f i ConvexHullBuilder.obj
 0001:0000b860       ??0ConvexMeshBuilder@physx@@QAE@XZ 1000c860 f   ConvexMeshBuilder.obj
 0001:0000b890       ??1ConvexMeshBuilder@physx@@UAE@XZ 1000c890 f   ConvexMeshBuilder.obj
 0001:0000b8c0       ?loadFromDesc@ConvexMeshBuilder@physx@@QAE_NABVPxConvexMeshDesc@2@W4Enum@PxPlatform@2@@Z 1000c8c0 f   ConvexMeshBuilder.obj
 0001:0000b980       ?save@ConvexMeshBuilder@physx@@QBE_NAAVPxOutputStream@2@_N@Z 1000c980 f   ConvexMeshBuilder.obj
 0001:0000bb70       ?loadConvexHull@ConvexMeshBuilder@physx@@QAE_NABVPxConvexMeshDesc@2@@Z 1000cb70 f   ConvexMeshBuilder.obj
 0001:0000bd70       ?computeHullPolygons@ConvexMeshBuilder@physx@@QAE_NABIPBVPxVec3@2@0PBIAAVPxAllocatorCallback@2@AAIAAPAV32@4AAPAI4AAPAUPxHullPolygon@2@@Z 1000cd70 f   ConvexMeshBuilder.obj
 0001:0000bf00       ?computeGaussMaps@ConvexMeshBuilder@physx@@QAE_NXZ 1000cf00 f   ConvexMeshBuilder.obj
 0001:0000bfb0       ?computeMassInfo@ConvexMeshBuilder@physx@@QAEXXZ 1000cfb0 f   ConvexMeshBuilder.obj
 0001:0000c3c0       ?computeInternalObjects@ConvexMeshBuilder@physx@@QAEXXZ 1000d3c0 f   ConvexMeshBuilder.obj
 0001:0000c870       ??$?2V?$ReflectionAllocator@VBigConvexData@physx@@@shdfnd@physx@@@UserAllocated@shdfnd@physx@@SAPAXIV?$ReflectionAllocator@VBigConvexData@physx@@@12@PBDH@Z 1000d870 f i ConvexMeshBuilder.obj
 0001:0000c8d0       ??0?$PxFlags@W4Enum@PxBaseFlag@physx@@G@physx@@QAE@ABV01@@Z 1000d8d0 f i ConvexMeshBuilder.obj
 0001:0000c8f0       ??0?$PxFlags@W4Enum@PxConvexFlag@physx@@G@physx@@QAE@ABV01@@Z 1000d8f0 f i ConvexMeshBuilder.obj
 0001:0000c910       ??0?$ReflectionAllocator@VBigConvexData@physx@@@shdfnd@physx@@QAE@PBD@Z 1000d910 f i ConvexMeshBuilder.obj
 0001:0000c920       ??0PxBoundedData@physx@@QAE@XZ 1000d920 f i ConvexMeshBuilder.obj
 0001:0000c940       ??0PxIntegrals@physx@@QAE@XZ 1000d940 f i ConvexMeshBuilder.obj
 0001:0000c950       ??0PxMat33@physx@@QAE@ABVPxVec3@1@00@Z 1000d950 f i ConvexMeshBuilder.obj
 0001:0000c9a0       ??0PxSimpleTriangleMesh@physx@@QAE@XZ 1000d9a0 f i ConvexMeshBuilder.obj
 0001:0000c9e0       ??0PxStridedData@physx@@QAE@XZ 1000d9e0 f i ConvexMeshBuilder.obj
 0001:0000c9f0       ??3UserAllocated@shdfnd@physx@@SAXPAX@Z 1000d9f0 f i ConvexMeshBuilder.obj
 0001:0000ca10       ??4PxMat33@physx@@QAEAAV01@ABV01@@Z 1000da10 f i ConvexMeshBuilder.obj
 0001:0000ca50       ??APxMat33@physx@@QAEAAVPxVec3@1@I@Z 1000da50 f i ConvexMeshBuilder.obj
 0001:0000ca60       ??B?$PxFlags@W4Enum@PxBaseFlag@physx@@G@physx@@QBE_NXZ 1000da60 f i ConvexMeshBuilder.obj
 0001:0000ca70       ??B?$PxFlags@W4Enum@PxConvexFlag@physx@@G@physx@@QBE_NXZ 1000da70 f i ConvexMeshBuilder.obj
 0001:0000ca80       ??GPxMat33@physx@@QBE?AV01@XZ 1000da80 f i ConvexMeshBuilder.obj
 0001:0000cb00       ??I?$PxFlags@W4Enum@PxBaseFlag@physx@@G@physx@@QBE?AV01@W4Enum@PxBaseFlag@1@@Z 1000db00 f i ConvexMeshBuilder.obj
 0001:0000cb20       ??I?$PxFlags@W4Enum@PxConvexFlag@physx@@G@physx@@QBE?AV01@W4Enum@PxConvexFlag@1@@Z 1000db20 f i ConvexMeshBuilder.obj
 0001:0000cb40       ??RPxMat33@physx@@QAEAAMII@Z 1000db40 f i ConvexMeshBuilder.obj
 0001:0000cb60       ??XPxVec3@physx@@QAEAAV01@M@Z 1000db60 f i ConvexMeshBuilder.obj
 0001:0000cb96       ??_EConvexMeshBuilder@physx@@W7AEPAXI@Z 1000db96 f i ConvexMeshBuilder.obj
 0001:0000cba0       ??_GBigConvexData@physx@@QAEPAXI@Z 1000dba0 f i ConvexMeshBuilder.obj
 0001:0000cbd0       ??_EConvexMeshBuilder@physx@@UAEPAXI@Z 1000dbd0 f i ConvexMeshBuilder.obj
 0001:0000cbd0       ??_GConvexMeshBuilder@physx@@UAEPAXI@Z 1000dbd0 f i ConvexMeshBuilder.obj
 0001:0000cc10       ?PxGetGaussMapVertexLimitForPlatform@physx@@YAIW4Enum@PxPlatform@1@@Z 1000dc10 f i ConvexMeshBuilder.obj
 0001:0000cc50       ?PxIsFinite@physx@@YA_NM@Z 1000dc50 f i ConvexMeshBuilder.obj
 0001:0000cc80       ?allocate@?$ReflectionAllocator@VBigConvexData@physx@@@shdfnd@physx@@QAEPAXIPBDH@Z 1000dc80 f i ConvexMeshBuilder.obj
 0001:0000cce0       ?getName@?$ReflectionAllocator@VBigConvexData@physx@@@shdfnd@physx@@CAPBDXZ 1000dce0 f i ConvexMeshBuilder.obj
 0001:0000cd10       ?getOriginInertia@PxIntegrals@physx@@QAEXAAVPxMat33@2@@Z 1000dd10 f i ConvexMeshBuilder.obj
 0001:0000cda0       ?isFinite@PxVec3@physx@@QBE_NXZ 1000dda0 f i ConvexMeshBuilder.obj
 0001:0000ce10       ?isFinite@intrinsics@physx@@YA_NM@Z 1000de10 f i ConvexMeshBuilder.obj
 0001:0000ce40       ?isReleasable@PxBase@physx@@UBE_NXZ 1000de40 f i ConvexMeshBuilder.obj
 0001:0000ce50       ?isValid@PxConvexMeshDesc@physx@@QBE_NXZ 1000de50 f i ConvexMeshBuilder.obj
 0001:0000cef0       ?largestAxis@shdfnd@physx@@YAIABVPxVec3@2@@Z 1000def0 f i ConvexMeshBuilder.obj
 0001:0000cf20       ?requires@ConvexMesh@Gu@physx@@UAEXAAVPxProcessPxBaseCallback@3@@Z 1000df20 f i ConvexMeshBuilder.obj
 0001:0000cf30       ??0HullLibrary@physx@@QAE@XZ 1000df30 f   hulllib.obj
 0001:0000cf70       ??1HullLibrary@physx@@QAE@XZ 1000df70 f   hulllib.obj
 0001:0000cfc0       ?CreateConvexHull@HullLibrary@physx@@QAE?AW4HullError@2@ABVHullDesc@2@AAVHullResult@2@@Z 1000dfc0 f   hulllib.obj
 0001:0000d410       ?ReleaseResult@HullLibrary@physx@@QAE?AW4HullError@2@AAVHullResult@2@@Z 1000e410 f   hulllib.obj
 0001:0000d450       ?CreateTriangleMesh@HullLibrary@physx@@QAE?AW4HullError@2@AAVHullResult@2@PAVConvexHullTriangleInterface@2@@Z 1000e450 f   hulllib.obj
 0001:0000d730       ?b2bfix@HullLibrary@physx@@AAEXPAVTri@2@0@Z 1000e730 f   hulllib.obj
 0001:0000d850       ?removeb2b@HullLibrary@physx@@AAEXPAVTri@2@0@Z 1000e850 f   hulllib.obj
 0001:0000d8a0       ?checkit@HullLibrary@physx@@ABEXPAVTri@2@@Z 1000e8a0 f   hulllib.obj
 0001:0000d8b0       ?extrude@HullLibrary@physx@@AAEXPAVTri@2@H@Z 1000e8b0 f   hulllib.obj
 0001:0000dbf0       ?extrudable@HullLibrary@physx@@ABEPAVTri@2@M@Z 1000ebf0 f   hulllib.obj
 0001:0000dc40       ?calchullgen@HullLibrary@physx@@AAE?AW4HullError@2@PAVfloat3@2@HHM@Z 1000ec40 f   hulllib.obj
 0001:0000ead0       ?calchull@HullLibrary@physx@@AAE?AW4HullError@2@PAVfloat3@2@HAAPAHAAHAAPAV42@2HM@Z 1000fad0 f   hulllib.obj
 0001:0000ed50       ?expandhull@HullLibrary@physx@@AAE?AW4HullError@2@PAVfloat3@2@HAAPAV42@AAHM@Z 1000fd50 f   hulllib.obj
 0001:0000f5b0       ?calchullpbev@HullLibrary@physx@@AAE?AW4HullError@2@PAVfloat3@2@HHAAV?$Array@VPlane@physx@@@hullLibArray@2@M@Z 100105b0 f   hulllib.obj
 0001:000102e0       ?ComputeHull@HullLibrary@physx@@AAE?AW4HullError@2@IPBMAAVPHullResult@2@IMM@Z 100112e0 f   hulllib.obj
 0001:000104f0       ?overhullv@HullLibrary@physx@@AAE?AW4HullError@2@PAVfloat3@2@HHAAPAV42@AAHAAPAH2MMHM@Z 100114f0 f   hulllib.obj
 0001:00011000       ??0ConvexH@physx@@QAE@HHH@Z 10012000 f   hulllib.obj
 0001:00012b80       ?neib@Tri@physx@@QAEAAHHH@Z 10013b80 f   hulllib.obj
 0001:00014530       ??$?2V?$ReflectionAllocator@VConvexH@physx@@@shdfnd@physx@@@UserAllocated@shdfnd@physx@@SAPAXIV?$ReflectionAllocator@VConvexH@physx@@@12@PBDH@Z 10015530 f i hulllib.obj
 0001:00014590       ??$?2V?$ReflectionAllocator@VTri@physx@@@shdfnd@physx@@@UserAllocated@shdfnd@physx@@SAPAXIV?$ReflectionAllocator@VTri@physx@@@12@PBDH@Z 10015590 f i hulllib.obj
 0001:000145f0       ??$?_UM@@YAPAXIV?$ReflectionAllocator@M@shdfnd@physx@@PBDH@Z 100155f0 f i hulllib.obj
 0001:00014650       ??$Max@M@physx@@YAMABM0@Z  10015650 f i hulllib.obj
 0001:00014680       ??$Min@H@physx@@YAHABH0@Z  10015680 f i hulllib.obj
 0001:000146a0       ??$Min@M@physx@@YAMABM0@Z  100156a0 f i hulllib.obj
 0001:000146d0       ??$Swap@H@physx@@YAXAAH0@Z 100156d0 f i hulllib.obj
 0001:000146f0       ??$maxdir@Vfloat3@physx@@@physx@@YAHPBVfloat3@0@HABV10@@Z 100156f0 f i hulllib.obj
 0001:000147a0       ??$maxdirfiltered@Vfloat3@physx@@@physx@@YAHPBVfloat3@0@HABV10@PA_N@Z 100157a0 f i hulllib.obj
 0001:00014860       ??$maxdirsterid@Vfloat3@physx@@@physx@@YAHPBVfloat3@0@HABV10@AAV?$Array@H@hullLibArray@0@@Z 10015860 f i hulllib.obj
 0001:00014cc0       ??0?$Array@H@hullLibArray@physx@@QAE@H@Z 10015cc0 f i hulllib.obj
 0001:00014cf0       ??0?$Array@PAVTri@physx@@@hullLibArray@physx@@QAE@H@Z 10015cf0 f i hulllib.obj
 0001:00014d20       ??0?$Array@UExpandPlane@physx@@@hullLibArray@physx@@QAE@H@Z 10015d20 f i hulllib.obj
 0001:00014d50       ??0?$Array@VHalfEdge@ConvexH@physx@@@hullLibArray@physx@@QAE@H@Z 10015d50 f i hulllib.obj
 0001:00014d80       ??0?$Array@VPlane@physx@@@hullLibArray@physx@@QAE@H@Z 10015d80 f i hulllib.obj
 0001:00014db0       ??0?$Array@Vfloat3@physx@@@hullLibArray@physx@@QAE@H@Z 10015db0 f i hulllib.obj
 0001:00014de0       ??0?$Array@Vint3@physx@@@hullLibArray@physx@@QAE@H@Z 10015de0 f i hulllib.obj
 0001:00014e10       ??0?$ReflectionAllocator@M@shdfnd@physx@@QAE@PBD@Z 10015e10 f i hulllib.obj
 0001:00014e20       ??0?$ReflectionAllocator@VConvexH@physx@@@shdfnd@physx@@QAE@PBD@Z 10015e20 f i hulllib.obj
 0001:00014e30       ??0?$ReflectionAllocator@VTri@physx@@@shdfnd@physx@@QAE@PBD@Z 10015e30 f i hulllib.obj
 0001:00014e40       ??0?$ScopedPointer@_NVTempAllocator@shdfnd@physx@@@shdfnd@physx@@QAE@XZ 10015e40 f i hulllib.obj
 0001:00014e50       ??0ExpandPlane@physx@@QAE@XZ 10015e50 f i hulllib.obj
 0001:00014eb0       ??0HalfEdge@ConvexH@physx@@QAE@FEE@Z 10015eb0 f i hulllib.obj
 0001:00014ed0       ??0HalfEdge@ConvexH@physx@@QAE@XZ 10015ed0 f i hulllib.obj
 0001:00014ee0       ??0PHullResult@physx@@QAE@XZ 10015ee0 f i hulllib.obj
 0001:00014f10       ??0Plane@physx@@QAE@ABVfloat3@1@M@Z 10015f10 f i hulllib.obj
 0001:00014f40       ??0Plane@physx@@QAE@XZ     10015f40 f i hulllib.obj
 0001:00014f60       ??0Tri@physx@@QAE@HHHPAV?$Array@PAVTri@physx@@@hullLibArray@1@@Z 10015f60 f i hulllib.obj
 0001:00014fe0       ??0float3@physx@@QAE@MMM@Z 10015fe0 f i hulllib.obj
 0001:00015010       ??0float3@physx@@QAE@XZ    10016010 f i hulllib.obj
 0001:00015030       ??0float3x3@physx@@QAE@Vfloat3@1@00@Z 10016030 f i hulllib.obj
 0001:00015070       ??0float3x3@physx@@QAE@XZ  10016070 f i hulllib.obj
 0001:000150c0       ??0int3@physx@@QAE@HHH@Z   100160c0 f i hulllib.obj
 0001:000150e0       ??0int4@physx@@QAE@HHHH@Z  100160e0 f i hulllib.obj
 0001:00015100       ??1?$Array@H@hullLibArray@physx@@QAE@XZ 10016100 f i hulllib.obj
 0001:00015140       ??1?$Array@PAVTri@physx@@@hullLibArray@physx@@QAE@XZ 10016140 f i hulllib.obj
 0001:00015180       ??1?$Array@UExpandPlane@physx@@@hullLibArray@physx@@QAE@XZ 10016180 f i hulllib.obj
 0001:000151c0       ??1?$Array@VHalfEdge@ConvexH@physx@@@hullLibArray@physx@@QAE@XZ 100161c0 f i hulllib.obj
 0001:00015200       ??1?$Array@VPlane@physx@@@hullLibArray@physx@@QAE@XZ 10016200 f i hulllib.obj
 0001:00015240       ??1?$Array@Vfloat3@physx@@@hullLibArray@physx@@QAE@XZ 10016240 f i hulllib.obj
 0001:00015280       ??1?$Array@Vint3@physx@@@hullLibArray@physx@@QAE@XZ 10016280 f i hulllib.obj
 0001:000152c0       ??1?$ScopedPointer@_NVTempAllocator@shdfnd@physx@@@shdfnd@physx@@QAE@XZ 100162c0 f i hulllib.obj
 0001:000152d0       ??1ConvexH@physx@@QAE@XZ   100162d0 f i hulllib.obj
 0001:00015360       ??1Tri@physx@@IAE@XZ       10016360 f i hulllib.obj
 0001:00015370       ??8physx@@YAHABVPlane@0@0@Z 10016370 f i hulllib.obj
 0001:000153c0       ??8physx@@YAHABVfloat3@0@0@Z 100163c0 f i hulllib.obj
 0001:00015400       ??9physx@@YAHABVfloat3@0@0@Z 10016400 f i hulllib.obj
 0001:00015440       ??A?$Array@H@hullLibArray@physx@@QAEAAHH@Z 10016440 f i hulllib.obj
 0001:00015450       ??A?$Array@PAVTri@physx@@@hullLibArray@physx@@QAEAAPAVTri@2@H@Z 10016450 f i hulllib.obj
 0001:00015460       ??A?$Array@UExpandPlane@physx@@@hullLibArray@physx@@QAEAAUExpandPlane@2@H@Z 10016460 f i hulllib.obj
 0001:00015470       ??A?$Array@VHalfEdge@ConvexH@physx@@@hullLibArray@physx@@QAEAAVHalfEdge@ConvexH@2@H@Z 10016470 f i hulllib.obj
 0001:00015480       ??A?$Array@VPlane@physx@@@hullLibArray@physx@@QAEAAVPlane@2@H@Z 10016480 f i hulllib.obj
 0001:00015490       ??A?$Array@Vfloat3@physx@@@hullLibArray@physx@@QAEAAVfloat3@2@H@Z 10016490 f i hulllib.obj
 0001:000154b0       ??Afloat3@physx@@QAEAAMH@Z 100164b0 f i hulllib.obj
 0001:000154c0       ??Afloat3@physx@@QBEABMH@Z 100164c0 f i hulllib.obj
 0001:000154d0       ??Afloat3x3@physx@@QAEAAVfloat3@1@H@Z 100164d0 f i hulllib.obj
 0001:000154e0       ??Afloat3x3@physx@@QBEABVfloat3@1@H@Z 100164e0 f i hulllib.obj
 0001:000154f0       ??Aint3@physx@@QAEAAHH@Z   100164f0 f i hulllib.obj
 0001:00015500       ??Aint3@physx@@QBEABHH@Z   10016500 f i hulllib.obj
 0001:00015510       ??Aint4@physx@@QAEAAHH@Z   10016510 f i hulllib.obj
 0001:00015520       ??B?$ScopedPointer@_NVTempAllocator@shdfnd@physx@@@shdfnd@physx@@QBEPA_NXZ 10016520 f i hulllib.obj
 0001:00015530       ??_G?$Array@PAVTri@physx@@@hullLibArray@physx@@QAEPAXI@Z 10016530 f i hulllib.obj
 0001:00015580       ??_GConvexH@physx@@QAEPAXI@Z 10016580 f i hulllib.obj
 0001:000155b0       ??_GTri@physx@@IAEPAXI@Z   100165b0 f i hulllib.obj
 0001:000155d0       ?Add@?$Array@H@hullLibArray@physx@@QAEAAHH@Z 100165d0 f i hulllib.obj
 0001:00015610       ?Add@?$Array@PAVTri@physx@@@hullLibArray@physx@@QAEAAPAVTri@3@PAV43@@Z 10016610 f i hulllib.obj
 0001:00015650       ?Add@?$Array@UExpandPlane@physx@@@hullLibArray@physx@@QAEAAUExpandPlane@3@U43@@Z 10016650 f i hulllib.obj
 0001:000156b0       ?Add@?$Array@VPlane@physx@@@hullLibArray@physx@@QAEAAVPlane@3@V43@@Z 100166b0 f i hulllib.obj
 0001:00015700       ?Add@?$Array@Vfloat3@physx@@@hullLibArray@physx@@QAEAAVfloat3@3@V43@@Z 10016700 f i hulllib.obj
 0001:00015760       ?Add@?$Array@Vint3@physx@@@hullLibArray@physx@@QAEAAVint3@3@V43@@Z 10016760 f i hulllib.obj
 0001:000157c0       ?HasHullFlag@HullDesc@physx@@QBE_NW4HullFlag@2@@Z 100167c0 f i hulllib.obj
 0001:000157e0       ?PxMemSet@physx@@YAPAXPIAXHI@Z 100167e0 f i hulllib.obj
 0001:000157f0       ?SetSize@?$Array@PAVTri@physx@@@hullLibArray@physx@@QAEXH@Z 100167f0 f i hulllib.obj
 0001:00015830       ?SetSize@?$Array@Vint3@physx@@@hullLibArray@physx@@QAEXH@Z 10016830 f i hulllib.obj
 0001:00015870       ?allocate@?$Array@H@hullLibArray@physx@@QAEXH@Z 10016870 f i hulllib.obj
 0001:000158d0       ?allocate@?$Array@PAVTri@physx@@@hullLibArray@physx@@QAEXH@Z 100168d0 f i hulllib.obj
 0001:00015930       ?allocate@?$Array@UExpandPlane@physx@@@hullLibArray@physx@@QAEXH@Z 10016930 f i hulllib.obj
 0001:000159b0       ?allocate@?$Array@VHalfEdge@ConvexH@physx@@@hullLibArray@physx@@QAEXH@Z 100169b0 f i hulllib.obj
 0001:00015a10       ?allocate@?$Array@VPlane@physx@@@hullLibArray@physx@@QAEXH@Z 10016a10 f i hulllib.obj
 0001:00015a70       ?allocate@?$Array@Vfloat3@physx@@@hullLibArray@physx@@QAEXH@Z 10016a70 f i hulllib.obj
 0001:00015ae0       ?allocate@?$Array@Vint3@physx@@@hullLibArray@physx@@QAEXH@Z 10016ae0 f i hulllib.obj
 0001:00015b50       ?allocate@?$ReflectionAllocator@M@shdfnd@physx@@QAEPAXIPBDH@Z 10016b50 f i hulllib.obj
 0001:00015bb0       ?allocate@?$ReflectionAllocator@VConvexH@physx@@@shdfnd@physx@@QAEPAXIPBDH@Z 10016bb0 f i hulllib.obj
 0001:00015c10       ?allocate@?$ReflectionAllocator@VTri@physx@@@shdfnd@physx@@QAEPAXIPBDH@Z 10016c10 f i hulllib.obj
 0001:00015c70       ?cos@@YAMM@Z               10016c70 f i hulllib.obj
 0001:00015c90       ?distance@Plane@physx@@QBEMABVfloat3@2@@Z 10016c90 f i hulllib.obj
 0001:00015cd0       ?getName@?$ReflectionAllocator@M@shdfnd@physx@@CAPBDXZ 10016cd0 f i hulllib.obj
 0001:00015d00       ?getName@?$ReflectionAllocator@VConvexH@physx@@@shdfnd@physx@@CAPBDXZ 10016d00 f i hulllib.obj
 0001:00015d30       ?getName@?$ReflectionAllocator@VTri@physx@@@shdfnd@physx@@CAPBDXZ 10016d30 f i hulllib.obj
 0001:00015d60       ?memSet@intrinsics@physx@@YAPAXPIAXHI@Z 10016d60 f i hulllib.obj
 0001:00015d70       ?to8@shdfnd@physx@@YAEG@Z  10016d70 f i hulllib.obj
 0001:00015d80       _cosf                      10016d80 f i hulllib.obj
 0001:00015da0       _sinf                      10016da0 f i hulllib.obj
 0001:00015e00       ?computeVolumeIntegrals@physx@@YA_NABVPxSimpleTriangleMesh@1@MAAUPxIntegrals@1@@Z 10016e00 f   VolumeIntegration.obj
 0001:00015e70       ?computeVolumeIntegralsEberly@physx@@YA_NABVPxSimpleTriangleMesh@1@MAAUPxIntegrals@1@ABVPxVec3@1@@Z 10016e70 f   VolumeIntegration.obj
 0001:00015eb0       ??0VolumeIntegrator@?A0xcaa98087@physx@@QAE@VPxSimpleTriangleMesh@2@N@Z 10016eb0 f   VolumeIntegration.obj
 0001:00015f20       ??1VolumeIntegrator@?A0xcaa98087@physx@@QAE@XZ 10016f20 f   VolumeIntegration.obj
 0001:00015f30       ?computeVolumeIntegrals@VolumeIntegrator@?A0xcaa98087@physx@@QAE_NAAUPxIntegrals@3@@Z 10016f30 f   VolumeIntegration.obj
 0001:000164c0       ?computeCenterOfMass@VolumeIntegrator@?A0xcaa98087@physx@@AAE?AVPxVec3@3@XZ 100174c0 f   VolumeIntegration.obj
 0001:00016540       ?computeInertiaTensor@VolumeIntegrator@?A0xcaa98087@physx@@AAEXPAN@Z 10017540 f   VolumeIntegration.obj
 0001:00016600       ?computeCOMInertiaTensor@VolumeIntegrator@?A0xcaa98087@physx@@AAEXPAN@Z 10017600 f   VolumeIntegration.obj
 0001:00016860       ?computeFaceNormal@VolumeIntegrator@?A0xcaa98087@physx@@AAEXAAUFace@123@PAI@Z 10017860 f   VolumeIntegration.obj
 0001:000169b0       ?computeProjectionIntegrals@VolumeIntegrator@?A0xcaa98087@physx@@AAEXABUFace@123@@Z 100179b0 f   VolumeIntegration.obj
 0001:00016e40       ?computeFaceIntegrals@VolumeIntegrator@?A0xcaa98087@physx@@AAEXABUFace@123@@Z 10017e40 f   VolumeIntegration.obj
 0001:00017170       ??0VolumeIntegratorEberly@?A0xcaa98087@physx@@QAE@ABVPxSimpleTriangleMesh@2@N@Z 10018170 f   VolumeIntegration.obj
 0001:00017190       ??1VolumeIntegratorEberly@?A0xcaa98087@physx@@QAE@XZ 10018190 f   VolumeIntegration.obj
 0001:000171a0       ?computeVolumeIntegrals@VolumeIntegratorEberly@?A0xcaa98087@physx@@QAE_NAAUPxIntegrals@3@ABVPxVec3@3@@Z 100181a0 f   VolumeIntegration.obj
 0001:00017bc0       ?subexpressions@VolumeIntegratorEberly@?A0xcaa98087@physx@@AAEXNNNAAN00000@Z 10018bc0 f   VolumeIntegration.obj
 0001:00017c70       ??4?$PxFlags@W4Enum@PxMeshFlag@physx@@G@physx@@QAEAAV01@ABV01@@Z 10018c70 f i VolumeIntegration.obj
 0001:00017c90       ??4PxSimpleTriangleMesh@physx@@QAEAAV01@ABV01@@Z 10018c90 f i VolumeIntegration.obj
 0001:00017cd0       ?isZero@PxVec3@physx@@QBE_NXZ 10018cd0 f i VolumeIntegration.obj
 0001:00017d10       ?ComputeNbBoundaryEdges@AdjTriangle@physx@@QBEIXZ 10018d10 f   Adjacencies.obj
 0001:00017d50       ?ComputeNbNeighbors@AdjTriangle@physx@@QBEIXZ 10018d50 f   Adjacencies.obj
 0001:00017d90       ?HasNeighbor@AdjTriangle@physx@@QBE_NIPAI@Z 10018d90 f   Adjacencies.obj
 0001:00017e10       ?Flip@AdjTriangle@physx@@QAEXXZ 10018e10 f   Adjacencies.obj
 0001:00017e20       ??0Adjacencies@physx@@QAE@XZ 10018e20 f   Adjacencies.obj
 0001:00017e30       ??1Adjacencies@physx@@QAE@XZ 10018e30 f   Adjacencies.obj
 0001:00017e60       ?Load@Adjacencies@physx@@QAE_NAAVPxInputStream@2@@Z 10018e60 f   Adjacencies.obj
 0001:00017f40       ?Walk@Adjacencies@physx@@QAE_NP6AXABUCommonWalkParams@2@IIII@ZPAX@Z 10018f40 f   Adjacencies.obj
 0001:000180a0       ?Walk2@Adjacencies@physx@@QAE_NP6AXABUCommonWalkParams@2@IIII@ZPAXPBVPxVec3@2@PBU?$TriangleT@I@Gu@2@@Z 100190a0 f   Adjacencies.obj
 0001:00018200       ?ComputeNbBoundaryEdges@Adjacencies@physx@@QBEIXZ 10019200 f   Adjacencies.obj
 0001:00018260       ?GetBoundaryVertices@Adjacencies@physx@@QBE_NIPA_NPBU?$TriangleT@I@Gu@2@@Z 10019260 f   Adjacencies.obj
 0001:000183c0       ?MakeLastRef@Adjacencies@physx@@QAE_NAAVAdjTriangle@2@IPAU?$TriangleT@I@Gu@2@@Z 100193c0 f   Adjacencies.obj
 0001:00018580       ?AssignNewEdgeCode@Adjacencies@physx@@AAEXIE@Z 10019580 f   Adjacencies.obj
 0001:000185c0       ??0AdjacenciesBuilder@physx@@QAE@XZ 100195c0 f   Adjacencies.obj
 0001:000185d0       ??1AdjacenciesBuilder@physx@@QAE@XZ 100195d0 f   Adjacencies.obj
 0001:00018600       ?Init@AdjacenciesBuilder@physx@@QAE_NABUADJACENCIESCREATE@2@@Z 10019600 f   Adjacencies.obj
 0001:000191f0       ??$?_UV?$ReflectionAllocator@VAdjEdge@@@shdfnd@physx@@@UserAllocated@shdfnd@physx@@SAPAXIV?$ReflectionAllocator@VAdjEdge@@@12@PBDH@Z 1001a1f0 f i Adjacencies.obj
 0001:00019250       ??$?_UV?$ReflectionAllocator@VAdjTriangle@physx@@@shdfnd@physx@@@UserAllocated@shdfnd@physx@@SAPAXIV?$ReflectionAllocator@VAdjTriangle@physx@@@12@PBDH@Z 1001a250 f i Adjacencies.obj
 0001:000192b0       ??$swap@M@shdfnd@physx@@YAXAAM0@Z 1001a2b0 f i Adjacencies.obj
 0001:000192d0       ??0?$ReflectionAllocator@VAdjEdge@@@shdfnd@physx@@QAE@PBD@Z 1001a2d0 f i Adjacencies.obj
 0001:000192e0       ??0?$ReflectionAllocator@VAdjTriangle@physx@@@shdfnd@physx@@QAE@PBD@Z 1001a2e0 f i Adjacencies.obj
 0001:000192f0       ??0?$TriangleT@I@Gu@physx@@QAE@XZ 1001a2f0 f i Adjacencies.obj
 0001:00019300       ??0AdjEdge@@QAE@XZ         1001a300 f i Adjacencies.obj
 0001:00019310       ??0AdjTriangle@physx@@QAE@XZ 1001a310 f i Adjacencies.obj
 0001:00019320       ??0PrivateWalkParams@?1??Walk2@Adjacencies@physx@@QAE_NP6AXABUCommonWalkParams@3@IIII@ZPAXPBVPxVec3@3@PBU?$TriangleT@I@Gu@3@@Z@QAE@XZ 1001a320 f i Adjacencies.obj
 0001:00019330       ??1AdjEdge@@QAE@XZ         1001a330 f i Adjacencies.obj
 0001:00019340       ??1AdjTriangle@physx@@QAE@XZ 1001a340 f i Adjacencies.obj
 0001:00019350       ??_EAdjEdge@@QAEPAXI@Z     1001a350 f i Adjacencies.obj
 0001:00019380       ??_EAdjTriangle@physx@@QAEPAXI@Z 1001a380 f i Adjacencies.obj
 0001:000193b0       ??_I@YGXPAXIHP6EX0@Z@Z     1001a3b0 f i Adjacencies.obj
 0001:000193f0       ??_VUserAllocated@shdfnd@physx@@SAXPAX@Z 1001a3f0 f i Adjacencies.obj
 0001:00019410       ?GetEdgeTriangle@EdgeList@Gu@physx@@QBEABUEdgeTriangleData@23@I@Z 1001a410 f i Adjacencies.obj
 0001:00019430       ?HasActiveEdge01@EdgeTriangleAC@Gu@physx@@SAHABUEdgeTriangleData@23@@Z 1001a430 f i Adjacencies.obj
 0001:00019440       ?HasActiveEdge12@EdgeTriangleAC@Gu@physx@@SAHABUEdgeTriangleData@23@@Z 1001a440 f i Adjacencies.obj
 0001:00019450       ?HasActiveEdge20@EdgeTriangleAC@Gu@physx@@SAHABUEdgeTriangleData@23@@Z 1001a450 f i Adjacencies.obj
 0001:00019460       ?allocate@?$ReflectionAllocator@VAdjEdge@@@shdfnd@physx@@QAEPAXIPBDH@Z 1001a460 f i Adjacencies.obj
 0001:000194c0       ?allocate@?$ReflectionAllocator@VAdjTriangle@physx@@@shdfnd@physx@@QAEPAXIPBDH@Z 1001a4c0 f i Adjacencies.obj
 0001:00019520       ?findEdge@?$TriangleT@I@Gu@physx@@QBEEII@Z 1001a520 f i Adjacencies.obj
 0001:00019590       ?getName@?$ReflectionAllocator@VAdjEdge@@@shdfnd@physx@@CAPBDXZ 1001a590 f i Adjacencies.obj
 0001:000195c0       ?getName@?$ReflectionAllocator@VAdjTriangle@physx@@@shdfnd@physx@@CAPBDXZ 1001a5c0 f i Adjacencies.obj
 0001:000195f0       _PxCreateCooking           1001a5f0 f   Cooking.obj
 0001:000196a0       ?release@Cooking@physx@@UAEXXZ 1001a6a0 f   Cooking.obj
 0001:000196c0       ?setParams@Cooking@physx@@UAEXABUPxCookingParams@2@@Z 1001a6c0 f   Cooking.obj
 0001:00019720       ?getParams@Cooking@physx@@UAEABUPxCookingParams@2@XZ 1001a720 f   Cooking.obj
 0001:00019730       ?platformMismatch@Cooking@physx@@UAE_NXZ 1001a730 f   Cooking.obj
 0001:00019760       ?cookTriangleMesh@Cooking@physx@@UAE_NABVPxTriangleMeshDesc@2@AAVPxOutputStream@2@@Z 1001a760 f   Cooking.obj
 0001:00019840       ?createTriangleMesh@Cooking@physx@@UAEPAVPxTriangleMesh@2@ABVPxTriangleMeshDesc@2@AAVPxPhysicsInsertionCallback@2@@Z 1001a840 f   Cooking.obj
 0001:00019900       ?validateTriangleMesh@Cooking@physx@@UAE_NABVPxTriangleMeshDesc@2@@Z 1001a900 f   Cooking.obj
 0001:000199b0       ?cookConvexMesh@Cooking@physx@@UAE_NABVPxConvexMeshDesc@2@AAVPxOutputStream@2@PAW4Enum@PxConvexMeshCookingResult@2@@Z 1001a9b0 f   Cooking.obj
 0001:00019cd0       ?computeHullPolygons@Cooking@physx@@UAE_NABVPxSimpleTriangleMesh@2@AAVPxAllocatorCallback@2@AAIAAPAVPxVec3@2@2AAPAI2AAPAUPxHullPolygon@2@@Z 1001acd0 f   Cooking.obj
 0001:00019df0       ?cookHeightField@Cooking@physx@@UAE_NABVPxHeightFieldDesc@2@AAVPxOutputStream@2@@Z 1001adf0 f   Cooking.obj
 0001:00019f50       ?createHeightField@Cooking@physx@@UAEPAVPxHeightField@2@ABVPxHeightFieldDesc@2@AAVPxPhysicsInsertionCallback@2@@Z 1001af50 f   Cooking.obj
 0001:0001a070       ?loadTriangleMeshDesc@Cooking@physx@@AAE_NABVPxTriangleMeshDesc@2@AAVTriangleMeshBuilder@2@@Z 1001b070 f   Cooking.obj
 0001:0001a140       ??$?2V?$ReflectionAllocator@VCooking@physx@@@shdfnd@physx@@@UserAllocated@shdfnd@physx@@SAPAXIV?$ReflectionAllocator@VCooking@physx@@@12@PBDH@Z 1001b140 f i Cooking.obj
 0001:0001a1a0       ??$?2V?$ReflectionAllocator@VHeightField@Gu@physx@@@shdfnd@physx@@@UserAllocated@shdfnd@physx@@SAPAXIV?$ReflectionAllocator@VHeightField@Gu@physx@@@12@PBDH@Z 1001b1a0 f i Cooking.obj
 0001:0001a200       ??$?2V?$ReflectionAllocator@VTriangleMeshBuilder@physx@@@shdfnd@physx@@@UserAllocated@shdfnd@physx@@SAPAXIV?$ReflectionAllocator@VTriangleMeshBuilder@physx@@@12@PBDH@Z 1001b200 f i Cooking.obj
 0001:0001a260       ??$PX_UNUSED@VPxFoundation@physx@@@@YAXABVPxFoundation@physx@@@Z 1001b260 f i Cooking.obj
 0001:0001a270       ??0?$PxFlags@W4Enum@PxConvexFlag@physx@@G@physx@@QAE@W4Enum@PxConvexFlag@1@@Z 1001b270 f i Cooking.obj
 0001:0001a280       ??0?$PxFlags@W4Enum@PxConvexFlag@physx@@G@physx@@QAE@XZ 1001b280 f i Cooking.obj
 0001:0001a290       ??0?$PxFlags@W4Enum@PxHeightFieldFlag@physx@@G@physx@@QAE@ABV01@@Z 1001b290 f i Cooking.obj
 0001:0001a2b0       ??0?$ReflectionAllocator@VCooking@physx@@@shdfnd@physx@@QAE@PBD@Z 1001b2b0 f i Cooking.obj
 0001:0001a2c0       ??0?$ReflectionAllocator@VHeightField@Gu@physx@@@shdfnd@physx@@QAE@PBD@Z 1001b2c0 f i Cooking.obj
 0001:0001a2d0       ??0?$ReflectionAllocator@VTriangleMeshBuilder@physx@@@shdfnd@physx@@QAE@PBD@Z 1001b2d0 f i Cooking.obj
 0001:0001a2e0       ??0Cooking@physx@@QAE@ABUPxCookingParams@1@@Z 1001b2e0 f i Cooking.obj
 0001:0001a340       ??0HullDesc@physx@@QAE@XZ  1001b340 f i Cooking.obj
 0001:0001a380       ??0HullResult@physx@@QAE@XZ 1001b380 f i Cooking.obj
 0001:0001a3b0       ??0PxConvexMeshDesc@physx@@QAE@ABV01@@Z 1001b3b0 f i Cooking.obj
 0001:0001a410       ??0PxCooking@physx@@QAE@XZ 1001b410 f i Cooking.obj
 0001:0001a420       ??0PxCookingParams@physx@@QAE@ABU01@@Z 1001b420 f i Cooking.obj
 0001:0001a480       ??0TriangleMeshBuilder@physx@@QAE@XZ 1001b480 f i Cooking.obj
 0001:0001a4a0       ??1Cooking@physx@@UAE@XZ   1001b4a0 f i Cooking.obj
 0001:0001a4b0       ??1PxCooking@physx@@MAE@XZ 1001b4b0 f i Cooking.obj
 0001:0001a4c0       ??1TriangleMeshBuilder@physx@@UAE@XZ 1001b4c0 f i Cooking.obj
 0001:0001a4d0       ??4?$PxFlags@W4Enum@PxMeshPreprocessingFlag@physx@@I@physx@@QAEAAV01@ABV01@@Z 1001b4d0 f i Cooking.obj
 0001:0001a4e0       ??4PxCookingParams@physx@@QAEAAU01@ABU01@@Z 1001b4e0 f i Cooking.obj
 0001:0001a540       ??9?$PxFlags@W4Enum@PxHeightFieldFlag@physx@@G@physx@@QBE_NABV01@@Z 1001b540 f i Cooking.obj
 0001:0001a560       ??I?$PxFlags@W4Enum@PxHeightFieldFlag@physx@@G@physx@@QBE?AV01@W4Enum@PxHeightFieldFlag@1@@Z 1001b560 f i Cooking.obj
 0001:0001a580       ??S?$PxFlags@W4Enum@PxConvexFlag@physx@@G@physx@@QBE?AV01@XZ 1001b580 f i Cooking.obj
 0001:0001a5a0       ??Sphysx@@YA?AV?$PxFlags@W4Enum@PxConvexFlag@physx@@G@0@W4Enum@PxConvexFlag@0@@Z 1001b5a0 f i Cooking.obj
 0001:0001a5b0       ??_4?$PxFlags@W4Enum@PxConvexFlag@physx@@G@physx@@QAEAAV01@ABV01@@Z 1001b5b0 f i Cooking.obj
 0001:0001a5c2       ??_ETriangleMeshBuilder@physx@@W7AEPAXI@Z 1001b5c2 f i Cooking.obj
 0001:0001a5d0       ??_ECooking@physx@@UAEPAXI@Z 1001b5d0 f i Cooking.obj
 0001:0001a5d0       ??_GCooking@physx@@UAEPAXI@Z 1001b5d0 f i Cooking.obj
 0001:0001a600       ??_GPxCooking@physx@@MAEPAXI@Z 1001b600 f i Cooking.obj
 0001:0001a600       ??_EPxCooking@physx@@MAEPAXI@Z 1001b600 f i Cooking.obj
 0001:0001a630       ??_ETriangleMeshBuilder@physx@@UAEPAXI@Z 1001b630 f i Cooking.obj
 0001:0001a630       ??_GTriangleMeshBuilder@physx@@UAEPAXI@Z 1001b630 f i Cooking.obj
 0001:0001a660       ?allocate@?$ReflectionAllocator@VCooking@physx@@@shdfnd@physx@@QAEPAXIPBDH@Z 1001b660 f i Cooking.obj
 0001:0001a6c0       ?allocate@?$ReflectionAllocator@VHeightField@Gu@physx@@@shdfnd@physx@@QAEPAXIPBDH@Z 1001b6c0 f i Cooking.obj
 0001:0001a720       ?allocate@?$ReflectionAllocator@VTriangleMeshBuilder@physx@@@shdfnd@physx@@QAEPAXIPBDH@Z 1001b720 f i Cooking.obj
 0001:0001a780       ?getName@?$ReflectionAllocator@VCooking@physx@@@shdfnd@physx@@CAPBDXZ 1001b780 f i Cooking.obj
 0001:0001a7b0       ?getName@?$ReflectionAllocator@VHeightField@Gu@physx@@@shdfnd@physx@@CAPBDXZ 1001b7b0 f i Cooking.obj
 0001:0001a7e0       ?getName@?$ReflectionAllocator@VTriangleMeshBuilder@physx@@@shdfnd@physx@@CAPBDXZ 1001b7e0 f i Cooking.obj
 0001:0001a810       ?isValid@PxHeightFieldDesc@physx@@QBE_NXZ 1001b810 f i Cooking.obj
 0001:0001a870       ?littleEndian@shdfnd@physx@@YADXZ 1001b870 f i Cooking.obj
 0001:0001a880       ?requires@TriangleMesh@Gu@physx@@UAEXAAVPxProcessPxBaseCallback@3@@Z 1001b880 f i Cooking.obj
 0001:0001a890       ??0ReducedVertexCloud@physx@@QAE@PBVPxVec3@1@I@Z 1001b890 f   CookingUtils.obj
 0001:0001a8c0       ??1ReducedVertexCloud@physx@@QAE@XZ 1001b8c0 f   CookingUtils.obj
 0001:0001a900       ?Clean@ReducedVertexCloud@physx@@QAEAAV12@XZ 1001b900 f   CookingUtils.obj
 0001:0001a940       ?Reduce@ReducedVertexCloud@physx@@QAE_NPAUREDUCEDCLOUD@2@@Z 1001b940 f   CookingUtils.obj
 0001:0001aba0       ??0EdgeList@Gu@physx@@QAE@XZ 1001bba0 f   EdgeList.obj
 0001:0001abd0       ??1EdgeList@Gu@physx@@QAE@XZ 1001bbd0 f   EdgeList.obj
 0001:0001ac20       ?Load@EdgeList@Gu@physx@@QAE_NAAVPxInputStream@3@@Z 1001bc20 f   EdgeList.obj
 0001:0001ad30       ??0EdgeListBuilder@Gu@physx@@QAE@XZ 1001bd30 f   EdgeList.obj
 0001:0001ad60       ??1EdgeListBuilder@Gu@physx@@QAE@XZ 1001bd60 f   EdgeList.obj
 0001:0001adb0       ?Init@EdgeListBuilder@Gu@physx@@QAE_NABUEDGELISTCREATE@23@@Z 1001bdb0 f   EdgeList.obj
 0001:0001ae80       ?CreateFacesToEdges@EdgeListBuilder@Gu@physx@@AAE_NIPBIPBG@Z 1001be80 f   EdgeList.obj
 0001:0001b180       ?CreateEdgesToFaces@EdgeListBuilder@Gu@physx@@AAE_NIPBIPBG@Z 1001c180 f   EdgeList.obj
 0001:0001b320       ?ComputeActiveEdges@EdgeListBuilder@Gu@physx@@AAE_NIPBIPBGPBVPxVec3@3@M@Z 1001c320 f   EdgeList.obj
 0001:0001cb40       ??$?_UUEdgeData@Gu@physx@@@@YAPAXIV?$ReflectionAllocator@UEdgeData@Gu@physx@@@shdfnd@physx@@PBDH@Z 1001db40 f i EdgeList.obj
 0001:0001cba0       ??$?_UUEdgeTriangleData@Gu@physx@@@@YAPAXIV?$ReflectionAllocator@UEdgeTriangleData@Gu@physx@@@shdfnd@physx@@PBDH@Z 1001dba0 f i EdgeList.obj
 0001:0001cc00       ??0?$ReflectionAllocator@UEdgeData@Gu@physx@@@shdfnd@physx@@QAE@PBD@Z 1001dc00 f i EdgeList.obj
 0001:0001cc10       ??0?$ReflectionAllocator@UEdgeTriangleData@Gu@physx@@@shdfnd@physx@@QAE@PBD@Z 1001dc10 f i EdgeList.obj
 0001:0001cc20       ??0PxTriangle@physx@@QAE@ABVPxVec3@1@00@Z 1001dc20 f i EdgeList.obj
 0001:0001cc70       ??1PxTriangle@physx@@QAE@XZ 1001dc70 f i EdgeList.obj
 0001:0001cc80       ?GetEdgeToTriangles@EdgeList@Gu@physx@@QBEPBUEdgeDescData@23@XZ 1001dc80 f i EdgeList.obj
 0001:0001cc90       ?GetEdges@EdgeList@Gu@physx@@QBEPBUEdgeData@23@XZ 1001dc90 f i EdgeList.obj
 0001:0001cca0       ?GetFacesByEdges@EdgeList@Gu@physx@@QBEPBIXZ 1001dca0 f i EdgeList.obj
 0001:0001ccb0       ?OppositeVertex@@YAIIIIII@Z 1001dcb0 f i EdgeList.obj
 0001:0001cd10       ?PxAtan2@physx@@YAMMM@Z    1001dd10 f i EdgeList.obj
 0001:0001cd20       ?allocate@?$ReflectionAllocator@UEdgeData@Gu@physx@@@shdfnd@physx@@QAEPAXIPBDH@Z 1001dd20 f i EdgeList.obj
 0001:0001cd80       ?allocate@?$ReflectionAllocator@UEdgeTriangleData@Gu@physx@@@shdfnd@physx@@QAEPAXIPBDH@Z 1001dd80 f i EdgeList.obj
 0001:0001cde0       ?angle@shdfnd@physx@@YAMABVPxVec3@2@0@Z 1001dde0 f i EdgeList.obj
 0001:0001ce80       ?atan2@@YAMMM@Z            1001de80 f i EdgeList.obj
 0001:0001ce90       ?getName@?$ReflectionAllocator@UEdgeData@Gu@physx@@@shdfnd@physx@@CAPBDXZ 1001de90 f i EdgeList.obj
 0001:0001cec0       ?getName@?$ReflectionAllocator@UEdgeTriangleData@Gu@physx@@@shdfnd@physx@@CAPBDXZ 1001dec0 f i EdgeList.obj
 0001:0001cef0       ?normal@PxTriangle@physx@@QBEXAAVPxVec3@2@@Z 1001def0 f i EdgeList.obj
 0001:0001cfd0       _atan2f                    1001dfd0 f i EdgeList.obj
 0001:0001cfe0       ??0InternalTriangleMeshBuilder@physx@@QAE@PAVInternalTriangleMesh@1@ABUPxCookingParams@1@@Z 1001dfe0 f   InternalTriangleMeshBuilder.obj
 0001:0001d000       ??1InternalTriangleMeshBuilder@physx@@QAE@XZ 1001e000 f   InternalTriangleMeshBuilder.obj
 0001:0001d030       ?cleanMesh@InternalTriangleMeshBuilder@physx@@QAE_N_N@Z 1001e030 f   InternalTriangleMeshBuilder.obj
 0001:0001d3c0       ?fillRemapTable@InternalTriangleMeshBuilder@physx@@QAEXXZ 1001e3c0 f   InternalTriangleMeshBuilder.obj
 0001:0001d480       ?remapTopology@InternalTriangleMeshBuilder@physx@@QAEXPBI@Z 1001e480 f   InternalTriangleMeshBuilder.obj
 0001:0001d6a0       ?createRTree@InternalTriangleMeshBuilder@physx@@QAE_NXZ 1001e6a0 f   InternalTriangleMeshBuilder.obj
 0001:0001d760       ?createSharedEdgeData@InternalTriangleMeshBuilder@physx@@QAEX_N0@Z 1001e760 f   InternalTriangleMeshBuilder.obj
 0001:0001daa0       ?releaseEdgeList@InternalTriangleMeshBuilder@physx@@AAEXXZ 1001eaa0 f   InternalTriangleMeshBuilder.obj
 0001:0001dad0       ?createEdgeList@InternalTriangleMeshBuilder@physx@@AAEXXZ 1001ead0 f   InternalTriangleMeshBuilder.obj
 0001:0001dbd0       ??$?2V?$ReflectionAllocator@VEdgeListBuilder@Gu@physx@@@shdfnd@physx@@@UserAllocated@shdfnd@physx@@SAPAXIV?$ReflectionAllocator@VEdgeListBuilder@Gu@physx@@@12@PBDH@Z 1001ebd0 f i InternalTriangleMeshBuilder.obj
 0001:0001dc30       ??0?$Array@IV?$ReflectionAllocator@I@shdfnd@physx@@@shdfnd@physx@@QAE@ABV?$ReflectionAllocator@I@12@@Z 1001ec30 f i InternalTriangleMeshBuilder.obj
 0001:0001dc50       ??0?$ReflectionAllocator@VEdgeListBuilder@Gu@physx@@@shdfnd@physx@@QAE@PBD@Z 1001ec50 f i InternalTriangleMeshBuilder.obj
 0001:0001dc60       ??0RTreeCookerRemap@@QAE@I@Z 1001ec60 f i InternalTriangleMeshBuilder.obj
 0001:0001dc80       ??0RemapCallback@RTreeCooker@physx@@QAE@XZ 1001ec80 f i InternalTriangleMeshBuilder.obj
 0001:0001dc90       ??1RTreeCookerRemap@@UAE@XZ 1001ec90 f i InternalTriangleMeshBuilder.obj
 0001:0001dca0       ??1RemapCallback@RTreeCooker@physx@@UAE@XZ 1001eca0 f i InternalTriangleMeshBuilder.obj
 0001:0001dcb0       ??_GEdgeListBuilder@Gu@physx@@QAEPAXI@Z 1001ecb0 f i InternalTriangleMeshBuilder.obj
 0001:0001dce0       ??_ERTreeCookerRemap@@UAEPAXI@Z 1001ece0 f i InternalTriangleMeshBuilder.obj
 0001:0001dce0       ??_GRTreeCookerRemap@@UAEPAXI@Z 1001ece0 f i InternalTriangleMeshBuilder.obj
 0001:0001dd10       ??_GRemapCallback@RTreeCooker@physx@@UAEPAXI@Z 1001ed10 f i InternalTriangleMeshBuilder.obj
 0001:0001dd10       ??_ERemapCallback@RTreeCooker@physx@@UAEPAXI@Z 1001ed10 f i InternalTriangleMeshBuilder.obj
 0001:0001dd40       ?GetNbFaces@EdgeList@Gu@physx@@QBEIXZ 1001ed40 f i InternalTriangleMeshBuilder.obj
 0001:0001dd50       ?LeafSetData@Gu@physx@@YAIII@Z 1001ed50 f i InternalTriangleMeshBuilder.obj
 0001:0001dd70       ?SetData@LeafTriangles@Gu@physx@@QAEXII@Z 1001ed70 f i InternalTriangleMeshBuilder.obj
 0001:0001dd90       ?allocate@?$ReflectionAllocator@VEdgeListBuilder@Gu@physx@@@shdfnd@physx@@QAEPAXIPBDH@Z 1001ed90 f i InternalTriangleMeshBuilder.obj
 0001:0001ddf0       ?findEdgeCCW@?$TriangleT@I@Gu@physx@@QBEEII@Z 1001edf0 f i InternalTriangleMeshBuilder.obj
 0001:0001de60       ?getName@?$ReflectionAllocator@VEdgeListBuilder@Gu@physx@@@shdfnd@physx@@CAPBDXZ 1001ee60 f i InternalTriangleMeshBuilder.obj
 0001:0001de90       ?remap@RTreeCookerRemap@@UAEXPAIII@Z 1001ee90 f i InternalTriangleMeshBuilder.obj
 0001:0001deb0       ??0MeshCleaner@physx@@QAE@IPBVPxVec3@1@IPBIM@Z 1001eeb0 f   MeshCleaner.obj
 0001:0001e630       ??1MeshCleaner@physx@@QAE@XZ 1001f630 f   MeshCleaner.obj
 0001:0001e730       ??9Indices@@QBE_NABU0@@Z   1001f730 f i MeshCleaner.obj
 0001:0001e760       ??9PxVec3@physx@@QBE_NABV01@@Z 1001f760 f i MeshCleaner.obj
 0001:0001e7a0       ?PxFloor@physx@@YAMM@Z     1001f7a0 f i MeshCleaner.obj
 0001:0001e800       ?nextPowerOfTwo@shdfnd@physx@@YAII@Z 1001f800 f i MeshCleaner.obj
 0001:0001e830       _floorf                    1001f830 f i MeshCleaner.obj
 0001:0001e88c       _GetModuleFileNameA@12     1001f88c f   kernel32:KERNEL32.dll
 0001:0001e892       _LoadLibraryA@4            1001f892 f   kernel32:KERNEL32.dll
 0001:0001e898       __imp_load_?writeWord@physx@@YAXG_NAAVPxOutputStream@1@@Z 1001f898 f   PhysX3Common_x86:PhysX3Common_x86.dll
 0001:0001e8a2       __tailMerge_PhysX3Common_x86_dll 1001f8a2 f i PhysX3Common_x86:PhysX3Common_x86.dll
 0001:0001e8b3       ?writeWord@physx@@YAXG_NAAVPxOutputStream@1@@Z 1001f8b3 f   PhysX3Common_x86:PhysX3Common_x86.dll
 0001:0001e8b9       __imp_load_?writeDword@physx@@YAXI_NAAVPxOutputStream@1@@Z 1001f8b9 f   PhysX3Common_x86:PhysX3Common_x86.dll
 0001:0001e8c3       ?writeDword@physx@@YAXI_NAAVPxOutputStream@1@@Z 1001f8c3 f   PhysX3Common_x86:PhysX3Common_x86.dll
 0001:0001e8c9       __imp_load_?writeFloat@physx@@YAXM_NAAVPxOutputStream@1@@Z 1001f8c9 f   PhysX3Common_x86:PhysX3Common_x86.dll
 0001:0001e8d3       ?writeFloat@physx@@YAXM_NAAVPxOutputStream@1@@Z 1001f8d3 f   PhysX3Common_x86:PhysX3Common_x86.dll
 0001:0001e8d9       __imp_load_?writeHeader@physx@@YA_NCCCCI_NAAVPxOutputStream@1@@Z 1001f8d9 f   PhysX3Common_x86:PhysX3Common_x86.dll
 0001:0001e8e3       ?writeHeader@physx@@YA_NCCCCI_NAAVPxOutputStream@1@@Z 1001f8e3 f   PhysX3Common_x86:PhysX3Common_x86.dll
 0001:0001e8e9       __imp_load__PxGetFoundation 1001f8e9 f   PhysX3Common_x86:PhysX3Common_x86.dll
 0001:0001e8f3       _PxGetFoundation           1001f8f3 f   PhysX3Common_x86:PhysX3Common_x86.dll
 0001:0001e8f9       __imp_load_?getAllocator@shdfnd@physx@@YAAAVPxAllocatorCallback@2@XZ 1001f8f9 f   PhysX3Common_x86:PhysX3Common_x86.dll
 0001:0001e903       ?getAllocator@shdfnd@physx@@YAAAVPxAllocatorCallback@2@XZ 1001f903 f   PhysX3Common_x86:PhysX3Common_x86.dll
 0001:0001e909       __imp_load_?allocate@Allocator@shdfnd@physx@@QAEPAXIPBDH@Z 1001f909 f   PhysX3Common_x86:PhysX3Common_x86.dll
 0001:0001e913       ?allocate@Allocator@shdfnd@physx@@QAEPAXIPBDH@Z 1001f913 f   PhysX3Common_x86:PhysX3Common_x86.dll
 0001:0001e919       __imp_load_?allocate@TempAllocator@shdfnd@physx@@QAEPAXIPBDH@Z 1001f919 f   PhysX3Common_x86:PhysX3Common_x86.dll
 0001:0001e923       ?allocate@TempAllocator@shdfnd@physx@@QAEPAXIPBDH@Z 1001f923 f   PhysX3Common_x86:PhysX3Common_x86.dll
 0001:0001e929       __imp_load_?deallocate@TempAllocator@shdfnd@physx@@QAEXPAX@Z 1001f929 f   PhysX3Common_x86:PhysX3Common_x86.dll
 0001:0001e933       ?deallocate@TempAllocator@shdfnd@physx@@QAEXPAX@Z 1001f933 f   PhysX3Common_x86:PhysX3Common_x86.dll
 0001:0001e939       __imp_load_?computeBoundsAroundVertices@Gu@physx@@YAXAAVPxBounds3@2@IPIBVPxVec3@2@@Z 1001f939 f   PhysX3Common_x86:PhysX3Common_x86.dll
 0001:0001e943       ?computeBoundsAroundVertices@Gu@physx@@YAXAAVPxBounds3@2@IPIBVPxVec3@2@@Z 1001f943 f   PhysX3Common_x86:PhysX3Common_x86.dll
 0001:0001e949       __imp_load_?deallocate@Allocator@shdfnd@physx@@QAEXPAX@Z 1001f949 f   PhysX3Common_x86:PhysX3Common_x86.dll
 0001:0001e953       ?deallocate@Allocator@shdfnd@physx@@QAEXPAX@Z 1001f953 f   PhysX3Common_x86:PhysX3Common_x86.dll
 0001:0001e959       __imp_load_?getInstance@Foundation@shdfnd@physx@@SAAAV123@XZ 1001f959 f   PhysX3Common_x86:PhysX3Common_x86.dll
 0001:0001e963       ?getInstance@Foundation@shdfnd@physx@@SAAAV123@XZ 1001f963 f   PhysX3Common_x86:PhysX3Common_x86.dll
 0001:0001e969       __imp_load_?error@Foundation@shdfnd@physx@@QAAXW4Enum@PxErrorCode@3@PBDH1ZZ 1001f969 f   PhysX3Common_x86:PhysX3Common_x86.dll
 0001:0001e973       ?error@Foundation@shdfnd@physx@@QAAXW4Enum@PxErrorCode@3@PBDH1ZZ 1001f973 f   PhysX3Common_x86:PhysX3Common_x86.dll
 0001:0001e979       __imp_load_?save@RTree@Gu@physx@@QBE_NAAVPxOutputStream@3@@Z 1001f979 f   PhysX3Common_x86:PhysX3Common_x86.dll
 0001:0001e983       ?save@RTree@Gu@physx@@QBE_NAAVPxOutputStream@3@@Z 1001f983 f   PhysX3Common_x86:PhysX3Common_x86.dll
 0001:0001e989       __imp_load_?release@InternalTriangleMesh@physx@@QAEXXZ 1001f989 f   PhysX3Common_x86:PhysX3Common_x86.dll
 0001:0001e993       ?release@InternalTriangleMesh@physx@@QAEXXZ 1001f993 f   PhysX3Common_x86:PhysX3Common_x86.dll
 0001:0001e999       __imp_load_?allocateVertices@InternalTriangleMesh@physx@@QAEPAVPxVec3@2@I@Z 1001f999 f   PhysX3Common_x86:PhysX3Common_x86.dll
 0001:0001e9a3       ?allocateVertices@InternalTriangleMesh@physx@@QAEPAVPxVec3@2@I@Z 1001f9a3 f   PhysX3Common_x86:PhysX3Common_x86.dll
 0001:0001e9a9       __imp_load_?allocateTriangles@InternalTriangleMesh@physx@@QAEPAXI_N@Z 1001f9a9 f   PhysX3Common_x86:PhysX3Common_x86.dll
 0001:0001e9b3       ?allocateTriangles@InternalTriangleMesh@physx@@QAEPAXI_N@Z 1001f9b3 f   PhysX3Common_x86:PhysX3Common_x86.dll
 0001:0001e9b9       __imp_load_?allocateMaterials@InternalTriangleMesh@physx@@QAEPAGXZ 1001f9b9 f   PhysX3Common_x86:PhysX3Common_x86.dll
 0001:0001e9c3       ?allocateMaterials@InternalTriangleMesh@physx@@QAEPAGXZ 1001f9c3 f   PhysX3Common_x86:PhysX3Common_x86.dll
 0001:0001e9c9       __imp_load_?writeWordBuffer@physx@@YAXPBGI_NAAVPxOutputStream@1@@Z 1001f9c9 f   PhysX3Common_x86:PhysX3Common_x86.dll
 0001:0001e9d3       ?writeWordBuffer@physx@@YAXPBGI_NAAVPxOutputStream@1@@Z 1001f9d3 f   PhysX3Common_x86:PhysX3Common_x86.dll
 0001:0001e9d9       __imp_load_?writeFloatBuffer@physx@@YAXPBMI_NAAVPxOutputStream@1@@Z 1001f9d9 f   PhysX3Common_x86:PhysX3Common_x86.dll
 0001:0001e9e3       ?writeFloatBuffer@physx@@YAXPBMI_NAAVPxOutputStream@1@@Z 1001f9e3 f   PhysX3Common_x86:PhysX3Common_x86.dll
 0001:0001e9e9       __imp_load_?computeMaxIndex@physx@@YAIPBII@Z 1001f9e9 f   PhysX3Common_x86:PhysX3Common_x86.dll
 0001:0001e9f3       ?computeMaxIndex@physx@@YAIPBII@Z 1001f9f3 f   PhysX3Common_x86:PhysX3Common_x86.dll
 0001:0001e9f9       __imp_load_?storeIndices@physx@@YAXIIPBIAAVPxOutputStream@1@_N@Z 1001f9f9 f   PhysX3Common_x86:PhysX3Common_x86.dll
 0001:0001ea03       ?storeIndices@physx@@YAXIIPBIAAVPxOutputStream@1@_N@Z 1001fa03 f   PhysX3Common_x86:PhysX3Common_x86.dll
 0001:0001ea09       __imp_load_?computeMaxIndex@physx@@YAGPBGI@Z 1001fa09 f   PhysX3Common_x86:PhysX3Common_x86.dll
 0001:0001ea13       ?computeMaxIndex@physx@@YAGPBGI@Z 1001fa13 f   PhysX3Common_x86:PhysX3Common_x86.dll
 0001:0001ea19       __imp_load_?WriteHeader@Gu@physx@@YA_NEEEEI_NAAVPxOutputStream@2@@Z 1001fa19 f   PhysX3Common_x86:PhysX3Common_x86.dll
 0001:0001ea23       ?WriteHeader@Gu@physx@@YA_NEEEEI_NAAVPxOutputStream@2@@Z 1001fa23 f   PhysX3Common_x86:PhysX3Common_x86.dll
 0001:0001ea29       __imp_load_?StoreIndices@Gu@physx@@YAXGIPBGAAVPxOutputStream@2@_N@Z 1001fa29 f   PhysX3Common_x86:PhysX3Common_x86.dll
 0001:0001ea33       ?StoreIndices@Gu@physx@@YAXGIPBGAAVPxOutputStream@2@_N@Z 1001fa33 f   PhysX3Common_x86:PhysX3Common_x86.dll
 0001:0001ea39       __imp_load_?CreateOffsets@BigConvexData@physx@@IAEXXZ 1001fa39 f   PhysX3Common_x86:PhysX3Common_x86.dll
 0001:0001ea43       ?CreateOffsets@BigConvexData@physx@@IAEXXZ 1001fa43 f   PhysX3Common_x86:PhysX3Common_x86.dll
 0001:0001ea49       __imp_load_??0RadixSortBuffered@Gu@physx@@QAE@XZ 1001fa49 f   PhysX3Common_x86:PhysX3Common_x86.dll
 0001:0001ea53       ??0RadixSortBuffered@Gu@physx@@QAE@XZ 1001fa53 f   PhysX3Common_x86:PhysX3Common_x86.dll
 0001:0001ea59       __imp_load_??1RadixSortBuffered@Gu@physx@@UAE@XZ 1001fa59 f   PhysX3Common_x86:PhysX3Common_x86.dll
 0001:0001ea63       ??1RadixSortBuffered@Gu@physx@@UAE@XZ 1001fa63 f   PhysX3Common_x86:PhysX3Common_x86.dll
 0001:0001ea69       __imp_load_?Sort@RadixSortBuffered@Gu@physx@@QAEAAV123@PBIIW4RadixHint@23@@Z 1001fa69 f   PhysX3Common_x86:PhysX3Common_x86.dll
 0001:0001ea73       ?Sort@RadixSortBuffered@Gu@physx@@QAEAAV123@PBIIW4RadixHint@23@@Z 1001fa73 f   PhysX3Common_x86:PhysX3Common_x86.dll
 0001:0001ea79       __imp_load_??0Container@Gu@physx@@QAE@XZ 1001fa79 f   PhysX3Common_x86:PhysX3Common_x86.dll
 0001:0001ea83       ??0Container@Gu@physx@@QAE@XZ 1001fa83 f   PhysX3Common_x86:PhysX3Common_x86.dll
 0001:0001ea89       __imp_load_??0Container@Gu@physx@@QAE@ABV012@@Z 1001fa89 f   PhysX3Common_x86:PhysX3Common_x86.dll
 0001:0001ea93       ??0Container@Gu@physx@@QAE@ABV012@@Z 1001fa93 f   PhysX3Common_x86:PhysX3Common_x86.dll
 0001:0001ea99       __imp_load_??1Container@Gu@physx@@QAE@XZ 1001fa99 f   PhysX3Common_x86:PhysX3Common_x86.dll
 0001:0001eaa3       ??1Container@Gu@physx@@QAE@XZ 1001faa3 f   PhysX3Common_x86:PhysX3Common_x86.dll
 0001:0001eaa9       __imp_load_?Empty@Container@Gu@physx@@QAEAAV123@XZ 1001faa9 f   PhysX3Common_x86:PhysX3Common_x86.dll
 0001:0001eab3       ?Empty@Container@Gu@physx@@QAEAAV123@XZ 1001fab3 f   PhysX3Common_x86:PhysX3Common_x86.dll
 0001:0001eab9       __imp_load_?Contains@Container@Gu@physx@@QBE_NIPAI@Z 1001fab9 f   PhysX3Common_x86:PhysX3Common_x86.dll
 0001:0001eac3       ?Contains@Container@Gu@physx@@QBE_NIPAI@Z 1001fac3 f   PhysX3Common_x86:PhysX3Common_x86.dll
 0001:0001eac9       __imp_load_??4Container@Gu@physx@@QAEXABV012@@Z 1001fac9 f   PhysX3Common_x86:PhysX3Common_x86.dll
 0001:0001ead3       ??4Container@Gu@physx@@QAEXABV012@@Z 1001fad3 f   PhysX3Common_x86:PhysX3Common_x86.dll
 0001:0001ead9       __imp_load_?Resize@Container@Gu@physx@@AAE_NI@Z 1001fad9 f   PhysX3Common_x86:PhysX3Common_x86.dll
 0001:0001eae3       ?Resize@Container@Gu@physx@@AAE_NI@Z 1001fae3 f   PhysX3Common_x86:PhysX3Common_x86.dll
 0001:0001eae9       __imp_load_??0ConvexMesh@Gu@physx@@QAE@XZ 1001fae9 f   PhysX3Common_x86:PhysX3Common_x86.dll
 0001:0001eaf3       ??0ConvexMesh@Gu@physx@@QAE@XZ 1001faf3 f   PhysX3Common_x86:PhysX3Common_x86.dll
 0001:0001eaf9       __imp_load_??1ConvexMesh@Gu@physx@@UAE@XZ 1001faf9 f   PhysX3Common_x86:PhysX3Common_x86.dll
 0001:0001eb03       ??1ConvexMesh@Gu@physx@@UAE@XZ 1001fb03 f   PhysX3Common_x86:PhysX3Common_x86.dll
 0001:0001eb09       __imp_load_??0BigConvexData@physx@@QAE@XZ 1001fb09 f   PhysX3Common_x86:PhysX3Common_x86.dll
 0001:0001eb13       ??0BigConvexData@physx@@QAE@XZ 1001fb13 f   PhysX3Common_x86:PhysX3Common_x86.dll
 0001:0001eb19       __imp_load_??1BigConvexData@physx@@QAE@XZ 1001fb19 f   PhysX3Common_x86:PhysX3Common_x86.dll
 0001:0001eb23       ??1BigConvexData@physx@@QAE@XZ 1001fb23 f   PhysX3Common_x86:PhysX3Common_x86.dll
 0001:0001eb29       __imp_load_?exportExtraData@ConvexMesh@Gu@physx@@UAEXAAVPxSerializationContext@3@@Z 1001fb29 f   PhysX3Common_x86:PhysX3Common_x86.dll
 0001:0001eb33       ?exportExtraData@ConvexMesh@Gu@physx@@UAEXAAVPxSerializationContext@3@@Z 1001fb33 f   PhysX3Common_x86:PhysX3Common_x86.dll
 0001:0001eb39       __imp_load_?getConcreteTypeName@PxConvexMesh@physx@@UBEPBDXZ 1001fb39 f   PhysX3Common_x86:PhysX3Common_x86.dll
 0001:0001eb43       ?getConcreteTypeName@PxConvexMesh@physx@@UBEPBDXZ 1001fb43 f   PhysX3Common_x86:PhysX3Common_x86.dll
 0001:0001eb49       __imp_load_?getIndexBuffer@ConvexMesh@Gu@physx@@UBEPBEXZ 1001fb49 f   PhysX3Common_x86:PhysX3Common_x86.dll
 0001:0001eb53       ?getIndexBuffer@ConvexMesh@Gu@physx@@UBEPBEXZ 1001fb53 f   PhysX3Common_x86:PhysX3Common_x86.dll
 0001:0001eb59       __imp_load_?getLocalBounds@ConvexMesh@Gu@physx@@UBE?AVPxBounds3@3@XZ 1001fb59 f   PhysX3Common_x86:PhysX3Common_x86.dll
 0001:0001eb63       ?getLocalBounds@ConvexMesh@Gu@physx@@UBE?AVPxBounds3@3@XZ 1001fb63 f   PhysX3Common_x86:PhysX3Common_x86.dll
 0001:0001eb69       __imp_load_?getMassInformation@ConvexMesh@Gu@physx@@UBEXAAMAAVPxMat33@3@AAVPxVec3@3@@Z 1001fb69 f   PhysX3Common_x86:PhysX3Common_x86.dll
 0001:0001eb73       ?getMassInformation@ConvexMesh@Gu@physx@@UBEXAAMAAVPxMat33@3@AAVPxVec3@3@@Z 1001fb73 f   PhysX3Common_x86:PhysX3Common_x86.dll
 0001:0001eb79       __imp_load_?getNbPolygons@ConvexMesh@Gu@physx@@UBEIXZ 1001fb79 f   PhysX3Common_x86:PhysX3Common_x86.dll
 0001:0001eb83       ?getNbPolygons@ConvexMesh@Gu@physx@@UBEIXZ 1001fb83 f   PhysX3Common_x86:PhysX3Common_x86.dll
 0001:0001eb89       __imp_load_?getNbVertices@ConvexMesh@Gu@physx@@UBEIXZ 1001fb89 f   PhysX3Common_x86:PhysX3Common_x86.dll
 0001:0001eb93       ?getNbVertices@ConvexMesh@Gu@physx@@UBEIXZ 1001fb93 f   PhysX3Common_x86:PhysX3Common_x86.dll
 0001:0001eb99       __imp_load_?getPolygonData@ConvexMesh@Gu@physx@@UBE_NIAAUPxHullPolygon@3@@Z 1001fb99 f   PhysX3Common_x86:PhysX3Common_x86.dll
 0001:0001eba3       ?getPolygonData@ConvexMesh@Gu@physx@@UBE_NIAAUPxHullPolygon@3@@Z 1001fba3 f   PhysX3Common_x86:PhysX3Common_x86.dll
 0001:0001eba9       __imp_load_?getReferenceCount@ConvexMesh@Gu@physx@@UBEIXZ 1001fba9 f   PhysX3Common_x86:PhysX3Common_x86.dll
 0001:0001ebb3       ?getReferenceCount@ConvexMesh@Gu@physx@@UBEIXZ 1001fbb3 f   PhysX3Common_x86:PhysX3Common_x86.dll
 0001:0001ebb9       __imp_load_?getVertices@ConvexMesh@Gu@physx@@UBEPBVPxVec3@3@XZ 1001fbb9 f   PhysX3Common_x86:PhysX3Common_x86.dll
 0001:0001ebc3       ?getVertices@ConvexMesh@Gu@physx@@UBEPBVPxVec3@3@XZ 1001fbc3 f   PhysX3Common_x86:PhysX3Common_x86.dll
 0001:0001ebc9       __imp_load_?isKindOf@PxConvexMesh@physx@@MBE_NPBD@Z 1001fbc9 f   PhysX3Common_x86:PhysX3Common_x86.dll
 0001:0001ebd3       ?isKindOf@PxConvexMesh@physx@@MBE_NPBD@Z 1001fbd3 f   PhysX3Common_x86:PhysX3Common_x86.dll
 0001:0001ebd9       __imp_load_?onRefCountZero@ConvexMesh@Gu@physx@@UAEXXZ 1001fbd9 f   PhysX3Common_x86:PhysX3Common_x86.dll
 0001:0001ebe3       ?onRefCountZero@ConvexMesh@Gu@physx@@UAEXXZ 1001fbe3 f   PhysX3Common_x86:PhysX3Common_x86.dll
 0001:0001ebe9       __imp_load_?release@ConvexMesh@Gu@physx@@UAEXXZ 1001fbe9 f   PhysX3Common_x86:PhysX3Common_x86.dll
 0001:0001ebf3       ?release@ConvexMesh@Gu@physx@@UAEXXZ 1001fbf3 f   PhysX3Common_x86:PhysX3Common_x86.dll
 0001:0001ebf9       __imp_load_?readDword@physx@@YAI_NAAVPxInputStream@1@@Z 1001fbf9 f   PhysX3Common_x86:PhysX3Common_x86.dll
 0001:0001ec03       ?readDword@physx@@YAI_NAAVPxInputStream@1@@Z 1001fc03 f   PhysX3Common_x86:PhysX3Common_x86.dll
 0001:0001ec09       __imp_load_?ReadHeader@Gu@physx@@YA_NEEEEAAIAA_NAAVPxInputStream@2@@Z 1001fc09 f   PhysX3Common_x86:PhysX3Common_x86.dll
 0001:0001ec13       ?ReadHeader@Gu@physx@@YA_NEEEEAAIAA_NAAVPxInputStream@2@@Z 1001fc13 f   PhysX3Common_x86:PhysX3Common_x86.dll
 0001:0001ec19       __imp_load_??0FPUGuard@shdfnd@physx@@QAE@XZ 1001fc19 f   PhysX3Common_x86:PhysX3Common_x86.dll
 0001:0001ec23       ??0FPUGuard@shdfnd@physx@@QAE@XZ 1001fc23 f   PhysX3Common_x86:PhysX3Common_x86.dll
 0001:0001ec29       __imp_load_??1FPUGuard@shdfnd@physx@@QAE@XZ 1001fc29 f   PhysX3Common_x86:PhysX3Common_x86.dll
 0001:0001ec33       ??1FPUGuard@shdfnd@physx@@QAE@XZ 1001fc33 f   PhysX3Common_x86:PhysX3Common_x86.dll
 0001:0001ec39       __imp_load_?incRefCount@Foundation@shdfnd@physx@@SAXXZ 1001fc39 f   PhysX3Common_x86:PhysX3Common_x86.dll
 0001:0001ec43       ?incRefCount@Foundation@shdfnd@physx@@SAXXZ 1001fc43 f   PhysX3Common_x86:PhysX3Common_x86.dll
 0001:0001ec49       __imp_load_?decRefCount@Foundation@shdfnd@physx@@SAXXZ 1001fc49 f   PhysX3Common_x86:PhysX3Common_x86.dll
 0001:0001ec53       ?decRefCount@Foundation@shdfnd@physx@@SAXXZ 1001fc53 f   PhysX3Common_x86:PhysX3Common_x86.dll
 0001:0001ec59       __imp_load_??0TriangleMesh@Gu@physx@@QAE@XZ 1001fc59 f   PhysX3Common_x86:PhysX3Common_x86.dll
 0001:0001ec63       ??0TriangleMesh@Gu@physx@@QAE@XZ 1001fc63 f   PhysX3Common_x86:PhysX3Common_x86.dll
 0001:0001ec69       __imp_load_?checkMeshIndicesSize@TriangleMesh@Gu@physx@@QAEXXZ 1001fc69 f   PhysX3Common_x86:PhysX3Common_x86.dll
 0001:0001ec73       ?checkMeshIndicesSize@TriangleMesh@Gu@physx@@QAEXXZ 1001fc73 f   PhysX3Common_x86:PhysX3Common_x86.dll
 0001:0001ec79       __imp_load_??1TriangleMesh@Gu@physx@@UAE@XZ 1001fc79 f   PhysX3Common_x86:PhysX3Common_x86.dll
 0001:0001ec83       ??1TriangleMesh@Gu@physx@@UAE@XZ 1001fc83 f   PhysX3Common_x86:PhysX3Common_x86.dll
 0001:0001ec89       __imp_load_??0HeightField@Gu@physx@@QAE@PAVGuMeshFactory@2@@Z 1001fc89 f   PhysX3Common_x86:PhysX3Common_x86.dll
 0001:0001ec93       ??0HeightField@Gu@physx@@QAE@PAVGuMeshFactory@2@@Z 1001fc93 f   PhysX3Common_x86:PhysX3Common_x86.dll
 0001:0001ec99       __imp_load_?loadFromDesc@HeightField@Gu@physx@@QAE_NABVPxHeightFieldDesc@3@_N@Z 1001fc99 f   PhysX3Common_x86:PhysX3Common_x86.dll
 0001:0001eca3       ?loadFromDesc@HeightField@Gu@physx@@QAE_NABVPxHeightFieldDesc@3@_N@Z 1001fca3 f   PhysX3Common_x86:PhysX3Common_x86.dll
 0001:0001eca9       __imp_load_?releaseMemory@HeightField@Gu@physx@@QAEX_N@Z 1001fca9 f   PhysX3Common_x86:PhysX3Common_x86.dll
 0001:0001ecb3       ?releaseMemory@HeightField@Gu@physx@@QAEX_N@Z 1001fcb3 f   PhysX3Common_x86:PhysX3Common_x86.dll
 0001:0001ecb9       __imp_load_?exportExtraData@TriangleMesh@Gu@physx@@UAEXAAVPxSerializationContext@3@@Z 1001fcb9 f   PhysX3Common_x86:PhysX3Common_x86.dll
 0001:0001ecc3       ?exportExtraData@TriangleMesh@Gu@physx@@UAEXAAVPxSerializationContext@3@@Z 1001fcc3 f   PhysX3Common_x86:PhysX3Common_x86.dll
 0001:0001ecc9       __imp_load_?getConcreteTypeName@PxTriangleMesh@physx@@UBEPBDXZ 1001fcc9 f   PhysX3Common_x86:PhysX3Common_x86.dll
 0001:0001ecd3       ?getConcreteTypeName@PxTriangleMesh@physx@@UBEPBDXZ 1001fcd3 f   PhysX3Common_x86:PhysX3Common_x86.dll
 0001:0001ecd9       __imp_load_?getLocalBounds@TriangleMesh@Gu@physx@@UBE?AVPxBounds3@3@XZ 1001fcd9 f   PhysX3Common_x86:PhysX3Common_x86.dll
 0001:0001ece3       ?getLocalBounds@TriangleMesh@Gu@physx@@UBE?AVPxBounds3@3@XZ 1001fce3 f   PhysX3Common_x86:PhysX3Common_x86.dll
 0001:0001ece9       __imp_load_?getNbTriangles@TriangleMesh@Gu@physx@@UBEIXZ 1001fce9 f   PhysX3Common_x86:PhysX3Common_x86.dll
 0001:0001ecf3       ?getNbTriangles@TriangleMesh@Gu@physx@@UBEIXZ 1001fcf3 f   PhysX3Common_x86:PhysX3Common_x86.dll
 0001:0001ecf9       __imp_load_?getNbVertices@TriangleMesh@Gu@physx@@UBEIXZ 1001fcf9 f   PhysX3Common_x86:PhysX3Common_x86.dll
 0001:0001ed03       ?getNbVertices@TriangleMesh@Gu@physx@@UBEIXZ 1001fd03 f   PhysX3Common_x86:PhysX3Common_x86.dll
 0001:0001ed09       __imp_load_?getReferenceCount@TriangleMesh@Gu@physx@@UBEIXZ 1001fd09 f   PhysX3Common_x86:PhysX3Common_x86.dll
 0001:0001ed13       ?getReferenceCount@TriangleMesh@Gu@physx@@UBEIXZ 1001fd13 f   PhysX3Common_x86:PhysX3Common_x86.dll
 0001:0001ed19       __imp_load_?getTriangleMaterialIndex@TriangleMesh@Gu@physx@@UBEGI@Z 1001fd19 f   PhysX3Common_x86:PhysX3Common_x86.dll
 0001:0001ed23       ?getTriangleMaterialIndex@TriangleMesh@Gu@physx@@UBEGI@Z 1001fd23 f   PhysX3Common_x86:PhysX3Common_x86.dll
 0001:0001ed29       __imp_load_?getTriangleMeshFlags@TriangleMesh@Gu@physx@@UBE?AV?$PxFlags@W4Enum@PxTriangleMeshFlag@physx@@E@3@XZ 1001fd29 f   PhysX3Common_x86:PhysX3Common_x86.dll
 0001:0001ed33       ?getTriangleMeshFlags@TriangleMesh@Gu@physx@@UBE?AV?$PxFlags@W4Enum@PxTriangleMeshFlag@physx@@E@3@XZ 1001fd33 f   PhysX3Common_x86:PhysX3Common_x86.dll
 0001:0001ed39       __imp_load_?getTriangles@TriangleMesh@Gu@physx@@UBEPBXXZ 1001fd39 f   PhysX3Common_x86:PhysX3Common_x86.dll
 0001:0001ed43       ?getTriangles@TriangleMesh@Gu@physx@@UBEPBXXZ 1001fd43 f   PhysX3Common_x86:PhysX3Common_x86.dll
 0001:0001ed49       __imp_load_?getTrianglesRemap@TriangleMesh@Gu@physx@@UBEPBIXZ 1001fd49 f   PhysX3Common_x86:PhysX3Common_x86.dll
 0001:0001ed53       ?getTrianglesRemap@TriangleMesh@Gu@physx@@UBEPBIXZ 1001fd53 f   PhysX3Common_x86:PhysX3Common_x86.dll
 0001:0001ed59       __imp_load_?getVertices@TriangleMesh@Gu@physx@@UBEPBVPxVec3@3@XZ 1001fd59 f   PhysX3Common_x86:PhysX3Common_x86.dll
 0001:0001ed63       ?getVertices@TriangleMesh@Gu@physx@@UBEPBVPxVec3@3@XZ 1001fd63 f   PhysX3Common_x86:PhysX3Common_x86.dll
 0001:0001ed69       __imp_load_?isKindOf@PxTriangleMesh@physx@@MBE_NPBD@Z 1001fd69 f   PhysX3Common_x86:PhysX3Common_x86.dll
 0001:0001ed73       ?isKindOf@PxTriangleMesh@physx@@MBE_NPBD@Z 1001fd73 f   PhysX3Common_x86:PhysX3Common_x86.dll
 0001:0001ed79       __imp_load_?onRefCountZero@TriangleMesh@Gu@physx@@UAEXXZ 1001fd79 f   PhysX3Common_x86:PhysX3Common_x86.dll
 0001:0001ed83       ?onRefCountZero@TriangleMesh@Gu@physx@@UAEXXZ 1001fd83 f   PhysX3Common_x86:PhysX3Common_x86.dll
 0001:0001ed89       __imp_load_?release@TriangleMesh@Gu@physx@@UAEXXZ 1001fd89 f   PhysX3Common_x86:PhysX3Common_x86.dll
 0001:0001ed93       ?release@TriangleMesh@Gu@physx@@UAEXXZ 1001fd93 f   PhysX3Common_x86:PhysX3Common_x86.dll
 0001:0001ed99       __imp_load_?setupMeshInterface@InternalTriangleMesh@physx@@QAEXXZ 1001fd99 f   PhysX3Common_x86:PhysX3Common_x86.dll
 0001:0001eda3       ?setupMeshInterface@InternalTriangleMesh@physx@@QAEXXZ 1001fda3 f   PhysX3Common_x86:PhysX3Common_x86.dll
 0001:0001eda9       ??$PFromRva@PAP6GHXZ@@YGPAP6GHXZK@Z 1001fda9 f i delayimp:delayhlp.obj
 0001:0001edbb       ??$PFromRva@PAPAUHINSTANCE__@@@@YGPAPAUHINSTANCE__@@K@Z 1001fdbb f i delayimp:delayhlp.obj
 0001:0001edcd       ??$PFromRva@PAU_IMAGE_IMPORT_BY_NAME@@@@YGPAU_IMAGE_IMPORT_BY_NAME@@K@Z 1001fdcd f i delayimp:delayhlp.obj
 0001:0001eddf       ??$PFromRva@PAU_IMAGE_THUNK_DATA32@@@@YGPAU_IMAGE_THUNK_DATA32@@K@Z 1001fddf f i delayimp:delayhlp.obj
 0001:0001edf1       ??$PFromRva@PBD@@YGPBDK@Z  1001fdf1 f i delayimp:delayhlp.obj
 0001:0001ee03       ??$PFromRva@PBUImgDelayDescr@@@@YGPBUImgDelayDescr@@K@Z 1001fe03 f i delayimp:delayhlp.obj
 0001:0001ee15       ??$PFromRva@PBU_IMAGE_THUNK_DATA32@@@@YGPBU_IMAGE_THUNK_DATA32@@K@Z 1001fe15 f i delayimp:delayhlp.obj
 0001:0001ee27       ?CountOfImports@@YGIPBU_IMAGE_THUNK_DATA32@@@Z 1001fe27 f i delayimp:delayhlp.obj
 0001:0001ee59       ?IndexFromPImgThunkData@@YGIPBU_IMAGE_THUNK_DATA32@@0@Z 1001fe59 f i delayimp:delayhlp.obj
 0001:0001efb3       _HRESULT_FROM_WIN32@4      1001ffb3 f i delayimp:delayhlp.obj
 0001:0001efcb       ___FUnloadDelayLoadedDLL2@4 1001ffcb f   delayimp:delayhlp.obj
 0001:0001f03f       ___HrLoadAllImportsForDll@4 1002003f f   delayimp:delayhlp.obj
 0001:0001f0a1       ___delayLoadHelper2@8      100200a1 f   delayimp:delayhlp.obj
 0001:0001f2c0       _strstr                    100202c0 f   LIBCMT:strstr.obj
 0001:0001f530       _memset                    10020530 f   LIBCMT:memset.obj
 0001:0001f5c0       __fpmath                   100205c0 f   LIBCMT:fpinit.obj
 0001:0001f5d7       ___setfflag                100205d7 f   LIBCMT:fpinit.obj
 0001:0001f5ea       __cfltcvt_init             100205ea f   LIBCMT:fpinit.obj
 0001:0001f64a       ??0type_info@@AAE@ABV0@@Z  1002064a f   LIBCMT:typinfo.obj
 0001:0001f655       ??1type_info@@UAE@XZ       10020655 f   LIBCMT:typinfo.obj
 0001:0001f663       ??4type_info@@AAEAAV0@ABV0@@Z 10020663 f   LIBCMT:typinfo.obj
 0001:0001f668       ??8type_info@@QBE_NABV0@@Z 10020668 f   LIBCMT:typinfo.obj
 0001:0001f686       ??9type_info@@QBE_NABV0@@Z 10020686 f   LIBCMT:typinfo.obj
 0001:0001f6a5       ??_Gtype_info@@UAEPAXI@Z   100206a5 f i LIBCMT:typinfo.obj
 0001:0001f6a5       ??_Etype_info@@UAEPAXI@Z   100206a5 f i LIBCMT:typinfo.obj
 0001:0001f6c4       ?_name_internal_method@type_info@@QBEPBDPAU__type_info_node@@@Z 100206c4 f   LIBCMT:typinfo.obj
 0001:0001f6d6       ?_type_info_dtor_internal_method@type_info@@QAEXXZ 100206d6 f   LIBCMT:typinfo.obj
 0001:0001f6de       ?before@type_info@@QBE_NABV1@@Z 100206de f   LIBCMT:typinfo.obj
 0001:0001f6fe       ?name@type_info@@QBEPBDPAU__type_info_node@@@Z 100206fe f   LIBCMT:typinfo.obj
 0001:0001f710       ?raw_name@type_info@@QBEPBDXZ 10020710 f   LIBCMT:typinfo.obj
 0001:0001f714       ??_V@YAXPAX@Z              10020714 f   LIBCMT:delete2.obj
 0001:0001f719       ??_U@YAPAXI@Z              10020719 f   LIBCMT:new2.obj
 0001:0001f730       __alloca_probe_16          10020730 f   LIBCMT:alloca16.obj
 0001:0001f746       __alloca_probe_8           10020746     LIBCMT:alloca16.obj
 0001:0001f760       __ftoui3                   10020760 f   LIBCMT:ftol3.obj
 0001:0001f76f       __ftoul3                   1002076f f   LIBCMT:ftol3.obj
 0001:0001f77e       __ftol3                    1002077e f   LIBCMT:ftol3.obj
 0001:0001f78b       __ftol3_NaN                1002078b f   LIBCMT:ftol3.obj
 0001:0001f7a3       __ftol3_work               100207a3 f   LIBCMT:ftol3.obj
 0001:0001f829       __ftol3_common             10020829 f   LIBCMT:ftol3.obj
 0001:0001f8eb       __ftol3_arg_error          100208eb f   LIBCMT:ftol3.obj
 0001:0001f8fd       __ftol3_except             100208fd f   LIBCMT:ftol3.obj
 0001:0001f941       __dtoui3                   10020941 f   LIBCMT:ftol3.obj
 0001:0001f950       __dtoul3                   10020950 f   LIBCMT:ftol3.obj
 0001:0001f95f       __dtol3                    1002095f f   LIBCMT:ftol3.obj
 0001:0001f96c       __dtol3_NaN                1002096c f   LIBCMT:ftol3.obj
 0001:0001f989       __dtol3_work               10020989 f   LIBCMT:ftol3.obj
 0001:0001fa6e       __ultod3                   10020a6e f   LIBCMT:ftol3.obj
 0001:0001faff       __ltod3                    10020aff f   LIBCMT:ftol3.obj
 0001:0001fb40       _memcpy                    10020b40 f   LIBCMT:memcpy.obj
 0001:00020184       ___clean_type_info_names   10021184 f   LIBCMT:tncleanup.obj
 0001:00020190       ___libm_sse2_powf          10021190 f   LIBCMT:powf_sse2.obj
 0001:00020843       __chgsign                  10021843 f   LIBCMT:ieeemisc.obj
 0001:00020870       __chgsignf                 10021870 f   LIBCMT:ieeemisc.obj
 0001:00020891       __copysign                 10021891 f   LIBCMT:ieeemisc.obj
 0001:000208b9       __copysignf                100218b9 f   LIBCMT:ieeemisc.obj
 0001:000208d5       __finite                   100218d5 f   LIBCMT:ieeemisc.obj
 0001:000208ed       __fpclass                  100218ed f   LIBCMT:ieeemisc.obj
 0001:00020989       __isnan                    10021989 f   LIBCMT:ieeemisc.obj
 0001:000209bc       __logb                     100219bc f   LIBCMT:ieeemisc.obj
 0001:00020a9d       __nextafter                10021a9d f   LIBCMT:ieeemisc.obj
 0001:00020d3d       __scalb                    10021d3d f   LIBCMT:ieeemisc.obj
 0001:00020d55       ??3@YAXPAX@Z               10021d55 f   LIBCMT:delete.obj
 0001:00020d5a       __get_printf_count_output  10021d5a f   LIBCMT:printf.obj
 0001:00020d6f       __printf_l                 10021d6f f   LIBCMT:printf.obj
 0001:00020d86       __printf_p                 10021d86 f   LIBCMT:printf.obj
 0001:00020d9c       __printf_p_l               10021d9c f   LIBCMT:printf.obj
 0001:00020db3       __printf_s_l               10021db3 f   LIBCMT:printf.obj
 0001:00020dca       __set_printf_count_output  10021dca f   LIBCMT:printf.obj
 0001:00020df2       _printf                    10021df2 f   LIBCMT:printf.obj
 0001:00020ea1       _printf_s                  10021ea1 f   LIBCMT:printf.obj
 0001:00020eb7       ___libm_sse2_cosf          10021eb7 f   LIBCMT:cosf_sse2.obj
 0001:00021004       ___libm_sse2_sinf          10022004 f   LIBCMT:sinf_sse2.obj
 0001:00021150       __chkstk                   10022150 f   LIBCMT:chkstk.obj
 0001:00021150       __alloca_probe             10022150 f   LIBCMT:chkstk.obj
 0001:0002117b       __get_purecall_handler     1002217b f   LIBCMT:purevirt.obj
 0001:00021188       __purecall                 10022188 f   LIBCMT:purevirt.obj
 0001:000211aa       __set_purecall_handler     100221aa f   LIBCMT:purevirt.obj
 0001:000211cf       __CRT_INIT@12              100221cf f   LIBCMT:dllcrt0.obj
 0001:00021341       __DllMainCRTStartup@12     10022341 f   LIBCMT:dllcrt0.obj
 0001:00021472       ___DllXcptFilter           10022472 f   LIBCMT:dllcrt0.obj
 0001:00021497       ___isa_available_init      10022497 f   LIBCMT:cpu_disp.obj
 0001:00021610       _strchr                    10022610 f   LIBCMT:strchr.obj
 0001:0002167e       ___from_strstr_to_strchr   1002267e     LIBCMT:strchr.obj
 0001:0002173b       __VEC_memset               1002273b f   LIBCMT:p4_memset.obj
 0001:00021803       ??0_LocaleUpdate@@QAE@PAUlocaleinfo_struct@@@Z 10022803 f i LIBCMT:cvt.obj
 0001:0002188b       ??1_LocaleUpdate@@QAE@XZ   1002288b f i LIBCMT:cvt.obj
 0001:00021899       ?GetLocaleT@_LocaleUpdate@@QAEPAUlocaleinfo_struct@@XZ 10022899 f i LIBCMT:cvt.obj
 0001:0002189c       ?strrchr@@YAPADPADH@Z      1002289c f i LIBCMT:cvt.obj
 0001:000218a5       __cfltcvt                  100228a5 f   LIBCMT:cvt.obj
 0001:000218c6       __cfltcvt_l                100228c6 f   LIBCMT:cvt.obj
 0001:0002194c       __cftoa                    1002294c f   LIBCMT:cvt.obj
 0001:0002196a       __cftoa_l                  1002296a f   LIBCMT:cvt.obj
 0001:00021cc6       __cftoe                    10022cc6 f   LIBCMT:cvt.obj
 0001:00021e35       __cftoe_l                  10022e35 f   LIBCMT:cvt.obj
 0001:00021f03       __cftof                    10022f03 f   LIBCMT:cvt.obj
 0001:0002200a       __cftof_l                  1002300a f   LIBCMT:cvt.obj
 0001:000220cb       __cftog                    100230cb f   LIBCMT:cvt.obj
 0001:000220e9       __cftog_l                  100230e9 f   LIBCMT:cvt.obj
 0001:000221e8       __cropzeros                100231e8 f   LIBCMT:cvt.obj
 0001:000221f9       __cropzeros_l              100231f9 f   LIBCMT:cvt.obj
 0001:00022279       __fassign                  10023279 f   LIBCMT:cvt.obj
 0001:00022291       __fassign_l                10023291 f   LIBCMT:cvt.obj
 0001:000222d3       __forcdecpt                100232d3 f   LIBCMT:cvt.obj
 0001:000222e4       __forcdecpt_l              100232e4 f   LIBCMT:cvt.obj
 0001:00022358       __invoke_watson_if_error   10023358 f i LIBCMT:cvt.obj
 0001:00022378       __positive                 10023378 f   LIBCMT:cvt.obj
 0001:000223ba       __setdefaultprecision      100233ba f   LIBCMT:fp8.obj
 0001:000223e1       __initp_misc_cfltcvt_tab   100233e1 f   LIBCMT:cmiscdat.obj
 0001:00022400       _strcmp                    10023400 f   LIBCMT:strcmp.obj
 0001:0002248c       ?_Name_base@type_info@@CAPBDPBV1@PAU__type_info_node@@@Z 1002348c f   LIBCMT:typname.obj
 0001:0002257d       ?_Name_base_internal@type_info@@CAPBDPBV1@PAU__type_info_node@@@Z 1002357d f   LIBCMT:typname.obj
 0001:00022687       ?_Type_info_dtor@type_info@@CAXPAV1@@Z 10023687 f   LIBCMT:typname.obj
 0001:000226f8       ?_Type_info_dtor_internal@type_info@@CAXPAV1@@Z 100236f8 f   LIBCMT:typname.obj
 0001:00022769       ___clean_type_info_names_internal 10023769 f   LIBCMT:typname.obj
 0001:000227bc       ___unDNameHelper           100237bc f   LIBCMT:typname.obj
 0001:000227ea       ??0bad_alloc@std@@QAE@ABV01@@Z 100237ea f i LIBCMT:new.obj
 0001:00022805       ??0bad_alloc@std@@QAE@XZ   10023805 f i LIBCMT:new.obj
 0001:0002282b       ??1bad_alloc@std@@UAE@XZ   1002382b f i LIBCMT:new.obj
 0001:00022836       ??2@YAPAXI@Z               10023836 f   LIBCMT:new.obj
 0001:00022887       ??_Ebad_alloc@std@@UAEPAXI@Z 10023887 f i LIBCMT:new.obj
 0001:00022887       ??_Gbad_alloc@std@@UAEPAXI@Z 10023887 f i LIBCMT:new.obj
 0001:000228ac       __errcode                  100238ac f   LIBCMT:fpexcept.obj
 0001:000228de       __except1                  100238de f   LIBCMT:fpexcept.obj
 0001:000229a6       __except2                  100239a6 f   LIBCMT:fpexcept.obj
 0001:00022aa6       __handle_exc               10023aa6 f   LIBCMT:fpexcept.obj
 0001:00022c84       __handle_qnan1             10023c84 f   LIBCMT:fpexcept.obj
 0001:00022cd4       __handle_qnan2             10023cd4 f   LIBCMT:fpexcept.obj
 0001:00022d34       __raise_exc                10023d34 f   LIBCMT:fpexcept.obj
 0001:00022d55       __raise_exc_ex             10023d55 f   LIBCMT:fpexcept.obj
 0001:0002303a       __raise_excf               1002403a f   LIBCMT:fpexcept.obj
 0001:0002305b       __set_errno_from_matherr   1002405b f   LIBCMT:fpexcept.obj
 0001:00023088       __umatherr                 10024088 f   LIBCMT:fpexcept.obj
 0001:00023128       __add_exp                  10024128 f   LIBCMT:util.obj
 0001:00023157       __decomp                   10024157 f   LIBCMT:util.obj
 0001:00023229       __get_exp                  10024229 f   LIBCMT:util.obj
 0001:00023242       __set_bexp                 10024242 f   LIBCMT:util.obj
 0001:0002326b       __set_exp                  1002426b f   LIBCMT:util.obj
 0001:0002329a       __sptype                   1002429a f   LIBCMT:util.obj
 0001:000232f5       ___clrfp_sse2              100242f5 f   LIBCMT:fpctrl.obj
 0001:00023316       ___ctrlfp_sse2             10024316 f   LIBCMT:fpctrl.obj
 0001:0002334f       ___fclrf_sse2              1002434f f   LIBCMT:fpctrl.obj
 0001:0002336c       ___get_fpsr_sse2           1002436c f   LIBCMT:fpctrl.obj
 0001:00023388       ___set_fpsr_sse2           10024388 f   LIBCMT:fpctrl.obj
 0001:000233fe       ___set_statfp_sse2         100243fe f   LIBCMT:fpctrl.obj
 0001:00023417       ___statfp_sse2             10024417 f   LIBCMT:fpctrl.obj
 0001:0002342c       __clrfp                    1002442c f   LIBCMT:fpctrl.obj
 0001:0002343d       __ctrlfp                   1002443d f   LIBCMT:fpctrl.obj
 0001:00023468       __set_statfp               10024468 f   LIBCMT:fpctrl.obj
 0001:000234c0       __statfp                   100244c0 f   LIBCMT:fpctrl.obj
 0001:000234d0       _ldexp                     100244d0 f   LIBCMT:ldexp.obj
 0001:000236bc       _free                      100246bc f   LIBCMT:free.obj
 0001:000236f4       ?_invalid_parameter@@YAXPBG00II@Z 100246f4 f   LIBCMT:invarg.obj
 0001:000236f9       ?_invoke_watson@@YAXPBG00II@Z 100246f9 f   LIBCMT:invarg.obj
 0001:00023711       __call_reportfault         10024711 f   LIBCMT:invarg.obj
 0001:00023836       __get_invalid_parameter_handler 10024836 f   LIBCMT:invarg.obj
 0001:00023843       __initp_misc_invarg        10024843 f   LIBCMT:invarg.obj
 0001:00023850       __invalid_parameter        10024850 f   LIBCMT:invarg.obj
 0001:0002387b       __invalid_parameter_noinfo 1002487b f   LIBCMT:invarg.obj
 0001:0002388b       __invalid_parameter_noinfo_noreturn 1002488b f   LIBCMT:invarg.obj
 0001:000238a6       __invoke_watson            100248a6 f   LIBCMT:invarg.obj
 0001:000238d1       __set_invalid_parameter_handler 100248d1 f   LIBCMT:invarg.obj
 0001:000238f6       ___initstdio               100248f6 f   LIBCMT:_file.obj
 0001:00023969       ___endstdio                10024969 f   LIBCMT:_file.obj
 0001:00023990       ___iob_func                10024990 f   LIBCMT:_file.obj
 0001:00023996       __lock_file                10024996 f   LIBCMT:_file.obj
 0001:000239d5       __lock_file2               100249d5 f   LIBCMT:_file.obj
 0001:00023a05       __unlock_file              10024a05 f   LIBCMT:_file.obj
 0001:00023a3f       __unlock_file2             10024a3f f   LIBCMT:_file.obj
 0001:00023a6c       __vprintf_l                10024a6c f   LIBCMT:vprintf.obj
 0001:00023a87       __vprintf_p                10024a87 f   LIBCMT:vprintf.obj
 0001:00023aa1       __vprintf_p_l              10024aa1 f   LIBCMT:vprintf.obj
 0001:00023abc       __vprintf_s_l              10024abc f   LIBCMT:vprintf.obj
 0001:00023ad7       _vprintf                   10024ad7 f   LIBCMT:vprintf.obj
 0001:00023af1       _vprintf_helper            10024af1 f   LIBCMT:vprintf.obj
 0001:00023b7e       _vprintf_s                 10024b7e f   LIBCMT:vprintf.obj
 0001:00023b98       __ftbuf                    10024b98 f   LIBCMT:_sftbuf.obj
 0001:00023bc9       __stbuf                    10024bc9 f   LIBCMT:_sftbuf.obj
 0001:00023c6f       __output_l                 10024c6f f   LIBCMT:output.obj
 0001:000247ef       _get_int64_arg             100257ef f i LIBCMT:output.obj
 0001:00024802       _get_int_arg               10025802 f i LIBCMT:output.obj
 0001:00024812       _get_short_arg             10025812 f i LIBCMT:output.obj
 0001:0002490f       ___doserrno                1002590f f   LIBCMT:dosmap.obj
 0001:00024922       __dosmaperr                10025922 f   LIBCMT:dosmap.obj
 0001:00024943       __errno                    10025943 f   LIBCMT:dosmap.obj
 0001:00024956       __get_doserrno             10025956 f   LIBCMT:dosmap.obj
 0001:00024979       __get_errno                10025979 f   LIBCMT:dosmap.obj
 0001:0002499c       __get_errno_from_oserr     1002599c f   LIBCMT:dosmap.obj
 0001:000249dd       __set_doserrno             100259dd f   LIBCMT:dosmap.obj
 0001:000249fc       __set_errno                100259fc f   LIBCMT:dosmap.obj
 0001:00024a20       __SEH_prolog4              10025a20 f   LIBCMT:sehprolg4.obj
 0001:00024a65       __SEH_epilog4              10025a65 f   LIBCMT:sehprolg4.obj
 0001:00024ac0       __except_handler4          10025ac0 f   LIBCMT:chandler4.obj
 0001:00024c60       _cos                       10025c60 f   LIBCMT:cos.obj
 0001:00024ca0       __CIcos                    10025ca0 f   LIBCMT:cos.obj
 0001:00024cdb       __CIcos_default            10025cdb f   LIBCMT:cos.obj
 0001:00024cef       __cos_default              10025cef     LIBCMT:cos.obj
 0001:00024d90       _sin                       10025d90 f   LIBCMT:sin.obj
 0001:00024dd0       __CIsin                    10025dd0 f   LIBCMT:sin.obj
 0001:00024e0b       __CIsin_default            10025e0b f   LIBCMT:sin.obj
 0001:00024e1f       __sin_default              10025e1f     LIBCMT:sin.obj
 0001:00024eb9       __set_abort_behavior       10025eb9 f   LIBCMT:abort.obj
 0001:00024ed8       _abort                     10025ed8 f   LIBCMT:abort.obj
 0001:00024f1b       ___getlocaleinfo           10025f1b f   LIBCMT:inithelp.obj
 0001:000250f4       __initp_misc_purevirt      100260f4 f   LIBCMT:inithelp.obj
 0001:00025101       __XcptFilter               10026101 f   LIBCMT:winxfltr.obj
 0001:0002525c       ___CppXcptFilter           1002625c f   LIBCMT:winxfltr.obj
 0001:000252ae       ___get_flsindex            100262ae f   LIBCMT:tidtable.obj
 0001:000252b4       ___threadhandle            100262b4 f   LIBCMT:tidtable.obj
 0001:000252ba       ___threadid                100262ba f   LIBCMT:tidtable.obj
 0001:000252c0       __freefls@4                100262c0 f   LIBCMT:tidtable.obj
 0001:000253f5       __freeptd                  100263f5 f   LIBCMT:tidtable.obj
 0001:0002542b       __getptd                   1002642b f   LIBCMT:tidtable.obj
 0001:00025443       __getptd_noexit            10026443 f   LIBCMT:tidtable.obj
 0001:000254b2       __initptd                  100264b2 f   LIBCMT:tidtable.obj
 0001:00025565       __mtinit                   10026565 f   LIBCMT:tidtable.obj
 0001:000255db       __mtterm                   100265db f   LIBCMT:tidtable.obj
 0001:000255f8       ___copy_path_to_wide_string 100265f8 f   LIBCMT:crt0dat.obj
 0001:000256aa       ___copy_to_char            100266aa f   LIBCMT:crt0dat.obj
 0001:0002575f       ___crtCorExitProcess       1002675f f   LIBCMT:crt0dat.obj
 0001:00025793       ___crtExitProcess          10026793 f   LIBCMT:crt0dat.obj
 0001:000257a9       ___freeCrtMemory           100267a9 f   LIBCMT:crt0dat.obj
 0001:000258b6       __amsg_exit                100268b6 f   LIBCMT:crt0dat.obj
 0001:000258d2       __c_exit                   100268d2 f   LIBCMT:crt0dat.obj
 0001:000258e1       __cexit                    100268e1 f   LIBCMT:crt0dat.obj
 0001:000258f0       __cinit                    100268f0 f   LIBCMT:crt0dat.obj
 0001:00025974       __exit                     10026974 f   LIBCMT:crt0dat.obj
 0001:00025988       __exit_app                 10026988 f   LIBCMT:crt0dat.obj
 0001:00025996       __get_pgmptr               10026996 f   LIBCMT:crt0dat.obj
 0001:000259c5       __get_wpgmptr              100269c5 f   LIBCMT:crt0dat.obj
 0001:000259f4       __init_pointers            100269f4 f   LIBCMT:crt0dat.obj
 0001:00025a62       __initterm_e               10026a62 f   LIBCMT:crt0dat.obj
 0001:00025a84       __lockexit                 10026a84 f   LIBCMT:crt0dat.obj
 0001:00025a8d       __unlockexit               10026a8d f   LIBCMT:crt0dat.obj
 0001:00025bc5       _exit                      10026bc5 f   LIBCMT:crt0dat.obj
 0001:00025bd9       __get_heap_handle          10026bd9 f   LIBCMT:heapinit.obj
 0001:00025bdf       __heap_init                10026bdf f   LIBCMT:heapinit.obj
 0001:00025bf4       __heap_term                10026bf4 f   LIBCMT:heapinit.obj
 0001:00025bfc       __ioinit                   10026bfc f   LIBCMT:ioinit.obj
 0001:00025eb0       __ioterm                   10026eb0 f   LIBCMT:ioinit.obj
 0001:00025f02       __set_pgmptr               10026f02 f i LIBCMT:stdargv.obj
 0001:00025f0f       __setargv                  10026f0f f   LIBCMT:stdargv.obj
 0001:0002613e       __setenvp                  1002713e f   LIBCMT:stdenvp.obj
 0001:0002621f       ___security_init_cookie    1002721f f   LIBCMT:gs_support.obj
 0001:000262bb       _DllMain@12                100272bb f   LIBCMT:dllmain.obj
 0001:000262c1       ___crtGetEnvironmentStringsA 100272c1 f   LIBCMT:a_env.obj
 0001:0002637b       ___crtCloseThreadpoolTimer 1002737b f   LIBCMT:winapisupp.obj
 0001:00026392       ___crtCloseThreadpoolWait  10027392 f   LIBCMT:winapisupp.obj
 0001:000263a9       ___crtCreateEventExW       100273a9 f   LIBCMT:winapisupp.obj
 0001:000263e4       ___crtCreateSemaphoreExW   100273e4 f   LIBCMT:winapisupp.obj
 0001:0002641e       ___crtCreateSymbolicLinkW  1002741e f   LIBCMT:winapisupp.obj
 0001:00026447       ___crtCreateThreadpoolTimer 10027447 f   LIBCMT:winapisupp.obj
 0001:00026468       ___crtCreateThreadpoolWait 10027468 f   LIBCMT:winapisupp.obj
 0001:00026489       ___crtFlsAlloc             10027489 f   LIBCMT:winapisupp.obj
 0001:000264a7       ___crtFlsFree              100274a7 f   LIBCMT:winapisupp.obj
 0001:000264c6       ___crtFlsGetValue          100274c6 f   LIBCMT:winapisupp.obj
 0001:000264e5       ___crtFlsSetValue          100274e5 f   LIBCMT:winapisupp.obj
 0001:00026507       ___crtFlushProcessWriteBuffers 10027507 f   LIBCMT:winapisupp.obj
 0001:00026517       ___crtFreeLibraryWhenCallbackReturns 10027517 f   LIBCMT:winapisupp.obj
 0001:00026531       ___crtGetCurrentProcessorNumber 10027531 f   LIBCMT:winapisupp.obj
 0001:00026543       ___crtGetFileInformationByHandleEx 10027543 f   LIBCMT:winapisupp.obj
 0001:0002656f       ___crtGetLogicalProcessorInformation 1002756f f   LIBCMT:winapisupp.obj
 0001:00026595       ___crtGetShowWindowMode    10027595 f   LIBCMT:winapisupp.obj
 0001:000265b8       ___crtGetTickCount64       100275b8 f   LIBCMT:winapisupp.obj
 0001:000265d0       ___crtInitializeCriticalSectionEx 100275d0 f   LIBCMT:winapisupp.obj
 0001:000265fe       ___crtIsPackagedApp        100275fe f   LIBCMT:winapisupp.obj
 0001:0002663e       ___crtLoadWinApiPointers   1002763e f   LIBCMT:winapisupp.obj
 0001:000268c9       ___crtSetFileInformationByHandle 100278c9 f   LIBCMT:winapisupp.obj
 0001:000268f5       ___crtSetThreadStackGuarantee 100278f5 f   LIBCMT:winapisupp.obj
 0001:00026910       ___crtSetThreadpoolTimer   10027910 f   LIBCMT:winapisupp.obj
 0001:00026930       ___crtSetThreadpoolWait    10027930 f   LIBCMT:winapisupp.obj
 0001:0002694d       ___crtSetUnhandledExceptionFilter 1002794d f   LIBCMT:winapisupp.obj
 0001:0002695b       ___crtSleep                1002795b f   LIBCMT:winapisupp.obj
 0001:00026969       ___crtTerminateProcess     10027969 f   LIBCMT:winapisupp.obj
 0001:0002697e       ___crtUnhandledException   1002797e f   LIBCMT:winapisupp.obj
 0001:00026994       ___crtWaitForThreadpoolTimerCallbacks 10027994 f   LIBCMT:winapisupp.obj
 0001:000269ae       __calloc_crt               100279ae f   LIBCMT:crtheap.obj
 0001:000269f6       __malloc_crt               100279f6 f   LIBCMT:crtheap.obj
 0001:00026a3d       __realloc_crt              10027a3d f   LIBCMT:crtheap.obj
 0001:00026a87       __recalloc_crt             10027a87 f   LIBCMT:crtheap.obj
 0001:00026ad5       __set_malloc_crt_max_wait  10027ad5 f   LIBCMT:crtheap.obj
 0001:00026ae8       _wait_a_bit                10027ae8 f i LIBCMT:crtheap.obj
 0001:00026b0c       __RTC_Initialize           10027b0c f   LIBCMT:initsect.obj
 0001:00026b2c       __RTC_Terminate            10027b2c f   LIBCMT:initsect.obj
 0001:00026b4c       ___addlocaleref            10027b4c f   LIBCMT:localref.obj
 0001:00026be1       ___freetlocinfo            10027be1 f   LIBCMT:localref.obj
 0001:00026d3b       ___removelocaleref         10027d3b f   LIBCMT:localref.obj
 0001:00026ddb       ___updatetlocinfo          10027ddb f   LIBCMT:localref.obj
 0001:00026e5b       __updatetlocinfoEx_nolock  10027e5b f   LIBCMT:localref.obj
 0001:00026ea6       ___initmbctable            10027ea6 f   LIBCMT:mbctype.obj
 0001:0002715d       ___updatetmbcinfo          1002815d f   LIBCMT:mbctype.obj
 0001:00027203       __getmbcp                  10028203 f   LIBCMT:mbctype.obj
 0001:00027234       __setmbcp                  10028234 f   LIBCMT:mbctype.obj
 0001:000273dc       __setmbcp_nolock           100283dc f   LIBCMT:mbctype.obj
 0001:000275c7       ___isascii                 100285c7 f i LIBCMT:_ctype.obj
 0001:000275d7       ___iscsym                  100285d7 f i LIBCMT:_ctype.obj
 0001:000275f7       ___iscsymf                 100285f7 f i LIBCMT:_ctype.obj
 0001:00027614       ___toascii                 10028614 f i LIBCMT:_ctype.obj
 0001:0002761f       __isalnum_l                1002861f f i LIBCMT:_ctype.obj
 0001:00027677       __isalpha_l                10028677 f i LIBCMT:_ctype.obj
 0001:000276cf       __isblank_l                100286cf f i LIBCMT:_ctype.obj
 0001:00027729       __iscntrl_l                10028729 f i LIBCMT:_ctype.obj
 0001:0002777b       __iscsym_l                 1002877b f i LIBCMT:_ctype.obj
 0001:0002779c       __iscsymf_l                1002879c f i LIBCMT:_ctype.obj
 0001:000277bd       __isdigit_l                100287bd f i LIBCMT:_ctype.obj
 0001:0002780f       __isgraph_l                1002880f f i LIBCMT:_ctype.obj
 0001:00027867       __islower_l                10028867 f i LIBCMT:_ctype.obj
 0001:000278b9       __isprint_l                100288b9 f i LIBCMT:_ctype.obj
 0001:00027911       __ispunct_l                10028911 f i LIBCMT:_ctype.obj
 0001:00027963       __isspace_l                10028963 f i LIBCMT:_ctype.obj
 0001:000279b5       __isupper_l                100289b5 f i LIBCMT:_ctype.obj
 0001:00027a07       __isxdigit_l               10028a07 f i LIBCMT:_ctype.obj
 0001:00027a5f       _isalnum                   10028a5f f i LIBCMT:_ctype.obj
 0001:00027a8c       _isalpha                   10028a8c f i LIBCMT:_ctype.obj
 0001:00027ab9       _isblank                   10028ab9 f i LIBCMT:_ctype.obj
 0001:00027aee       _iscntrl                   10028aee f i LIBCMT:_ctype.obj
 0001:00027b19       _isdigit                   10028b19 f i LIBCMT:_ctype.obj
 0001:00027b44       _isgraph                   10028b44 f i LIBCMT:_ctype.obj
 0001:00027b71       _islower                   10028b71 f i LIBCMT:_ctype.obj
 0001:00027b9c       _isprint                   10028b9c f i LIBCMT:_ctype.obj
 0001:00027bc9       _ispunct                   10028bc9 f i LIBCMT:_ctype.obj
 0001:00027bf4       _isspace                   10028bf4 f i LIBCMT:_ctype.obj
 0001:00027c1f       _isupper                   10028c1f f i LIBCMT:_ctype.obj
 0001:00027c4a       _isxdigit                  10028c4a f i LIBCMT:_ctype.obj
 0001:00027c77       __tolower                  10028c77 f   LIBCMT:tolower.obj
 0001:00027c82       __tolower_l                10028c82 f   LIBCMT:tolower.obj
 0001:00027dc5       _tolower                   10028dc5 f   LIBCMT:tolower.obj
 0001:00027df1       _strcpy_s                  10028df1 f   LIBCMT:strcpy_s.obj
 0001:00027e50       _strlen                    10028e50 f   LIBCMT:strlen.obj
 0001:00027ee0       _memmove                   10028ee0 f   LIBCMT:memmove.obj
 0001:00028530       _strrchr                   10029530 f   LIBCMT:strrchr.obj
 0001:00028667       __fptostr                  10029667 f   LIBCMT:_fptostr.obj
 0001:00028717       ___crt_atoflt_l            10029717 f   LIBCMT:atodbl.obj
 0001:000287bb       __atodbl                   100297bb f   LIBCMT:atodbl.obj
 0001:000287d0       __atodbl_l                 100297d0 f   LIBCMT:atodbl.obj
 0001:0002885e       __atoflt                   1002985e f   LIBCMT:atodbl.obj
 0001:00028873       __atoflt_l                 10029873 f   LIBCMT:atodbl.obj
 0001:0002888b       __atoldbl                  1002988b f   LIBCMT:atodbl.obj
 0001:000288a0       __atoldbl_l                100298a0 f   LIBCMT:atodbl.obj
 0001:0002892f       ___dtold                   1002992f f   LIBCMT:cfout.obj
 0001:000289f7       __fltout2                  100299f7 f   LIBCMT:cfout.obj
 0001:00028a85       @__security_check_cookie@4 10029a85 f   LIBCMT:secchk.obj
 0001:00028aa0       __alldvrm                  10029aa0 f   LIBCMT:lldvrm.obj
 0001:00028b80       __aullshr                  10029b80 f   LIBCMT:ullshr.obj
 0001:00028b9f       __get_output_format        10029b9f f   LIBCMT:outputformat.obj
 0001:00028ba5       __set_output_format        10029ba5 f   LIBCMT:outputformat.obj
 0001:00028bd7       __controlfp_s              10029bd7 f   LIBCMT:contrlfp.obj
 0001:00028c34       __fptrap                   10029c34 f   LIBCMT:crt0fp.obj
 0001:00028c3d       __lock                     10029c3d f   LIBCMT:mlock.obj
 0001:00028c71       __lockerr_exit             10029c71 f   LIBCMT:mlock.obj
 0001:00028c91       __mtdeletelocks            10029c91 f   LIBCMT:mlock.obj
 0001:00028ce5       __mtinitlocknum            10029ce5 f   LIBCMT:mlock.obj
 0001:00028d8e       __mtinitlocks              10029d8e f   LIBCMT:mlock.obj
 0001:00028dc7       __unlock                   10029dc7 f   LIBCMT:mlock.obj
 0001:00028ddc       __heap_alloc               10029ddc f i LIBCMT:malloc.obj
 0001:00028e19       _malloc                    10029e19 f   LIBCMT:malloc.obj
 0001:00028eab       ??0Block@_HeapManager@@QAE@XZ 10029eab f i LIBCMT:undname.obj
 0001:00028eb1       ??0DName@@QAE@AAPBDD@Z     10029eb1 f   LIBCMT:undname.obj
 0001:00028f6a       ??0DName@@QAE@ABV0@@Z      10029f6a f i LIBCMT:undname.obj
 0001:00028f80       ??0DName@@QAE@D@Z          10029f80 f   LIBCMT:undname.obj
 0001:00028fac       ??0DName@@QAE@PAV0@@Z      10029fac f   LIBCMT:undname.obj
 0001:00028ff9       ??0DName@@QAE@PBD@Z        10029ff9 f   LIBCMT:undname.obj
 0001:00029033       ??0DName@@QAE@W4DNameStatus@@@Z 1002a033 f   LIBCMT:undname.obj
 0001:00029076       ??0DName@@QAE@XZ           1002a076 f i LIBCMT:undname.obj
 0001:00029087       ??0DName@@QAE@_J@Z         1002a087 f   LIBCMT:undname.obj
 0001:0002911a       ??0DName@@QAE@_K@Z         1002a11a f   LIBCMT:undname.obj
 0001:00029187       ??0DNameNode@@IAE@XZ       1002a187 f   LIBCMT:undname.obj
 0001:00029190       ??0DNameStatusNode@@AAE@W4DNameStatus@@@Z 1002a190 f   LIBCMT:undname.obj
 0001:000291b3       ??0Replicator@@QAE@XZ      1002a1b3 f i LIBCMT:undname.obj
 0001:000291b9       ??0UnDecorator@@QAE@PADPBDHP6APADJ@ZK@Z 1002a1b9 f i LIBCMT:undname.obj
 0001:00029222       ??0charNode@@QAE@D@Z       1002a222 f   LIBCMT:undname.obj
 0001:00029237       ??0pDNameNode@@QAE@PAVDName@@@Z 1002a237 f   LIBCMT:undname.obj
 0001:0002925f       ??0pairNode@@QAE@PAVDNameNode@@0@Z 1002a25f f   LIBCMT:undname.obj
 0001:0002927e       ??0pcharNode@@QAE@PBDH@Z   1002a27e f   LIBCMT:undname.obj
 0001:000292d5       ??2@YAPAXIAAV_HeapManager@@H@Z 1002a2d5 f i LIBCMT:undname.obj
 0001:000292ea       ??4DName@@QAEAAV0@ABV0@@Z  1002a2ea f   LIBCMT:undname.obj
 0001:00029300       ??4DName@@QAEAAV0@D@Z      1002a300 f i LIBCMT:undname.obj
 0001:0002932c       ??4DName@@QAEAAV0@PAV0@@Z  1002a32c f   LIBCMT:undname.obj
 0001:00029375       ??4DName@@QAEAAV0@PBD@Z    1002a375 f   LIBCMT:undname.obj
 0001:000293a7       ??4DName@@QAEAAV0@W4DNameStatus@@@Z 1002a3a7 f   LIBCMT:undname.obj
 0001:000293dc       ??AReplicator@@QBE?AVDName@@H@Z 1002a3dc f   LIBCMT:undname.obj
 0001:00029418       ??BUnDecorator@@QAEPADXZ   1002a418 f i LIBCMT:undname.obj
 0001:00029597       ??H@YA?AVDName@@DABV0@@Z   1002a597 f i LIBCMT:undname.obj
 0001:000295bb       ??H@YA?AVDName@@PBDABV0@@Z 1002a5bb f i LIBCMT:undname.obj
 0001:000295df       ??H@YA?AVDName@@W4DNameStatus@@ABV0@@Z 1002a5df f i LIBCMT:undname.obj
 0001:00029603       ??HDName@@QBE?AV0@ABV0@@Z  1002a603 f   LIBCMT:undname.obj
 0001:00029625       ??HDName@@QBE?AV0@D@Z      1002a625 f   LIBCMT:undname.obj
 0001:00029647       ??HDName@@QBE?AV0@PAV0@@Z  1002a647 f   LIBCMT:undname.obj
 0001:00029669       ??HDName@@QBE?AV0@PBD@Z    1002a669 f   LIBCMT:undname.obj
 0001:0002968b       ??HDName@@QBE?AV0@W4DNameStatus@@@Z 1002a68b f   LIBCMT:undname.obj
 0001:000296ad       ??YDName@@QAEAAV0@ABV0@@Z  1002a6ad f   LIBCMT:undname.obj
 0001:000296f0       ??YDName@@QAEAAV0@D@Z      1002a6f0 f   LIBCMT:undname.obj
 0001:00029740       ??YDName@@QAEAAV0@PAV0@@Z  1002a740 f   LIBCMT:undname.obj
 0001:000297a5       ??YDName@@QAEAAV0@PBD@Z    1002a7a5 f   LIBCMT:undname.obj
 0001:00029806       ??YDName@@QAEAAV0@W4DNameStatus@@@Z 1002a806 f   LIBCMT:undname.obj
 0001:00029846       ??YReplicator@@QAEAAV0@ABVDName@@@Z 1002a846 f   LIBCMT:undname.obj
 0001:00029890       ??_5DName@@QAEAAV0@ABV0@@Z 1002a890 f   LIBCMT:undname.obj
 0001:000298ac       ?Constructor@_HeapManager@@QAEXP6APAXI@ZP6AXPAX@Z@Z 1002a8ac f i LIBCMT:undname.obj
 0001:000298c9       ?Destructor@_HeapManager@@QAEXXZ 1002a8c9 f i LIBCMT:undname.obj
 0001:000298ef       ?UScore@UnDecorator@@SAPBDW4Tokens@@@Z 1002a8ef f   LIBCMT:undname.obj
 0001:0002990c       ?append@DName@@AAEXPAVDNameNode@@@Z 1002a90c f   LIBCMT:undname.obj
 0001:00029952       ?composeDeclaration@UnDecorator@@CA?AVDName@@ABV2@@Z 1002a952 f i LIBCMT:undname.obj
 0001:0002a688       ?doAccessSpecifiers@UnDecorator@@SAHXZ 1002b688 f i LIBCMT:undname.obj
 0001:0002a696       ?doAllocationLanguage@UnDecorator@@SAHXZ 1002b696 f i LIBCMT:undname.obj
 0001:0002a6a4       ?doAllocationModel@UnDecorator@@SAHXZ 1002b6a4 f i LIBCMT:undname.obj
 0001:0002a6b2       ?doEcsu@UnDecorator@@SAHXZ 1002b6b2 f i LIBCMT:undname.obj
 0001:0002a6c0       ?doEllipsis@UnDecorator@@SAHXZ 1002b6c0 f i LIBCMT:undname.obj
 0001:0002a6ce       ?doFunctionReturns@UnDecorator@@SAHXZ 1002b6ce f i LIBCMT:undname.obj
 0001:0002a6dc       ?doMSKeywords@UnDecorator@@SAHXZ 1002b6dc f i LIBCMT:undname.obj
 0001:0002a6e9       ?doMemberTypes@UnDecorator@@SAHXZ 1002b6e9 f i LIBCMT:undname.obj
 0001:0002a6f7       ?doNameOnly@UnDecorator@@SAHXZ 1002b6f7 f i LIBCMT:undname.obj
 0001:0002a702       ?doNoIdentCharCheck@UnDecorator@@SAHXZ 1002b702 f i LIBCMT:undname.obj
 0001:0002a70d       ?doPchar@DName@@AAEXPBDH@Z 1002b70d f   LIBCMT:undname.obj
 0001:0002a795       ?doPtr64@UnDecorator@@SAHXZ 1002b795 f i LIBCMT:undname.obj
 0001:0002a7a3       ?doRestrictionSpec@UnDecorator@@SAHXZ 1002b7a3 f i LIBCMT:undname.obj
 0001:0002a7b1       ?doThisTypes@UnDecorator@@SAHXZ 1002b7b1 f i LIBCMT:undname.obj
 0001:0002a7c3       ?doThrowTypes@UnDecorator@@SAHXZ 1002b7c3 f i LIBCMT:undname.obj
 0001:0002a7d1       ?doTypeOnly@UnDecorator@@SAHXZ 1002b7d1 f i LIBCMT:undname.obj
 0001:0002a7dc       ?doUnderScore@UnDecorator@@SAHXZ 1002b7dc f i LIBCMT:undname.obj
 0001:0002a7e7       ?getArgumentList@UnDecorator@@CA?AVDName@@XZ 1002b7e7 f   LIBCMT:undname.obj
 0001:0002a8f3       ?getArgumentTypes@UnDecorator@@CA?AVDName@@XZ 1002b8f3 f   LIBCMT:undname.obj
 0001:0002a9d1       ?getArrayType@UnDecorator@@CA?AVDName@@ABV2@@Z 1002b9d1 f i LIBCMT:undname.obj
 0001:0002abd3       ?getBasedType@UnDecorator@@CA?AVDName@@XZ 1002bbd3 f   LIBCMT:undname.obj
 0001:0002ac6a       ?getBasicDataType@UnDecorator@@CA?AVDName@@ABV2@@Z 1002bc6a f   LIBCMT:undname.obj
 0001:0002b041       ?getCallIndex@UnDecorator@@CA?AVDName@@XZ 1002c041 f i LIBCMT:undname.obj
 0001:0002b055       ?getCallingConvention@UnDecorator@@CA?AVDName@@XZ 1002c055 f   LIBCMT:undname.obj
 0001:0002b114       ?getDataIndirectType@UnDecorator@@CA?AVDName@@ABV2@PBD0H@Z 1002c114 f   LIBCMT:undname.obj
 0001:0002b6b1       ?getDataIndirectType@UnDecorator@@CA?AVDName@@XZ 1002c6b1 f i LIBCMT:undname.obj
 0001:0002b6ea       ?getDataType@UnDecorator@@CA?AVDName@@PAV2@@Z 1002c6ea f   LIBCMT:undname.obj
 0001:0002b7bc       ?getDecoratedName@UnDecorator@@CA?AVDName@@XZ 1002c7bc f   LIBCMT:undname.obj
 0001:0002ba08       ?getDimension@UnDecorator@@CA?AVDName@@_N@Z 1002ca08 f   LIBCMT:undname.obj
 0001:0002bb3f       ?getDispatchTarget@UnDecorator@@CA?AVDName@@XZ 1002cb3f f   LIBCMT:undname.obj
 0001:0002bb9a       ?getDisplacement@UnDecorator@@CA?AVDName@@XZ 1002cb9a f i LIBCMT:undname.obj
 0001:0002bbae       ?getECSUDataType@UnDecorator@@CA?AVDName@@XZ 1002cbae f   LIBCMT:undname.obj
 0001:0002bcc1       ?getECSUName@UnDecorator@@CA?AVDName@@XZ 1002ccc1 f i LIBCMT:undname.obj
 0001:0002bcd2       ?getEnumType@UnDecorator@@CA?AVDName@@XZ 1002ccd2 f i LIBCMT:undname.obj
 0001:0002bdb6       ?getExtendedDataIndirectType@UnDecorator@@CA?AVDName@@AAPBDAA_NH@Z 1002cdb6 f   LIBCMT:undname.obj
 0001:0002bf5b       ?getExternalDataType@UnDecorator@@CA?AVDName@@ABV2@@Z 1002cf5b f i LIBCMT:undname.obj
 0001:0002bfd4       ?getFunctionIndirectType@UnDecorator@@CA?AVDName@@ABV2@@Z 1002cfd4 f   LIBCMT:undname.obj
 0001:0002c3ca       ?getGuardNumber@UnDecorator@@CA?AVDName@@XZ 1002d3ca f i LIBCMT:undname.obj
 0001:0002c3de       ?getLastChar@DName@@QBEDXZ 1002d3de f i LIBCMT:undname.obj
 0001:0002c3ec       ?getLastChar@DNameStatusNode@@UBEDXZ 1002d3ec f i LIBCMT:undname.obj
 0001:0002c3f8       ?getLastChar@charNode@@UBEDXZ 1002d3f8 f i LIBCMT:undname.obj
 0001:0002c3fc       ?getLastChar@pDNameNode@@UBEDXZ 1002d3fc f i LIBCMT:undname.obj
 0001:0002c411       ?getLastChar@pairNode@@UBEDXZ 1002d411 f i LIBCMT:undname.obj
 0001:0002c42b       ?getLastChar@pcharNode@@UBEDXZ 1002d42b f i LIBCMT:undname.obj
 0001:0002c43d       ?getLexicalFrame@UnDecorator@@CA?AVDName@@XZ 1002d43d f i LIBCMT:undname.obj
 0001:0002c47a       ?getMemory@_HeapManager@@QAEPAXIH@Z 1002d47a f   LIBCMT:undname.obj
 0001:0002c4ff       ?getNumberOfDimensions@UnDecorator@@CAHXZ 1002d4ff f   LIBCMT:undname.obj
 0001:0002c560       ?getOperatorName@UnDecorator@@CA?AVDName@@_NPA_N@Z 1002d560 f i LIBCMT:undname.obj
 0001:0002cb3a       ?getPointerType@UnDecorator@@CA?AVDName@@ABV2@0@Z 1002db3a f i LIBCMT:undname.obj
 0001:0002cb58       ?getPointerTypeArray@UnDecorator@@CA?AVDName@@ABV2@0@Z 1002db58 f i LIBCMT:undname.obj
 0001:0002cb76       ?getPrimaryDataType@UnDecorator@@CA?AVDName@@ABV2@@Z 1002db76 f   LIBCMT:undname.obj
 0001:0002cd2e       ?getPtrRefDataType@UnDecorator@@CA?AVDName@@ABV2@H@Z 1002dd2e f i LIBCMT:undname.obj
 0001:0002ce18       ?getPtrRefType@UnDecorator@@CA?AVDName@@ABV2@0PBD@Z 1002de18 f   LIBCMT:undname.obj
 0001:0002cf14       ?getReferenceType@UnDecorator@@CA?AVDName@@ABV2@0PBD@Z 1002df14 f i LIBCMT:undname.obj
 0001:0002cf30       ?getRestrictionSpec@UnDecorator@@CA?AVDName@@XZ 1002df30 f   LIBCMT:undname.obj
 0001:0002d01e       ?getReturnType@UnDecorator@@CA?AVDName@@PAV2@@Z 1002e01e f   LIBCMT:undname.obj
 0001:0002d04d       ?getScope@UnDecorator@@CA?AVDName@@XZ 1002e04d f   LIBCMT:undname.obj
 0001:0002d424       ?getScopedName@UnDecorator@@CA?AVDName@@XZ 1002e424 f   LIBCMT:undname.obj
 0001:0002d51f       ?getSignedDimension@UnDecorator@@CA?AVDName@@XZ 1002e51f f   LIBCMT:undname.obj
 0001:0002d572       ?getStorageConvention@UnDecorator@@CA?AVDName@@XZ 1002e572 f i LIBCMT:undname.obj
 0001:0002d583       ?getString@DName@@QBEPADPAD0@Z 1002e583 f i LIBCMT:undname.obj
 0001:0002d599       ?getString@DName@@QBEPADPADH@Z 1002e599 f i LIBCMT:undname.obj
 0001:0002d5f7       ?getString@DNameStatusNode@@UBEPADPAD0@Z 1002e5f7 f i LIBCMT:undname.obj
 0001:0002d61e       ?getString@charNode@@UBEPADPAD0@Z 1002e61e f i LIBCMT:undname.obj
 0001:0002d633       ?getString@pDNameNode@@UBEPADPAD0@Z 1002e633 f i LIBCMT:undname.obj
 0001:0002d650       ?getString@pairNode@@UBEPADPAD0@Z 1002e650 f i LIBCMT:undname.obj
 0001:0002d67a       ?getString@pcharNode@@UBEPADPAD0@Z 1002e67a f i LIBCMT:undname.obj
 0001:0002d695       ?getStringEncoding@UnDecorator@@CA?AVDName@@PADH@Z 1002e695 f   LIBCMT:undname.obj
 0001:0002d738       ?getStringHelper@@YAPADPAD00H@Z 1002e738 f i LIBCMT:undname.obj
 0001:0002d76d       ?getSymbolName@UnDecorator@@CA?AVDName@@XZ 1002e76d f i LIBCMT:undname.obj
 0001:0002d7b5       ?getTemplateArgumentList@UnDecorator@@CA?AVDName@@XZ 1002e7b5 f   LIBCMT:undname.obj
 0001:0002da2e       ?getTemplateConstant@UnDecorator@@CA?AVDName@@XZ 1002ea2e f   LIBCMT:undname.obj
 0001:0002dd2e       ?getTemplateName@UnDecorator@@CA?AVDName@@_N@Z 1002ed2e f   LIBCMT:undname.obj
 0001:0002de88       ?getThisType@UnDecorator@@CA?AVDName@@XZ 1002ee88 f i LIBCMT:undname.obj
 0001:0002dec2       ?getThrowTypes@UnDecorator@@CA?AVDName@@XZ 1002eec2 f   LIBCMT:undname.obj
 0001:0002df4c       ?getTypeEncoding@UnDecorator@@CAHXZ 1002ef4c f i LIBCMT:undname.obj
 0001:0002e43c       ?getVCallThunkType@UnDecorator@@CA?AVDName@@XZ 1002f43c f i LIBCMT:undname.obj
 0001:0002e477       ?getVbTableType@UnDecorator@@CA?AVDName@@ABV2@@Z 1002f477 f i LIBCMT:undname.obj
 0001:0002e48c       ?getVdispMapType@UnDecorator@@CA?AVDName@@ABV2@@Z 1002f48c f i LIBCMT:undname.obj
 0001:0002e4e2       ?getVfTableType@UnDecorator@@CA?AVDName@@ABV2@@Z 1002f4e2 f i LIBCMT:undname.obj
 0001:0002e647       ?getZName@UnDecorator@@CA?AVDName@@_N0@Z 1002f647 f   LIBCMT:undname.obj
 0001:0002e871       ?haveTemplateParameters@UnDecorator@@SAHXZ 1002f871 f i LIBCMT:undname.obj
 0001:0002e87c       ?isArray@DName@@QBEHXZ     1002f87c f i LIBCMT:undname.obj
 0001:0002e886       ?isComArray@DName@@QBEHXZ  1002f886 f i LIBCMT:undname.obj
 0001:0002e890       ?isEmpty@DName@@QBEHXZ     1002f890 f i LIBCMT:undname.obj
 0001:0002e898       ?isFull@Replicator@@QBEHXZ 1002f898 f i LIBCMT:undname.obj
 0001:0002e8a1       ?isNoTE@DName@@QBEHXZ      1002f8a1 f i LIBCMT:undname.obj
 0001:0002e8ab       ?isPinPtr@DName@@QBEHXZ    1002f8ab f i LIBCMT:undname.obj
 0001:0002e8b5       ?isPtrRef@DName@@QBEHXZ    1002f8b5 f i LIBCMT:undname.obj
 0001:0002e8bf       ?isUDC@DName@@QBEHXZ       1002f8bf f i LIBCMT:undname.obj
 0001:0002e8d0       ?isUDTThunk@DName@@QBEHXZ  1002f8d0 f i LIBCMT:undname.obj
 0001:0002e8e1       ?isVCallThunk@DName@@QBEHXZ 1002f8e1 f i LIBCMT:undname.obj
 0001:0002e8eb       ?isValid@DName@@QBEHXZ     1002f8eb f i LIBCMT:undname.obj
 0001:0002e8f5       ?length@DName@@QBEHXZ      1002f8f5 f i LIBCMT:undname.obj
 0001:0002e902       ?length@DNameStatusNode@@UBEHXZ 1002f902 f i LIBCMT:undname.obj
 0001:0002e906       ?length@charNode@@UBEHXZ   1002f906 f i LIBCMT:undname.obj
 0001:0002e90a       ?length@pDNameNode@@UBEHXZ 1002f90a f i LIBCMT:undname.obj
 0001:0002e91e       ?length@pairNode@@UBEHXZ   1002f91e f i LIBCMT:undname.obj
 0001:0002e947       ?length@pcharNode@@UBEHXZ  1002f947 f i LIBCMT:undname.obj
 0001:0002e94b       ?make@DNameStatusNode@@SAPAV1@W4DNameStatus@@@Z 1002f94b f i LIBCMT:undname.obj
 0001:0002e9d1       ?setIsArray@DName@@QAEXXZ  1002f9d1 f i LIBCMT:undname.obj
 0001:0002e9d9       ?setIsComArray@DName@@QAEXXZ 1002f9d9 f i LIBCMT:undname.obj
 0001:0002e9e1       ?setIsNoTE@DName@@QAEXXZ   1002f9e1 f i LIBCMT:undname.obj
 0001:0002e9e9       ?setIsPinPtr@DName@@QAEXXZ 1002f9e9 f i LIBCMT:undname.obj
 0001:0002e9f1       ?setIsUDC@DName@@QAEXXZ    1002f9f1 f i LIBCMT:undname.obj
 0001:0002e9fe       ?setIsVCallThunk@DName@@QAEXXZ 1002f9fe f i LIBCMT:undname.obj
 0001:0002ea06       ?setPtrRef@DName@@QAEAAV1@XZ 1002fa06 f i LIBCMT:undname.obj
 0001:0002ea10       ?status@DName@@QBE?AW4DNameStatus@@XZ 1002fa10 f i LIBCMT:undname.obj
 0001:0002ea78       ___unDName                 1002fa78 f   LIBCMT:undname.obj
 0001:0002eb1b       ___unDNameEx               1002fb1b f   LIBCMT:undname.obj
 0001:0002ebc0       __local_unwind4            1002fbc0 f   LIBCMT:exsup4.obj
 0001:0002ec96       __seh_longjmp_unwind4@4    1002fc96 f   LIBCMT:exsup4.obj
 0001:0002ecb2       @_EH4_CallFilterFunc@8     1002fcb2 f   LIBCMT:exsup4.obj
 0001:0002ecc9       @_EH4_TransferToHandler@8  1002fcc9 f   LIBCMT:exsup4.obj
 0001:0002ece2       @_EH4_GlobalUnwind2@8      1002fce2 f   LIBCMT:exsup4.obj
 0001:0002ecfb       @_EH4_LocalUnwind@16       1002fcfb f   LIBCMT:exsup4.obj
 0001:0002ed12       ??0__non_rtti_object@std@@QAE@ABV01@@Z 1002fd12 f   LIBCMT:stdexcpt.obj
 0001:0002ed2d       ??0__non_rtti_object@std@@QAE@PBD@Z 1002fd2d f   LIBCMT:stdexcpt.obj
 0001:0002ed48       ??0bad_cast@std@@QAE@ABV01@@Z 1002fd48 f   LIBCMT:stdexcpt.obj
 0001:0002ed63       ??0bad_cast@std@@QAE@PBD@Z 1002fd63 f   LIBCMT:stdexcpt.obj
 0001:0002ed7f       ??0bad_typeid@std@@QAE@ABV01@@Z 1002fd7f f   LIBCMT:stdexcpt.obj
 0001:0002ed9a       ??0bad_typeid@std@@QAE@PBD@Z 1002fd9a f   LIBCMT:stdexcpt.obj
 0001:0002edb6       ??0exception@std@@QAE@ABQBD@Z 1002fdb6 f   LIBCMT:stdexcpt.obj
 0001:0002eddb       ??0exception@std@@QAE@ABQBDH@Z 1002fddb f   LIBCMT:stdexcpt.obj
 0001:0002edf6       ??0exception@std@@QAE@ABV01@@Z 1002fdf6 f   LIBCMT:stdexcpt.obj
 0001:0002ee19       ??0exception@std@@QAE@XZ   1002fe19 f   LIBCMT:stdexcpt.obj
 0001:0002ee2a       ??1__non_rtti_object@std@@UAE@XZ 1002fe2a f   LIBCMT:stdexcpt.obj
 0001:0002ee35       ??1bad_cast@std@@UAE@XZ    1002fe35 f   LIBCMT:stdexcpt.obj
 0001:0002ee40       ??1bad_typeid@std@@UAE@XZ  1002fe40 f   LIBCMT:stdexcpt.obj
 0001:0002ee4b       ??1exception@std@@UAE@XZ   1002fe4b f   LIBCMT:stdexcpt.obj
 0001:0002ee56       ??4exception@std@@QAEAAV01@ABV01@@Z 1002fe56 f   LIBCMT:stdexcpt.obj
 0001:0002ee89       ??_G__non_rtti_object@std@@UAEPAXI@Z 1002fe89 f i LIBCMT:stdexcpt.obj
 0001:0002ee89       ??_E__non_rtti_object@std@@UAEPAXI@Z 1002fe89 f i LIBCMT:stdexcpt.obj
 0001:0002eeae       ??_Ebad_cast@std@@UAEPAXI@Z 1002feae f i LIBCMT:stdexcpt.obj
 0001:0002eeae       ??_Gbad_cast@std@@UAEPAXI@Z 1002feae f i LIBCMT:stdexcpt.obj
 0001:0002eed3       ??_Gbad_typeid@std@@UAEPAXI@Z 1002fed3 f i LIBCMT:stdexcpt.obj
 0001:0002eed3       ??_Ebad_typeid@std@@UAEPAXI@Z 1002fed3 f i LIBCMT:stdexcpt.obj
 0001:0002eef8       ??_Eexception@std@@UAEPAXI@Z 1002fef8 f i LIBCMT:stdexcpt.obj
 0001:0002eef8       ??_Gexception@std@@UAEPAXI@Z 1002fef8 f i LIBCMT:stdexcpt.obj
 0001:0002ef1d       ?_Copy_str@exception@std@@AAEXPBD@Z 1002ff1d f   LIBCMT:stdexcpt.obj
 0001:0002ef5b       ?_Tidy@exception@std@@AAEXXZ 1002ff5b f   LIBCMT:stdexcpt.obj
 0001:0002ef77       ?what@exception@std@@UBEPBDXZ 1002ff77 f   LIBCMT:stdexcpt.obj
 0001:0002ef84       ?_query_new_handler@@YAP6AHI@ZXZ 1002ff84 f   LIBCMT:handler.obj
 0001:0002ef91       ?_set_new_handler@@YAP6AHI@ZH@Z 1002ff91 f   LIBCMT:handler.obj
 0001:0002ef9a       ?_set_new_handler@@YAP6AHI@ZP6AHI@Z@Z 1002ff9a f   LIBCMT:handler.obj
 0001:0002efcf       __callnewh                 1002ffcf f   LIBCMT:handler.obj
 0001:0002eff5       __initp_heap_handler       1002fff5 f   LIBCMT:handler.obj
 0001:0002f002       __CxxThrowException@8      10030002 f   LIBCMT:throw.obj
 0001:0002f065       __matherr                  10030065 f   LIBCMT:matherr.obj
 0001:0002f068       __crt_debugger_hook        10030068 f   LIBCMT:dbghook.obj
 0001:0002f070       __fcloseall                10030070 f   LIBCMT:closeall.obj
 0001:0002f10d       __fflush_nolock            1003010d f   LIBCMT:fflush.obj
 0001:0002f153       __flush                    10030153 f   LIBCMT:fflush.obj
 0001:0002f1b7       __flushall                 100301b7 f   LIBCMT:fflush.obj
 0001:0002f1c0       _fflush                    100301c0 f   LIBCMT:fflush.obj
 0001:0002f2fd       __output_s_l               100302fd f   LIBCMT:outputs.obj
 0001:0002ff85       __output_p_l               10030f85 f   LIBCMT:outputp.obj
 0001:000312bd       __validate_param_reuseA    100322bd f   LIBCMT:outputp.obj
 0001:000313f3       _get_crtdouble_arg         100323f3 f i LIBCMT:outputp.obj
 0001:000314f2       __fileno                   100324f2 f   LIBCMT:fileno.obj
 0001:00031516       __isatty                   10032516 f   LIBCMT:isatty.obj
 0001:0003156a       ___iswcsym                 1003256a f i LIBCMT:_wctype.obj
 0001:0003158e       ___iswcsymf                1003258e f i LIBCMT:_wctype.obj
 0001:000315b2       __isleadbyte_l             100325b2 f i LIBCMT:_wctype.obj
 0001:000315ec       __iswalnum_l               100325ec f i LIBCMT:_wctype.obj
 0001:00031600       __iswalpha_l               10032600 f i LIBCMT:_wctype.obj
 0001:00031614       __iswblank_l               10032614 f i LIBCMT:_wctype.obj
 0001:0003162f       __iswcntrl_l               1003262f f i LIBCMT:_wctype.obj
 0001:00031640       __iswcsym_l                10032640 f i LIBCMT:_wctype.obj
 0001:00031664       __iswcsymf_l               10032664 f i LIBCMT:_wctype.obj
 0001:00031688       __iswdigit_l               10032688 f i LIBCMT:_wctype.obj
 0001:00031699       __iswgraph_l               10032699 f i LIBCMT:_wctype.obj
 0001:000316ad       __iswlower_l               100326ad f i LIBCMT:_wctype.obj
 0001:000316be       __iswprint_l               100326be f i LIBCMT:_wctype.obj
 0001:000316d2       __iswpunct_l               100326d2 f i LIBCMT:_wctype.obj
 0001:000316e3       __iswspace_l               100326e3 f i LIBCMT:_wctype.obj
 0001:000316f4       __iswupper_l               100326f4 f i LIBCMT:_wctype.obj
 0001:00031705       __iswxdigit_l              10032705 f i LIBCMT:_wctype.obj
 0001:00031719       _isleadbyte                10032719 f i LIBCMT:_wctype.obj
 0001:0003172a       _iswalnum                  1003272a f i LIBCMT:_wctype.obj
 0001:0003173e       _iswalpha                  1003273e f i LIBCMT:_wctype.obj
 0001:00031752       _iswascii                  10032752 f i LIBCMT:_wctype.obj
 0001:00031764       _iswblank                  10032764 f i LIBCMT:_wctype.obj
 0001:0003177f       _iswcntrl                  1003277f f i LIBCMT:_wctype.obj
 0001:00031790       _iswdigit                  10032790 f i LIBCMT:_wctype.obj
 0001:000317a1       _iswgraph                  100327a1 f i LIBCMT:_wctype.obj
 0001:000317b5       _iswlower                  100327b5 f i LIBCMT:_wctype.obj
 0001:000317c6       _iswprint                  100327c6 f i LIBCMT:_wctype.obj
 0001:000317da       _iswpunct                  100327da f i LIBCMT:_wctype.obj
 0001:000317eb       _iswspace                  100327eb f i LIBCMT:_wctype.obj
 0001:000317fc       _iswupper                  100327fc f i LIBCMT:_wctype.obj
 0001:0003180d       _iswxdigit                 1003280d f i LIBCMT:_wctype.obj
 0001:00031821       __flsbuf                   10032821 f   LIBCMT:_flsbuf.obj
 0001:00031970       __wctomb_l                 10032970 f   LIBCMT:wctomb.obj
 0001:000319bf       __wctomb_s_l               100329bf f   LIBCMT:wctomb.obj
 0001:00031ae3       _wctomb                    10032ae3 f   LIBCMT:wctomb.obj
 0001:00031b16       _wctomb_s                  10032b16 f   LIBCMT:wctomb.obj
 0001:00031b40       __aulldvrm                 10032b40 f   LIBCMT:ulldvrm.obj
 0001:00031be0       __FindPESection            10032be0 f   LIBCMT:pesect.obj
 0001:00031c30       __IsNonwritableInCurrentImage 10032c30 f   LIBCMT:pesect.obj
 0001:00031cf0       __ValidateImageBase        10032cf0 f   LIBCMT:pesect.obj
 0001:00031d21       __sse2_mathfcns_init       10032d21 f   LIBCMT:mathfcns.obj
 0001:00031d30       __set_SSE2_enable          10032d30 f   LIBCMT:mathfcns.obj
 0001:00031d50       __CIcos_pentium4           10032d50 f   LIBCMT:cos_pentium4.obj
 0001:00031d68       __cos_pentium4             10032d68     LIBCMT:cos_pentium4.obj
 0001:00031f00       __trandisp1                10032f00 f   LIBCMT:87disp.obj
 0001:00031f67       __trandisp2                10032f67 f   LIBCMT:87disp.obj
 0001:00031ff3       __rttospopde               10032ff3     LIBCMT:87disp.obj
 0001:00031ff8       __rttospop                 10032ff8     LIBCMT:87disp.obj
 0001:00031ffa       __rtnospop                 10032ffa     LIBCMT:87disp.obj
 0001:00031ffc       __rttosnpop                10032ffc     LIBCMT:87disp.obj
 0001:00031ffd       __rtnospopde               10032ffd     LIBCMT:87disp.obj
 0001:00032004       __rtzeropop                10033004     LIBCMT:87disp.obj
 0001:00032006       __rtzeronpop               10033006     LIBCMT:87disp.obj
 0001:0003200b       __rtonepop                 1003300b     LIBCMT:87disp.obj
 0001:0003200d       __rtonenpop                1003300d     LIBCMT:87disp.obj
 0001:00032012       __tosnan1                  10033012     LIBCMT:87disp.obj
 0001:0003203d       __nosnan2                  1003303d     LIBCMT:87disp.obj
 0001:0003203f       __tosnan2                  1003303f     LIBCMT:87disp.obj
 0001:00032067       __nan2                     10033067     LIBCMT:87disp.obj
 0001:000320a6       __rtindfpop                100330a6     LIBCMT:87disp.obj
 0001:000320a8       __rtindfnpop               100330a8     LIBCMT:87disp.obj
 0001:000320b9       __rttosnpopde              100330b9     LIBCMT:87disp.obj
 0001:000320c3       __rtchsifneg               100330c3     LIBCMT:87disp.obj
 0001:000320d0       __twoToTOS                 100330d0 f   LIBCMT:common.obj
 0001:000320e5       __load_CW                  100330e5 f   LIBCMT:common.obj
 0001:000320fc       __convertTOStoQNaN         100330fc f   LIBCMT:common.obj
 0001:00032115       __fload_withFB             10033115 f   LIBCMT:common.obj
 0001:00032158       __checkTOS_withFB          10033158 f   LIBCMT:common.obj
 0001:0003216e       __fast_exit                1003316e f   LIBCMT:common.obj
 0001:0003217b       __math_exit                1003317b f   LIBCMT:common.obj
 0001:000321a5       __check_overflow_exit      100331a5 f   LIBCMT:common.obj
 0001:000321b9       __check_range_exit         100331b9 f   LIBCMT:common.obj
 0001:00032260       __startTwoArgErrorHandling 10033260 f   LIBCMT:genexcep.obj
 0001:00032277       __startOneArgErrorHandling 10033277 f   LIBCMT:genexcep.obj
 0001:000322c0       __CIsin_pentium4           100332c0 f   LIBCMT:sin_pentium4.obj
 0001:000322d8       __sin_pentium4             100332d8     LIBCMT:sin_pentium4.obj
 0001:00032488       ___fpecode                 10033488 f   LIBCMT:winsig.obj
 0001:00032491       ___get_sigabrt             10033491 f   LIBCMT:winsig.obj
 0001:0003249e       ___pxcptinfoptrs           1003349e f   LIBCMT:winsig.obj
 0001:000324a7       __initp_misc_winsig        100334a7 f   LIBCMT:winsig.obj
 0001:00032568       _raise                     10033568 f   LIBCMT:winsig.obj
 0001:0003275d       _signal                    1003375d f   LIBCMT:winsig.obj
 0001:000329b4       _strncpy_s                 100339b4 f   LIBCMT:strncpy_s.obj
 0001:00032b3c       __MallocaIsSizeInRange     10033b3c f i LIBCMT:a_loc.obj
 0001:00032b4d       __MarkAllocaS              10033b4d f i LIBCMT:a_loc.obj
 0001:00032b61       ___crtGetLocaleInfoA       10033b61 f   LIBCMT:a_loc.obj
 0001:00032b9b       __freea                    10033b9b f i LIBCMT:a_loc.obj
 0001:00032bb9       _GetTableIndexFromLcid     10033bb9 f   LIBCMT:winapinls.obj
 0001:00032bee       _GetTableIndexFromLocaleName 10033bee f   LIBCMT:winapinls.obj
 0001:00032c3c       ___crtCompareStringEx      10033c3c f   LIBCMT:winapinls.obj
 0001:00032c88       ___crtDownlevelLCIDToLocaleName 10033c88 f   LIBCMT:winapinls.obj
 0001:00032d04       ___crtDownlevelLocaleNameToLCID 10033d04 f   LIBCMT:winapinls.obj
 0001:00032d42       ___crtEnumSystemLocalesEx  10033d42 f   LIBCMT:winapinls.obj
 0001:00032d7f       ___crtGetDateFormatEx      10033d7f f   LIBCMT:winapinls.obj
 0001:00032dc8       ___crtGetLocaleInfoEx      10033dc8 f   LIBCMT:winapinls.obj
 0001:00032df7       ___crtGetTimeFormatEx      10033df7 f   LIBCMT:winapinls.obj
 0001:00032e2c       ___crtGetUserDefaultLocaleName 10033e2c f   LIBCMT:winapinls.obj
 0001:00032e57       ___crtIsValidLocaleName    10033e57 f   LIBCMT:winapinls.obj
 0001:00032e82       ___crtLCMapStringEx        10033e82 f   LIBCMT:winapinls.obj
 0001:00032ece       ___wcsnicmp_ascii          10033ece f   LIBCMT:winapinls.obj
 0001:00032f3c       __FF_MSGBANNER             10033f3c f   LIBCMT:crt0msg.obj
 0001:00032f75       __GET_RTERRMSG             10033f75 f   LIBCMT:crt0msg.obj
 0001:00032f99       __NMSG_WRITE               10033f99 f   LIBCMT:crt0msg.obj
 0001:00033156       ___onexitinit              10034156 f   LIBCMT:onexit.obj
 0001:00033185       __onexit                   10034185 f   LIBCMT:onexit.obj
 0001:00033281       _atexit                    10034281 f   LIBCMT:onexit.obj
 0001:00033296       ?_inconsistency@@YAXXZ     10034296 f   LIBCMT:hooks.obj
 0001:000332ce       ?terminate@@YAXXZ          100342ce f   LIBCMT:hooks.obj
 0001:00033302       ?unexpected@@YAXXZ         10034302 f   LIBCMT:hooks.obj
 0001:00033315       __initp_eh_hooks           10034315 f   LIBCMT:hooks.obj
 0001:00033326       __initp_misc_rand_s        10034326 f   LIBCMT:rand_s.obj
 0001:00033333       _rand_s                    10034333 f   LIBCMT:rand_s.obj
 0001:00033493       __ismbbalnum               10034493 f   LIBCMT:ismbbyte.obj
 0001:000334ac       __ismbbalnum_l             100344ac f   LIBCMT:ismbbyte.obj
 0001:000334c6       __ismbbalpha               100344c6 f   LIBCMT:ismbbyte.obj
 0001:000334df       __ismbbalpha_l             100344df f   LIBCMT:ismbbyte.obj
 0001:000334f9       __ismbbblank               100344f9 f   LIBCMT:ismbbyte.obj
 0001:0003351a       __ismbbblank_l             1003451a f   LIBCMT:ismbbyte.obj
 0001:0003353c       __ismbbgraph               1003453c f   LIBCMT:ismbbyte.obj
 0001:00033555       __ismbbgraph_l             10034555 f   LIBCMT:ismbbyte.obj
 0001:0003356f       __ismbbkalnum              1003456f f   LIBCMT:ismbbyte.obj
 0001:00033585       __ismbbkalnum_l            10034585 f   LIBCMT:ismbbyte.obj
 0001:0003359c       __ismbbkana                1003459c f   LIBCMT:ismbbyte.obj
 0001:000335ad       __ismbbkana_l              100345ad f   LIBCMT:ismbbyte.obj
 0001:000335f9       __ismbbkprint              100345f9 f   LIBCMT:ismbbyte.obj
 0001:0003360f       __ismbbkprint_l            1003460f f   LIBCMT:ismbbyte.obj
 0001:00033626       __ismbbkpunct              10034626 f   LIBCMT:ismbbyte.obj
 0001:0003363c       __ismbbkpunct_l            1003463c f   LIBCMT:ismbbyte.obj
 0001:00033653       __ismbblead                10034653 f   LIBCMT:ismbbyte.obj
 0001:00033669       __ismbblead_l              10034669 f   LIBCMT:ismbbyte.obj
 0001:00033680       __ismbbprint               10034680 f   LIBCMT:ismbbyte.obj
 0001:00033699       __ismbbprint_l             10034699 f   LIBCMT:ismbbyte.obj
 0001:000336b3       __ismbbpunct               100346b3 f   LIBCMT:ismbbyte.obj
 0001:000336c9       __ismbbpunct_l             100346c9 f   LIBCMT:ismbbyte.obj
 0001:000336e0       __ismbbtrail               100346e0 f   LIBCMT:ismbbyte.obj
 0001:000336f6       __ismbbtrail_l             100346f6 f   LIBCMT:ismbbyte.obj
 0001:0003370d       _realloc                   1003470d f   LIBCMT:realloc.obj
 0001:000337b8       __recalloc                 100347b8 f   LIBCMT:recalloc.obj
 0001:00033821       __calloc_impl              10034821 f   LIBCMT:calloc_impl.obj
 0001:0003389b       ___free_lconv_mon          1003489b f   LIBCMT:initmon.obj
 0001:00033997       ___init_monetary           10034997 f   LIBCMT:initmon.obj
 0001:00033d70       ___free_lconv_num          10034d70 f   LIBCMT:initnum.obj
 0001:00033dd7       ___init_numeric            10034dd7 f   LIBCMT:initnum.obj
 0001:00034015       ___free_lc_time            10035015 f   LIBCMT:inittime.obj
 0001:00034395       ___init_time               10035395 f   LIBCMT:inittime.obj
 0001:00034c04       _localeconv                10035c04 f   LIBCMT:lconv.obj
 0001:00034e4e       ___crtLCMapStringA         10035e4e f   LIBCMT:a_map.obj
 0001:00034f8c       ___crtGetStringTypeA       10035f8c f   LIBCMT:a_str.obj
 0001:00034fcc       __isctype                  10035fcc f   LIBCMT:isctype.obj
 0001:00034ffb       __isctype_l                10035ffb f   LIBCMT:isctype.obj
 0001:000350ac       ___init_dummy              100360ac f   LIBCMT:wsetloca.obj
 0001:000350af       __locterm                  100360af f   LIBCMT:wsetloca.obj
 0001:00035101       ____setlc_active_func      10036101 f   LIBCMT:wsetloca.obj
 0001:00035107       ____unguarded_readlc_active_add_func 10036107 f   LIBCMT:wsetloca.obj
 0001:0003510d       ___copy_locale_name        1003610d f   LIBCMT:wsetloca.obj
 0001:00035171       ___create_locale           10036171 f   LIBCMT:wsetloca.obj
 0001:0003517a       ___free_locale             1003617a f   LIBCMT:wsetloca.obj
 0001:0003517f       ___get_current_locale      1003617f f   LIBCMT:wsetloca.obj
 0001:00035184       ___lc_lctowcs              10036184 f   LIBCMT:wsetloca.obj
 0001:000351f2       ___lc_wcstolc              100361f2 f   LIBCMT:wsetloca.obj
 0001:0003531e       __configthreadlocale       1003631e f   LIBCMT:wsetloca.obj
 0001:000353a4       __create_locale            100363a4 f   LIBCMT:wsetloca.obj
 0001:00035406       __expandlocale             10036406 f   LIBCMT:wsetloca.obj
 0001:000356fd       __free_locale              100366fd f   LIBCMT:wsetloca.obj
 0001:000357b4       __get_current_locale       100367b4 f   LIBCMT:wsetloca.obj
 0001:00035863       __wcreate_locale           10036863 f   LIBCMT:wsetloca.obj
 0001:0003593a       __wcscats                  1003693a f   LIBCMT:wsetloca.obj
 0001:00035979       __wsetlocale               10036979 f   LIBCMT:wsetloca.obj
 0001:000362bb       __CopyMan                  100372bb f i LIBCMT:intrncvt.obj
 0001:000362d8       __FillZeroMan              100372d8 f i LIBCMT:intrncvt.obj
 0001:000362e7       __IncMan                   100372e7 f i LIBCMT:intrncvt.obj
 0001:00036349       __IsZeroMan                10037349 f i LIBCMT:intrncvt.obj
 0001:00036366       __RoundMan                 10037366 f i LIBCMT:intrncvt.obj
 0001:00036467       __ShrMan                   10037467 f i LIBCMT:intrncvt.obj
 0001:000364f5       __ZeroTail                 100374f5 f i LIBCMT:intrncvt.obj
 0001:0003653d       ___addl                    1003753d f i LIBCMT:intrncvt.obj
 0001:00036561       __ld12cvt                  10037561 f i LIBCMT:intrncvt.obj
 0001:00036acc       __ld12tod                  10037acc f   LIBCMT:intrncvt.obj
 0001:0003703e       __ld12tof                  1003803e f   LIBCMT:intrncvt.obj
 0001:000375b0       __ld12told                 100385b0 f   LIBCMT:intrncvt.obj
 0001:0003767f       ___STRINGTOLD_L            1003867f f   LIBCMT:strgtold.obj
 0001:000376da       ___ld12mul                 100386da f i LIBCMT:strgtold.obj
 0001:000379a6       ___multtenpow12            100389a6 f i LIBCMT:strgtold.obj
 0001:00037cf9       ___shl_12                  10038cf9 f i LIBCMT:strgtold.obj
 0001:00037d2a       ___shr_12                  10038d2a f i LIBCMT:strgtold.obj
 0001:00037d5a       ___strgtold12_l            10038d5a f   LIBCMT:strgtold.obj
 0001:00038502       _$I10_OUTPUT               10039502 f   LIBCMT:x10fout.obj
 0001:00038ed6       ___add_12                  10039ed6 f i LIBCMT:x10fout.obj
 0001:00038f48       ___raise_securityfailure   10039f48 f   LIBCMT:gs_report.obj
 0001:00038f87       ___report_gsfailure        10039f87 f   LIBCMT:gs_report.obj
 0001:00039082       ___report_rangecheckfailure 1003a082 f   LIBCMT:gs_report.obj
 0001:0003908e       ___report_securityfailure  1003a08e f   LIBCMT:gs_report.obj
 0001:0003915e       ___report_securityfailureEx 1003a15e f   LIBCMT:gs_report.obj
 0001:00039274       ___pctype_func             1003a274 f   LIBCMT:ctype.obj
 0001:0003929d       ___pwctype_func            1003a29d f   LIBCMT:ctype.obj
 0001:000393dd       ___control87_2             1003a3dd f   LIBCMT:ieee87.obj
 0001:00039a51       __clearfp                  1003aa51 f   LIBCMT:ieee87.obj
 0001:00039b31       __control87                1003ab31 f i LIBCMT:ieee87.obj
 0001:00039e33       __controlfp                1003ae33 f   LIBCMT:ieee87.obj
 0001:0003a13e       __fpreset                  1003b13e f   LIBCMT:ieee87.obj
 0001:0003a20b       __set_controlfp            1003b20b f   LIBCMT:ieee87.obj
 0001:0003a27e       __statusfp                 1003b27e f   LIBCMT:ieee87.obj
 0001:0003a318       __statusfp2                1003b318 f   LIBCMT:ieee87.obj
 0001:0003a377       __atoi64                   1003b377 f   LIBCMT:atox.obj
 0001:0003a38b       __atoi64_l                 1003b38b f   LIBCMT:atox.obj
 0001:0003a3a2       __atoi_l                   1003b3a2 f   LIBCMT:atox.obj
 0001:0003a3ab       __atol_l                   1003b3ab f   LIBCMT:atox.obj
 0001:0003a3c2       __atoll_l                  1003b3c2 f   LIBCMT:atox.obj
 0001:0003a3d9       _atoi                      1003b3d9 f   LIBCMT:atox.obj
 0001:0003a3e2       _atol                      1003b3e2 f   LIBCMT:atox.obj
 0001:0003a3f6       _atoll                     1003b3f6 f   LIBCMT:atox.obj
 0001:0003a410       __global_unwind2           1003b410 f   LIBCMT:exsup.obj
 0001:0003a475       __local_unwind2            1003b475 f   LIBCMT:exsup.obj
 0001:0003a4f9       __abnormal_termination     1003b4f9 f   LIBCMT:exsup.obj
 0001:0003a51c       __NLG_Notify1              1003b51c f   LIBCMT:exsup.obj
 0001:0003a525       __NLG_Notify               1003b525 f   LIBCMT:exsup.obj
 0001:0003a53c       __NLG_Dispatch2            1003b53c     LIBCMT:exsup.obj
 0001:0003a53c       __NLG_Dispatch             1003b53c     LIBCMT:exsup.obj
 0001:0003a544       __NLG_Call                 1003b544 f   LIBCMT:exsup.obj
 0001:0003a546       __NLG_Return2              1003b546     LIBCMT:exsup.obj
 0001:0003a547       __fclose_nolock            1003b547 f   LIBCMT:fclose.obj
 0001:0003a5b3       _fclose                    1003b5b3 f   LIBCMT:fclose.obj
 0001:0003a62a       __commit                   1003b62a f   LIBCMT:commit.obj
 0001:0003a713       __write                    1003b713 f   LIBCMT:write.obj
 0001:0003a802       __write_nolock             1003b802 f   LIBCMT:write.obj
 0001:0003b28d       __strtol_l                 1003c28d f   LIBCMT:strtol.obj
 0001:0003b2a8       __strtoul_l                1003c2a8 f   LIBCMT:strtol.obj
 0001:0003b2c3       _strtol                    1003c2c3 f   LIBCMT:strtol.obj
 0001:0003b2ed       _strtoul                   1003c2ed f   LIBCMT:strtol.obj
 0001:0003b317       __iswctype_l               1003c317 f   LIBCMT:iswctype.obj
 0001:0003b329       _is_wctype                 1003c329 f   LIBCMT:iswctype.obj
 0001:0003b332       _iswctype                  1003c332 f   LIBCMT:iswctype.obj
 0001:0003b388       __lseeki64                 1003c388 f   LIBCMT:lseeki64.obj
 0001:0003b484       __lseeki64_nolock          1003c484 f   LIBCMT:lseeki64.obj
 0001:0003b4f7       __getbuf                   1003c4f7 f   LIBCMT:_getbuf.obj
 0001:0003b53d       ____lc_codepage_func       1003c53d f   LIBCMT:initctyp.obj
 0001:0003b563       ____lc_collate_cp_func     1003c563 f   LIBCMT:initctyp.obj
 0001:0003b589       ____lc_locale_name_func    1003c589 f   LIBCMT:initctyp.obj
 0001:0003b5b1       ____mb_cur_max_func        1003c5b1 f   LIBCMT:initctyp.obj
 0001:0003b5d7       ____mb_cur_max_l_func      1003c5d7 f   LIBCMT:initctyp.obj
 0001:0003b5ee       ___init_ctype              1003c5ee f   LIBCMT:initctyp.obj
 0001:0003b986       __87except                 1003c986 f   LIBCMT:87except.obj
 0001:0003ba8f       _wcscpy_s                  1003ca8f f   LIBCMT:wcscpy_s.obj
 0001:0003baeb       _wcsnlen                   1003caeb f   LIBCMT:wcslen_s.obj
 0001:0003bb0a       _wcscat_s                  1003cb0a f   LIBCMT:wcscat_s.obj
 0001:0003bb76       _wcslen                    1003cb76 f   LIBCMT:wcslen.obj
 0001:0003bb8f       _wcsncpy_s                 1003cb8f f   LIBCMT:wcsncpy_s.obj
 0001:0003bc4d       ___set_app_type            1003cc4d f   LIBCMT:errmode.obj
 0001:0003bc5a       __set_error_mode           1003cc5a f   LIBCMT:errmode.obj
 0001:0003bc9a       ___crtMessageBoxW          1003cc9a f   LIBCMT:crtmboxw.obj
 0001:0003be80       ___crtMessageBoxWaitThreadW@4 1003ce80 f   LIBCMT:crtmboxw.obj
 0001:0003be9e       __msize                    1003ce9e f   LIBCMT:msize.obj
 0001:0003becf       ___init_collate            1003cecf f   LIBCMT:initcoll.obj
 0001:0003bfef       _memcmp                    1003cfef f   LIBCMT:memcmp.obj
 0001:0003ef03       _wcscmp                    1003ff03 f   LIBCMT:wcscmp.obj
 0001:0003ef41       _wcscspn                   1003ff41 f   LIBCMT:wcscspn.obj
 0001:0003ef8c       _wcsncmp                   1003ff8c f   LIBCMT:wcsncmp.obj
 0001:0003efc2       _wcspbrk                   1003ffc2 f   LIBCMT:wcspbrk.obj
 0001:0003f5c6       ___get_qualified_locale    100405c6 f   LIBCMT:getqloc.obj
 0001:0003fe36       ___get_qualified_locale_downlevel 10040e36 f   LIBCMT:getqloc_downlevel.obj
 0001:00040052       ___mtold12                 10041052 f   LIBCMT:mantold.obj
 0001:000404a2       __strtof_l                 100414a2 f   LIBCMT:strtoq.obj
 0001:000404c2       __strtoi64                 100414c2 f   LIBCMT:strtoq.obj
 0001:000404ec       __strtoi64_l               100414ec f   LIBCMT:strtoq.obj
 0001:00040507       __strtoimax_l              10041507 f   LIBCMT:strtoq.obj
 0001:00040510       __strtold_l                10041510 f   LIBCMT:strtoq.obj
 0001:00040519       __strtoll_l                10041519 f   LIBCMT:strtoq.obj
 0001:00040522       __strtoui64                10041522 f   LIBCMT:strtoq.obj
 0001:0004054c       __strtoui64_l              1004154c f   LIBCMT:strtoq.obj
 0001:00040567       __strtoull_l               10041567 f   LIBCMT:strtoq.obj
 0001:00040570       __strtoumax_l              10041570 f   LIBCMT:strtoq.obj
 0001:00040579       _strtof                    10041579 f   LIBCMT:strtoq.obj
 0001:00040598       _strtoimax                 10041598 f   LIBCMT:strtoq.obj
 0001:000405a1       _strtold                   100415a1 f   LIBCMT:strtoq.obj
 0001:000405aa       _strtoll                   100415aa f   LIBCMT:strtoq.obj
 0001:000405b3       _strtoull                  100415b3 f   LIBCMT:strtoq.obj
 0001:000405bc       _strtoumax                 100415bc f   LIBCMT:strtoq.obj
 0001:000405c5       __close                    100415c5 f   LIBCMT:close.obj
 0001:000406a0       __close_nolock             100416a0 f   LIBCMT:close.obj
 0001:0004073a       __freebuf                  1004173a f   LIBCMT:_freebuf.obj
 0001:0004076a       ___lock_fhandle            1004176a f   LIBCMT:osfinfo.obj
 0001:000407f8       __alloc_osfhnd             100417f8 f   LIBCMT:osfinfo.obj
 0001:000409a1       __free_osfhnd              100419a1 f   LIBCMT:osfinfo.obj
 0001:00040a27       __get_osfhandle            10041a27 f   LIBCMT:osfinfo.obj
 0001:00040a8e       __open_osfhandle           10041a8e f   LIBCMT:osfinfo.obj
 0001:00040ba4       __set_osfhnd               10041ba4 f   LIBCMT:osfinfo.obj
 0001:00040c26       __unlock_fhandle           10041c26 f   LIBCMT:osfinfo.obj
 0001:00040c4c       __mbtowc_l                 10041c4c f   LIBCMT:mbtowc.obj
 0001:00040d41       _mbtowc                    10041d41 f   LIBCMT:mbtowc.obj
 0001:00040d59       __putwch                   10041d59 f   LIBCMT:putwch.obj
 0001:00040da5       __putwch_nolock            10041da5 f   LIBCMT:putwch.obj
 0001:00040f04       __i64tow_s                 10041f04 f   LIBCMT:xtows.obj
 0001:00040f35       __itow_s                   10041f35 f   LIBCMT:xtows.obj
 0001:00040f5e       __ltow_s                   10041f5e f   LIBCMT:xtows.obj
 0001:00040f88       __ui64tow_s                10041f88 f   LIBCMT:xtows.obj
 0001:00040fa3       __ultow_s                  10041fa3 f   LIBCMT:xtows.obj
 0001:000410ae       __wtoi                     100420ae f   LIBCMT:wtox.obj
 0001:000410b7       __wtoi64                   100420b7 f   LIBCMT:wtox.obj
 0001:000410cb       __wtoi64_l                 100420cb f   LIBCMT:wtox.obj
 0001:000410e2       __wtoi_l                   100420e2 f   LIBCMT:wtox.obj
 0001:000410eb       __wtol                     100420eb f   LIBCMT:wtox.obj
 0001:000410ff       __wtol_l                   100420ff f   LIBCMT:wtox.obj
 0001:00041116       __wtoll                    10042116 f   LIBCMT:wtox.obj
 0001:0004112a       __wtoll_l                  1004212a f   LIBCMT:wtox.obj
 0001:00041141       _wcschr                    10042141 f   LIBCMT:wcschr.obj
 0001:000411ef       __wcsicmp                  100421ef f   LIBCMT:wcsicmp.obj
 0001:00041282       __wcsicmp_l                10042282 f   LIBCMT:wcsicmp.obj
 0001:0004135d       __wcsnicmp                 1004235d f   LIBCMT:wcsnicmp.obj
 0001:00041413       __wcsnicmp_l               10042413 f   LIBCMT:wcsnicmp.obj
 0001:0004150c       __strtod_l                 1004250c f   LIBCMT:strtod.obj
 0001:00041623       _strtod                    10042623 f   LIBCMT:strtod.obj
 0001:00041640       __allmul                   10042640 f   LIBCMT:llmul.obj
 0001:00041674       ___termconout              10042674 f   LIBCMT:initcon.obj
 0001:0004168b       ___initconout              1004268b f   LIBCMT:initcon.obj
 0001:0004188b       __wcstol_l                 1004288b f   LIBCMT:wcstol.obj
 0001:000418a3       __wcstoul_l                100428a3 f   LIBCMT:wcstol.obj
 0001:000418bb       _wcstol                    100428bb f   LIBCMT:wcstol.obj
 0001:000418d3       _wcstoul                   100428d3 f   LIBCMT:wcstol.obj
 0001:00041bbb       __wcstof_l                 10042bbb f   LIBCMT:wcstoq.obj
 0001:00041c6e       __wcstoi64                 10042c6e f   LIBCMT:wcstoq.obj
 0001:00041c98       __wcstoi64_l               10042c98 f   LIBCMT:wcstoq.obj
 0001:00041cb3       __wcstoimax_l              10042cb3 f   LIBCMT:wcstoq.obj
 0001:00041cbc       __wcstold_l                10042cbc f   LIBCMT:wcstoq.obj
 0001:00041cc5       __wcstoll_l                10042cc5 f   LIBCMT:wcstoq.obj
 0001:00041cce       __wcstoui64                10042cce f   LIBCMT:wcstoq.obj
 0001:00041cf8       __wcstoui64_l              10042cf8 f   LIBCMT:wcstoq.obj
 0001:00041d13       __wcstoull_l               10042d13 f   LIBCMT:wcstoq.obj
 0001:00041d1c       __wcstoumax_l              10042d1c f   LIBCMT:wcstoq.obj
 0001:00041d25       _wcstof                    10042d25 f   LIBCMT:wcstoq.obj
 0001:00041d3a       _wcstoimax                 10042d3a f   LIBCMT:wcstoq.obj
 0001:00041d43       _wcstold                   10042d43 f   LIBCMT:wcstoq.obj
 0001:00041d4c       _wcstoll                   10042d4c f   LIBCMT:wcstoq.obj
 0001:00041d55       _wcstoull                  10042d55 f   LIBCMT:wcstoq.obj
 0001:00041d5e       _wcstoumax                 10042d5e f   LIBCMT:wcstoq.obj
 0001:00041d67       __towlower_l               10042d67 f   LIBCMT:towlower.obj
 0001:00041e18       _towlower                  10042e18 f   LIBCMT:towlower.obj
 0001:00041e29       __fltin2                   10042e29 f   LIBCMT:cfin.obj
 0001:00041ed0       __wchartodigit             10042ed0 f   LIBCMT:wchtodig.obj
 0001:0004206f       __wcstod_l                 1004306f f   LIBCMT:wcstod.obj
 0001:0004216a       _wcstod                    1004316a f   LIBCMT:wcstod.obj
 0001:0004217f       ___crtLCMapStringW         1004317f f   LIBCMT:w_map.obj
 0001:000421ae       __wfltin2                  100431ae f   LIBCMT:wcfin.obj
 0001:00042257       ___WSTRINGTOLD_L           10043257 f   LIBCMT:wstrgtold.obj
 0001:000422b2       ___wstrgtold12_l           100432b2 f   LIBCMT:wstrgtold.obj
 0001:00042b02       _RaiseException@16         10043b02 f   kernel32:KERNEL32.dll
 0001:00042b08       _GetLastError@0            10043b08 f   kernel32:KERNEL32.dll
 0001:00042b0e       _FreeLibrary@4             10043b0e f   kernel32:KERNEL32.dll
 0001:00042b14       _GetProcAddress@8          10043b14 f   kernel32:KERNEL32.dll
 0001:00042b1a       _LoadLibraryExA@12         10043b1a f   kernel32:KERNEL32.dll
 0001:00042b20       _EncodePointer@4           10043b20 f   kernel32:KERNEL32.dll
 0001:00042b26       _DecodePointer@4           10043b26 f   kernel32:KERNEL32.dll
 0001:00042b2c       _GetCommandLineA@0         10043b2c f   kernel32:KERNEL32.dll
 0001:00042b32       _GetCurrentThreadId@0      10043b32 f   kernel32:KERNEL32.dll
 0001:00042b38       _IsProcessorFeaturePresent@4 10043b38 f   kernel32:KERNEL32.dll
 0001:00042b3e       _HeapFree@12               10043b3e f   kernel32:KERNEL32.dll
 0001:00042b44       _IsDebuggerPresent@0       10043b44 f   kernel32:KERNEL32.dll
 0001:00042b4a       _EnterCriticalSection@4    10043b4a f   kernel32:KERNEL32.dll
 0001:00042b50       _LeaveCriticalSection@4    10043b50 f   kernel32:KERNEL32.dll
 0001:00042b56       _SetLastError@4            10043b56 f   kernel32:KERNEL32.dll
 0001:00042b5c       _GetCurrentThread@0        10043b5c f   kernel32:KERNEL32.dll
 0001:00042b62       _ExitProcess@4             10043b62 f   kernel32:KERNEL32.dll
 0001:00042b68       _GetModuleHandleExW@12     10043b68 f   kernel32:KERNEL32.dll
 0001:00042b6e       _AreFileApisANSI@0         10043b6e f   kernel32:KERNEL32.dll
 0001:00042b74       _MultiByteToWideChar@24    10043b74 f   kernel32:KERNEL32.dll
 0001:00042b7a       _WideCharToMultiByte@32    10043b7a f   kernel32:KERNEL32.dll
 0001:00042b80       _GetProcessHeap@0          10043b80 f   kernel32:KERNEL32.dll
 0001:00042b86       _GetStdHandle@4            10043b86 f   kernel32:KERNEL32.dll
 0001:00042b8c       _GetFileType@4             10043b8c f   kernel32:KERNEL32.dll
 0001:00042b92       _DeleteCriticalSection@4   10043b92 f   kernel32:KERNEL32.dll
 0001:00042b98       _GetStartupInfoW@4         10043b98 f   kernel32:KERNEL32.dll
 0001:00042b9e       _QueryPerformanceCounter@4 10043b9e f   kernel32:KERNEL32.dll
 0001:00042ba4       _GetCurrentProcessId@0     10043ba4 f   kernel32:KERNEL32.dll
 0001:00042baa       _GetSystemTimeAsFileTime@4 10043baa f   kernel32:KERNEL32.dll
 0001:00042bb0       _GetEnvironmentStringsW@0  10043bb0 f   kernel32:KERNEL32.dll
 0001:00042bb6       _FreeEnvironmentStringsW@4 10043bb6 f   kernel32:KERNEL32.dll
 0001:00042bbc       _UnhandledExceptionFilter@4 10043bbc f   kernel32:KERNEL32.dll
 0001:00042bc2       _SetUnhandledExceptionFilter@4 10043bc2 f   kernel32:KERNEL32.dll
 0001:00042bc8       _InitializeCriticalSectionAndSpinCount@8 10043bc8 f   kernel32:KERNEL32.dll
 0001:00042bce       _CreateEventW@16           10043bce f   kernel32:KERNEL32.dll
 0001:00042bd4       _Sleep@4                   10043bd4 f   kernel32:KERNEL32.dll
 0001:00042bda       _GetCurrentProcess@0       10043bda f   kernel32:KERNEL32.dll
 0001:00042be0       _TerminateProcess@8        10043be0 f   kernel32:KERNEL32.dll
 0001:00042be6       _TlsAlloc@0                10043be6 f   kernel32:KERNEL32.dll
 0001:00042bec       _TlsGetValue@4             10043bec f   kernel32:KERNEL32.dll
 0001:00042bf2       _TlsSetValue@8             10043bf2 f   kernel32:KERNEL32.dll
 0001:00042bf8       _TlsFree@4                 10043bf8 f   kernel32:KERNEL32.dll
 0001:00042bfe       _GetTickCount@0            10043bfe f   kernel32:KERNEL32.dll
 0001:00042c04       _GetModuleHandleW@4        10043c04 f   kernel32:KERNEL32.dll
 0001:00042c0a       _CreateSemaphoreW@16       10043c0a f   kernel32:KERNEL32.dll
 0001:00042c10       _IsValidCodePage@4         10043c10 f   kernel32:KERNEL32.dll
 0001:00042c16       _GetACP@0                  10043c16 f   kernel32:KERNEL32.dll
 0001:00042c1c       _GetOEMCP@0                10043c1c f   kernel32:KERNEL32.dll
 0001:00042c22       _GetCPInfo@8               10043c22 f   kernel32:KERNEL32.dll
 0001:00042c28       _FatalAppExitA@8           10043c28 f   kernel32:KERNEL32.dll
 0001:00042c2e       _HeapAlloc@12              10043c2e f   kernel32:KERNEL32.dll
 0001:00042c34       _RtlUnwind@16              10043c34 f   kernel32:KERNEL32.dll
 0001:00042c3a       _SetConsoleCtrlHandler@8   10043c3a f   kernel32:KERNEL32.dll
 0001:00042c40       _GetDateFormatW@24         10043c40 f   kernel32:KERNEL32.dll
 0001:00042c46       _GetTimeFormatW@24         10043c46 f   kernel32:KERNEL32.dll
 0001:00042c4c       _CompareStringW@24         10043c4c f   kernel32:KERNEL32.dll
 0001:00042c52       _LCMapStringW@24           10043c52 f   kernel32:KERNEL32.dll
 0001:00042c58       _GetLocaleInfoW@16         10043c58 f   kernel32:KERNEL32.dll
 0001:00042c5e       _IsValidLocale@8           10043c5e f   kernel32:KERNEL32.dll
 0001:00042c64       _GetUserDefaultLCID@0      10043c64 f   kernel32:KERNEL32.dll
 0001:00042c6a       _EnumSystemLocalesW@8      10043c6a f   kernel32:KERNEL32.dll
 0001:00042c70       _WriteFile@20              10043c70 f   kernel32:KERNEL32.dll
 0001:00042c76       _GetModuleFileNameW@12     10043c76 f   kernel32:KERNEL32.dll
 0001:00042c7c       _LoadLibraryExW@12         10043c7c f   kernel32:KERNEL32.dll
 0001:00042c82       _HeapReAlloc@16            10043c82 f   kernel32:KERNEL32.dll
 0001:00042c88       _GetStringTypeW@16         10043c88 f   kernel32:KERNEL32.dll
 0001:00042c8e       _FlushFileBuffers@4        10043c8e f   kernel32:KERNEL32.dll
 0001:00042c94       _GetConsoleCP@0            10043c94 f   kernel32:KERNEL32.dll
 0001:00042c9a       _GetConsoleMode@8          10043c9a f   kernel32:KERNEL32.dll
 0001:00042ca0       _SetFilePointerEx@20       10043ca0 f   kernel32:KERNEL32.dll
 0001:00042ca6       _OutputDebugStringW@4      10043ca6 f   kernel32:KERNEL32.dll
 0001:00042cac       _HeapSize@12               10043cac f   kernel32:KERNEL32.dll
 0001:00042cb2       _CloseHandle@4             10043cb2 f   kernel32:KERNEL32.dll
 0001:00042cb8       _SetStdHandle@8            10043cb8 f   kernel32:KERNEL32.dll
 0001:00042cbe       _WriteConsoleW@20          10043cbe f   kernel32:KERNEL32.dll
 0001:00042cc4       _CreateFileW@28            10043cc4 f   kernel32:KERNEL32.dll
 0002:00000000       __imp__GetModuleFileNameA@12 10044000     kernel32:KERNEL32.dll
 0002:00000004       __imp__LoadLibraryA@4      10044004     kernel32:KERNEL32.dll
 0002:00000008       __imp__RaiseException@16   10044008     kernel32:KERNEL32.dll
 0002:0000000c       __imp__GetLastError@0      1004400c     kernel32:KERNEL32.dll
 0002:00000010       __imp__FreeLibrary@4       10044010     kernel32:KERNEL32.dll
 0002:00000014       __imp__GetProcAddress@8    10044014     kernel32:KERNEL32.dll
 0002:00000018       __imp__LoadLibraryExA@12   10044018     kernel32:KERNEL32.dll
 0002:0000001c       __imp__EncodePointer@4     1004401c     kernel32:KERNEL32.dll
 0002:00000020       __imp__DecodePointer@4     10044020     kernel32:KERNEL32.dll
 0002:00000024       __imp__GetCommandLineA@0   10044024     kernel32:KERNEL32.dll
 0002:00000028       __imp__GetCurrentThreadId@0 10044028     kernel32:KERNEL32.dll
 0002:0000002c       __imp__IsProcessorFeaturePresent@4 1004402c     kernel32:KERNEL32.dll
 0002:00000030       __imp__HeapFree@12         10044030     kernel32:KERNEL32.dll
 0002:00000034       __imp__IsDebuggerPresent@0 10044034     kernel32:KERNEL32.dll
 0002:00000038       __imp__EnterCriticalSection@4 10044038     kernel32:KERNEL32.dll
 0002:0000003c       __imp__LeaveCriticalSection@4 1004403c     kernel32:KERNEL32.dll
 0002:00000040       __imp__SetLastError@4      10044040     kernel32:KERNEL32.dll
 0002:00000044       __imp__GetCurrentThread@0  10044044     kernel32:KERNEL32.dll
 0002:00000048       __imp__ExitProcess@4       10044048     kernel32:KERNEL32.dll
 0002:0000004c       __imp__GetModuleHandleExW@12 1004404c     kernel32:KERNEL32.dll
 0002:00000050       __imp__AreFileApisANSI@0   10044050     kernel32:KERNEL32.dll
 0002:00000054       __imp__MultiByteToWideChar@24 10044054     kernel32:KERNEL32.dll
 0002:00000058       __imp__WideCharToMultiByte@32 10044058     kernel32:KERNEL32.dll
 0002:0000005c       __imp__GetProcessHeap@0    1004405c     kernel32:KERNEL32.dll
 0002:00000060       __imp__GetStdHandle@4      10044060     kernel32:KERNEL32.dll
 0002:00000064       __imp__GetFileType@4       10044064     kernel32:KERNEL32.dll
 0002:00000068       __imp__DeleteCriticalSection@4 10044068     kernel32:KERNEL32.dll
 0002:0000006c       __imp__GetStartupInfoW@4   1004406c     kernel32:KERNEL32.dll
 0002:00000070       __imp__QueryPerformanceCounter@4 10044070     kernel32:KERNEL32.dll
 0002:00000074       __imp__GetCurrentProcessId@0 10044074     kernel32:KERNEL32.dll
 0002:00000078       __imp__GetSystemTimeAsFileTime@4 10044078     kernel32:KERNEL32.dll
 0002:0000007c       __imp__GetEnvironmentStringsW@0 1004407c     kernel32:KERNEL32.dll
 0002:00000080       __imp__FreeEnvironmentStringsW@4 10044080     kernel32:KERNEL32.dll
 0002:00000084       __imp__UnhandledExceptionFilter@4 10044084     kernel32:KERNEL32.dll
 0002:00000088       __imp__SetUnhandledExceptionFilter@4 10044088     kernel32:KERNEL32.dll
 0002:0000008c       __imp__InitializeCriticalSectionAndSpinCount@8 1004408c     kernel32:KERNEL32.dll
 0002:00000090       __imp__CreateEventW@16     10044090     kernel32:KERNEL32.dll
 0002:00000094       __imp__Sleep@4             10044094     kernel32:KERNEL32.dll
 0002:00000098       __imp__GetCurrentProcess@0 10044098     kernel32:KERNEL32.dll
 0002:0000009c       __imp__TerminateProcess@8  1004409c     kernel32:KERNEL32.dll
 0002:000000a0       __imp__TlsAlloc@0          100440a0     kernel32:KERNEL32.dll
 0002:000000a4       __imp__TlsGetValue@4       100440a4     kernel32:KERNEL32.dll
 0002:000000a8       __imp__TlsSetValue@8       100440a8     kernel32:KERNEL32.dll
 0002:000000ac       __imp__TlsFree@4           100440ac     kernel32:KERNEL32.dll
 0002:000000b0       __imp__GetTickCount@0      100440b0     kernel32:KERNEL32.dll
 0002:000000b4       __imp__GetModuleHandleW@4  100440b4     kernel32:KERNEL32.dll
 0002:000000b8       __imp__CreateSemaphoreW@16 100440b8     kernel32:KERNEL32.dll
 0002:000000bc       __imp__IsValidCodePage@4   100440bc     kernel32:KERNEL32.dll
 0002:000000c0       __imp__GetACP@0            100440c0     kernel32:KERNEL32.dll
 0002:000000c4       __imp__GetOEMCP@0          100440c4     kernel32:KERNEL32.dll
 0002:000000c8       __imp__GetCPInfo@8         100440c8     kernel32:KERNEL32.dll
 0002:000000cc       __imp__FatalAppExitA@8     100440cc     kernel32:KERNEL32.dll
 0002:000000d0       __imp__HeapAlloc@12        100440d0     kernel32:KERNEL32.dll
 0002:000000d4       __imp__RtlUnwind@16        100440d4     kernel32:KERNEL32.dll
 0002:000000d8       __imp__SetConsoleCtrlHandler@8 100440d8     kernel32:KERNEL32.dll
 0002:000000dc       __imp__GetDateFormatW@24   100440dc     kernel32:KERNEL32.dll
 0002:000000e0       __imp__GetTimeFormatW@24   100440e0     kernel32:KERNEL32.dll
 0002:000000e4       __imp__CompareStringW@24   100440e4     kernel32:KERNEL32.dll
 0002:000000e8       __imp__LCMapStringW@24     100440e8     kernel32:KERNEL32.dll
 0002:000000ec       __imp__GetLocaleInfoW@16   100440ec     kernel32:KERNEL32.dll
 0002:000000f0       __imp__IsValidLocale@8     100440f0     kernel32:KERNEL32.dll
 0002:000000f4       __imp__GetUserDefaultLCID@0 100440f4     kernel32:KERNEL32.dll
 0002:000000f8       __imp__EnumSystemLocalesW@8 100440f8     kernel32:KERNEL32.dll
 0002:000000fc       __imp__WriteFile@20        100440fc     kernel32:KERNEL32.dll
 0002:00000100       __imp__GetModuleFileNameW@12 10044100     kernel32:KERNEL32.dll
 0002:00000104       __imp__LoadLibraryExW@12   10044104     kernel32:KERNEL32.dll
 0002:00000108       __imp__HeapReAlloc@16      10044108     kernel32:KERNEL32.dll
 0002:0000010c       __imp__GetStringTypeW@16   1004410c     kernel32:KERNEL32.dll
 0002:00000110       __imp__FlushFileBuffers@4  10044110     kernel32:KERNEL32.dll
 0002:00000114       __imp__GetConsoleCP@0      10044114     kernel32:KERNEL32.dll
 0002:00000118       __imp__GetConsoleMode@8    10044118     kernel32:KERNEL32.dll
 0002:0000011c       __imp__SetFilePointerEx@20 1004411c     kernel32:KERNEL32.dll
 0002:00000120       __imp__OutputDebugStringW@4 10044120     kernel32:KERNEL32.dll
 0002:00000124       __imp__HeapSize@12         10044124     kernel32:KERNEL32.dll
 0002:00000128       __imp__CloseHandle@4       10044128     kernel32:KERNEL32.dll
 0002:0000012c       __imp__SetStdHandle@8      1004412c     kernel32:KERNEL32.dll
 0002:00000130       __imp__WriteConsoleW@20    10044130     kernel32:KERNEL32.dll
 0002:00000134       __imp__CreateFileW@28      10044134     kernel32:KERNEL32.dll
 0002:00000138       \177KERNEL32_NULL_THUNK_DATA 10044138     kernel32:KERNEL32.dll
 0002:0000013c       ___xc_a                    1004413c     LIBCMT:crt0init.obj
 0002:00000188       ___xc_z                    10044188     LIBCMT:crt0init.obj
 0002:0000018c       ___xi_a                    1004418c     LIBCMT:crt0init.obj
 0002:000001a4       ___xi_z                    100441a4     LIBCMT:crt0init.obj
 0002:000001a8       ___xp_a                    100441a8     LIBCMT:crt0init.obj
 0002:000001b8       ___xp_z                    100441b8     LIBCMT:crt0init.obj
 0002:000001bc       ___xt_a                    100441bc     LIBCMT:crt0init.obj
 0002:000001c0       ___xt_z                    100441c0     LIBCMT:crt0init.obj
 0002:00000208       ??_C@_0BK@KKGDMEEI@PhysX3CommonDEBUG_x64?4dll?$AA@ 10044208     WindowsCookingDelayLoadHook.obj
 0002:00000224       ??_C@_0BM@FGKCIMCL@PhysX3CommonCHECKED_x64?4dll?$AA@ 10044224     WindowsCookingDelayLoadHook.obj
 0002:00000240       ??_C@_0BM@NIMEGLC@PhysX3CommonPROFILE_x64?4dll?$AA@ 10044240     WindowsCookingDelayLoadHook.obj
 0002:0000025c       ??_C@_0BF@HEEMOJKO@PhysX3Common_x64?4dll?$AA@ 1004425c     WindowsCookingDelayLoadHook.obj
 0002:00000274       ??_C@_0BK@LHJEBOBO@PhysX3CommonDEBUG_x86?4dll?$AA@ 10044274     WindowsCookingDelayLoadHook.obj
 0002:00000290       ??_C@_0BM@ELFFFGHN@PhysX3CommonCHECKED_x86?4dll?$AA@ 10044290     WindowsCookingDelayLoadHook.obj
 0002:000002ac       ??_C@_0BM@BAHLJMOE@PhysX3CommonPROFILE_x86?4dll?$AA@ 100442ac     WindowsCookingDelayLoadHook.obj
 0002:000002c8       ??_C@_0BF@GJLLDDPI@PhysX3Common_x86?4dll?$AA@ 100442c8     WindowsCookingDelayLoadHook.obj
 0002:000002e0       ??_C@_0BK@FCFCOGBN@PhysX3CommonDEBUG_arm?4dll?$AA@ 100442e0     WindowsCookingDelayLoadHook.obj
 0002:000002fc       ??_C@_0BM@KOJDKOHO@PhysX3CommonCHECKED_arm?4dll?$AA@ 100442fc     WindowsCookingDelayLoadHook.obj
 0002:00000318       ??_C@_0BM@PFLNGEOH@PhysX3CommonPROFILE_arm?4dll?$AA@ 10044318     WindowsCookingDelayLoadHook.obj
 0002:00000334       ??_C@_0BF@IMHNMLPL@PhysX3Common_arm?4dll?$AA@ 10044334     WindowsCookingDelayLoadHook.obj
 0002:0000034c       ??_C@_08NNMANNNO@_x64?4dll?$AA@ 1004434c     WindowsCookingDelayLoadHook.obj
 0002:00000358       ??_C@_0O@LLBCKODF@DEBUG_x64?4dll?$AA@ 10044358     WindowsCookingDelayLoadHook.obj
 0002:00000368       ??_C@_0BA@GBFEBCKH@CHECKED_x64?4dll?$AA@ 10044368     WindowsCookingDelayLoadHook.obj
 0002:00000378       ??_C@_0BA@DKHKNIDO@PROFILE_x64?4dll?$AA@ 10044378     WindowsCookingDelayLoadHook.obj
 0002:00000388       ??_C@_08MADHAHII@_x86?4dll?$AA@ 10044388     WindowsCookingDelayLoadHook.obj
 0002:00000394       ??_C@_0O@KGOFHEGD@DEBUG_x86?4dll?$AA@ 10044394     WindowsCookingDelayLoadHook.obj
 0002:000003a4       ??_C@_0BA@HMKDMIPB@CHECKED_x86?4dll?$AA@ 100443a4     WindowsCookingDelayLoadHook.obj
 0002:000003b4       ??_C@_0BA@CHINACGI@PROFILE_x86?4dll?$AA@ 100443b4     WindowsCookingDelayLoadHook.obj
 0002:000003d0       ?g_PXSinCoefficients0@aos@shdfnd@physx@@3UPX_VECTORF32@123@B 100443d0     RTreeCooking.obj
 0002:000003e0       ?g_PXSinCoefficients1@aos@shdfnd@physx@@3UPX_VECTORF32@123@B 100443e0     RTreeCooking.obj
 0002:000003f0       ?g_PXSinCoefficients2@aos@shdfnd@physx@@3UPX_VECTORF32@123@B 100443f0     RTreeCooking.obj
 0002:00000400       ?g_PXCosCoefficients0@aos@shdfnd@physx@@3UPX_VECTORF32@123@B 10044400     RTreeCooking.obj
 0002:00000410       ?g_PXCosCoefficients1@aos@shdfnd@physx@@3UPX_VECTORF32@123@B 10044410     RTreeCooking.obj
 0002:00000420       ?g_PXCosCoefficients2@aos@shdfnd@physx@@3UPX_VECTORF32@123@B 10044420     RTreeCooking.obj
 0002:00000430       ?g_PXTanCoefficients0@aos@shdfnd@physx@@3UPX_VECTORF32@123@B 10044430     RTreeCooking.obj
 0002:00000440       ?g_PXTanCoefficients1@aos@shdfnd@physx@@3UPX_VECTORF32@123@B 10044440     RTreeCooking.obj
 0002:00000450       ?g_PXTanCoefficients2@aos@shdfnd@physx@@3UPX_VECTORF32@123@B 10044450     RTreeCooking.obj
 0002:00000460       ?g_PXASinCoefficients0@aos@shdfnd@physx@@3UPX_VECTORF32@123@B 10044460     RTreeCooking.obj
 0002:00000470       ?g_PXASinCoefficients1@aos@shdfnd@physx@@3UPX_VECTORF32@123@B 10044470     RTreeCooking.obj
 0002:00000480       ?reductionFactors@SubSortQuick@physx@@2QBMB 10044480     RTreeCooking.obj
 0002:0000048c       ?stopAtTrisPerLeaf1@SubSortQuick@physx@@2QBIB 1004448c     RTreeCooking.obj
 0002:00000550       ?g_PXASinCoefficients2@aos@shdfnd@physx@@3UPX_VECTORF32@123@B 10044550     RTreeCooking.obj
 0002:00000560       ?g_PXATanCoefficients0@aos@shdfnd@physx@@3UPX_VECTORF32@123@B 10044560     RTreeCooking.obj
 0002:00000570       ?g_PXATanCoefficients1@aos@shdfnd@physx@@3UPX_VECTORF32@123@B 10044570     RTreeCooking.obj
 0002:00000580       ?g_PXATanCoefficients2@aos@shdfnd@physx@@3UPX_VECTORF32@123@B 10044580     RTreeCooking.obj
 0002:00000590       ?g_PXSinEstCoefficients@aos@shdfnd@physx@@3UPX_VECTORF32@123@B 10044590     RTreeCooking.obj
 0002:000005a0       ?g_PXCosEstCoefficients@aos@shdfnd@physx@@3UPX_VECTORF32@123@B 100445a0     RTreeCooking.obj
 0002:000005b0       ?g_PXASinEstCoefficients@aos@shdfnd@physx@@3UPX_VECTORF32@123@B 100445b0     RTreeCooking.obj
 0002:000005c0       ??_C@_0CN@HEFMNGKD@?4?4?2?4?4?2PhysXCooking?2src?2mesh?2RTre@ 100445c0     RTreeCooking.obj
 0002:000005f0       ??_C@_0EL@IKKPJEFJ@c?3?2physx?5sdk?2physx?93?43?9master?2ph@ 100445f0     RTreeCooking.obj
 0002:0000063c       ??_C@_0BM@OIFKLHDN@?$DMallocation?5names?5disabled?$DO?$AA@ 1004463c     RTreeCooking.obj
 0002:00000658       ??_C@_0EK@NDLBFJJC@C?3?2PhysX?5SDK?2PhysX?93?43?9master?2Ph@ 10044658     RTreeCooking.obj
 0002:000006a8       ??_C@_0FD@JHNNLKAK@c?3?2physx?5sdk?2physx?93?43?9master?2ph@ 100446a8     RTreeCooking.obj
 0002:000006fc       __real@37800080            100446fc     RTreeCooking.obj
 0002:00000700       __real@3a03126f            10044700     RTreeCooking.obj
 0002:00000704       __real@3a83126f            10044704     RTreeCooking.obj
 0002:00000708       __real@3f800000            10044708     RTreeCooking.obj
 0002:0000070c       __real@41100000            1004470c     RTreeCooking.obj
 0002:00000710       __real@41700000            10044710     RTreeCooking.obj
 0002:00000714       __real@42200000            10044714     RTreeCooking.obj
 0002:00000718       __real@7f7fffff            10044718     RTreeCooking.obj
 0002:0000071c       __real@ba83126f            1004471c     RTreeCooking.obj
 0002:00000720       __real@fe7fffff            10044720     RTreeCooking.obj
 0002:00000724       __real@ff7fffff            10044724     RTreeCooking.obj
 0002:00000730       __xmm@00000000000000000000000000000000 10044730     RTreeCooking.obj
 0002:00000740       __xmm@000000003a83126f3a83126f3a83126f 10044740     RTreeCooking.obj
 0002:00000750       __xmm@00000000ba83126fba83126fba83126f 10044750     RTreeCooking.obj
 0002:00000760       __xmm@00000001000000010000000100000001 10044760     RTreeCooking.obj
 0002:00000770       __xmm@00000003000000020000000100000000 10044770     RTreeCooking.obj
 0002:00000780       __xmm@41f00000000000000000000000000000 10044780     RTreeCooking.obj
 0002:00000790       __xmm@fe7fffff7e7fffff7e7fffff7e7fffff 10044790     RTreeCooking.obj
 0002:000007c4       ??_C@_0DD@CMJGDCNN@TriangleMesh?3?3loadFromDesc?3?5desc@ 100447c4     TriangleMeshBuilder.obj
 0002:000007f8       ??_C@_0DE@NHIHKD@?4?4?2?4?4?2PhysXCooking?2src?2mesh?2Tria@ 100447f8     TriangleMeshBuilder.obj
 0002:00000830       ??_C@_0FB@HKCCNMI@PxCookingParams?3?3meshSizePerform@ 10044830     TriangleMeshBuilder.obj
 0002:00000884       ??_C@_0BJ@BKHDBBHO@cleaning?5the?5mesh?5failed?$AA@ 10044884     TriangleMeshBuilder.obj
 0002:000008a0       __real@40000000            100448a0     TriangleMeshBuilder.obj
 0002:000008a4       __real@c1b00000            100448a4     TriangleMeshBuilder.obj
 0002:000008b0       __xmm@7fffffff7fffffff7fffffff7fffffff 100448b0     TriangleMeshBuilder.obj
 0002:000008c4       ??_C@_0DH@IKCMPFPC@?4?4?2?4?4?2PhysXCooking?2src?2convex?2Bi@ 100448c4     BigConvexDataBuilder.obj
 0002:000008fc       __real@00000000            100448fc     BigConvexDataBuilder.obj
 0002:00000900       __real@3f000000            10044900     BigConvexDataBuilder.obj
 0002:00000904       __real@bf800000            10044904     BigConvexDataBuilder.obj
 0002:00000910       __xmm@80000000800000008000000080000000 10044910     BigConvexDataBuilder.obj
 0002:00000924       ??_C@_0DP@KFEAHANP@Meshmerizer?3?3ExtractHullPolygons@ 10044924     ConvexHullBuilder.obj
 0002:00000964       ??_C@_0DE@JCGJGFMG@?4?4?2?4?4?2PhysXCooking?2src?2convex?2Co@ 10044964     ConvexHullBuilder.obj
 0002:00000998       ??_C@_0EB@MLICBFEL@ConvexHullBuilder?3?3Init?3?5convex?5@ 10044998     ConvexHullBuilder.obj
 0002:000009e0       ??_C@_0GF@OJLJHAMH@ConvexHullBuilder?3?3CreateTriangl@ 100449e0     ConvexHullBuilder.obj
 0002:00000a48       ??_C@_0DL@IAFKOCCK@ConvexHullBuilder?3?5convex?5hull?5h@ 10044a48     ConvexHullBuilder.obj
 0002:00000a88       ??_C@_0HF@OLJFBIEL@ConvexHullBuilder?3?5convex?5hull?5d@ 10044a88     ConvexHullBuilder.obj
 0002:00000b00       ??_C@_0OG@JNHFOIL@ConvexHullBuilder?3?5convex?5hull?5d@ 10044b00     ConvexHullBuilder.obj
 0002:00000be8       ??_C@_0EJ@NIOIBAKH@Cooking?3?3cookConvexMesh?3?5non?9man@ 10044be8     ConvexHullBuilder.obj
 0002:00000c34       __real@3ca3d70a            10044c34     ConvexHullBuilder.obj
 0002:00000c38       __real@3eaaaaab            10044c38     ConvexHullBuilder.obj
 0002:00000c64       ??_7ConvexMeshBuilder@physx@@6BPxConvexMesh@1@@ 10044c64     ConvexMeshBuilder.obj
 0002:00000ca0       ??_7ConvexMeshBuilder@physx@@6BRefCountable@Cm@1@@ 10044ca0     ConvexMeshBuilder.obj
 0002:00000ca8       ??_C@_0DF@LLFJIJGM@Gu?3?3ConvexMesh?3?3loadFromDesc?3?5de@ 10044ca8     ConvexMeshBuilder.obj
 0002:00000ce0       ??_C@_0DE@FMMNMFJD@?4?4?2?4?4?2PhysXCooking?2src?2convex?2Co@ 10044ce0     ConvexMeshBuilder.obj
 0002:00000d18       ??_C@_0HK@JOGKIEAA@Gu?3?3ConvexMesh?3?5Mesh?5has?5a?5negat@ 10044d18     ConvexMeshBuilder.obj
 0002:00000d94       ??_C@_0DH@NJPPHFFD@Gu?3?3ConvexMesh?3?5Error?5computing?5@ 10044d94     ConvexMeshBuilder.obj
 0002:00000dcc       ??_C@_0DJ@LJDLGLDJ@Gu?3?3ConvexMesh?3?3loadConvexHull?3?5@ 10044dcc     ConvexMeshBuilder.obj
 0002:00000e08       ??_C@_0JC@IEAFEIFE@Gu?3?3ConvexMesh?3?3loadConvexHull?3?5@ 10044e08     ConvexMeshBuilder.obj
 0002:00000ea0       ??_C@_0HJ@KJANPPOE@ConvexMeshBuilder?3?3computeHullPo@ 10044ea0     ConvexMeshBuilder.obj
 0002:00000f1c       ??_C@_06KDGGGLIJ@PxVec3?$AA@ 10044f1c     ConvexMeshBuilder.obj
 0002:00000f24       ??_C@_05LMJPANIN@PxU32?$AA@ 10044f24     ConvexMeshBuilder.obj
 0002:00000f2c       ??_C@_0O@JMAGMMGG@PxHullPolygon?$AA@ 10044f2c     ConvexMeshBuilder.obj
 0002:00000f3c       __real@3a800000            10044f3c     ConvexMeshBuilder.obj
 0002:00000f40       __real@40400000            10044f40     ConvexMeshBuilder.obj
 0002:00000f50       __xmm@80000000000000008000000000000000 10044f50     ConvexMeshBuilder.obj
 0002:00000f64       ??_C@_0BM@FNPIOFJJ@Cant?5normalize?5ZERO?5vector?6?$AA@ 10044f64     hulllib.obj
 0002:00000f80       ??_C@_0CK@LEJAGBKE@?4?4?2?4?4?2PhysXCooking?2src?2convex?2hu@ 10044f80     hulllib.obj
 0002:00000fb0       ??_C@_0FF@MGONAEFK@c?3?2physx?5sdk?2physx?93?43?9master?2ph@ 10044fb0     hulllib.obj
 0002:00001008       __real@1e3ce508            10045008     hulllib.obj
 0002:0000100c       __real@358637bd            1004500c     hulllib.obj
 0002:00001010       __real@3c23d70a            10045010     hulllib.obj
 0002:00001014       __real@3c8efa35            10045014     hulllib.obj
 0002:00001018       __real@3ccccccd            10045018     hulllib.obj
 0002:0000101c       __real@3d4ccccd            1004501c     hulllib.obj
 0002:00001020       __real@3d567750            10045020     hulllib.obj
 0002:00001024       __real@3dcccccd            10045024     hulllib.obj
 0002:00001028       __real@3e800000            10045028     hulllib.obj
 0002:0000102c       __real@40a00000            1004502c     hulllib.obj
 0002:00001030       __real@42340000            10045030     hulllib.obj
 0002:00001034       __real@43b40000            10045034     hulllib.obj
 0002:00001038       __real@9e3ce508            10045038     hulllib.obj
 0002:0000103c       __real@bca3d70a            1004503c     hulllib.obj
 0002:00001048       __real@0000000000000000    10045048     VolumeIntegration.obj
 0002:00001050       __real@3f91111111111111    10045050     VolumeIntegration.obj
 0002:00001058       __real@3fa5555555555555    10045058     VolumeIntegration.obj
 0002:00001060       __real@3fa999999999999a    10045060     VolumeIntegration.obj
 0002:00001068       __real@3fb5555555555555    10045068     VolumeIntegration.obj
 0002:00001070       __real@3fc5555555555555    10045070     VolumeIntegration.obj
 0002:00001078       __real@3fd5555555555555    10045078     VolumeIntegration.obj
 0002:00001080       __real@3fe0000000000000    10045080     VolumeIntegration.obj
 0002:00001088       __real@3ff0000000000000    10045088     VolumeIntegration.obj
 0002:00001090       __real@4000000000000000    10045090     VolumeIntegration.obj
 0002:00001098       __real@4008000000000000    10045098     VolumeIntegration.obj
 0002:000010a0       __real@4010000000000000    100450a0     VolumeIntegration.obj
 0002:000010a8       __real@bf91111111111111    100450a8     VolumeIntegration.obj
 0002:000010b0       __real@bfa999999999999a    100450b0     VolumeIntegration.obj
 0002:000010b8       __real@bfb5555555555555    100450b8     VolumeIntegration.obj
 0002:000010c0       __real@bfc5555555555555    100450c0     VolumeIntegration.obj
 0002:000010d0       __xmm@3f811111111111113f81111111111111 100450d0     VolumeIntegration.obj
 0002:000010e0       __xmm@3f811111111111113f91111111111111 100450e0     VolumeIntegration.obj
 0002:000010f0       __xmm@3f911111111111113f91111111111111 100450f0     VolumeIntegration.obj
 0002:00001100       __xmm@3fa55555555555553fa5555555555555 10045100     VolumeIntegration.obj
 0002:00001110       __xmm@3fa55555555555553fc5555555555555 10045110     VolumeIntegration.obj
 0002:00001120       __xmm@7fffffffffffffff7fffffffffffffff 10045120     VolumeIntegration.obj
 0002:00001130       ??_C@_0DC@DMHHONHL@Adjacencies?3?3GetBoundaryVertices@ 10045130     Adjacencies.obj
 0002:00001164       ??_C@_0CH@EOBHIJNK@?4?4?2?4?4?2PhysXCooking?2src?2Adjacenci@ 10045164     Adjacencies.obj
 0002:0000118c       ??_C@_0CK@KKNAOLHI@Adjacencies?3?3MakeLastRef?3?5NULL?5p@ 1004518c     Adjacencies.obj
 0002:000011b8       ??_C@_0DA@FMEHLBKI@Adjacencies?3?3UpdateLink?3?5invalid@ 100451b8     Adjacencies.obj
 0002:000011e8       ??_C@_0JJ@BJLNDJKO@Adjacencies?3?3CreateDatabase?3?5can@ 100451e8     Adjacencies.obj
 0002:00001288       ??_7PxCooking@physx@@6B@   10045288     Cooking.obj
 0002:000012b8       ??_7Cooking@physx@@6B@     100452b8     Cooking.obj
 0002:000012e8       ??_7TriangleMeshBuilder@physx@@6BPxTriangleMesh@1@@ 100452e8     Cooking.obj
 0002:00001328       ??_7TriangleMeshBuilder@physx@@6BRefCountable@Cm@1@@ 10045328     Cooking.obj
 0002:00001330       ??_C@_0FC@PJIHAFK@Cooking?3?3validateTriangleMesh?3?5u@ 10045330     Cooking.obj
 0002:00001384       ??_C@_0CD@HPMFPCAJ@?4?4?2?4?4?2PhysXCooking?2src?2Cooking?4c@ 10045384     Cooking.obj
 0002:000013a8       ??_C@_0GF@KBACGOEB@PxTriangleMeshDesc?3?3convexEdgeTh@ 100453a8     Cooking.obj
 0002:00001410       ??_C@_0FF@FCKBBOBA@Cooking?3?3cook?1createTriangleMesh@ 10045410     Cooking.obj
 0002:00001468       ??_C@_0EK@EKAIJEBL@Cooking?3?3cookConvexMesh?3?5user?9pr@ 10045468     Cooking.obj
 0002:000014b8       ??_C@_0EJ@EIMOEGKB@Cooking?3?3cookConvexMesh?3?5user?9pr@ 100454b8     Cooking.obj
 0002:00001508       ??_C@_0EP@CKACPLJK@Cooking?3?3cookConvexMesh?3?5user?9pr@ 10045508     Cooking.obj
 0002:00001558       ??_C@_0EO@LKFMMDE@Cooking?3?3cookConvexMesh?3?5user?9pr@ 10045558     Cooking.obj
 0002:000015a8       __real@7e7fffff            100455a8     Cooking.obj
 0002:000015ac       ??_C@_0CI@LKCEKHOD@?4?4?2?4?4?2PhysXCooking?2src?2CookingUt@ 100455ac     CookingUtils.obj
 0002:000015d8       ??_C@_0CE@DNAJJHLF@?4?4?2?4?4?2PhysXCooking?2src?2EdgeList?4@ 100455d8     EdgeList.obj
 0002:000015fc       ??_C@_0CO@GBNJFPN@EdgeList?3?3CreateFacesToEdges?3?5NU@ 100455fc     EdgeList.obj
 0002:0000162c       ??_C@_0CO@EHJBBMNK@EdgeList?3?3ComputeActiveEdges?3?5NU@ 1004562c     EdgeList.obj
 0002:0000165c       ??_C@_0DI@GBHLFOFP@ActiveEdges?3?3ComputeConvexEdges?3@ 1004565c     EdgeList.obj
 0002:00001694       ??_C@_0DM@JOGBLHDI@ActiveEdges?3?3ComputeConvexEdges?3@ 10045694     EdgeList.obj
 0002:000016d0       ??_C@_0ED@FEMJKPEL@ActiveEdges?3?3ComputeConvexEdges?3@ 100456d0     EdgeList.obj
 0002:00001718       ??_C@_0EB@BFDPMFCD@ActiveEdges?3?3ComputeConvexEdges?3@ 10045718     EdgeList.obj
 0002:0000175c       __real@bf7fbe77            1004575c     EdgeList.obj
 0002:00001764       ??_7RemapCallback@RTreeCooker@physx@@6B@ 10045764     InternalTriangleMeshBuilder.obj
 0002:0000176c       ??_C@_0DH@KAAPMABG@?4?4?2?4?4?2PhysXCooking?2src?2InternalT@ 1004576c     InternalTriangleMeshBuilder.obj
 0002:000017a4       ??_7RTreeCookerRemap@@6B@  100457a4     InternalTriangleMeshBuilder.obj
 0002:000017ac       ??_C@_0DJ@IGODLHLP@TriangleMesh?3?5Enable?5mesh?5weldin@ 100457ac     InternalTriangleMeshBuilder.obj
 0002:000017e8       ??_C@_0FJ@HHJLKGDF@TriangleMesh?3?5triangles?5are?5too?5@ 100457e8     InternalTriangleMeshBuilder.obj
 0002:00001844       ??_C@_0CN@KGPHHHLK@TriangleMesh?3?5mesh?5is?5too?5big?5fo@ 10045844     InternalTriangleMeshBuilder.obj
 0002:00001874       __real@48742400            10045874     InternalTriangleMeshBuilder.obj
 0002:00001878       ??_C@_0CH@GLEMKEIO@?4?4?2?4?4?2PhysXCooking?2src?2MeshClean@ 10045878     MeshCleaner.obj
 0002:000018a0       __real@4b000000            100458a0     MeshCleaner.obj
 0002:000018a4       __real@80000000            100458a4     MeshCleaner.obj
 0002:000018b0       __sz_PhysX3Common_x86_dll  100458b0     PhysX3Common_x86:PhysX3Common_x86.dll
 0002:000018c8       __FPinit                   100458c8     LIBCMT:fpinit.obj
 0002:000018cc       ?value@?$integral_constant@_N$0A@@std@@2_NB 100458cc     LIBCMT:typinfo.obj
 0002:000018cd       ?value@?$integral_constant@_N$00@std@@2_NB 100458cd     LIBCMT:typinfo.obj
 0002:000018d4       ??_7type_info@@6B@         100458d4     LIBCMT:typinfo.obj
 0002:00001964       ?ProcessDetach@NativeDll@<CrtImplementationDetails>@@0IB 10045964     LIBCMT:tncleanup.obj
 0002:00001968       ?ProcessAttach@NativeDll@<CrtImplementationDetails>@@0IB 10045968     LIBCMT:tncleanup.obj
 0002:0000196c       ?ThreadAttach@NativeDll@<CrtImplementationDetails>@@0IB 1004596c     LIBCMT:tncleanup.obj
 0002:00001970       ?ThreadDetach@NativeDll@<CrtImplementationDetails>@@0IB 10045970     LIBCMT:tncleanup.obj
 0002:00001974       ?ProcessVerifier@NativeDll@<CrtImplementationDetails>@@0IB 10045974     LIBCMT:tncleanup.obj
 0002:000027fc       __pRawDllMain              100467fc     LIBCMT:dllcrt0.obj
 0002:000027fc       __pDefaultRawDllMain       100467fc     LIBCMT:dllcrt0.obj
 0002:00002800       ??_C@_05KLBDPFGC@e?$CL000?$AA@ 10046800     LIBCMT:cvt.obj
 0002:0000280c       ??_7bad_alloc@std@@6B@     1004680c     LIBCMT:new.obj
 0002:00002814       ??_C@_0P@GHFPNOJB@bad?5allocation?$AA@ 10046814     LIBCMT:new.obj
 0002:00002824       ??_C@_03KHJOGHMM@exp?$AA@  10046824     LIBCMT:fpexcept.obj
 0002:00002828       ??_C@_03JGHBODFD@pow?$AA@  10046828     LIBCMT:fpexcept.obj
 0002:0000282c       ??_C@_03MGHMBJCF@log?$AA@  1004682c     LIBCMT:fpexcept.obj
 0002:00002830       ??_C@_05HGHHAHAP@log10?$AA@ 10046830     LIBCMT:fpexcept.obj
 0002:00002838       ??_C@_04COOMCNPB@sinh?$AA@ 10046838     LIBCMT:fpexcept.obj
 0002:00002840       ??_C@_04HPJJNFIM@cosh?$AA@ 10046840     LIBCMT:fpexcept.obj
 0002:00002848       ??_C@_04FJHINJAO@tanh?$AA@ 10046848     LIBCMT:fpexcept.obj
 0002:00002850       ??_C@_04FIHNOPOL@asin?$AA@ 10046850     LIBCMT:fpexcept.obj
 0002:00002858       ??_C@_04PDIFKINK@acos?$AA@ 10046858     LIBCMT:fpexcept.obj
 0002:00002860       ??_C@_04MLLJIGOK@atan?$AA@ 10046860     LIBCMT:fpexcept.obj
 0002:00002868       ??_C@_05KNGEOGJB@atan2?$AA@ 10046868     LIBCMT:fpexcept.obj
 0002:00002870       ??_C@_04EIAKFFMI@sqrt?$AA@ 10046870     LIBCMT:fpexcept.obj
 0002:00002878       ??_C@_03BLEJJJBH@sin?$AA@  10046878     LIBCMT:fpexcept.obj
 0002:0000287c       ??_C@_03LALBNOCG@cos?$AA@  1004687c     LIBCMT:fpexcept.obj
 0002:00002880       ??_C@_03IIINPABG@tan?$AA@  10046880     LIBCMT:fpexcept.obj
 0002:00002884       ??_C@_04GFPJNGEK@ceil?$AA@ 10046884     LIBCMT:fpexcept.obj
 0002:0000288c       ??_C@_05PBJFFIGL@floor?$AA@ 1004688c     LIBCMT:fpexcept.obj
 0002:00002894       ??_C@_04ODHECPBC@fabs?$AA@ 10046894     LIBCMT:fpexcept.obj
 0002:0000289c       ??_C@_04EHEDPDJG@modf?$AA@ 1004689c     LIBCMT:fpexcept.obj
 0002:000028a4       ??_C@_05CEJMAHNP@ldexp?$AA@ 100468a4     LIBCMT:fpexcept.obj
 0002:000028ac       ??_C@_05KBKMEMPO@_cabs?$AA@ 100468ac     LIBCMT:fpexcept.obj
 0002:000028b4       ??_C@_06MEIMCGCF@_hypot?$AA@ 100468b4     LIBCMT:fpexcept.obj
 0002:000028bc       ??_C@_04KEPJIHGP@fmod?$AA@ 100468bc     LIBCMT:fpexcept.obj
 0002:000028c4       ??_C@_05GKKHEGJL@frexp?$AA@ 100468c4     LIBCMT:fpexcept.obj
 0002:000028cc       ??_C@_03MJLDFKDL@_y0?$AA@  100468cc     LIBCMT:fpexcept.obj
 0002:000028d0       ??_C@_03NAKIGLHK@_y1?$AA@  100468d0     LIBCMT:fpexcept.obj
 0002:000028d4       ??_C@_03ONILCKOB@_yn?$AA@  100468d4     LIBCMT:fpexcept.obj
 0002:000028d8       ??_C@_05JGDBENOH@_logb?$AA@ 100468d8     LIBCMT:fpexcept.obj
 0002:000028e0       ??_C@_0L@KDOEJCKC@_nextafter?$AA@ 100468e0     LIBCMT:fpexcept.obj
 0002:000028ec       ??_C@_06OJHGLDPL@?$CInull?$CJ?$AA@ 100468ec     LIBCMT:output.obj
 0002:000028f4       ??_C@_1O@CEDCILHN@?$AA?$CI?$AAn?$AAu?$AAl?$AAl?$AA?$CJ?$AA?$AA@ 100468f4     LIBCMT:output.obj
 0002:00002908       ___lookuptable             10046908     LIBCMT:output.obj
 0002:00002968       __XcptActTab               10046968     LIBCMT:winxfltr.obj
 0002:000029f8       __XcptActTabCount          100469f8     LIBCMT:winxfltr.obj
 0002:000029fc       __XcptActTabSize           100469fc     LIBCMT:winxfltr.obj
 0002:00002a00       __First_FPE_Indx           10046a00     LIBCMT:winxfltr.obj
 0002:00002a04       __Num_FPE                  10046a04     LIBCMT:winxfltr.obj
 0002:00002a08       ??_C@_1BI@BGOHAHKC@?$AAm?$AAs?$AAc?$AAo?$AAr?$AAe?$AAe?$AA?4?$AAd?$AAl?$AAl?$AA?$AA@ 10046a08     LIBCMT:crt0dat.obj
 0002:00002a20       ??_C@_0P@MIGLKIOC@CorExitProcess?$AA@ 10046a20     LIBCMT:crt0dat.obj
 0002:00002a30       ??_C@_1BK@MGMFAEKH@?$AAk?$AAe?$AAr?$AAn?$AAe?$AAl?$AA3?$AA2?$AA?4?$AAd?$AAl?$AAl?$AA?$AA@ 10046a30     LIBCMT:winapisupp.obj
 0002:00002a4c       ??_C@_08KNHFBNJ@FlsAlloc?$AA@ 10046a4c     LIBCMT:winapisupp.obj
 0002:00002a58       ??_C@_07PEJMOBNF@FlsFree?$AA@ 10046a58     LIBCMT:winapisupp.obj
 0002:00002a60       ??_C@_0M@GDNOONDI@FlsGetValue?$AA@ 10046a60     LIBCMT:winapisupp.obj
 0002:00002a6c       ??_C@_0M@JCPCPOEF@FlsSetValue?$AA@ 10046a6c     LIBCMT:winapisupp.obj
 0002:00002a78       ??_C@_0BM@HCFOFFN@InitializeCriticalSectionEx?$AA@ 10046a78     LIBCMT:winapisupp.obj
 0002:00002a94       ??_C@_0P@DLHPPCNH@CreateEventExW?$AA@ 10046a94     LIBCMT:winapisupp.obj
 0002:00002aa4       ??_C@_0BD@KIEEOEEH@CreateSemaphoreExW?$AA@ 10046aa4     LIBCMT:winapisupp.obj
 0002:00002ab8       ??_C@_0BI@BKLFFAPO@SetThreadStackGuarantee?$AA@ 10046ab8     LIBCMT:winapisupp.obj
 0002:00002ad0       ??_C@_0BG@OGFAJCKC@CreateThreadpoolTimer?$AA@ 10046ad0     LIBCMT:winapisupp.obj
 0002:00002ae8       ??_C@_0BD@LPLEMMDI@SetThreadpoolTimer?$AA@ 10046ae8     LIBCMT:winapisupp.obj
 0002:00002afc       ??_C@_0CA@FMNJENH@WaitForThreadpoolTimerCallbacks?$AA@ 10046afc     LIBCMT:winapisupp.obj
 0002:00002b1c       ??_C@_0BF@DCFCCNOC@CloseThreadpoolTimer?$AA@ 10046b1c     LIBCMT:winapisupp.obj
 0002:00002b34       ??_C@_0BF@FLABGKKM@CreateThreadpoolWait?$AA@ 10046b34     LIBCMT:winapisupp.obj
 0002:00002b4c       ??_C@_0BC@MGCOHNA@SetThreadpoolWait?$AA@ 10046b4c     LIBCMT:winapisupp.obj
 0002:00002b60       ??_C@_0BE@OCIOMIMP@CloseThreadpoolWait?$AA@ 10046b60     LIBCMT:winapisupp.obj
 0002:00002b74       ??_C@_0BJ@LKGHFHBO@FlushProcessWriteBuffers?$AA@ 10046b74     LIBCMT:winapisupp.obj
 0002:00002b90       ??_C@_0BP@KALKKPMO@FreeLibraryWhenCallbackReturns?$AA@ 10046b90     LIBCMT:winapisupp.obj
 0002:00002bb0       ??_C@_0BK@DFNBACLA@GetCurrentProcessorNumber?$AA@ 10046bb0     LIBCMT:winapisupp.obj
 0002:00002bcc       ??_C@_0BP@KHGALBC@GetLogicalProcessorInformation?$AA@ 10046bcc     LIBCMT:winapisupp.obj
 0002:00002bec       ??_C@_0BE@FKKLLFLM@CreateSymbolicLinkW?$AA@ 10046bec     LIBCMT:winapisupp.obj
 0002:00002c00       ??_C@_0BJ@OHNKDLIJ@SetDefaultDllDirectories?$AA@ 10046c00     LIBCMT:winapisupp.obj
 0002:00002c1c       ??_C@_0BE@LJANKFHF@EnumSystemLocalesEx?$AA@ 10046c1c     LIBCMT:winapisupp.obj
 0002:00002c30       ??_C@_0BA@IHGNDAEB@CompareStringEx?$AA@ 10046c30     LIBCMT:winapisupp.obj
 0002:00002c40       ??_C@_0BA@EPCJIIPD@GetDateFormatEx?$AA@ 10046c40     LIBCMT:winapisupp.obj
 0002:00002c50       ??_C@_0BA@ONOKGCMP@GetLocaleInfoEx?$AA@ 10046c50     LIBCMT:winapisupp.obj
 0002:00002c60       ??_C@_0BA@CIJJKCJJ@GetTimeFormatEx?$AA@ 10046c60     LIBCMT:winapisupp.obj
 0002:00002c70       ??_C@_0BJ@PBCCBIPI@GetUserDefaultLocaleName?$AA@ 10046c70     LIBCMT:winapisupp.obj
 0002:00002c8c       ??_C@_0BC@CELBKLLA@IsValidLocaleName?$AA@ 10046c8c     LIBCMT:winapisupp.obj
 0002:00002ca0       ??_C@_0O@KKBNKAPF@LCMapStringEx?$AA@ 10046ca0     LIBCMT:winapisupp.obj
 0002:00002cb0       ??_C@_0BE@JOGNEJCI@GetCurrentPackageId?$AA@ 10046cb0     LIBCMT:winapisupp.obj
 0002:00002cc4       ??_C@_0P@CDHHOHKP@GetTickCount64?$AA@ 10046cc4     LIBCMT:winapisupp.obj
 0002:00002cd4       ??_C@_0BO@KPCLFDJJ@GetFileInformationByHandleExW?$AA@ 10046cd4     LIBCMT:winapisupp.obj
 0002:00002cf4       ??_C@_0BM@MHIDLABK@SetFileInformationByHandleW?$AA@ 10046cf4     LIBCMT:winapisupp.obj
 0002:00002d20       ??_C@_1M@HPNHIDJI@?$AAj?$AAa?$AA?9?$AAJ?$AAP?$AA?$AA@ 10046d20     LIBCMT:mbctype.obj
 0002:00002d2c       ??_C@_1M@BIBDDEMK@?$AAz?$AAh?$AA?9?$AAC?$AAN?$AA?$AA@ 10046d2c     LIBCMT:mbctype.obj
 0002:00002d38       ??_C@_1M@JLOOOEGK@?$AAk?$AAo?$AA?9?$AAK?$AAR?$AA?$AA@ 10046d38     LIBCMT:mbctype.obj
 0002:00002d44       ??_C@_1M@CLNBBOPM@?$AAz?$AAh?$AA?9?$AAT?$AAW?$AA?$AA@ 10046d44     LIBCMT:mbctype.obj
 0002:00002d50       ??_C@_03KOEHGMDN@Sun?$AA@  10046d50     LIBCMT:nlsdata.obj
 0002:00002d54       ??_C@_03PDAGKDH@Mon?$AA@   10046d54     LIBCMT:nlsdata.obj
 0002:00002d58       ??_C@_03NAGEINEP@Tue?$AA@  10046d58     LIBCMT:nlsdata.obj
 0002:00002d5c       ??_C@_03MHOMLAJA@Wed?$AA@  10046d5c     LIBCMT:nlsdata.obj
 0002:00002d60       ??_C@_03IOFIKPDN@Thu?$AA@  10046d60     LIBCMT:nlsdata.obj
 0002:00002d64       ??_C@_03IDIOELNC@Fri?$AA@  10046d64     LIBCMT:nlsdata.obj
 0002:00002d68       ??_C@_03FEFJNEK@Sat?$AA@   10046d68     LIBCMT:nlsdata.obj
 0002:00002d6c       ??_C@_06OOPIFAJ@Sunday?$AA@ 10046d6c     LIBCMT:nlsdata.obj
 0002:00002d74       ??_C@_06JLEDEDGH@Monday?$AA@ 10046d74     LIBCMT:nlsdata.obj
 0002:00002d7c       ??_C@_07BAAGCFCM@Tuesday?$AA@ 10046d7c     LIBCMT:nlsdata.obj
 0002:00002d84       ??_C@_09DLIGFAKA@Wednesday?$AA@ 10046d84     LIBCMT:nlsdata.obj
 0002:00002d90       ??_C@_08HACCIKIA@Thursday?$AA@ 10046d90     LIBCMT:nlsdata.obj
 0002:00002d9c       ??_C@_06JECMNKMI@Friday?$AA@ 10046d9c     LIBCMT:nlsdata.obj
 0002:00002da4       ??_C@_08INBOOONO@Saturday?$AA@ 10046da4     LIBCMT:nlsdata.obj
 0002:00002db0       ??_C@_03JIHJHPIE@Jan?$AA@  10046db0     LIBCMT:nlsdata.obj
 0002:00002db4       ??_C@_03HJBDCHOM@Feb?$AA@  10046db4     LIBCMT:nlsdata.obj
 0002:00002db8       ??_C@_03ODNJBKGA@Mar?$AA@  10046db8     LIBCMT:nlsdata.obj
 0002:00002dbc       ??_C@_03LEOLGMJP@Apr?$AA@  10046dbc     LIBCMT:nlsdata.obj
 0002:00002dc0       ??_C@_03CNMDKL@May?$AA@    10046dc0     LIBCMT:nlsdata.obj
 0002:00002dc4       ??_C@_03IDFGHECI@Jun?$AA@  10046dc4     LIBCMT:nlsdata.obj
 0002:00002dc8       ??_C@_03LBGABGKK@Jul?$AA@  10046dc8     LIBCMT:nlsdata.obj
 0002:00002dcc       ??_C@_03IFJFEIGA@Aug?$AA@  10046dcc     LIBCMT:nlsdata.obj
 0002:00002dd0       ??_C@_03GGCAPAJC@Sep?$AA@  10046dd0     LIBCMT:nlsdata.obj
 0002:00002dd4       ??_C@_03BMAOKBAD@Oct?$AA@  10046dd4     LIBCMT:nlsdata.obj
 0002:00002dd8       ??_C@_03JPJOFNIA@Nov?$AA@  10046dd8     LIBCMT:nlsdata.obj
 0002:00002ddc       ??_C@_03MKABNOCG@Dec?$AA@  10046ddc     LIBCMT:nlsdata.obj
 0002:00002de0       ??_C@_07CGJPFGJA@January?$AA@ 10046de0     LIBCMT:nlsdata.obj
 0002:00002de8       ??_C@_08GNJGEPFN@February?$AA@ 10046de8     LIBCMT:nlsdata.obj
 0002:00002df4       ??_C@_05HPCKOFNC@March?$AA@ 10046df4     LIBCMT:nlsdata.obj
 0002:00002dfc       ??_C@_05DMJDNLEJ@April?$AA@ 10046dfc     LIBCMT:nlsdata.obj
 0002:00002e04       ??_C@_04CNLMGBGM@June?$AA@ 10046e04     LIBCMT:nlsdata.obj
 0002:00002e0c       ??_C@_04MIEPOIFP@July?$AA@ 10046e0c     LIBCMT:nlsdata.obj
 0002:00002e14       ??_C@_06LBBHFDDG@August?$AA@ 10046e14     LIBCMT:nlsdata.obj
 0002:00002e1c       ??_C@_09BHHEALKD@September?$AA@ 10046e1c     LIBCMT:nlsdata.obj
 0002:00002e28       ??_C@_07JJNFCEND@October?$AA@ 10046e28     LIBCMT:nlsdata.obj
 0002:00002e30       ??_C@_08HCHEGEOA@November?$AA@ 10046e30     LIBCMT:nlsdata.obj
 0002:00002e3c       ??_C@_08EDHMEBNP@December?$AA@ 10046e3c     LIBCMT:nlsdata.obj
 0002:00002e48       ??_C@_02DEDBPAFC@AM?$AA@   10046e48     LIBCMT:nlsdata.obj
 0002:00002e4c       ??_C@_02CJNFDJBF@PM?$AA@   10046e4c     LIBCMT:nlsdata.obj
 0002:00002e50       ??_C@_08BPBNCDIB@MM?1dd?1yy?$AA@ 10046e50     LIBCMT:nlsdata.obj
 0002:00002e5c       ??_C@_0BE@CKGJFCPC@dddd?0?5MMMM?5dd?0?5yyyy?$AA@ 10046e5c     LIBCMT:nlsdata.obj
 0002:00002e70       ??_C@_08JCCMCCIL@HH?3mm?3ss?$AA@ 10046e70     LIBCMT:nlsdata.obj
 0002:00002e7c       ??_C@_17MBGCMIPB@?$AAS?$AAu?$AAn?$AA?$AA@ 10046e7c     LIBCMT:nlsdata.obj
 0002:00002e84       ??_C@_17KBOMKBF@?$AAM?$AAo?$AAn?$AA?$AA@ 10046e84     LIBCMT:nlsdata.obj
 0002:00002e8c       ??_C@_17BMKGEGOJ@?$AAT?$AAu?$AAe?$AA?$AA@ 10046e8c     LIBCMT:nlsdata.obj
 0002:00002e94       ??_C@_17CJEDCEPE@?$AAW?$AAe?$AAd?$AA?$AA@ 10046e94     LIBCMT:nlsdata.obj
 0002:00002e9c       ??_C@_17PDPHAADD@?$AAT?$AAh?$AAu?$AA?$AA@ 10046e9c     LIBCMT:nlsdata.obj
 0002:00002ea4       ??_C@_17HFOLPPLP@?$AAF?$AAr?$AAi?$AA?$AA@ 10046ea4     LIBCMT:nlsdata.obj
 0002:00002eac       ??_C@_17GGIBDPIH@?$AAS?$AAa?$AAt?$AA?$AA@ 10046eac     LIBCMT:nlsdata.obj
 0002:00002eb4       ??_C@_1O@IHNHDHPB@?$AAS?$AAu?$AAn?$AAd?$AAa?$AAy?$AA?$AA@ 10046eb4     LIBCMT:nlsdata.obj
 0002:00002ec4       ??_C@_1O@MMNBFLIA@?$AAM?$AAo?$AAn?$AAd?$AAa?$AAy?$AA?$AA@ 10046ec4     LIBCMT:nlsdata.obj
 0002:00002ed4       ??_C@_1BA@ENFBFFEK@?$AAT?$AAu?$AAe?$AAs?$AAd?$AAa?$AAy?$AA?$AA@ 10046ed4     LIBCMT:nlsdata.obj
 0002:00002ee4       ??_C@_1BE@EBOGMDOH@?$AAW?$AAe?$AAd?$AAn?$AAe?$AAs?$AAd?$AAa?$AAy?$AA?$AA@ 10046ee4     LIBCMT:nlsdata.obj
 0002:00002ef8       ??_C@_1BC@HHMNLIHE@?$AAT?$AAh?$AAu?$AAr?$AAs?$AAd?$AAa?$AAy?$AA?$AA@ 10046ef8     LIBCMT:nlsdata.obj
 0002:00002f0c       ??_C@_1O@PDICJHAG@?$AAF?$AAr?$AAi?$AAd?$AAa?$AAy?$AA?$AA@ 10046f0c     LIBCMT:nlsdata.obj
 0002:00002f1c       ??_C@_1BC@ENMNNPAJ@?$AAS?$AAa?$AAt?$AAu?$AAr?$AAd?$AAa?$AAy?$AA?$AA@ 10046f1c     LIBCMT:nlsdata.obj
 0002:00002f30       ??_C@_17DKNBKCHM@?$AAJ?$AAa?$AAn?$AA?$AA@ 10046f30     LIBCMT:nlsdata.obj
 0002:00002f38       ??_C@_17LMDJEKJN@?$AAF?$AAe?$AAb?$AA?$AA@ 10046f38     LIBCMT:nlsdata.obj
 0002:00002f40       ??_C@_17CKNLEDEC@?$AAM?$AAa?$AAr?$AA?$AA@ 10046f40     LIBCMT:nlsdata.obj
 0002:00002f48       ??_C@_17LFPOIHDD@?$AAA?$AAp?$AAr?$AA?$AA@ 10046f48     LIBCMT:nlsdata.obj
 0002:00002f50       ??_C@_17PNNKMEED@?$AAM?$AAa?$AAy?$AA?$AA@ 10046f50     LIBCMT:nlsdata.obj
 0002:00002f58       ??_C@_17KCJGOCPB@?$AAJ?$AAu?$AAn?$AA?$AA@ 10046f58     LIBCMT:nlsdata.obj
 0002:00002f60       ??_C@_17IJPCKHK@?$AAJ?$AAu?$AAl?$AA?$AA@ 10046f60     LIBCMT:nlsdata.obj
 0002:00002f68       ??_C@_17ICPELBCN@?$AAA?$AAu?$AAg?$AA?$AA@ 10046f68     LIBCMT:nlsdata.obj
 0002:00002f70       ??_C@_17HCHCOKMG@?$AAS?$AAe?$AAp?$AA?$AA@ 10046f70     LIBCMT:nlsdata.obj
 0002:00002f78       ??_C@_17FNLKOI@?$AAO?$AAc?$AAt?$AA?$AA@ 10046f78     LIBCMT:nlsdata.obj
 0002:00002f80       ??_C@_17BBDMLCIG@?$AAN?$AAo?$AAv?$AA?$AA@ 10046f80     LIBCMT:nlsdata.obj
 0002:00002f88       ??_C@_17EGKACKIF@?$AAD?$AAe?$AAc?$AA?$AA@ 10046f88     LIBCMT:nlsdata.obj
 0002:00002f90       ??_C@_1BA@EFMEIEBA@?$AAJ?$AAa?$AAn?$AAu?$AAa?$AAr?$AAy?$AA?$AA@ 10046f90     LIBCMT:nlsdata.obj
 0002:00002fa0       ??_C@_1BC@JGDDFFAM@?$AAF?$AAe?$AAb?$AAr?$AAu?$AAa?$AAr?$AAy?$AA?$AA@ 10046fa0     LIBCMT:nlsdata.obj
 0002:00002fb4       ??_C@_1M@IKEENEDF@?$AAM?$AAa?$AAr?$AAc?$AAh?$AA?$AA@ 10046fb4     LIBCMT:nlsdata.obj
 0002:00002fc0       ??_C@_1M@GJNLMHFD@?$AAA?$AAp?$AAr?$AAi?$AAl?$AA?$AA@ 10046fc0     LIBCMT:nlsdata.obj
 0002:00002fcc       ??_C@_19EPFLPGAP@?$AAJ?$AAu?$AAn?$AAe?$AA?$AA@ 10046fcc     LIBCMT:nlsdata.obj
 0002:00002fd8       ??_C@_19BIFMLPCD@?$AAJ?$AAu?$AAl?$AAy?$AA?$AA@ 10046fd8     LIBCMT:nlsdata.obj
 0002:00002fe4       ??_C@_1O@PAHLKOAC@?$AAA?$AAu?$AAg?$AAu?$AAs?$AAt?$AA?$AA@ 10046fe4     LIBCMT:nlsdata.obj
 0002:00002ff4       ??_C@_1BE@DKAAMBJL@?$AAS?$AAe?$AAp?$AAt?$AAe?$AAm?$AAb?$AAe?$AAr?$AA?$AA@ 10046ff4     LIBCMT:nlsdata.obj
 0002:00003008       ??_C@_1BA@EPANDLNG@?$AAO?$AAc?$AAt?$AAo?$AAb?$AAe?$AAr?$AA?$AA@ 10047008     LIBCMT:nlsdata.obj
 0002:00003018       ??_C@_1BC@BGLIFPF@?$AAN?$AAo?$AAv?$AAe?$AAm?$AAb?$AAe?$AAr?$AA?$AA@ 10047018     LIBCMT:nlsdata.obj
 0002:0000302c       ??_C@_1BC@FEMKIFH@?$AAD?$AAe?$AAc?$AAe?$AAm?$AAb?$AAe?$AAr?$AA?$AA@ 1004702c     LIBCMT:nlsdata.obj
 0002:00003040       ??_C@_15ODEHAHHF@?$AAA?$AAM?$AA?$AA@ 10047040     LIBCMT:nlsdata.obj
 0002:00003048       ??_C@_15CLMNNGEL@?$AAP?$AAM?$AA?$AA@ 10047048     LIBCMT:nlsdata.obj
 0002:00003050       ??_C@_1BC@IEBCMHCM@?$AAM?$AAM?$AA?1?$AAd?$AAd?$AA?1?$AAy?$AAy?$AA?$AA@ 10047050     LIBCMT:nlsdata.obj
 0002:00003064       ??_C@_1CI@KNAKOEBC@?$AAd?$AAd?$AAd?$AAd?$AA?0?$AA?5?$AAM?$AAM?$AAM?$AAM?$AA?5?$AAd?$AAd?$AA?0?$AA?5?$AAy?$AAy?$AAy?$AAy?$AA?$AA@ 10047064     LIBCMT:nlsdata.obj
 0002:0000308c       ??_C@_1BC@GDGBMEMK@?$AAH?$AAH?$AA?3?$AAm?$AAm?$AA?3?$AAs?$AAs?$AA?$AA@ 1004708c     LIBCMT:nlsdata.obj
 0002:000030a0       ??_C@_1M@BMHNFIME@?$AAe?$AAn?$AA?9?$AAU?$AAS?$AA?$AA@ 100470a0     LIBCMT:nlsdata.obj
 0002:0000323c       ??_C@_08EHJDFFNH@__based?$CI?$AA@ 1004723c     LIBCMT:undname.obj
 0002:00003248       ??_C@_07KOLFKCDI@__cdecl?$AA@ 10047248     LIBCMT:undname.obj
 0002:00003250       ??_C@_08GHMPAG@__pascal?$AA@ 10047250     LIBCMT:undname.obj
 0002:0000325c       ??_C@_09IFJBGAPI@__stdcall?$AA@ 1004725c     LIBCMT:undname.obj
 0002:00003268       ??_C@_0L@NPHFGOKO@__thiscall?$AA@ 10047268     LIBCMT:undname.obj
 0002:00003274       ??_C@_0L@JMKHOMEK@__fastcall?$AA@ 10047274     LIBCMT:undname.obj
 0002:00003280       ??_C@_0N@BCKKPABJ@__vectorcall?$AA@ 10047280     LIBCMT:undname.obj
 0002:00003290       ??_C@_09HIJEGCPM@__clrcall?$AA@ 10047290     LIBCMT:undname.obj
 0002:0000329c       ??_C@_06GHPCKEAG@__eabi?$AA@ 1004729c     LIBCMT:undname.obj
 0002:000032a4       ??_C@_07JOMMBBKO@__ptr64?$AA@ 100472a4     LIBCMT:undname.obj
 0002:000032ac       ??_C@_0L@PILCLIHE@__restrict?$AA@ 100472ac     LIBCMT:undname.obj
 0002:000032b8       ??_C@_0M@GFIIJFMG@__unaligned?$AA@ 100472b8     LIBCMT:undname.obj
 0002:000032c4       ??_C@_09DHDLOLLB@restrict?$CI?$AA@ 100472c4     LIBCMT:undname.obj
 0002:000032ce       ??_C@_00CNPNBAHC@?$AA@     100472ce     LIBCMT:undname.obj
 0002:000032d0       ??_C@_04NIHEBCM@?5new?$AA@ 100472d0     LIBCMT:undname.obj
 0002:000032d8       ??_C@_07FPCDHGMM@?5delete?$AA@ 100472d8     LIBCMT:undname.obj
 0002:000032e0       ??_C@_01NEMOKFLO@?$DN?$AA@ 100472e0     LIBCMT:undname.obj
 0002:000032e4       ??_C@_02GPIOPFAK@?$DO?$DO?$AA@ 100472e4     LIBCMT:undname.obj
 0002:000032e8       ??_C@_02FODMEDOG@?$DM?$DM?$AA@ 100472e8     LIBCMT:undname.obj
 0002:000032ec       ??_C@_01DCLJPIOD@?$CB?$AA@ 100472ec     LIBCMT:undname.obj
 0002:000032f0       ??_C@_02EGOFBIJA@?$DN?$DN?$AA@ 100472f0     LIBCMT:undname.obj
 0002:000032f4       ??_C@_02FDNJECIE@?$CB?$DN?$AA@ 100472f4     LIBCMT:undname.obj
 0002:000032f8       ??_C@_02GPECMEKF@?$FL?$FN?$AA@ 100472f8     LIBCMT:undname.obj
 0002:000032fc       ??_C@_08LHJFAFGD@operator?$AA@ 100472fc     LIBCMT:undname.obj
 0002:00003308       ??_C@_02HBOOOICD@?9?$DO?$AA@ 10047308     LIBCMT:undname.obj
 0002:0000330c       ??_C@_01NBENCBCI@?$CK?$AA@ 1004730c     LIBCMT:undname.obj
 0002:00003310       ??_C@_02ECNGHCIF@?$CL?$CL?$AA@ 10047310     LIBCMT:undname.obj
 0002:00003314       ??_C@_02BAABKJLB@?9?9?$AA@ 10047314     LIBCMT:undname.obj
 0002:00003318       ??_C@_01JOAMLHOP@?9?$AA@   10047318     LIBCMT:undname.obj
 0002:0000331c       ??_C@_01MIFGBAGJ@?$CL?$AA@ 1004731c     LIBCMT:undname.obj
 0002:00003320       ??_C@_01HNPIGOCE@?$CG?$AA@ 10047320     LIBCMT:undname.obj
 0002:00003324       ??_C@_03MNHNFDLC@?9?$DO?$CK?$AA@ 10047324     LIBCMT:undname.obj
 0002:00003328       ??_C@_01KMDKNFGN@?1?$AA@   10047328     LIBCMT:undname.obj
 0002:0000332c       ??_C@_01FGNFDNOH@?$CF?$AA@ 1004732c     LIBCMT:undname.obj
 0002:00003330       ??_C@_01MNNFJEPP@?$DM?$AA@ 10047330     LIBCMT:undname.obj
 0002:00003334       ??_C@_02EHCHHCKH@?$DM?$DN?$AA@ 10047334     LIBCMT:undname.obj
 0002:00003338       ??_C@_01PPODPGHN@?$DO?$AA@ 10047338     LIBCMT:undname.obj
 0002:0000333c       ??_C@_02EEKDKGMJ@?$DO?$DN?$AA@ 1004733c     LIBCMT:undname.obj
 0002:00003340       ??_C@_01IHBHIGKO@?0?$AA@   10047340     LIBCMT:undname.obj
 0002:00003344       ??_C@_02HCKGKOFO@?$CI?$CJ?$AA@ 10047344     LIBCMT:undname.obj
 0002:00003348       ??_C@_01PJKLJHI@?$HO?$AA@  10047348     LIBCMT:undname.obj
 0002:0000334c       ??_C@_01JKBOJNNK@?$FO?$AA@ 1004734c     LIBCMT:undname.obj
 0002:00003350       ??_C@_01DNKMNLPK@?$HM?$AA@ 10047350     LIBCMT:undname.obj
 0002:00003354       ??_C@_02PPKAJPJL@?$CG?$CG?$AA@ 10047354     LIBCMT:undname.obj
 0002:00003358       ??_C@_02NONPIBCD@?$HM?$HM?$AA@ 10047358     LIBCMT:undname.obj
 0002:0000335c       ??_C@_02FPIMKNGF@?$CK?$DN?$AA@ 1004735c     LIBCMT:undname.obj
 0002:00003360       ??_C@_02FOEOMHFC@?$CL?$DN?$AA@ 10047360     LIBCMT:undname.obj
 0002:00003364       ??_C@_02FKMDLLOA@?9?$DN?$AA@ 10047364     LIBCMT:undname.obj
 0002:00003368       ??_C@_02FJEHGPIO@?1?$DN?$AA@ 10047368     LIBCMT:undname.obj
 0002:0000336c       ??_C@_02FENAOKFI@?$CF?$DN?$AA@ 1004736c     LIBCMT:undname.obj
 0002:00003370       ??_C@_03IKFCCPFF@?$DO?$DO?$DN?$AA@ 10047370     LIBCMT:undname.obj
 0002:00003374       ??_C@_03CDNPDDLA@?$DM?$DM?$DN?$AA@ 10047374     LIBCMT:undname.obj
 0002:00003378       ??_C@_02FGJGFEAB@?$CG?$DN?$AA@ 10047378     LIBCMT:undname.obj
 0002:0000337c       ??_C@_02DHLNPPGH@?$HM?$DN?$AA@ 1004737c     LIBCMT:undname.obj
 0002:00003380       ??_C@_02MHEGNOJ@?$FO?$DN?$AA@ 10047380     LIBCMT:undname.obj
 0002:00003384       ??_C@_09IFPLHPGF@?$GAvftable?8?$AA@ 10047384     LIBCMT:undname.obj
 0002:00003390       ??_C@_09BLBHBJP@?$GAvbtable?8?$AA@ 10047390     LIBCMT:undname.obj
 0002:0000339c       ??_C@_07FEEIOKP@?$GAvcall?8?$AA@ 1004739c     LIBCMT:undname.obj
 0002:000033a4       ??_C@_08LLFFHHDJ@?$GAtypeof?8?$AA@ 100473a4     LIBCMT:undname.obj
 0002:000033b0       ??_C@_0BF@KDPPACIK@?$GAlocal?5static?5guard?8?$AA@ 100473b0     LIBCMT:undname.obj
 0002:000033c8       ??_C@_08OBABFOLI@?$GAstring?8?$AA@ 100473c8     LIBCMT:undname.obj
 0002:000033d4       ??_C@_0BD@JDLKDPAB@?$GAvbase?5destructor?8?$AA@ 100473d4     LIBCMT:undname.obj
 0002:000033e8       ??_C@_0BN@DEGPLNFK@?$GAvector?5deleting?5destructor?8?$AA@ 100473e8     LIBCMT:undname.obj
 0002:00003408       ??_C@_0BO@OBMKPJIG@?$GAdefault?5constructor?5closure?8?$AA@ 10047408     LIBCMT:undname.obj
 0002:00003428       ??_C@_0BN@IMDCHIKM@?$GAscalar?5deleting?5destructor?8?$AA@ 10047428     LIBCMT:undname.obj
 0002:00003448       ??_C@_0BO@PFGOCPJJ@?$GAvector?5constructor?5iterator?8?$AA@ 10047448     LIBCMT:undname.obj
 0002:00003468       ??_C@_0BN@LFPFMEDL@?$GAvector?5destructor?5iterator?8?$AA@ 10047468     LIBCMT:undname.obj
 0002:00003488       ??_C@_0CE@IKBNEHA@?$GAvector?5vbase?5constructor?5iterat@ 10047488     LIBCMT:undname.obj
 0002:000034ac       ??_C@_0BL@NILFHHPC@?$GAvirtual?5displacement?5map?8?$AA@ 100474ac     LIBCMT:undname.obj
 0002:000034c8       ??_C@_0CB@JONCMFFK@?$GAeh?5vector?5constructor?5iterator?8@ 100474c8     LIBCMT:undname.obj
 0002:000034ec       ??_C@_0CA@GCEOPDGL@?$GAeh?5vector?5destructor?5iterator?8?$AA@ 100474ec     LIBCMT:undname.obj
 0002:0000350c       ??_C@_0CH@OOJPLCPH@?$GAeh?5vector?5vbase?5constructor?5ite@ 1004750c     LIBCMT:undname.obj
 0002:00003534       ??_C@_0BL@LLKPOHJI@?$GAcopy?5constructor?5closure?8?$AA@ 10047534     LIBCMT:undname.obj
 0002:00003550       ??_C@_0BA@KBCDOMBN@?$GAudt?5returning?8?$AA@ 10047550     LIBCMT:undname.obj
 0002:00003560       ??_C@_03KLGMFNMG@?$GAEH?$AA@ 10047560     LIBCMT:undname.obj
 0002:00003564       ??_C@_05KHLCHHI@?$GARTTI?$AA@ 10047564     LIBCMT:undname.obj
 0002:0000356c       ??_C@_0BA@KKLDJDLB@?$GAlocal?5vftable?8?$AA@ 1004756c     LIBCMT:undname.obj
 0002:0000357c       ??_C@_0CE@IIHCMGGL@?$GAlocal?5vftable?5constructor?5closu@ 1004757c     LIBCMT:undname.obj
 0002:000035a0       ??_C@_06FHBGPFGH@?5new?$FL?$FN?$AA@ 100475a0     LIBCMT:undname.obj
 0002:000035a8       ??_C@_09LBNFPBCA@?5delete?$FL?$FN?$AA@ 100475a8     LIBCMT:undname.obj
 0002:000035b4       ??_C@_0P@HJKNJFNN@?$GAomni?5callsig?8?$AA@ 100475b4     LIBCMT:undname.obj
 0002:000035c4       ??_C@_0BL@CNOONJFP@?$GAplacement?5delete?5closure?8?$AA@ 100475c4     LIBCMT:undname.obj
 0002:000035e0       ??_C@_0BN@CKNJLHMB@?$GAplacement?5delete?$FL?$FN?5closure?8?$AA@ 100475e0     LIBCMT:undname.obj
 0002:00003600       ??_C@_0CG@CFDHKGGD@?$GAmanaged?5vector?5constructor?5iter@ 10047600     LIBCMT:undname.obj
 0002:00003628       ??_C@_0CF@IMGKMJNO@?$GAmanaged?5vector?5destructor?5itera@ 10047628     LIBCMT:undname.obj
 0002:00003650       ??_C@_0CG@HLDDJMAG@?$GAeh?5vector?5copy?5constructor?5iter@ 10047650     LIBCMT:undname.obj
 0002:00003678       ??_C@_0CM@FCBBDIGB@?$GAeh?5vector?5vbase?5copy?5constructo@ 10047678     LIBCMT:undname.obj
 0002:000036a4       ??_C@_0BL@CLIPGLGB@?$GAdynamic?5initializer?5for?5?8?$AA@ 100476a4     LIBCMT:undname.obj
 0002:000036c0       ??_C@_0CB@PDBIFEP@?$GAdynamic?5atexit?5destructor?5for?5?8@ 100476c0     LIBCMT:undname.obj
 0002:000036e4       ??_C@_0CD@CGAJBKEJ@?$GAvector?5copy?5constructor?5iterato@ 100476e4     LIBCMT:undname.obj
 0002:00003708       ??_C@_0CJ@GJELGAMM@?$GAvector?5vbase?5copy?5constructor?5i@ 10047708     LIBCMT:undname.obj
 0002:00003734       ??_C@_0CL@FGIJHLCE@?$GAmanaged?5vector?5copy?5constructor@ 10047734     LIBCMT:undname.obj
 0002:00003760       ??_C@_0BM@PMGGMLDN@?$GAlocal?5static?5thread?5guard?8?$AA@ 10047760     LIBCMT:undname.obj
 0002:0000377c       ??_C@_0BC@DAFEJGAK@?5Type?5Descriptor?8?$AA@ 1004777c     LIBCMT:undname.obj
 0002:00003790       ??_C@_0BM@LDKODKLH@?5Base?5Class?5Descriptor?5at?5?$CI?$AA@ 10047790     LIBCMT:undname.obj
 0002:000037ac       ??_C@_0BD@LGICGFMM@?5Base?5Class?5Array?8?$AA@ 100477ac     LIBCMT:undname.obj
 0002:000037c0       ??_C@_0BN@MECKDCOJ@?5Class?5Hierarchy?5Descriptor?8?$AA@ 100477c0     LIBCMT:undname.obj
 0002:000037e0       ??_C@_0BK@CFCOFLF@?5Complete?5Object?5Locator?8?$AA@ 100477e0     LIBCMT:undname.obj
 0002:000037fc       ??_C@_04HEJADOOB@CV?3?5?$AA@ 100477fc     LIBCMT:undname.obj
 0002:00003804       ??_C@_02MOLJINC@?3?3?$AA@  10047804     LIBCMT:undname.obj
 0002:00003808       ??_C@_0BE@JAEOCHPE@template?9parameter?9?$AA@ 10047808     LIBCMT:undname.obj
 0002:0000381c       ??_C@_0O@KHGCOMHP@generic?9type?9?$AA@ 1004781c     LIBCMT:undname.obj
 0002:0000382c       ??_C@_01NLNLIGKH@?$GA?$AA@ 1004782c     LIBCMT:undname.obj
 0002:00003830       ??_C@_01GEODFPGF@?8?$AA@   10047830     LIBCMT:undname.obj
 0002:00003834       ??_C@_0BG@JNJLAMPM@?$GAanonymous?5namespace?8?$AA@ 10047834     LIBCMT:undname.obj
 0002:0000384c       ??_C@_02OHHJMEON@?8?8?$AA@ 1004784c     LIBCMT:undname.obj
 0002:00003850       ??_C@_0BN@IBLMMFAP@?$GAnon?9type?9template?9parameter?$AA@ 10047850     LIBCMT:undname.obj
 0002:00003870       ??_C@_04GKJNKENE@void?$AA@ 10047870     LIBCMT:undname.obj
 0002:00003878       ??_C@_0BE@EODMJLIF@?$GAtemplate?9parameter?$AA@ 10047878     LIBCMT:undname.obj
 0002:0000388c       ??_C@_03KHICJKCI@?4?4?4?$AA@ 1004788c     LIBCMT:undname.obj
 0002:00003890       ??_C@_04HIBGFPH@NULL?$AA@  10047890     LIBCMT:undname.obj
 0002:00003898       ??_C@_03OPGICMGF@?$HN?8?5?$AA@ 10047898     LIBCMT:undname.obj
 0002:0000389c       ??_C@_02IGFCGPIL@?$HN?8?$AA@ 1004789c     LIBCMT:undname.obj
 0002:000038a0       ??_C@_01CLKCMJKC@?5?$AA@   100478a0     LIBCMT:undname.obj
 0002:000038a4       ??_C@_0N@CBHHHENL@?$GAvtordispex?$HL?$AA@ 100478a4     LIBCMT:undname.obj
 0002:000038b4       ??_C@_0L@GHPFDFH@?$GAvtordisp?$HL?$AA@ 100478b4     LIBCMT:undname.obj
 0002:000038c0       ??_C@_0L@HNGCOGAE@?$GAadjustor?$HL?$AA@ 100478c0     LIBCMT:undname.obj
 0002:000038cc       ??_C@_0CB@KJDOOODE@?$GAlocal?5static?5destructor?5helper?8@ 100478cc     LIBCMT:undname.obj
 0002:000038f0       ??_C@_0DB@ILEFOCIJ@?$GAtemplate?5static?5data?5member?5con@ 100478f0     LIBCMT:undname.obj
 0002:00003924       ??_C@_0DA@HGFJFBBE@?$GAtemplate?5static?5data?5member?5des@ 10047924     LIBCMT:undname.obj
 0002:00003954       ??_C@_07PGOEDBHP@static?5?$AA@ 10047954     LIBCMT:undname.obj
 0002:0000395c       ??_C@_08NIEOINHE@virtual?5?$AA@ 1004795c     LIBCMT:undname.obj
 0002:00003968       ??_C@_09LAPHOOG@private?3?5?$AA@ 10047968     LIBCMT:undname.obj
 0002:00003974       ??_C@_0M@GAIFPFIP@protected?3?5?$AA@ 10047974     LIBCMT:undname.obj
 0002:00003980       ??_C@_08GPDDCMKI@public?3?5?$AA@ 10047980     LIBCMT:undname.obj
 0002:0000398c       ??_C@_08KJLFOPNE@?$FLthunk?$FN?3?$AA@ 1004798c     LIBCMT:undname.obj
 0002:00003998       ??_C@_0M@DHNBOJMP@extern?5?$CCC?$CC?5?$AA@ 10047998     LIBCMT:undname.obj
 0002:000039a4       ??_C@_02KCKGHPCA@?$CJ?5?$AA@ 100479a4     LIBCMT:undname.obj
 0002:000039a8       ??_C@_05CIHEBHNO@char?5?$AA@ 100479a8     LIBCMT:undname.obj
 0002:000039b0       ??_C@_06EHJMALKF@short?5?$AA@ 100479b0     LIBCMT:undname.obj
 0002:000039b8       ??_C@_04LAHKHJMA@int?5?$AA@ 100479b8     LIBCMT:undname.obj
 0002:000039c0       ??_C@_05CJIMAING@long?5?$AA@ 100479c0     LIBCMT:undname.obj
 0002:000039c8       ??_C@_09EBBEKKIH@unsigned?5?$AA@ 100479c8     LIBCMT:undname.obj
 0002:000039d4       ??_C@_05BEFAKPML@void?5?$AA@ 100479d4     LIBCMT:undname.obj
 0002:000039dc       ??_C@_08PABEKFH@volatile?$AA@ 100479dc     LIBCMT:undname.obj
 0002:000039e8       ??_C@_0P@GCOCNKDM@std?3?3nullptr_t?$AA@ 100479e8     LIBCMT:undname.obj
 0002:000039f8       ??_C@_0L@EGPHHEKN@?$DMellipsis?$DO?$AA@ 100479f8     LIBCMT:undname.obj
 0002:00003a04       ??_C@_04EENFHACM@?0?4?4?4?$AA@ 10047a04     LIBCMT:undname.obj
 0002:00003a0c       ??_C@_0M@ELJOJFFH@?0?$DMellipsis?$DO?$AA@ 10047a0c     LIBCMT:undname.obj
 0002:00003a18       ??_C@_07HDJPLPEK@?5throw?$CI?$AA@ 10047a18     LIBCMT:undname.obj
 0002:00003a20       ??_C@_03PBJBJNON@cpu?$AA@  10047a20     LIBCMT:undname.obj
 0002:00003a24       ??_C@_03DCBBJBAA@amp?$AA@  10047a24     LIBCMT:undname.obj
 0002:00003a28       ??_C@_02KEGNLNML@?0?5?$AA@ 10047a28     LIBCMT:undname.obj
 0002:00003a2c       ??_C@_04ENMBGAPA@char?$AA@ 10047a2c     LIBCMT:undname.obj
 0002:00003a34       ??_C@_05BFKKPKCG@short?$AA@ 10047a34     LIBCMT:undname.obj
 0002:00003a3c       ??_C@_03JBIPMCLC@int?$AA@  10047a3c     LIBCMT:undname.obj
 0002:00003a40       ??_C@_04GOKPGOLB@long?$AA@ 10047a40     LIBCMT:undname.obj
 0002:00003a48       ??_C@_05KNFBNCOH@float?$AA@ 10047a48     LIBCMT:undname.obj
 0002:00003a50       ??_C@_06BNJCAIGJ@double?$AA@ 10047a50     LIBCMT:undname.obj
 0002:00003a58       ??_C@_04DDKJGDCM@bool?$AA@ 10047a58     LIBCMT:undname.obj
 0002:00003a60       ??_C@_06EBGKOKIG@__int8?$AA@ 10047a60     LIBCMT:undname.obj
 0002:00003a68       ??_C@_07ICFHOGAF@__int16?$AA@ 10047a68     LIBCMT:undname.obj
 0002:00003a70       ??_C@_07OFLPPHGP@__int32?$AA@ 10047a70     LIBCMT:undname.obj
 0002:00003a78       ??_C@_07LFCOJCAC@__int64?$AA@ 10047a78     LIBCMT:undname.obj
 0002:00003a80       ??_C@_08GAHOLHEO@__int128?$AA@ 10047a80     LIBCMT:undname.obj
 0002:00003a8c       ??_C@_09EEKGDCPH@?$DMunknown?$DO?$AA@ 10047a8c     LIBCMT:undname.obj
 0002:00003a98       ??_C@_07CLGGIAMF@wchar_t?$AA@ 10047a98     LIBCMT:undname.obj
 0002:00003aa0       ??_C@_06GCICPBLB@__w64?5?$AA@ 10047aa0     LIBCMT:undname.obj
 0002:00003aa8       ??_C@_07NFANNNEC@UNKNOWN?$AA@ 10047aa8     LIBCMT:undname.obj
 0002:00003ab0       ??_C@_07EDHNAJHC@signed?5?$AA@ 10047ab0     LIBCMT:undname.obj
 0002:00003ab8       ??_C@_05BNCCCJPP@const?$AA@ 10047ab8     LIBCMT:undname.obj
 0002:00003ac0       ??_C@_09EFNPDFFP@?5volatile?$AA@ 10047ac0     LIBCMT:undname.obj
 0002:00003acc       ??_C@_0P@GCIFDJCJ@?$GAunknown?5ecsu?8?$AA@ 10047acc     LIBCMT:undname.obj
 0002:00003adc       ??_C@_06MOJHIBMG@union?5?$AA@ 10047adc     LIBCMT:undname.obj
 0002:00003ae4       ??_C@_07DIBCDNGL@struct?5?$AA@ 10047ae4     LIBCMT:undname.obj
 0002:00003aec       ??_C@_06LJBABKPM@class?5?$AA@ 10047aec     LIBCMT:undname.obj
 0002:00003af4       ??_C@_08KOFANOFK@coclass?5?$AA@ 10047af4     LIBCMT:undname.obj
 0002:00003b00       ??_C@_0N@DLIEFKNA@cointerface?5?$AA@ 10047b00     LIBCMT:undname.obj
 0002:00003b10       ??_C@_05LJGMCFOG@enum?5?$AA@ 10047b10     LIBCMT:undname.obj
 0002:00003b18       ??_C@_09GAIEOBLP@volatile?5?$AA@ 10047b18     LIBCMT:undname.obj
 0002:00003b24       ??_C@_06LIJLOJAG@const?5?$AA@ 10047b24     LIBCMT:undname.obj
 0002:00003b2c       ??_C@_0M@EALIELKG@cli?3?3array?$DM?$AA@ 10047b2c     LIBCMT:undname.obj
 0002:00003b38       ??_C@_0O@GKABPPIF@cli?3?3pin_ptr?$DM?$AA@ 10047b38     LIBCMT:undname.obj
 0002:00003b48       ??_C@_02GOGNNPBN@?$CJ?$FL?$AA@ 10047b48     LIBCMT:undname.obj
 0002:00003b4c       ??_C@_06EEGAIFAK@?$HLflat?$HN?$AA@ 10047b4c     LIBCMT:undname.obj
 0002:00003b54       ??_C@_05JIBOFOHK@?$HLfor?5?$AA@ 10047b54     LIBCMT:undname.obj
 0002:00003b5c       ??_C@_02MDINNEEG@s?5?$AA@  10047b5c     LIBCMT:undname.obj
 0002:00003b64       ??_7DNameNode@@6B@         10047b64     LIBCMT:undname.obj
 0002:00003b74       ??_7charNode@@6B@          10047b74     LIBCMT:undname.obj
 0002:00003b84       ??_7pcharNode@@6B@         10047b84     LIBCMT:undname.obj
 0002:00003b94       ??_7pDNameNode@@6B@        10047b94     LIBCMT:undname.obj
 0002:00003ba4       ??_7DNameStatusNode@@6B@   10047ba4     LIBCMT:undname.obj
 0002:00003bb4       ??_7pairNode@@6B@          10047bb4     LIBCMT:undname.obj
 0002:00003bc0       ??_C@_04OKOHEJBO@?5?$DP?$DP?5?$AA@ 10047bc0     LIBCMT:undname.obj
 0002:00003bcc       ??_7exception@std@@6B@     10047bcc     LIBCMT:stdexcpt.obj
 0002:00003bd4       ??_C@_0BC@EOODALEL@Unknown?5exception?$AA@ 10047bd4     LIBCMT:stdexcpt.obj
 0002:00003bec       ??_7bad_cast@std@@6B@      10047bec     LIBCMT:stdexcpt.obj
 0002:00003bf8       ??_7bad_typeid@std@@6B@    10047bf8     LIBCMT:stdexcpt.obj
 0002:00003c04       ??_7__non_rtti_object@std@@6B@ 10047c04     LIBCMT:stdexcpt.obj
 0002:00003c30       ___lookuptable_s           10047c30     LIBCMT:outputs.obj
 0002:00004540       __indefinite               10048540     LIBCMT:87disp.obj
 0002:0000454a       __piby2                    1004854a     LIBCMT:87disp.obj
 0002:00004578       __DEFAULT_CW_in_mem        10048578     LIBCMT:common.obj
 0002:0000457a       __pi_by_2_to_61            1004857a     LIBCMT:common.obj
 0002:00004e60       _LcidToLocaleNameTable     10048e60     LIBCMT:winapinls.obj
 0002:00005580       _LocaleNameToIndexTable    10049580     LIBCMT:winapinls.obj
 0002:00005ca0       ??_C@_15EMKDOKLE@?$AAa?$AAr?$AA?$AA@ 10049ca0     LIBCMT:winapinls.obj
 0002:00005ca8       ??_C@_15KNPADPLH@?$AAb?$AAg?$AA?$AA@ 10049ca8     LIBCMT:winapinls.obj
 0002:00005cb0       ??_C@_15EDMHLDMO@?$AAc?$AAa?$AA?$AA@ 10049cb0     LIBCMT:winapinls.obj
 0002:00005cb8       ??_C@_1O@BPEAJADD@?$AAz?$AAh?$AA?9?$AAC?$AAH?$AAS?$AA?$AA@ 10049cb8     LIBCMT:winapinls.obj
 0002:00005cc8       ??_C@_15LJNHCMNK@?$AAc?$AAs?$AA?$AA@ 10049cc8     LIBCMT:winapinls.obj
 0002:00005cd0       ??_C@_15FOMCIDHG@?$AAd?$AAa?$AA?$AA@ 10049cd0     LIBCMT:winapinls.obj
 0002:00005cd8       ??_C@_15NBKABECB@?$AAd?$AAe?$AA?$AA@ 10049cd8     LIBCMT:winapinls.obj
 0002:00005ce0       ??_C@_15GHPEIIAO@?$AAe?$AAl?$AA?$AA@ 10049ce0     LIBCMT:winapinls.obj
 0002:00005ce8       ??_C@_15MNPNEAIF@?$AAe?$AAn?$AA?$AA@ 10049ce8     LIBCMT:winapinls.obj
 0002:00005cf0       ??_C@_15GPIOMPMH@?$AAe?$AAs?$AA?$AA@ 10049cf0     LIBCMT:winapinls.obj
 0002:00005cf8       ??_C@_15NGLOAKJC@?$AAf?$AAi?$AA?$AA@ 10049cf8     LIBCMT:winapinls.obj
 0002:00005d00       ??_C@_15FBKGNKAM@?$AAf?$AAr?$AA?$AA@ 10049d00     LIBCMT:winapinls.obj
 0002:00005d08       ??_C@_15KGGCNEFK@?$AAh?$AAe?$AA?$AA@ 10049d08     LIBCMT:winapinls.obj
 0002:00005d10       ??_C@_15PGHLIDMF@?$AAh?$AAu?$AA?$AA@ 10049d10     LIBCMT:winapinls.obj
 0002:00005d18       ??_C@_15BIEMAPLM@?$AAi?$AAs?$AA?$AA@ 10049d18     LIBCMT:winapinls.obj
 0002:00005d20       ??_C@_15IFJLDHAF@?$AAi?$AAt?$AA?$AA@ 10049d20     LIBCMT:winapinls.obj
 0002:00005d28       ??_C@_15GEMIOCAG@?$AAj?$AAa?$AA?$AA@ 10049d28     LIBCMT:winapinls.obj
 0002:00005d30       ??_C@_15EPELEGJA@?$AAk?$AAo?$AA?$AA@ 10049d30     LIBCMT:winapinls.obj
 0002:00005d38       ??_C@_15NDDHIMN@?$AAn?$AAl?$AA?$AA@ 10049d38     LIBCMT:winapinls.obj
 0002:00005d40       ??_C@_15BPIGNHCD@?$AAn?$AAo?$AA?$AA@ 10049d40     LIBCMT:winapinls.obj
 0002:00005d48       ??_C@_15DEOPBLCG@?$AAp?$AAl?$AA?$AA@ 10049d48     LIBCMT:winapinls.obj
 0002:00005d50       ??_C@_15KBECGEFG@?$AAp?$AAt?$AA?$AA@ 10049d50     LIBCMT:winapinls.obj
 0002:00005d58       ??_C@_15GLJCBFMD@?$AAr?$AAo?$AA?$AA@ 10049d58     LIBCMT:winapinls.obj
 0002:00005d60       ??_C@_15FEDGKCDI@?$AAr?$AAu?$AA?$AA@ 10049d60     LIBCMT:winapinls.obj
 0002:00005d68       ??_C@_15GLKMLLHM@?$AAh?$AAr?$AA?$AA@ 10049d68     LIBCMT:winapinls.obj
 0002:00005d70       ??_C@_15CPKMFBDB@?$AAs?$AAk?$AA?$AA@ 10049d70     LIBCMT:winapinls.obj
 0002:00005d78       ??_C@_15BAAIOGMK@?$AAs?$AAq?$AA?$AA@ 10049d78     LIBCMT:winapinls.obj
 0002:00005d80       ??_C@_15INNPNOHD@?$AAs?$AAv?$AA?$AA@ 10049d80     LIBCMT:winapinls.obj
 0002:00005d88       ??_C@_15CABMMOGH@?$AAt?$AAh?$AA?$AA@ 10049d88     LIBCMT:winapinls.obj
 0002:00005d90       ??_C@_15BPLIHJJM@?$AAt?$AAr?$AA?$AA@ 10049d90     LIBCMT:winapinls.obj
 0002:00005d98       ??_C@_15NEOEKKDJ@?$AAu?$AAr?$AA?$AA@ 10049d98     LIBCMT:winapinls.obj
 0002:00005da0       ??_C@_15NFICGAJK@?$AAi?$AAd?$AA?$AA@ 10049da0     LIBCMT:winapinls.obj
 0002:00005da8       ??_C@_15PJPFLCCM@?$AAu?$AAk?$AA?$AA@ 10049da8     LIBCMT:winapinls.obj
 0002:00005db0       ??_C@_15HPJPHDM@?$AAb?$AAe?$AA?$AA@ 10049db0     LIBCMT:winapinls.obj
 0002:00005db8       ??_C@_15LCHLGJII@?$AAs?$AAl?$AA?$AA@ 10049db8     LIBCMT:winapinls.obj
 0002:00005dc0       ??_C@_15PCFJPHHO@?$AAe?$AAt?$AA?$AA@ 10049dc0     LIBCMT:winapinls.obj
 0002:00005dc8       ??_C@_15HPFPGODN@?$AAl?$AAv?$AA?$AA@ 10049dc8     LIBCMT:winapinls.obj
 0002:00005dd0       ??_C@_15NFFGKGLG@?$AAl?$AAt?$AA?$AA@ 10049dd0     LIBCMT:winapinls.obj
 0002:00005dd8       ??_C@_15BDAKCCHN@?$AAf?$AAa?$AA?$AA@ 10049dd8     LIBCMT:winapinls.obj
 0002:00005de0       ??_C@_15NFGIAIAJ@?$AAv?$AAi?$AA?$AA@ 10049de0     LIBCMT:winapinls.obj
 0002:00005de8       ??_C@_15LMKNDMHN@?$AAh?$AAy?$AA?$AA@ 10049de8     LIBCMT:winapinls.obj
 0002:00005df0       ??_C@_15IJBHMCFL@?$AAa?$AAz?$AA?$AA@ 10049df0     LIBCMT:winapinls.obj
 0002:00005df8       ??_C@_15EKOFJABL@?$AAe?$AAu?$AA?$AA@ 10049df8     LIBCMT:winapinls.obj
 0002:00005e00       ??_C@_15BGHADCNK@?$AAm?$AAk?$AA?$AA@ 10049e00     LIBCMT:winapinls.obj
 0002:00005e08       ??_C@_15JDNICKHM@?$AAa?$AAf?$AA?$AA@ 10049e08     LIBCMT:winapinls.obj
 0002:00005e10       ??_C@_15KPJEDBKD@?$AAk?$AAa?$AA?$AA@ 10049e10     LIBCMT:winapinls.obj
 0002:00005e18       ??_C@_15PDNFFFEO@?$AAf?$AAo?$AA?$AA@ 10049e18     LIBCMT:winapinls.obj
 0002:00005e20       ??_C@_15OMLEGLOC@?$AAh?$AAi?$AA?$AA@ 10049e20     LIBCMT:winapinls.obj
 0002:00005e28       ??_C@_15IDNNENKK@?$AAm?$AAs?$AA?$AA@ 10049e28     LIBCMT:winapinls.obj
 0002:00005e30       ??_C@_15MACJNBMH@?$AAk?$AAk?$AA?$AA@ 10049e30     LIBCMT:winapinls.obj
 0002:00005e38       ??_C@_15DKDJEOND@?$AAk?$AAy?$AA?$AA@ 10049e38     LIBCMT:winapinls.obj
 0002:00005e40       ??_C@_15DFGDLJBG@?$AAs?$AAw?$AA?$AA@ 10049e40     LIBCMT:winapinls.obj
 0002:00005e48       ??_C@_15BBFAICNG@?$AAu?$AAz?$AA?$AA@ 10049e48     LIBCMT:winapinls.obj
 0002:00005e50       ??_C@_15DKNDCGEA@?$AAt?$AAt?$AA?$AA@ 10049e50     LIBCMT:winapinls.obj
 0002:00005e58       ??_C@_15MGIFMDPL@?$AAp?$AAa?$AA?$AA@ 10049e58     LIBCMT:winapinls.obj
 0002:00005e60       ??_C@_15HCNDBBA@?$AAg?$AAu?$AA?$AA@ 10049e60     LIBCMT:winapinls.obj
 0002:00005e68       ??_C@_15FNBEIBON@?$AAt?$AAa?$AA?$AA@ 10049e68     LIBCMT:winapinls.obj
 0002:00005e70       ??_C@_15NCHGBGLK@?$AAt?$AAe?$AA?$AA@ 10049e70     LIBCMT:winapinls.obj
 0002:00005e78       ??_C@_15PHPHCBPF@?$AAk?$AAn?$AA?$AA@ 10049e78     LIBCMT:winapinls.obj
 0002:00005e80       ??_C@_15DLGBCKMP@?$AAm?$AAr?$AA?$AA@ 10049e80     LIBCMT:winapinls.obj
 0002:00005e88       ??_C@_15EABBLBFF@?$AAs?$AAa?$AA?$AA@ 10049e88     LIBCMT:winapinls.obj
 0002:00005e90       ??_C@_15CBKOMCOI@?$AAm?$AAn?$AA?$AA@ 10049e90     LIBCMT:winapinls.obj
 0002:00005e98       ??_C@_15CKDMCJAF@?$AAg?$AAl?$AA?$AA@ 10049e98     LIBCMT:winapinls.obj
 0002:00005ea0       ??_C@_17CNJFBPG@?$AAk?$AAo?$AAk?$AA?$AA@ 10049ea0     LIBCMT:winapinls.obj
 0002:00005ea8       ??_C@_17FFBJICPL@?$AAs?$AAy?$AAr?$AA?$AA@ 10049ea8     LIBCMT:winapinls.obj
 0002:00005eb0       ??_C@_17KPNDCPAF@?$AAd?$AAi?$AAv?$AA?$AA@ 10049eb0     LIBCMT:winapinls.obj
 0002:00005eb8       ??_C@_11LOCGONAA@?$AA?$AA@ 10049eb8     LIBCMT:winapinls.obj
 0002:00005ebc       ??_C@_1M@OKAHONE@?$AAa?$AAr?$AA?9?$AAS?$AAA?$AA?$AA@ 10049ebc     LIBCMT:winapinls.obj
 0002:00005ec8       ??_C@_1M@FFFIGIGK@?$AAb?$AAg?$AA?9?$AAB?$AAG?$AA?$AA@ 10049ec8     LIBCMT:winapinls.obj
 0002:00005ed4       ??_C@_1M@BJNKEDC@?$AAc?$AAa?$AA?9?$AAE?$AAS?$AA?$AA@ 10049ed4     LIBCMT:winapinls.obj
 0002:00005ee0       ??_C@_1M@IJJHFJHA@?$AAc?$AAs?$AA?9?$AAC?$AAZ?$AA?$AA@ 10049ee0     LIBCMT:winapinls.obj
 0002:00005eec       ??_C@_1M@CLPEOBGI@?$AAd?$AAa?$AA?9?$AAD?$AAK?$AA?$AA@ 10049eec     LIBCMT:winapinls.obj
 0002:00005ef8       ??_C@_1M@MCMADGCB@?$AAd?$AAe?$AA?9?$AAD?$AAE?$AA?$AA@ 10049ef8     LIBCMT:winapinls.obj
 0002:00005f04       ??_C@_1M@OOCKEMAM@?$AAe?$AAl?$AA?9?$AAG?$AAR?$AA?$AA@ 10049f04     LIBCMT:winapinls.obj
 0002:00005f10       ??_C@_1M@DDNJFGID@?$AAf?$AAi?$AA?9?$AAF?$AAI?$AA?$AA@ 10049f10     LIBCMT:winapinls.obj
 0002:00005f1c       ??_C@_1M@GLIPPMAC@?$AAf?$AAr?$AA?9?$AAF?$AAR?$AA?$AA@ 10049f1c     LIBCMT:winapinls.obj
 0002:00005f28       ??_C@_1M@GFMCHPE@?$AAh?$AAe?$AA?9?$AAI?$AAL?$AA?$AA@ 10049f28     LIBCMT:winapinls.obj
 0002:00005f34       ??_C@_1M@MHLPGNKM@?$AAh?$AAu?$AA?9?$AAH?$AAU?$AA?$AA@ 10049f34     LIBCMT:winapinls.obj
 0002:00005f40       ??_C@_1M@LPDDNNPN@?$AAi?$AAs?$AA?9?$AAI?$AAS?$AA?$AA@ 10049f40     LIBCMT:winapinls.obj
 0002:00005f4c       ??_C@_1M@MADIPODN@?$AAi?$AAt?$AA?9?$AAI?$AAT?$AA?$AA@ 10049f4c     LIBCMT:winapinls.obj
 0002:00005f58       ??_C@_1M@IHBJJGG@?$AAn?$AAl?$AA?9?$AAN?$AAL?$AA?$AA@ 10049f58     LIBCMT:winapinls.obj
 0002:00005f64       ??_C@_1M@EANAGDL@?$AAn?$AAb?$AA?9?$AAN?$AAO?$AA?$AA@ 10049f64     LIBCMT:winapinls.obj
 0002:00005f70       ??_C@_1M@NEIEMEGP@?$AAp?$AAl?$AA?9?$AAP?$AAL?$AA?$AA@ 10049f70     LIBCMT:winapinls.obj
 0002:00005f7c       ??_C@_1M@BOCFIGEP@?$AAp?$AAt?$AA?9?$AAB?$AAR?$AA?$AA@ 10049f7c     LIBCMT:winapinls.obj
 0002:00005f88       ??_C@_1M@IMPFOPBG@?$AAr?$AAo?$AA?9?$AAR?$AAO?$AA?$AA@ 10049f88     LIBCMT:winapinls.obj
 0002:00005f94       ??_C@_1M@IDNNEJMM@?$AAr?$AAu?$AA?9?$AAR?$AAU?$AA?$AA@ 10049f94     LIBCMT:winapinls.obj
 0002:00005fa0       ??_C@_1M@LILEEOGM@?$AAh?$AAr?$AA?9?$AAH?$AAR?$AA?$AA@ 10049fa0     LIBCMT:winapinls.obj
 0002:00005fac       ??_C@_1M@FKIFEHPB@?$AAs?$AAk?$AA?9?$AAS?$AAK?$AA?$AA@ 10049fac     LIBCMT:winapinls.obj
 0002:00005fb8       ??_C@_1M@LJMAMNPJ@?$AAs?$AAq?$AA?9?$AAA?$AAL?$AA?$AA@ 10049fb8     LIBCMT:winapinls.obj
 0002:00005fc4       ??_C@_1M@GIAKDKJK@?$AAs?$AAv?$AA?9?$AAS?$AAE?$AA?$AA@ 10049fc4     LIBCMT:winapinls.obj
 0002:00005fd0       ??_C@_1M@MKJKIKCL@?$AAt?$AAh?$AA?9?$AAT?$AAH?$AA?$AA@ 10049fd0     LIBCMT:winapinls.obj
 0002:00005fdc       ??_C@_1M@MFLCCMPB@?$AAt?$AAr?$AA?9?$AAT?$AAR?$AA?$AA@ 10049fdc     LIBCMT:winapinls.obj
 0002:00005fe8       ??_C@_1M@OIJHDKJN@?$AAu?$AAr?$AA?9?$AAP?$AAK?$AA?$AA@ 10049fe8     LIBCMT:winapinls.obj
 0002:00005ff4       ??_C@_1M@LHIPCIEK@?$AAi?$AAd?$AA?9?$AAI?$AAD?$AA?$AA@ 10049ff4     LIBCMT:winapinls.obj
 0002:00006000       ??_C@_1M@MFMOBGI@?$AAu?$AAk?$AA?9?$AAU?$AAA?$AA?$AA@ 1004a000     LIBCMT:winapinls.obj
 0002:0000600c       ??_C@_1M@OBGLJIPL@?$AAb?$AAe?$AA?9?$AAB?$AAY?$AA?$AA@ 1004a00c     LIBCMT:winapinls.obj
 0002:00006018       ??_C@_1M@BCFAJEAD@?$AAs?$AAl?$AA?9?$AAS?$AAI?$AA?$AA@ 1004a018     LIBCMT:winapinls.obj
 0002:00006024       ??_C@_1M@FKFFEDDN@?$AAe?$AAt?$AA?9?$AAE?$AAE?$AA?$AA@ 1004a024     LIBCMT:winapinls.obj
 0002:00006030       ??_C@_1M@KGKKAACI@?$AAl?$AAv?$AA?9?$AAL?$AAV?$AA?$AA@ 1004a030     LIBCMT:winapinls.obj
 0002:0000603c       ??_C@_1M@IFGBIJO@?$AAl?$AAt?$AA?9?$AAL?$AAT?$AA?$AA@ 1004a03c     LIBCMT:winapinls.obj
 0002:00006048       ??_C@_1M@FGEAHEDM@?$AAf?$AAa?$AA?9?$AAI?$AAR?$AA?$AA@ 1004a048     LIBCMT:winapinls.obj
 0002:00006054       ??_C@_1M@KBMAIBFN@?$AAv?$AAi?$AA?9?$AAV?$AAN?$AA?$AA@ 1004a054     LIBCMT:winapinls.obj
 0002:00006060       ??_C@_1M@GPCBKDJK@?$AAh?$AAy?$AA?9?$AAA?$AAM?$AA?$AA@ 1004a060     LIBCMT:winapinls.obj
 0002:0000606c       ??_C@_1BG@BECMDDJB@?$AAa?$AAz?$AA?9?$AAA?$AAZ?$AA?9?$AAL?$AAa?$AAt?$AAn?$AA?$AA@ 1004a06c     LIBCMT:winapinls.obj
 0002:00006084       ??_C@_1M@MAOFCAEA@?$AAe?$AAu?$AA?9?$AAE?$AAS?$AA?$AA@ 1004a084     LIBCMT:winapinls.obj
 0002:00006090       ??_C@_1M@IGHABKPI@?$AAm?$AAk?$AA?9?$AAM?$AAK?$AA?$AA@ 1004a090     LIBCMT:winapinls.obj
 0002:0000609c       ??_C@_1M@IAIGNEJG@?$AAt?$AAn?$AA?9?$AAZ?$AAA?$AA?$AA@ 1004a09c     LIBCMT:winapinls.obj
 0002:000060a8       ??_C@_1M@IIJCOJFA@?$AAx?$AAh?$AA?9?$AAZ?$AAA?$AA?$AA@ 1004a0a8     LIBCMT:winapinls.obj
 0002:000060b4       ??_C@_1M@LGPJHNJH@?$AAz?$AAu?$AA?9?$AAZ?$AAA?$AA?$AA@ 1004a0b4     LIBCMT:winapinls.obj
 0002:000060c0       ??_C@_1M@HOKAOIO@?$AAa?$AAf?$AA?9?$AAZ?$AAA?$AA?$AA@ 1004a0c0     LIBCMT:winapinls.obj
 0002:000060cc       ??_C@_1M@DPCLHLIE@?$AAk?$AAa?$AA?9?$AAG?$AAE?$AA?$AA@ 1004a0cc     LIBCMT:winapinls.obj
 0002:000060d8       ??_C@_1M@BLKMHJBI@?$AAf?$AAo?$AA?9?$AAF?$AAO?$AA?$AA@ 1004a0d8     LIBCMT:winapinls.obj
 0002:000060e4       ??_C@_1M@LGGJAPPB@?$AAh?$AAi?$AA?9?$AAI?$AAN?$AA?$AA@ 1004a0e4     LIBCMT:winapinls.obj
 0002:000060f0       ??_C@_1M@FIKPIHFE@?$AAm?$AAt?$AA?9?$AAM?$AAT?$AA?$AA@ 1004a0f0     LIBCMT:winapinls.obj
 0002:000060fc       ??_C@_1M@HEGGPBFA@?$AAs?$AAe?$AA?9?$AAN?$AAO?$AA?$AA@ 1004a0fc     LIBCMT:winapinls.obj
 0002:00006108       ??_C@_1M@EIBJEEPA@?$AAm?$AAs?$AA?9?$AAM?$AAY?$AA?$AA@ 1004a108     LIBCMT:winapinls.obj
 0002:00006114       ??_C@_1M@FHLBGMPP@?$AAk?$AAk?$AA?9?$AAK?$AAZ?$AA?$AA@ 1004a114     LIBCMT:winapinls.obj
 0002:00006120       ??_C@_1M@NGJJLCGI@?$AAk?$AAy?$AA?9?$AAK?$AAG?$AA?$AA@ 1004a120     LIBCMT:winapinls.obj
 0002:0000612c       ??_C@_1M@GIENNBFC@?$AAs?$AAw?$AA?9?$AAK?$AAE?$AA?$AA@ 1004a12c     LIBCMT:winapinls.obj
 0002:00006138       ??_C@_1BG@NDGMJIMJ@?$AAu?$AAz?$AA?9?$AAU?$AAZ?$AA?9?$AAL?$AAa?$AAt?$AAn?$AA?$AA@ 1004a138     LIBCMT:winapinls.obj
 0002:00006150       ??_C@_1M@IDCCIHBC@?$AAt?$AAt?$AA?9?$AAR?$AAU?$AA?$AA@ 1004a150     LIBCMT:winapinls.obj
 0002:0000615c       ??_C@_1M@LOICPMOJ@?$AAb?$AAn?$AA?9?$AAI?$AAN?$AA?$AA@ 1004a15c     LIBCMT:winapinls.obj
 0002:00006168       ??_C@_1M@KPKKNEAH@?$AAp?$AAa?$AA?9?$AAI?$AAN?$AA?$AA@ 1004a168     LIBCMT:winapinls.obj
 0002:00006174       ??_C@_1M@PJGPPBOG@?$AAg?$AAu?$AA?9?$AAI?$AAN?$AA?$AA@ 1004a174     LIBCMT:winapinls.obj
 0002:00006180       ??_C@_1M@KMKMOPHI@?$AAt?$AAa?$AA?9?$AAI?$AAN?$AA?$AA@ 1004a180     LIBCMT:winapinls.obj
 0002:0000618c       ??_C@_1M@KFEHEPAC@?$AAt?$AAe?$AA?9?$AAI?$AAN?$AA?$AA@ 1004a18c     LIBCMT:winapinls.obj
 0002:00006198       ??_C@_1M@CDCLMGHI@?$AAk?$AAn?$AA?9?$AAI?$AAN?$AA?$AA@ 1004a198     LIBCMT:winapinls.obj
 0002:000061a4       ??_C@_1M@MIODLDKF@?$AAm?$AAl?$AA?9?$AAI?$AAN?$AA?$AA@ 1004a1a4     LIBCMT:winapinls.obj
 0002:000061b0       ??_C@_1M@PBIEACPO@?$AAm?$AAr?$AA?9?$AAI?$AAN?$AA?$AA@ 1004a1b0     LIBCMT:winapinls.obj
 0002:000061bc       ??_C@_1M@NIDEAGPH@?$AAs?$AAa?$AA?9?$AAI?$AAN?$AA?$AA@ 1004a1bc     LIBCMT:winapinls.obj
 0002:000061c8       ??_C@_1M@FHIHCBIO@?$AAm?$AAn?$AA?9?$AAM?$AAN?$AA?$AA@ 1004a1c8     LIBCMT:winapinls.obj
 0002:000061d4       ??_C@_1M@JAIJPENP@?$AAc?$AAy?$AA?9?$AAG?$AAB?$AA?$AA@ 1004a1d4     LIBCMT:winapinls.obj
 0002:000061e0       ??_C@_1M@PHGFBEPN@?$AAg?$AAl?$AA?9?$AAE?$AAS?$AA?$AA@ 1004a1e0     LIBCMT:winapinls.obj
 0002:000061ec       ??_C@_1O@KPIPDNCP@?$AAk?$AAo?$AAk?$AA?9?$AAI?$AAN?$AA?$AA@ 1004a1ec     LIBCMT:winapinls.obj
 0002:000061fc       ??_C@_1O@KNHJLDJA@?$AAs?$AAy?$AAr?$AA?9?$AAS?$AAY?$AA?$AA@ 1004a1fc     LIBCMT:winapinls.obj
 0002:0000620c       ??_C@_1O@MKEKBLAH@?$AAd?$AAi?$AAv?$AA?9?$AAM?$AAV?$AA?$AA@ 1004a20c     LIBCMT:winapinls.obj
 0002:0000621c       ??_C@_1O@OHDCKDDF@?$AAq?$AAu?$AAz?$AA?9?$AAB?$AAO?$AA?$AA@ 1004a21c     LIBCMT:winapinls.obj
 0002:0000622c       ??_C@_1M@LEPJNLFD@?$AAn?$AAs?$AA?9?$AAZ?$AAA?$AA?$AA@ 1004a22c     LIBCMT:winapinls.obj
 0002:00006238       ??_C@_1M@OMLEIIJB@?$AAm?$AAi?$AA?9?$AAN?$AAZ?$AA?$AA@ 1004a238     LIBCMT:winapinls.obj
 0002:00006244       ??_C@_1M@PMPEAILG@?$AAa?$AAr?$AA?9?$AAI?$AAQ?$AA?$AA@ 1004a244     LIBCMT:winapinls.obj
 0002:00006250       ??_C@_1M@CNKPNOEE@?$AAd?$AAe?$AA?9?$AAC?$AAH?$AA?$AA@ 1004a250     LIBCMT:winapinls.obj
 0002:0000625c       ??_C@_1M@LKMGMLKO@?$AAe?$AAn?$AA?9?$AAG?$AAB?$AA?$AA@ 1004a25c     LIBCMT:winapinls.obj
 0002:00006268       ??_C@_1M@PGKJFFGL@?$AAe?$AAs?$AA?9?$AAM?$AAX?$AA?$AA@ 1004a268     LIBCMT:winapinls.obj
 0002:00006274       ??_C@_1M@DNNANBDC@?$AAf?$AAr?$AA?9?$AAB?$AAE?$AA?$AA@ 1004a274     LIBCMT:winapinls.obj
 0002:00006280       ??_C@_1M@HLGMDFHM@?$AAi?$AAt?$AA?9?$AAC?$AAH?$AA?$AA@ 1004a280     LIBCMT:winapinls.obj
 0002:0000628c       ??_C@_1M@CLLBGJH@?$AAn?$AAl?$AA?9?$AAB?$AAE?$AA?$AA@ 1004a28c     LIBCMT:winapinls.obj
 0002:00006298       ??_C@_1M@BODBOGLF@?$AAn?$AAn?$AA?9?$AAN?$AAO?$AA?$AA@ 1004a298     LIBCMT:winapinls.obj
 0002:000062a4       ??_C@_1M@HFFAHKAD@?$AAp?$AAt?$AA?9?$AAP?$AAT?$AA?$AA@ 1004a2a4     LIBCMT:winapinls.obj
 0002:000062b0       ??_C@_1BG@LNOAKHIE@?$AAs?$AAr?$AA?9?$AAS?$AAP?$AA?9?$AAL?$AAa?$AAt?$AAn?$AA?$AA@ 1004a2b0     LIBCMT:winapinls.obj
 0002:000062c8       ??_C@_1M@HBMHBGAK@?$AAs?$AAv?$AA?9?$AAF?$AAI?$AA?$AA@ 1004a2c8     LIBCMT:winapinls.obj
 0002:000062d4       ??_C@_1BG@DGCJGJBE@?$AAa?$AAz?$AA?9?$AAA?$AAZ?$AA?9?$AAC?$AAy?$AAr?$AAl?$AA?$AA@ 1004a2d4     LIBCMT:winapinls.obj
 0002:000062ec       ??_C@_1M@KEJDAAHB@?$AAs?$AAe?$AA?9?$AAS?$AAE?$AA?$AA@ 1004a2ec     LIBCMT:winapinls.obj
 0002:000062f8       ??_C@_1M@HEIBJJAD@?$AAm?$AAs?$AA?9?$AAB?$AAN?$AA?$AA@ 1004a2f8     LIBCMT:winapinls.obj
 0002:00006304       ??_C@_1BG@PBGJMCEM@?$AAu?$AAz?$AA?9?$AAU?$AAZ?$AA?9?$AAC?$AAy?$AAr?$AAl?$AA?$AA@ 1004a304     LIBCMT:winapinls.obj
 0002:0000631c       ??_C@_1O@LAOBCMDF@?$AAq?$AAu?$AAz?$AA?9?$AAE?$AAC?$AA?$AA@ 1004a31c     LIBCMT:winapinls.obj
 0002:0000632c       ??_C@_1M@POEEMAIO@?$AAa?$AAr?$AA?9?$AAE?$AAG?$AA?$AA@ 1004a32c     LIBCMT:winapinls.obj
 0002:00006338       ??_C@_1M@EFAKDEDL@?$AAz?$AAh?$AA?9?$AAH?$AAK?$AA?$AA@ 1004a338     LIBCMT:winapinls.obj
 0002:00006344       ??_C@_1M@HKKIJHGI@?$AAd?$AAe?$AA?9?$AAA?$AAT?$AA?$AA@ 1004a344     LIBCMT:winapinls.obj
 0002:00006350       ??_C@_1M@KBFBEHJF@?$AAe?$AAn?$AA?9?$AAA?$AAU?$AA?$AA@ 1004a350     LIBCMT:winapinls.obj
 0002:0000635c       ??_C@_1M@MNPLFAAH@?$AAe?$AAs?$AA?9?$AAE?$AAS?$AA?$AA@ 1004a35c     LIBCMT:winapinls.obj
 0002:00006368       ??_C@_1M@HJOOJFMA@?$AAf?$AAr?$AA?9?$AAC?$AAA?$AA?$AA@ 1004a368     LIBCMT:winapinls.obj
 0002:00006374       ??_C@_1BG@JPOFPNAB@?$AAs?$AAr?$AA?9?$AAS?$AAP?$AA?9?$AAC?$AAy?$AAr?$AAl?$AA?$AA@ 1004a374     LIBCMT:winapinls.obj
 0002:0000638c       ??_C@_1M@LNFOCMOB@?$AAs?$AAe?$AA?9?$AAF?$AAI?$AA?$AA@ 1004a38c     LIBCMT:winapinls.obj
 0002:00006398       ??_C@_1O@MGJBOAMB@?$AAq?$AAu?$AAz?$AA?9?$AAP?$AAE?$AA?$AA@ 1004a398     LIBCMT:winapinls.obj
 0002:000063a8       ??_C@_1M@GJINLBOK@?$AAa?$AAr?$AA?9?$AAL?$AAY?$AA?$AA@ 1004a3a8     LIBCMT:winapinls.obj
 0002:000063b4       ??_C@_1M@GGMNHJNL@?$AAz?$AAh?$AA?9?$AAS?$AAG?$AA?$AA@ 1004a3b4     LIBCMT:winapinls.obj
 0002:000063c0       ??_C@_1M@HOIKODND@?$AAd?$AAe?$AA?9?$AAL?$AAU?$AA?$AA@ 1004a3c0     LIBCMT:winapinls.obj
 0002:000063cc       ??_C@_1M@DDOCCGFG@?$AAe?$AAn?$AA?9?$AAC?$AAA?$AA?$AA@ 1004a3cc     LIBCMT:winapinls.obj
 0002:000063d8       ??_C@_1M@BNOEMJLF@?$AAe?$AAs?$AA?9?$AAG?$AAT?$AA?$AA@ 1004a3d8     LIBCMT:winapinls.obj
 0002:000063e4       ??_C@_1M@EOGNKEK@?$AAf?$AAr?$AA?9?$AAC?$AAH?$AA?$AA@ 1004a3e4     LIBCMT:winapinls.obj
 0002:000063f0       ??_C@_1M@FLIDJFHL@?$AAh?$AAr?$AA?9?$AAB?$AAA?$AA?$AA@ 1004a3f0     LIBCMT:winapinls.obj
 0002:000063fc       ??_C@_1O@FMCELNAJ@?$AAs?$AAm?$AAj?$AA?9?$AAN?$AAO?$AA?$AA@ 1004a3fc     LIBCMT:winapinls.obj
 0002:0000640c       ??_C@_1M@JHGLJMGJ@?$AAa?$AAr?$AA?9?$AAD?$AAZ?$AA?$AA@ 1004a40c     LIBCMT:winapinls.obj
 0002:00006418       ??_C@_1M@JKKFDCNP@?$AAz?$AAh?$AA?9?$AAM?$AAO?$AA?$AA@ 1004a418     LIBCMT:winapinls.obj
 0002:00006424       ??_C@_1M@GEEFALPE@?$AAd?$AAe?$AA?9?$AAL?$AAI?$AA?$AA@ 1004a424     LIBCMT:winapinls.obj
 0002:00006430       ??_C@_1M@IGEOFBG@?$AAe?$AAn?$AA?9?$AAN?$AAZ?$AA?$AA@ 1004a430     LIBCMT:winapinls.obj
 0002:0000643c       ??_C@_1M@KDBONEHP@?$AAe?$AAs?$AA?9?$AAC?$AAR?$AA?$AA@ 1004a43c     LIBCMT:winapinls.obj
 0002:00006448       ??_C@_1M@FHMDOHNN@?$AAf?$AAr?$AA?9?$AAL?$AAU?$AA?$AA@ 1004a448     LIBCMT:winapinls.obj
 0002:00006454       ??_C@_1BG@NFKKMAFG@?$AAb?$AAs?$AA?9?$AAB?$AAA?$AA?9?$AAL?$AAa?$AAt?$AAn?$AA?$AA@ 1004a454     LIBCMT:winapinls.obj
 0002:0000646c       ??_C@_1O@IMNBEMCI@?$AAs?$AAm?$AAj?$AA?9?$AAS?$AAE?$AA?$AA@ 1004a46c     LIBCMT:winapinls.obj
 0002:0000647c       ??_C@_1M@DHHMBNDP@?$AAa?$AAr?$AA?9?$AAM?$AAA?$AA?$AA@ 1004a47c     LIBCMT:winapinls.obj
 0002:00006488       ??_C@_1M@BNBLJCGH@?$AAe?$AAn?$AA?9?$AAI?$AAE?$AA?$AA@ 1004a488     LIBCMT:winapinls.obj
 0002:00006494       ??_C@_1M@GEPAFMDL@?$AAe?$AAs?$AA?9?$AAP?$AAA?$AA?$AA@ 1004a494     LIBCMT:winapinls.obj
 0002:000064a0       ??_C@_1M@OJONDMDL@?$AAf?$AAr?$AA?9?$AAM?$AAC?$AA?$AA@ 1004a4a0     LIBCMT:winapinls.obj
 0002:000064ac       ??_C@_1BG@OBCNFJB@?$AAs?$AAr?$AA?9?$AAB?$AAA?$AA?9?$AAL?$AAa?$AAt?$AAn?$AA?$AA@ 1004a4ac     LIBCMT:winapinls.obj
 0002:000064c4       ??_C@_1O@KEMEEGPO@?$AAs?$AAm?$AAa?$AA?9?$AAN?$AAO?$AA?$AA@ 1004a4c4     LIBCMT:winapinls.obj
 0002:000064d4       ??_C@_1M@ELMGFODK@?$AAa?$AAr?$AA?9?$AAT?$AAN?$AA?$AA@ 1004a4d4     LIBCMT:winapinls.obj
 0002:000064e0       ??_C@_1M@BHDLHFAF@?$AAe?$AAn?$AA?9?$AAZ?$AAA?$AA?$AA@ 1004a4e0     LIBCMT:winapinls.obj
 0002:000064ec       ??_C@_1M@BMGIGLIF@?$AAe?$AAs?$AA?9?$AAD?$AAO?$AA?$AA@ 1004a4ec     LIBCMT:winapinls.obj
 0002:000064f8       ??_C@_1BG@CMBHIPBE@?$AAs?$AAr?$AA?9?$AAB?$AAA?$AA?9?$AAC?$AAy?$AAr?$AAl?$AA?$AA@ 1004a4f8     LIBCMT:winapinls.obj
 0002:00006510       ??_C@_1O@HEDBLHNP@?$AAs?$AAm?$AAa?$AA?9?$AAS?$AAE?$AA?$AA@ 1004a510     LIBCMT:winapinls.obj
 0002:00006520       ??_C@_1M@DAGCADIM@?$AAa?$AAr?$AA?9?$AAO?$AAM?$AA?$AA@ 1004a520     LIBCMT:winapinls.obj
 0002:0000652c       ??_C@_1M@FODLMICG@?$AAe?$AAn?$AA?9?$AAJ?$AAM?$AA?$AA@ 1004a52c     LIBCMT:winapinls.obj
 0002:00006538       ??_C@_1M@DNMLCIHB@?$AAe?$AAs?$AA?9?$AAV?$AAE?$AA?$AA@ 1004a538     LIBCMT:winapinls.obj
 0002:00006544       ??_C@_1O@EOKHMKJK@?$AAs?$AAm?$AAs?$AA?9?$AAF?$AAI?$AA?$AA@ 1004a544     LIBCMT:winapinls.obj
 0002:00006554       ??_C@_1M@CAFJMKOF@?$AAa?$AAr?$AA?9?$AAY?$AAE?$AA?$AA@ 1004a554     LIBCMT:winapinls.obj
 0002:00006560       ??_C@_1M@CBFHIJLI@?$AAe?$AAn?$AA?9?$AAC?$AAB?$AA?$AA@ 1004a560     LIBCMT:winapinls.obj
 0002:0000656c       ??_C@_1M@BGNFLDN@?$AAe?$AAs?$AA?9?$AAC?$AAO?$AA?$AA@ 1004a56c     LIBCMT:winapinls.obj
 0002:00006578       ??_C@_1O@JMPHMAMC@?$AAs?$AAm?$AAn?$AA?9?$AAF?$AAI?$AA?$AA@ 1004a578     LIBCMT:winapinls.obj
 0002:00006588       ??_C@_1M@JLANABKE@?$AAa?$AAr?$AA?9?$AAS?$AAY?$AA?$AA@ 1004a588     LIBCMT:winapinls.obj
 0002:00006594       ??_C@_1M@HPKGCFGN@?$AAe?$AAn?$AA?9?$AAB?$AAZ?$AA?$AA@ 1004a594     LIBCMT:winapinls.obj
 0002:000065a0       ??_C@_1M@OLJCMLGM@?$AAe?$AAs?$AA?9?$AAP?$AAE?$AA?$AA@ 1004a5a0     LIBCMT:winapinls.obj
 0002:000065ac       ??_C@_1M@MKKGFKLE@?$AAa?$AAr?$AA?9?$AAJ?$AAO?$AA?$AA@ 1004a5ac     LIBCMT:winapinls.obj
 0002:000065b8       ??_C@_1M@EKPGLDNI@?$AAe?$AAn?$AA?9?$AAT?$AAT?$AA?$AA@ 1004a5b8     LIBCMT:winapinls.obj
 0002:000065c4       ??_C@_1M@OONGHFHE@?$AAe?$AAs?$AA?9?$AAA?$AAR?$AA?$AA@ 1004a5c4     LIBCMT:winapinls.obj
 0002:000065d0       ??_C@_1M@OOJFGBHE@?$AAa?$AAr?$AA?9?$AAL?$AAB?$AA?$AA@ 1004a5d0     LIBCMT:winapinls.obj
 0002:000065dc       ??_C@_1M@GCEJHNEG@?$AAe?$AAn?$AA?9?$AAZ?$AAW?$AA?$AA@ 1004a5dc     LIBCMT:winapinls.obj
 0002:000065e8       ??_C@_1M@JNOCAHJI@?$AAe?$AAs?$AA?9?$AAE?$AAC?$AA?$AA@ 1004a5e8     LIBCMT:winapinls.obj
 0002:000065f4       ??_C@_1M@JEFHPGGB@?$AAa?$AAr?$AA?9?$AAK?$AAW?$AA?$AA@ 1004a5f4     LIBCMT:winapinls.obj
 0002:00006600       ??_C@_1M@MLKIBJOJ@?$AAe?$AAn?$AA?9?$AAP?$AAH?$AA?$AA@ 1004a600     LIBCMT:winapinls.obj
 0002:0000660c       ??_C@_1M@BDNIPEND@?$AAe?$AAs?$AA?9?$AAC?$AAL?$AA?$AA@ 1004a60c     LIBCMT:winapinls.obj
 0002:00006618       ??_C@_1M@MPNMEKBD@?$AAa?$AAr?$AA?9?$AAA?$AAE?$AA?$AA@ 1004a618     LIBCMT:winapinls.obj
 0002:00006624       ??_C@_1M@KBJALCPI@?$AAe?$AAs?$AA?9?$AAU?$AAY?$AA?$AA@ 1004a624     LIBCMT:winapinls.obj
 0002:00006630       ??_C@_1M@LLCCOAGA@?$AAa?$AAr?$AA?9?$AAB?$AAH?$AA?$AA@ 1004a630     LIBCMT:winapinls.obj
 0002:0000663c       ??_C@_1M@PBFNCDEL@?$AAe?$AAs?$AA?9?$AAP?$AAY?$AA?$AA@ 1004a63c     LIBCMT:winapinls.obj
 0002:00006648       ??_C@_1M@EDGINPNP@?$AAa?$AAr?$AA?9?$AAQ?$AAA?$AA?$AA@ 1004a648     LIBCMT:winapinls.obj
 0002:00006654       ??_C@_1M@MKDBIIJI@?$AAe?$AAs?$AA?9?$AAB?$AAO?$AA?$AA@ 1004a654     LIBCMT:winapinls.obj
 0002:00006660       ??_C@_1M@CPKKEBLD@?$AAe?$AAs?$AA?9?$AAS?$AAV?$AA?$AA@ 1004a660     LIBCMT:winapinls.obj
 0002:0000666c       ??_C@_1M@NDBGMMJL@?$AAe?$AAs?$AA?9?$AAH?$AAN?$AA?$AA@ 1004a66c     LIBCMT:winapinls.obj
 0002:00006678       ??_C@_1M@JIJIBHDP@?$AAe?$AAs?$AA?9?$AAN?$AAI?$AA?$AA@ 1004a678     LIBCMT:winapinls.obj
 0002:00006684       ??_C@_1M@CGFMKEEK@?$AAe?$AAs?$AA?9?$AAP?$AAR?$AA?$AA@ 1004a684     LIBCMT:winapinls.obj
 0002:00006690       ??_C@_1O@ICJHKIIK@?$AAz?$AAh?$AA?9?$AAC?$AAH?$AAT?$AA?$AA@ 1004a690     LIBCMT:winapinls.obj
 0002:000066a0       ??_C@_15CLNEJCE@?$AAs?$AAr?$AA?$AA@ 1004a6a0     LIBCMT:winapinls.obj
 0002:000066a8       ??_C@_1M@KAHEKEIG@?$AAa?$AAf?$AA?9?$AAz?$AAa?$AA?$AA@ 1004a6a8     LIBCMT:winapinls.obj
 0002:000066b4       ??_C@_1M@GIECOABL@?$AAa?$AAr?$AA?9?$AAa?$AAe?$AA?$AA@ 1004a6b4     LIBCMT:winapinls.obj
 0002:000066c0       ??_C@_1M@BMLMEKGI@?$AAa?$AAr?$AA?9?$AAb?$AAh?$AA?$AA@ 1004a6c0     LIBCMT:winapinls.obj
 0002:000066cc       ??_C@_1M@DAPFDGGB@?$AAa?$AAr?$AA?9?$AAd?$AAz?$AA?$AA@ 1004a6cc     LIBCMT:winapinls.obj
 0002:000066d8       ??_C@_1M@FJNKGKIG@?$AAa?$AAr?$AA?9?$AAe?$AAg?$AA?$AA@ 1004a6d8     LIBCMT:winapinls.obj
 0002:000066e4       ??_C@_1M@FLGKKCLO@?$AAa?$AAr?$AA?9?$AAi?$AAq?$AA?$AA@ 1004a6e4     LIBCMT:winapinls.obj
 0002:000066f0       ??_C@_1M@GNDIPALM@?$AAa?$AAr?$AA?9?$AAj?$AAo?$AA?$AA@ 1004a6f0     LIBCMT:winapinls.obj
 0002:000066fc       ??_C@_1M@DDMJFMGJ@?$AAa?$AAr?$AA?9?$AAk?$AAw?$AA?$AA@ 1004a6fc     LIBCMT:winapinls.obj
 0002:00006708       ??_C@_1M@EJALMLHM@?$AAa?$AAr?$AA?9?$AAl?$AAb?$AA?$AA@ 1004a708     LIBCMT:winapinls.obj
 0002:00006714       ??_C@_1M@MOBDBLOC@?$AAa?$AAr?$AA?9?$AAl?$AAy?$AA?$AA@ 1004a714     LIBCMT:winapinls.obj
 0002:00006720       ??_C@_1M@JAOCLHDH@?$AAa?$AAr?$AA?9?$AAm?$AAa?$AA?$AA@ 1004a720     LIBCMT:winapinls.obj
 0002:0000672c       ??_C@_1M@JHPMKJIE@?$AAa?$AAr?$AA?9?$AAo?$AAm?$AA?$AA@ 1004a72c     LIBCMT:winapinls.obj
 0002:00006738       ??_C@_1M@OEPGHFNH@?$AAa?$AAr?$AA?9?$AAq?$AAa?$AA?$AA@ 1004a738     LIBCMT:winapinls.obj
 0002:00006744       ??_C@_1M@KJDONENM@?$AAa?$AAr?$AA?9?$AAs?$AAa?$AA?$AA@ 1004a744     LIBCMT:winapinls.obj
 0002:00006750       ??_C@_1M@DMJDKLKM@?$AAa?$AAr?$AA?9?$AAs?$AAy?$AA?$AA@ 1004a750     LIBCMT:winapinls.obj
 0002:0000675c       ??_C@_1M@OMFIPEDC@?$AAa?$AAr?$AA?9?$AAt?$AAn?$AA?$AA@ 1004a75c     LIBCMT:winapinls.obj
 0002:00006768       ??_C@_1M@IHMHGAON@?$AAa?$AAr?$AA?9?$AAy?$AAe?$AA?$AA@ 1004a768     LIBCMT:winapinls.obj
 0002:00006774       ??_C@_1BG@KDCPGJGB@?$AAa?$AAz?$AA?9?$AAa?$AAz?$AA?9?$AAc?$AAy?$AAr?$AAl?$AA?$AA@ 1004a774     LIBCMT:winapinls.obj
 0002:0000678c       ??_C@_1BG@IBCKDDOE@?$AAa?$AAz?$AA?9?$AAa?$AAz?$AA?9?$AAl?$AAa?$AAt?$AAn?$AA?$AA@ 1004a78c     LIBCMT:winapinls.obj
 0002:000067a4       ??_C@_1M@EGPFDCPD@?$AAb?$AAe?$AA?9?$AAb?$AAy?$AA?$AA@ 1004a7a4     LIBCMT:winapinls.obj
 0002:000067b0       ??_C@_1M@PCMGMCGC@?$AAb?$AAg?$AA?9?$AAb?$AAg?$AA?$AA@ 1004a7b0     LIBCMT:winapinls.obj
 0002:000067bc       ??_C@_1M@BJBMFGOB@?$AAb?$AAn?$AA?9?$AAi?$AAn?$AA?$AA@ 1004a7bc     LIBCMT:winapinls.obj
 0002:000067c8       ??_C@_1BG@EAKMMACD@?$AAb?$AAs?$AA?9?$AAb?$AAa?$AA?9?$AAl?$AAa?$AAt?$AAn?$AA?$AA@ 1004a7c8     LIBCMT:winapinls.obj
 0002:000067e0       ??_C@_1M@KGADAODK@?$AAc?$AAa?$AA?9?$AAe?$AAs?$AA?$AA@ 1004a7e0     LIBCMT:winapinls.obj
 0002:000067ec       ??_C@_1M@COAJPDHI@?$AAc?$AAs?$AA?9?$AAc?$AAz?$AA?$AA@ 1004a7ec     LIBCMT:winapinls.obj
 0002:000067f8       ??_C@_1M@DHBHFONH@?$AAc?$AAy?$AA?9?$AAg?$AAb?$AA?$AA@ 1004a7f8     LIBCMT:winapinls.obj
 0002:00006804       ??_C@_1M@IMGKELGA@?$AAd?$AAa?$AA?9?$AAd?$AAk?$AA?$AA@ 1004a804     LIBCMT:winapinls.obj
 0002:00006810       ??_C@_1M@NNDGDNGA@?$AAd?$AAe?$AA?9?$AAa?$AAt?$AA?$AA@ 1004a810     LIBCMT:winapinls.obj
 0002:0000681c       ??_C@_1M@IKDBHEEM@?$AAd?$AAe?$AA?9?$AAc?$AAh?$AA?$AA@ 1004a81c     LIBCMT:winapinls.obj
 0002:00006828       ??_C@_1M@GFFOJMCJ@?$AAd?$AAe?$AA?9?$AAd?$AAe?$AA?$AA@ 1004a828     LIBCMT:winapinls.obj
 0002:00006834       ??_C@_1M@MDNLKBPM@?$AAd?$AAe?$AA?9?$AAl?$AAi?$AA?$AA@ 1004a834     LIBCMT:winapinls.obj
 0002:00006840       ??_C@_1M@NJBEEJNL@?$AAd?$AAe?$AA?9?$AAl?$AAu?$AA?$AA@ 1004a840     LIBCMT:winapinls.obj
 0002:0000684c       ??_C@_1O@GNNELBAP@?$AAd?$AAi?$AAv?$AA?9?$AAm?$AAv?$AA?$AA@ 1004a84c     LIBCMT:winapinls.obj
 0002:0000685c       ??_C@_1M@EJLEOGAE@?$AAe?$AAl?$AA?9?$AAg?$AAr?$AA?$AA@ 1004a85c     LIBCMT:winapinls.obj
 0002:00006868       ??_C@_1M@GMPONJN@?$AAe?$AAn?$AA?9?$AAa?$AAu?$AA?$AA@ 1004a868     LIBCMT:winapinls.obj
 0002:00006874       ??_C@_1M@NIDIIPGF@?$AAe?$AAn?$AA?9?$AAb?$AAz?$AA?$AA@ 1004a874     LIBCMT:winapinls.obj
 0002:00006880       ??_C@_1M@JEHMIMFO@?$AAe?$AAn?$AA?9?$AAc?$AAa?$AA?$AA@ 1004a880     LIBCMT:winapinls.obj
 0002:0000688c       ??_C@_1M@IGMJCDLA@?$AAe?$AAn?$AA?9?$AAc?$AAb?$AA?$AA@ 1004a88c     LIBCMT:winapinls.obj
 0002:00006898       ??_C@_1M@BNFIGBKG@?$AAe?$AAn?$AA?9?$AAg?$AAb?$AA?$AA@ 1004a898     LIBCMT:winapinls.obj
 0002:000068a4       ??_C@_1M@LKIFDIGP@?$AAe?$AAn?$AA?9?$AAi?$AAe?$AA?$AA@ 1004a8a4     LIBCMT:winapinls.obj
 0002:000068b0       ??_C@_1M@PJKFGCCO@?$AAe?$AAn?$AA?9?$AAj?$AAm?$AA?$AA@ 1004a8b0     LIBCMT:winapinls.obj
 0002:000068bc       ??_C@_1M@KPPKEPBO@?$AAe?$AAn?$AA?9?$AAn?$AAz?$AA?$AA@ 1004a8bc     LIBCMT:winapinls.obj
 0002:000068c8       ??_C@_1M@GMDGLDOB@?$AAe?$AAn?$AA?9?$AAp?$AAh?$AA?$AA@ 1004a8c8     LIBCMT:winapinls.obj
 0002:000068d4       ??_C@_1M@ONGIBJNA@?$AAe?$AAn?$AA?9?$AAt?$AAt?$AA?$AA@ 1004a8d4     LIBCMT:winapinls.obj
 0002:000068e0       ??_C@_1M@LLODPCMM@?$AAe?$AAn?$AA?9?$AAu?$AAs?$AA?$AA@ 1004a8e0     LIBCMT:winapinls.obj
 0002:000068ec       ??_C@_1M@LAKFNPAN@?$AAe?$AAn?$AA?9?$AAz?$AAa?$AA?$AA@ 1004a8ec     LIBCMT:winapinls.obj
 0002:000068f8       ??_C@_1M@MFNHNHEO@?$AAe?$AAn?$AA?9?$AAz?$AAw?$AA?$AA@ 1004a8f8     LIBCMT:winapinls.obj
 0002:00006904       ??_C@_1M@EJEINPHM@?$AAe?$AAs?$AA?9?$AAa?$AAr?$AA?$AA@ 1004a904     LIBCMT:winapinls.obj
 0002:00006910       ??_C@_1M@GNKPCCJA@?$AAe?$AAs?$AA?9?$AAb?$AAo?$AA?$AA@ 1004a910     LIBCMT:winapinls.obj
 0002:0000691c       ??_C@_1M@LEEGFONL@?$AAe?$AAs?$AA?9?$AAc?$AAl?$AA?$AA@ 1004a91c     LIBCMT:winapinls.obj
 0002:00006928       ??_C@_1M@KGPDPBDF@?$AAe?$AAs?$AA?9?$AAc?$AAo?$AA?$AA@ 1004a928     LIBCMT:winapinls.obj
 0002:00006934       ??_C@_1M@EIAHOHH@?$AAe?$AAs?$AA?9?$AAc?$AAr?$AA?$AA@ 1004a934     LIBCMT:winapinls.obj
 0002:00006940       ??_C@_1M@LLPGMBIN@?$AAe?$AAs?$AA?9?$AAd?$AAo?$AA?$AA@ 1004a940     LIBCMT:winapinls.obj
 0002:0000694c       ??_C@_1M@DKHMKNJA@?$AAe?$AAs?$AA?9?$AAe?$AAc?$AA?$AA@ 1004a94c     LIBCMT:winapinls.obj
 0002:00006958       ??_C@_1M@GKGFPKAP@?$AAe?$AAs?$AA?9?$AAe?$AAs?$AA?$AA@ 1004a958     LIBCMT:winapinls.obj
 0002:00006964       ??_C@_1M@LKHKGDLN@?$AAe?$AAs?$AA?9?$AAg?$AAt?$AA?$AA@ 1004a964     LIBCMT:winapinls.obj
 0002:00006970       ??_C@_1M@HEIIGGJD@?$AAe?$AAs?$AA?9?$AAh?$AAn?$AA?$AA@ 1004a970     LIBCMT:winapinls.obj
 0002:0000697c       ??_C@_1M@FBDHPPGD@?$AAe?$AAs?$AA?9?$AAm?$AAx?$AA?$AA@ 1004a97c     LIBCMT:winapinls.obj
 0002:00006988       ??_C@_1M@DPAGLNDH@?$AAe?$AAs?$AA?9?$AAn?$AAi?$AA?$AA@ 1004a988     LIBCMT:winapinls.obj
 0002:00006994       ??_C@_1M@MDGOPGDD@?$AAe?$AAs?$AA?9?$AAp?$AAa?$AA?$AA@ 1004a994     LIBCMT:winapinls.obj
 0002:000069a0       ??_C@_1M@EMAMGBGE@?$AAe?$AAs?$AA?9?$AAp?$AAe?$AA?$AA@ 1004a9a0     LIBCMT:winapinls.obj
 0002:000069ac       ??_C@_1M@IBMCAOEC@?$AAe?$AAs?$AA?9?$AAp?$AAr?$AA?$AA@ 1004a9ac     LIBCMT:winapinls.obj
 0002:000069b8       ??_C@_1M@FGMDIJED@?$AAe?$AAs?$AA?9?$AAp?$AAy?$AA?$AA@ 1004a9b8     LIBCMT:winapinls.obj
 0002:000069c4       ??_C@_1M@IIDEOLLL@?$AAe?$AAs?$AA?9?$AAs?$AAv?$AA?$AA@ 1004a9c4     LIBCMT:winapinls.obj
 0002:000069d0       ??_C@_1M@GAOBIPA@?$AAe?$AAs?$AA?9?$AAu?$AAy?$AA?$AA@ 1004a9d0     LIBCMT:winapinls.obj
 0002:000069dc       ??_C@_1M@JKFFICHJ@?$AAe?$AAs?$AA?9?$AAv?$AAe?$AA?$AA@ 1004a9dc     LIBCMT:winapinls.obj
 0002:000069e8       ??_C@_1M@PNMLOJDF@?$AAe?$AAt?$AA?9?$AAe?$AAe?$AA?$AA@ 1004a9e8     LIBCMT:winapinls.obj
 0002:000069f4       ??_C@_1M@GHHLIKEI@?$AAe?$AAu?$AA?9?$AAe?$AAs?$AA?$AA@ 1004a9f4     LIBCMT:winapinls.obj
 0002:00006a00       ??_C@_1M@PBNONODE@?$AAf?$AAa?$AA?9?$AAi?$AAr?$AA?$AA@ 1004aa00     LIBCMT:winapinls.obj
 0002:00006a0c       ??_C@_1M@JEEHPMIL@?$AAf?$AAi?$AA?9?$AAf?$AAi?$AA?$AA@ 1004aa0c     LIBCMT:winapinls.obj
 0002:00006a18       ??_C@_1M@LMDCNDBA@?$AAf?$AAo?$AA?9?$AAf?$AAo?$AA?$AA@ 1004aa18     LIBCMT:winapinls.obj
 0002:00006a24       ??_C@_1M@JKEOHLDK@?$AAf?$AAr?$AA?9?$AAb?$AAe?$AA?$AA@ 1004aa24     LIBCMT:winapinls.obj
 0002:00006a30       ??_C@_1M@NOHADPMI@?$AAf?$AAr?$AA?9?$AAc?$AAa?$AA?$AA@ 1004aa30     LIBCMT:winapinls.obj
 0002:00006a3c       ??_C@_1M@KDHIHAEC@?$AAf?$AAr?$AA?9?$AAc?$AAh?$AA?$AA@ 1004aa3c     LIBCMT:winapinls.obj
 0002:00006a48       ??_C@_1M@MMBBFGAK@?$AAf?$AAr?$AA?9?$AAf?$AAr?$AA?$AA@ 1004aa48     LIBCMT:winapinls.obj
 0002:00006a54       ??_C@_1M@PAFNENNF@?$AAf?$AAr?$AA?9?$AAl?$AAu?$AA?$AA@ 1004aa54     LIBCMT:winapinls.obj
 0002:00006a60       ??_C@_1M@EOHDJGDD@?$AAf?$AAr?$AA?9?$AAm?$AAc?$AA?$AA@ 1004aa60     LIBCMT:winapinls.obj
 0002:00006a6c       ??_C@_1M@FAPLLOPF@?$AAg?$AAl?$AA?9?$AAe?$AAs?$AA?$AA@ 1004aa6c     LIBCMT:winapinls.obj
 0002:00006a78       ??_C@_1M@FOPBFLOO@?$AAg?$AAu?$AA?9?$AAi?$AAn?$AA?$AA@ 1004aa78     LIBCMT:winapinls.obj
 0002:00006a84       ??_C@_1M@KBMCINPM@?$AAh?$AAe?$AA?9?$AAi?$AAl?$AA?$AA@ 1004aa84     LIBCMT:winapinls.obj
 0002:00006a90       ??_C@_1M@BBPHKFPJ@?$AAh?$AAi?$AA?9?$AAi?$AAn?$AA?$AA@ 1004aa90     LIBCMT:winapinls.obj
 0002:00006a9c       ??_C@_1M@PMBNDPHD@?$AAh?$AAr?$AA?9?$AAb?$AAa?$AA?$AA@ 1004aa9c     LIBCMT:winapinls.obj
 0002:00006aa8       ??_C@_1M@BPCKOEGE@?$AAh?$AAr?$AA?9?$AAh?$AAr?$AA?$AA@ 1004aaa8     LIBCMT:winapinls.obj
 0002:00006ab4       ??_C@_1M@GACBMHKE@?$AAh?$AAu?$AA?9?$AAh?$AAu?$AA?$AA@ 1004aab4     LIBCMT:winapinls.obj
 0002:00006ac0       ??_C@_1M@MILPAJJC@?$AAh?$AAy?$AA?9?$AAa?$AAm?$AA?$AA@ 1004aac0     LIBCMT:winapinls.obj
 0002:00006acc       ??_C@_1M@BABBICEC@?$AAi?$AAd?$AA?9?$AAi?$AAd?$AA?$AA@ 1004aacc     LIBCMT:winapinls.obj
 0002:00006ad8       ??_C@_1M@BIKNHHPF@?$AAi?$AAs?$AA?9?$AAi?$AAs?$AA?$AA@ 1004aad8     LIBCMT:winapinls.obj
 0002:00006ae4       ??_C@_1M@NMPCJPHE@?$AAi?$AAt?$AA?9?$AAc?$AAh?$AA?$AA@ 1004aae4     LIBCMT:winapinls.obj
 0002:00006af0       ??_C@_1M@GHKGFEDF@?$AAi?$AAt?$AA?9?$AAi?$AAt?$AA?$AA@ 1004aaf0     LIBCMT:winapinls.obj
 0002:00006afc       ??_C@_1M@NIEJCJJA@?$AAj?$AAa?$AA?9?$AAj?$AAp?$AA?$AA@ 1004aafc     LIBCMT:winapinls.obj
 0002:00006b08       ??_C@_1M@JILFNBIM@?$AAk?$AAa?$AA?9?$AAg?$AAe?$AA?$AA@ 1004ab08     LIBCMT:winapinls.obj
 0002:00006b14       ??_C@_1M@PACPMGPH@?$AAk?$AAk?$AA?9?$AAk?$AAz?$AA?$AA@ 1004ab14     LIBCMT:winapinls.obj
 0002:00006b20       ??_C@_1M@IELFGMHA@?$AAk?$AAn?$AA?9?$AAi?$AAn?$AA?$AA@ 1004ab20     LIBCMT:winapinls.obj
 0002:00006b2c       ??_C@_1O@IBBJHCH@?$AAk?$AAo?$AAk?$AA?9?$AAi?$AAn?$AA?$AA@ 1004ab2c     LIBCMT:winapinls.obj
 0002:00006b3c       ??_C@_1M@DMHAEOGC@?$AAk?$AAo?$AA?9?$AAk?$AAr?$AA?$AA@ 1004ab3c     LIBCMT:winapinls.obj
 0002:00006b48       ??_C@_1M@HBAHBIGA@?$AAk?$AAy?$AA?9?$AAk?$AAg?$AA?$AA@ 1004ab48     LIBCMT:winapinls.obj
 0002:00006b54       ??_C@_1M@KPMILCJG@?$AAl?$AAt?$AA?9?$AAl?$AAt?$AA?$AA@ 1004ab54     LIBCMT:winapinls.obj
 0002:00006b60       ??_C@_1M@BDEKKCA@?$AAl?$AAv?$AA?9?$AAl?$AAv?$AA?$AA@ 1004ab60     LIBCMT:winapinls.obj
 0002:00006b6c       ??_C@_1M@ELCKCCJJ@?$AAm?$AAi?$AA?9?$AAn?$AAz?$AA?$AA@ 1004ab6c     LIBCMT:winapinls.obj
 0002:00006b78       ??_C@_1M@CBOOLAPA@?$AAm?$AAk?$AA?9?$AAm?$AAk?$AA?$AA@ 1004ab78     LIBCMT:winapinls.obj
 0002:00006b84       ??_C@_1M@GPHNBJKN@?$AAm?$AAl?$AA?9?$AAi?$AAn?$AA?$AA@ 1004ab84     LIBCMT:winapinls.obj
 0002:00006b90       ??_C@_1M@PABJILIG@?$AAm?$AAn?$AA?9?$AAm?$AAn?$AA?$AA@ 1004ab90     LIBCMT:winapinls.obj
 0002:00006b9c       ??_C@_1M@FGBKKIPG@?$AAm?$AAr?$AA?9?$AAi?$AAn?$AA?$AA@ 1004ab9c     LIBCMT:winapinls.obj
 0002:00006ba8       ??_C@_1M@NDBPDDAL@?$AAm?$AAs?$AA?9?$AAb?$AAn?$AA?$AA@ 1004aba8     LIBCMT:winapinls.obj
 0002:00006bb4       ??_C@_1M@OPIHOOPI@?$AAm?$AAs?$AA?9?$AAm?$AAy?$AA?$AA@ 1004abb4     LIBCMT:winapinls.obj
 0002:00006bc0       ??_C@_1M@PPDBCNFM@?$AAm?$AAt?$AA?9?$AAm?$AAt?$AA?$AA@ 1004abc0     LIBCMT:winapinls.obj
 0002:00006bcc       ??_C@_1M@KDJDKMDD@?$AAn?$AAb?$AA?9?$AAn?$AAo?$AA?$AA@ 1004abcc     LIBCMT:winapinls.obj
 0002:00006bd8       ??_C@_1M@KFCFLMJP@?$AAn?$AAl?$AA?9?$AAb?$AAe?$AA?$AA@ 1004abd8     LIBCMT:winapinls.obj
 0002:00006be4       ??_C@_1M@KPOPDDGO@?$AAn?$AAl?$AA?9?$AAn?$AAl?$AA?$AA@ 1004abe4     LIBCMT:winapinls.obj
 0002:00006bf0       ??_C@_1M@LJKPEMLN@?$AAn?$AAn?$AA?9?$AAn?$AAo?$AA?$AA@ 1004abf0     LIBCMT:winapinls.obj
 0002:00006bfc       ??_C@_1M@BDGHHBFL@?$AAn?$AAs?$AA?9?$AAz?$AAa?$AA?$AA@ 1004abfc     LIBCMT:winapinls.obj
 0002:00006c08       ??_C@_1M@IDEHOAP@?$AAp?$AAa?$AA?9?$AAi?$AAn?$AA?$AA@ 1004ac08     LIBCMT:winapinls.obj
 0002:00006c14       ??_C@_1M@HDBKGOGH@?$AAp?$AAl?$AA?9?$AAp?$AAl?$AA?$AA@ 1004ac14     LIBCMT:winapinls.obj
 0002:00006c20       ??_C@_1M@LJLLCMEH@?$AAp?$AAt?$AA?9?$AAb?$AAr?$AA?$AA@ 1004ac20     LIBCMT:winapinls.obj
 0002:00006c2c       ??_C@_1M@NCMONAAL@?$AAp?$AAt?$AA?9?$AAp?$AAt?$AA?$AA@ 1004ac2c     LIBCMT:winapinls.obj
 0002:00006c38       ??_C@_1O@EAKMAJDN@?$AAq?$AAu?$AAz?$AA?9?$AAb?$AAo?$AA?$AA@ 1004ac38     LIBCMT:winapinls.obj
 0002:00006c48       ??_C@_1O@BHHPIGDN@?$AAq?$AAu?$AAz?$AA?9?$AAe?$AAc?$AA?$AA@ 1004ac48     LIBCMT:winapinls.obj
 0002:00006c58       ??_C@_1O@GBAPEKMJ@?$AAq?$AAu?$AAz?$AA?9?$AAp?$AAe?$AA?$AA@ 1004ac58     LIBCMT:winapinls.obj
 0002:00006c68       ??_C@_1M@CLGLEFBO@?$AAr?$AAo?$AA?9?$AAr?$AAo?$AA?$AA@ 1004ac68     LIBCMT:winapinls.obj
 0002:00006c74       ??_C@_1M@CEEDODME@?$AAr?$AAu?$AA?9?$AAr?$AAu?$AA?$AA@ 1004ac74     LIBCMT:winapinls.obj
 0002:00006c80       ??_C@_1M@HPKKKMPP@?$AAs?$AAa?$AA?9?$AAi?$AAn?$AA?$AA@ 1004ac80     LIBCMT:winapinls.obj
 0002:00006c8c       ??_C@_1M@BKMAIGOJ@?$AAs?$AAe?$AA?9?$AAf?$AAi?$AA?$AA@ 1004ac8c     LIBCMT:winapinls.obj
 0002:00006c98       ??_C@_1M@NDPIFLFI@?$AAs?$AAe?$AA?9?$AAn?$AAo?$AA?$AA@ 1004ac98     LIBCMT:winapinls.obj
 0002:00006ca4       ??_C@_1M@DANKKHJ@?$AAs?$AAe?$AA?9?$AAs?$AAe?$AA?$AA@ 1004aca4     LIBCMT:winapinls.obj
 0002:00006cb0       ??_C@_1M@PNBLONPJ@?$AAs?$AAk?$AA?9?$AAs?$AAk?$AA?$AA@ 1004acb0     LIBCMT:winapinls.obj
 0002:00006cbc       ??_C@_1M@LFMODOAL@?$AAs?$AAl?$AA?9?$AAs?$AAi?$AA?$AA@ 1004acbc     LIBCMT:winapinls.obj
 0002:00006cc8       ??_C@_1O@DFKOMPG@?$AAs?$AAm?$AAa?$AA?9?$AAn?$AAo?$AA?$AA@ 1004acc8     LIBCMT:winapinls.obj
 0002:00006cd8       ??_C@_1O@NDKPBNNH@?$AAs?$AAm?$AAa?$AA?9?$AAs?$AAe?$AA?$AA@ 1004acd8     LIBCMT:winapinls.obj
 0002:00006ce8       ??_C@_1O@PLLKBHAB@?$AAs?$AAm?$AAj?$AA?9?$AAn?$AAo?$AA?$AA@ 1004ace8     LIBCMT:winapinls.obj
 0002:00006cf8       ??_C@_1O@CLEPOGCA@?$AAs?$AAm?$AAj?$AA?9?$AAs?$AAe?$AA?$AA@ 1004acf8     LIBCMT:winapinls.obj
 0002:00006d08       ??_C@_1O@DLGJGKMK@?$AAs?$AAm?$AAn?$AA?9?$AAf?$AAi?$AA?$AA@ 1004ad08     LIBCMT:winapinls.obj
 0002:00006d18       ??_C@_1O@OJDJGAJC@?$AAs?$AAm?$AAs?$AA?9?$AAf?$AAi?$AA?$AA@ 1004ad18     LIBCMT:winapinls.obj
 0002:00006d28       ??_C@_1M@BOFOGHPB@?$AAs?$AAq?$AA?9?$AAa?$AAl?$AA?$AA@ 1004ad28     LIBCMT:winapinls.obj
 0002:00006d34       ??_C@_1BG@LJBBIPGB@?$AAs?$AAr?$AA?9?$AAb?$AAa?$AA?9?$AAc?$AAy?$AAr?$AAl?$AA?$AA@ 1004ad34     LIBCMT:winapinls.obj
 0002:00006d4c       ??_C@_1BG@JLBENFOE@?$AAs?$AAr?$AA?9?$AAb?$AAa?$AA?9?$AAl?$AAa?$AAt?$AAn?$AA?$AA@ 1004ad4c     LIBCMT:winapinls.obj
 0002:00006d64       ??_C@_1BG@KODPNHE@?$AAs?$AAr?$AA?9?$AAs?$AAp?$AA?9?$AAc?$AAy?$AAr?$AAl?$AA?$AA@ 1004ad64     LIBCMT:winapinls.obj
 0002:00006d7c       ??_C@_1BG@CIOGKHPB@?$AAs?$AAr?$AA?9?$AAs?$AAp?$AA?9?$AAl?$AAa?$AAt?$AAn?$AA?$AA@ 1004ad7c     LIBCMT:winapinls.obj
 0002:00006d94       ??_C@_1M@NGFJLMAC@?$AAs?$AAv?$AA?9?$AAf?$AAi?$AA?$AA@ 1004ad94     LIBCMT:winapinls.obj
 0002:00006da0       ??_C@_1M@MPJEJAJC@?$AAs?$AAv?$AA?9?$AAs?$AAe?$AA?$AA@ 1004ada0     LIBCMT:winapinls.obj
 0002:00006dac       ??_C@_1M@MPNDHLFK@?$AAs?$AAw?$AA?9?$AAk?$AAe?$AA?$AA@ 1004adac     LIBCMT:winapinls.obj
 0002:00006db8       ??_C@_1O@KOHBJJI@?$AAs?$AAy?$AAr?$AA?9?$AAs?$AAy?$AA?$AA@ 1004adb8     LIBCMT:winapinls.obj
 0002:00006dc8       ??_C@_1M@LDCEFHA@?$AAt?$AAa?$AA?9?$AAi?$AAn?$AA?$AA@ 1004adc8     LIBCMT:winapinls.obj
 0002:00006dd4       ??_C@_1M@CNJOFAK@?$AAt?$AAe?$AA?9?$AAi?$AAn?$AA?$AA@ 1004add4     LIBCMT:winapinls.obj
 0002:00006de0       ??_C@_1M@GNAECACD@?$AAt?$AAh?$AA?9?$AAt?$AAh?$AA?$AA@ 1004ade0     LIBCMT:winapinls.obj
 0002:00006dec       ??_C@_1M@CHBIHOJO@?$AAt?$AAn?$AA?9?$AAz?$AAa?$AA?$AA@ 1004adec     LIBCMT:winapinls.obj
 0002:00006df8       ??_C@_1M@GCCMIGPJ@?$AAt?$AAr?$AA?9?$AAt?$AAr?$AA?$AA@ 1004adf8     LIBCMT:winapinls.obj
 0002:00006e04       ??_C@_1M@CELMCNBK@?$AAt?$AAt?$AA?9?$AAr?$AAu?$AA?$AA@ 1004ae04     LIBCMT:winapinls.obj
 0002:00006e10       ??_C@_1M@KLMCELGA@?$AAu?$AAk?$AA?9?$AAu?$AAa?$AA?$AA@ 1004ae10     LIBCMT:winapinls.obj
 0002:00006e1c       ??_C@_1M@EPAJJAJF@?$AAu?$AAr?$AA?9?$AAp?$AAk?$AA?$AA@ 1004ae1c     LIBCMT:winapinls.obj
 0002:00006e28       ??_C@_1BG@GEGPMCDJ@?$AAu?$AAz?$AA?9?$AAu?$AAz?$AA?9?$AAc?$AAy?$AAr?$AAl?$AA?$AA@ 1004ae28     LIBCMT:winapinls.obj
 0002:00006e40       ??_C@_1BG@EGGKJILM@?$AAu?$AAz?$AA?9?$AAu?$AAz?$AA?9?$AAl?$AAa?$AAt?$AAn?$AA?$AA@ 1004ae40     LIBCMT:winapinls.obj
 0002:00006e58       ??_C@_1M@GFOCLFF@?$AAv?$AAi?$AA?9?$AAv?$AAn?$AA?$AA@ 1004ae58     LIBCMT:winapinls.obj
 0002:00006e64       ??_C@_1M@CPAMEDFI@?$AAx?$AAh?$AA?9?$AAz?$AAa?$AA?$AA@ 1004ae64     LIBCMT:winapinls.obj
 0002:00006e70       ??_C@_1O@EBKIFIGN@?$AAz?$AAh?$AA?9?$AAc?$AAh?$AAs?$AA?$AA@ 1004ae70     LIBCMT:winapinls.obj
 0002:00006e80       ??_C@_1O@NMHPGANE@?$AAz?$AAh?$AA?9?$AAc?$AAh?$AAt?$AA?$AA@ 1004ae80     LIBCMT:winapinls.obj
 0002:00006e90       ??_C@_1M@LPINJOMC@?$AAz?$AAh?$AA?9?$AAc?$AAn?$AA?$AA@ 1004ae90     LIBCMT:winapinls.obj
 0002:00006e9c       ??_C@_1M@OCJEJODD@?$AAz?$AAh?$AA?9?$AAh?$AAk?$AA?$AA@ 1004ae9c     LIBCMT:winapinls.obj
 0002:00006ea8       ??_C@_1M@DNDLJINH@?$AAz?$AAh?$AA?9?$AAm?$AAo?$AA?$AA@ 1004aea8     LIBCMT:winapinls.obj
 0002:00006eb4       ??_C@_1M@MBFDNDND@?$AAz?$AAh?$AA?9?$AAs?$AAg?$AA?$AA@ 1004aeb4     LIBCMT:winapinls.obj
 0002:00006ec0       ??_C@_1M@IMEPLEPE@?$AAz?$AAh?$AA?9?$AAt?$AAw?$AA?$AA@ 1004aec0     LIBCMT:winapinls.obj
 0002:00006ecc       ??_C@_1M@BBGHNHJP@?$AAz?$AAu?$AA?9?$AAz?$AAa?$AA?$AA@ 1004aecc     LIBCMT:winapinls.obj
 0002:00006f90       ??_C@_1FK@PGACCAFB@?$AAR?$AA6?$AA0?$AA0?$AA2?$AA?$AN?$AA?6?$AA?9?$AA?5?$AAf?$AAl?$AAo?$AAa?$AAt?$AAi?$AAn?$AAg?$AA?5?$AAp?$AAo?$AAi?$AAn?$AAt?$AA?5?$AAs?$AAu?$AAp?$AAp?$AAo?$AAr?$AAt?$AA?5@ 1004af90     LIBCMT:crt0msg.obj
 0002:00006ff0       ??_C@_1FE@LLNEDJMD@?$AAR?$AA6?$AA0?$AA0?$AA8?$AA?$AN?$AA?6?$AA?9?$AA?5?$AAn?$AAo?$AAt?$AA?5?$AAe?$AAn?$AAo?$AAu?$AAg?$AAh?$AA?5?$AAs?$AAp?$AAa?$AAc?$AAe?$AA?5?$AAf?$AAo?$AAr?$AA?5?$AAa?$AAr@ 1004aff0     LIBCMT:crt0msg.obj
 0002:00007048       ??_C@_1FI@HONFMGBI@?$AAR?$AA6?$AA0?$AA0?$AA9?$AA?$AN?$AA?6?$AA?9?$AA?5?$AAn?$AAo?$AAt?$AA?5?$AAe?$AAn?$AAo?$AAu?$AAg?$AAh?$AA?5?$AAs?$AAp?$AAa?$AAc?$AAe?$AA?5?$AAf?$AAo?$AAr?$AA?5?$AAe?$AAn@ 1004b048     LIBCMT:crt0msg.obj
 0002:000070a0       ??_C@_1EG@BEHAGFJD@?$AAR?$AA6?$AA0?$AA1?$AA0?$AA?$AN?$AA?6?$AA?9?$AA?5?$AAa?$AAb?$AAo?$AAr?$AAt?$AA?$CI?$AA?$CJ?$AA?5?$AAh?$AAa?$AAs?$AA?5?$AAb?$AAe?$AAe?$AAn?$AA?5?$AAc?$AAa?$AAl?$AAl?$AAe?$AAd@ 1004b0a0     LIBCMT:crt0msg.obj
 0002:000070e8       ??_C@_1FI@LOGNIKDM@?$AAR?$AA6?$AA0?$AA1?$AA6?$AA?$AN?$AA?6?$AA?9?$AA?5?$AAn?$AAo?$AAt?$AA?5?$AAe?$AAn?$AAo?$AAu?$AAg?$AAh?$AA?5?$AAs?$AAp?$AAa?$AAc?$AAe?$AA?5?$AAf?$AAo?$AAr?$AA?5?$AAt?$AAh@ 1004b0e8     LIBCMT:crt0msg.obj
 0002:00007140       ??_C@_1FK@BEOGODMC@?$AAR?$AA6?$AA0?$AA1?$AA7?$AA?$AN?$AA?6?$AA?9?$AA?5?$AAu?$AAn?$AAe?$AAx?$AAp?$AAe?$AAc?$AAt?$AAe?$AAd?$AA?5?$AAm?$AAu?$AAl?$AAt?$AAi?$AAt?$AAh?$AAr?$AAe?$AAa?$AAd?$AA?5@ 1004b140     LIBCMT:crt0msg.obj
 0002:000071a0       ??_C@_1EC@JIBHAOPH@?$AAR?$AA6?$AA0?$AA1?$AA8?$AA?$AN?$AA?6?$AA?9?$AA?5?$AAu?$AAn?$AAe?$AAx?$AAp?$AAe?$AAc?$AAt?$AAe?$AAd?$AA?5?$AAh?$AAe?$AAa?$AAp?$AA?5?$AAe?$AAr?$AAr?$AAo?$AAr?$AA?$AN?$AA?6@ 1004b1a0     LIBCMT:crt0msg.obj
 0002:000071e8       ??_C@_1FC@ECHBIFBC@?$AAR?$AA6?$AA0?$AA1?$AA9?$AA?$AN?$AA?6?$AA?9?$AA?5?$AAu?$AAn?$AAa?$AAb?$AAl?$AAe?$AA?5?$AAt?$AAo?$AA?5?$AAo?$AAp?$AAe?$AAn?$AA?5?$AAc?$AAo?$AAn?$AAs?$AAo?$AAl?$AAe?$AA?5@ 1004b1e8     LIBCMT:crt0msg.obj
 0002:00007240       ??_C@_1GK@FHCKBEFA@?$AAR?$AA6?$AA0?$AA2?$AA4?$AA?$AN?$AA?6?$AA?9?$AA?5?$AAn?$AAo?$AAt?$AA?5?$AAe?$AAn?$AAo?$AAu?$AAg?$AAh?$AA?5?$AAs?$AAp?$AAa?$AAc?$AAe?$AA?5?$AAf?$AAo?$AAr?$AA?5?$AA_?$AAo@ 1004b240     LIBCMT:crt0msg.obj
 0002:000072b0       ??_C@_1EM@MAADIHMB@?$AAR?$AA6?$AA0?$AA2?$AA5?$AA?$AN?$AA?6?$AA?9?$AA?5?$AAp?$AAu?$AAr?$AAe?$AA?5?$AAv?$AAi?$AAr?$AAt?$AAu?$AAa?$AAl?$AA?5?$AAf?$AAu?$AAn?$AAc?$AAt?$AAi?$AAo?$AAn?$AA?5?$AAc@ 1004b2b0     LIBCMT:crt0msg.obj
 0002:00007300       ??_C@_1GK@MCAAGJMO@?$AAR?$AA6?$AA0?$AA2?$AA6?$AA?$AN?$AA?6?$AA?9?$AA?5?$AAn?$AAo?$AAt?$AA?5?$AAe?$AAn?$AAo?$AAu?$AAg?$AAh?$AA?5?$AAs?$AAp?$AAa?$AAc?$AAe?$AA?5?$AAf?$AAo?$AAr?$AA?5?$AAs?$AAt@ 1004b300     LIBCMT:crt0msg.obj
 0002:00007370       ??_C@_1GK@MFGOKLAG@?$AAR?$AA6?$AA0?$AA2?$AA7?$AA?$AN?$AA?6?$AA?9?$AA?5?$AAn?$AAo?$AAt?$AA?5?$AAe?$AAn?$AAo?$AAu?$AAg?$AAh?$AA?5?$AAs?$AAp?$AAa?$AAc?$AAe?$AA?5?$AAf?$AAo?$AAr?$AA?5?$AAl?$AAo@ 1004b370     LIBCMT:crt0msg.obj
 0002:000073e0       ??_C@_1EK@HHFLMAOL@?$AAR?$AA6?$AA0?$AA2?$AA8?$AA?$AN?$AA?6?$AA?9?$AA?5?$AAu?$AAn?$AAa?$AAb?$AAl?$AAe?$AA?5?$AAt?$AAo?$AA?5?$AAi?$AAn?$AAi?$AAt?$AAi?$AAa?$AAl?$AAi?$AAz?$AAe?$AA?5?$AAh?$AAe@ 1004b3e0     LIBCMT:crt0msg.obj
 0002:0000742c       ??_C@_1DO@BMFCDCD@?$AAR?$AA6?$AA0?$AA3?$AA0?$AA?$AN?$AA?6?$AA?9?$AA?5?$AAC?$AAR?$AAT?$AA?5?$AAn?$AAo?$AAt?$AA?5?$AAi?$AAn?$AAi?$AAt?$AAi?$AAa?$AAl?$AAi?$AAz?$AAe?$AAd?$AA?$AN?$AA?6?$AA?$AA@ 1004b42c     LIBCMT:crt0msg.obj
 0002:00007470       ??_C@_1MG@ENCOOIDF@?$AAR?$AA6?$AA0?$AA3?$AA1?$AA?$AN?$AA?6?$AA?9?$AA?5?$AAA?$AAt?$AAt?$AAe?$AAm?$AAp?$AAt?$AA?5?$AAt?$AAo?$AA?5?$AAi?$AAn?$AAi?$AAt?$AAi?$AAa?$AAl?$AAi?$AAz?$AAe?$AA?5?$AAt@ 1004b470     LIBCMT:crt0msg.obj
 0002:00007538       ??_C@_1GG@GOPILAJP@?$AAR?$AA6?$AA0?$AA3?$AA2?$AA?$AN?$AA?6?$AA?9?$AA?5?$AAn?$AAo?$AAt?$AA?5?$AAe?$AAn?$AAo?$AAu?$AAg?$AAh?$AA?5?$AAs?$AAp?$AAa?$AAc?$AAe?$AA?5?$AAf?$AAo?$AAr?$AA?5?$AAl?$AAo@ 1004b538     LIBCMT:crt0msg.obj
 0002:000075a0       ??_C@_1BOO@KGEDBGAJ@?$AAR?$AA6?$AA0?$AA3?$AA3?$AA?$AN?$AA?6?$AA?9?$AA?5?$AAA?$AAt?$AAt?$AAe?$AAm?$AAp?$AAt?$AA?5?$AAt?$AAo?$AA?5?$AAu?$AAs?$AAe?$AA?5?$AAM?$AAS?$AAI?$AAL?$AA?5?$AAc?$AAo?$AAd@ 1004b5a0     LIBCMT:crt0msg.obj
 0002:00007790       ??_C@_1GG@MKFPEKFO@?$AAR?$AA6?$AA0?$AA3?$AA4?$AA?$AN?$AA?6?$AA?9?$AA?5?$AAi?$AAn?$AAc?$AAo?$AAn?$AAs?$AAi?$AAs?$AAt?$AAe?$AAn?$AAt?$AA?5?$AAo?$AAn?$AAe?$AAx?$AAi?$AAt?$AA?5?$AAb?$AAe?$AAg@ 1004b790     LIBCMT:crt0msg.obj
 0002:000077f8       ??_C@_1BO@BFCDCGC@?$AAD?$AAO?$AAM?$AAA?$AAI?$AAN?$AA?5?$AAe?$AAr?$AAr?$AAo?$AAr?$AA?$AN?$AA?6?$AA?$AA@ 1004b7f8     LIBCMT:crt0msg.obj
 0002:00007818       ??_C@_1BK@KMOMNAAI@?$AAS?$AAI?$AAN?$AAG?$AA?5?$AAe?$AAr?$AAr?$AAo?$AAr?$AA?$AN?$AA?6?$AA?$AA@ 1004b818     LIBCMT:crt0msg.obj
 0002:00007834       ??_C@_1BM@JBBEPPHI@?$AAT?$AAL?$AAO?$AAS?$AAS?$AA?5?$AAe?$AAr?$AAr?$AAo?$AAr?$AA?$AN?$AA?6?$AA?$AA@ 1004b834     LIBCMT:crt0msg.obj
 0002:00007850       ??_C@_15JNBOKNOG@?$AA?$AN?$AA?6?$AA?$AA@ 1004b850     LIBCMT:crt0msg.obj
 0002:00007858       ??_C@_1BO@BKOMIGKJ@?$AAr?$AAu?$AAn?$AAt?$AAi?$AAm?$AAe?$AA?5?$AAe?$AAr?$AAr?$AAo?$AAr?$AA?5?$AA?$AA@ 1004b858     LIBCMT:crt0msg.obj
 0002:00007878       ??_C@_1DE@JNGNBFGO@?$AAR?$AAu?$AAn?$AAt?$AAi?$AAm?$AAe?$AA?5?$AAE?$AAr?$AAr?$AAo?$AAr?$AA?$CB?$AA?6?$AA?6?$AAP?$AAr?$AAo?$AAg?$AAr?$AAa?$AAm?$AA?3?$AA?5?$AA?$AA@ 1004b878     LIBCMT:crt0msg.obj
 0002:000078ac       ??_C@_1CO@EAEJAADC@?$AA?$DM?$AAp?$AAr?$AAo?$AAg?$AAr?$AAa?$AAm?$AA?5?$AAn?$AAa?$AAm?$AAe?$AA?5?$AAu?$AAn?$AAk?$AAn?$AAo?$AAw?$AAn?$AA?$DO?$AA?$AA@ 1004b8ac     LIBCMT:crt0msg.obj
 0002:000078dc       ??_C@_17LGKOMLJ@?$AA?4?$AA?4?$AA?4?$AA?$AA@ 1004b8dc     LIBCMT:crt0msg.obj
 0002:000078e4       ??_C@_15IABLJNFO@?$AA?6?$AA?6?$AA?$AA@ 1004b8e4     LIBCMT:crt0msg.obj
 0002:000078f0       ??_C@_1EK@MBDPDCGA@?$AAM?$AAi?$AAc?$AAr?$AAo?$AAs?$AAo?$AAf?$AAt?$AA?5?$AAV?$AAi?$AAs?$AAu?$AAa?$AAl?$AA?5?$AAC?$AA?$CL?$AA?$CL?$AA?5?$AAR?$AAu?$AAn?$AAt?$AAi?$AAm?$AAe?$AA?5?$AAL?$AAi?$AAb@ 1004b8f0     LIBCMT:crt0msg.obj
 0002:0000793c       ??_C@_1BK@GAEMIDIL@?$AAA?$AAD?$AAV?$AAA?$AAP?$AAI?$AA3?$AA2?$AA?4?$AAD?$AAL?$AAL?$AA?$AA@ 1004b93c     LIBCMT:rand_s.obj
 0002:00007958       ??_C@_0BC@JEAENNKH@SystemFunction036?$AA@ 1004b958     LIBCMT:rand_s.obj
 0002:00007970       ___lc_category             1004b970     LIBCMT:wsetloca.obj
 0002:000079b8       ??_C@_1O@GIFLHMA@?$AAL?$AAC?$AA_?$AAA?$AAL?$AAL?$AA?$AA@ 1004b9b8     LIBCMT:wsetloca.obj
 0002:000079c8       ??_C@_1BG@PPOMIBNJ@?$AAL?$AAC?$AA_?$AAC?$AAO?$AAL?$AAL?$AAA?$AAT?$AAE?$AA?$AA@ 1004b9c8     LIBCMT:wsetloca.obj
 0002:000079e0       ??_C@_1BC@FFJGAPJM@?$AAL?$AAC?$AA_?$AAC?$AAT?$AAY?$AAP?$AAE?$AA?$AA@ 1004b9e0     LIBCMT:wsetloca.obj
 0002:000079f4       ??_C@_1BI@PCKFNJFB@?$AAL?$AAC?$AA_?$AAM?$AAO?$AAN?$AAE?$AAT?$AAA?$AAR?$AAY?$AA?$AA@ 1004b9f4     LIBCMT:wsetloca.obj
 0002:00007a0c       ??_C@_1BG@ENIEDKID@?$AAL?$AAC?$AA_?$AAN?$AAU?$AAM?$AAE?$AAR?$AAI?$AAC?$AA?$AA@ 1004ba0c     LIBCMT:wsetloca.obj
 0002:00007a24       ??_C@_1BA@HAAOMIIG@?$AAL?$AAC?$AA_?$AAT?$AAI?$AAM?$AAE?$AA?$AA@ 1004ba24     LIBCMT:wsetloca.obj
 0002:00007ab8       ??_C@_15NBPDDFIP@?$AA?$DN?$AA?$DL?$AA?$AA@ 1004bab8     LIBCMT:wsetloca.obj
 0002:00007ac0       ??_C@_13PJJBFPED@?$AA?$DL?$AA?$AA@ 1004bac0     LIBCMT:wsetloca.obj
 0002:00007ac4       ??_C@_13NMPKAAJP@?$AA?$DN?$AA?$AA@ 1004bac4     LIBCMT:wsetloca.obj
 0002:00007ac8       ??_C@_13FHBKNHDA@?$AAC?$AA?$AA@ 1004bac8     LIBCMT:wsetloca.obj
 0002:00007acc       ??_C@_17MBJJLFDM@?$AA_?$AA?4?$AA?0?$AA?$AA@ 1004bacc     LIBCMT:wsetloca.obj
 0002:00007ad4       ??_C@_13ENNFDPBH@?$AA_?$AA?$AA@ 1004bad4     LIBCMT:wsetloca.obj
 0002:00007ad8       ??_C@_13JOFGPIOO@?$AA?4?$AA?$AA@ 1004bad8     LIBCMT:wsetloca.obj
 0002:00007adc       ??_C@_06PGGFOGJG@1?$CDSNAN?$AA@ 1004badc     LIBCMT:x10fout.obj
 0002:00007ae4       ??_C@_05PHHOCPM@1?$CDIND?$AA@ 1004bae4     LIBCMT:x10fout.obj
 0002:00007aec       ??_C@_05DNEBIAHO@1?$CDINF?$AA@ 1004baec     LIBCMT:x10fout.obj
 0002:00007af4       ??_C@_06IMKFLFPG@1?$CDQNAN?$AA@ 1004baf4     LIBCMT:x10fout.obj
 0002:00007b08       ___newctype                1004bb08     LIBCMT:ctype.obj
 0002:00007e08       __wctype                   1004be08     LIBCMT:ctype.obj
 0002:00008010       ___newclmap                1004c010     LIBCMT:ctype.obj
 0002:00008190       ___newcumap                1004c190     LIBCMT:ctype.obj
 0002:00008310       ??_C@_1BG@GOEBHBDC@?$AAU?$AAS?$AAE?$AAR?$AA3?$AA2?$AA?4?$AAD?$AAL?$AAL?$AA?$AA@ 1004c310     LIBCMT:crtmboxw.obj
 0002:00008328       ??_C@_0M@DLDCCGNP@MessageBoxW?$AA@ 1004c328     LIBCMT:crtmboxw.obj
 0002:00008334       ??_C@_0BA@HNOPNCHB@GetActiveWindow?$AA@ 1004c334     LIBCMT:crtmboxw.obj
 0002:00008344       ??_C@_0BD@HHGDFDBJ@GetLastActivePopup?$AA@ 1004c344     LIBCMT:crtmboxw.obj
 0002:00008358       ??_C@_0BK@DEKFELLI@GetUserObjectInformationW?$AA@ 1004c358     LIBCMT:crtmboxw.obj
 0002:00008374       ??_C@_0BI@DFKBFLJE@GetProcessWindowStation?$AA@ 1004c374     LIBCMT:crtmboxw.obj
 0002:00008390       ___rg_language             1004c390     LIBCMT:getqloc.obj
 0002:0000869c       ??_C@_1BC@LLOKLNP@?$AAa?$AAm?$AAe?$AAr?$AAi?$AAc?$AAa?$AAn?$AA?$AA@ 1004c69c     LIBCMT:getqloc.obj
 0002:000086b0       ??_C@_1CC@HEIGCDGG@?$AAa?$AAm?$AAe?$AAr?$AAi?$AAc?$AAa?$AAn?$AA?5?$AAe?$AAn?$AAg?$AAl?$AAi?$AAs?$AAh?$AA?$AA@ 1004c6b0     LIBCMT:getqloc.obj
 0002:000086d4       ??_C@_1CC@IHCNOMIN@?$AAa?$AAm?$AAe?$AAr?$AAi?$AAc?$AAa?$AAn?$AA?9?$AAe?$AAn?$AAg?$AAl?$AAi?$AAs?$AAh?$AA?$AA@ 1004c6d4     LIBCMT:getqloc.obj
 0002:000086f8       ??_C@_1BG@GKAGPCGG@?$AAa?$AAu?$AAs?$AAt?$AAr?$AAa?$AAl?$AAi?$AAa?$AAn?$AA?$AA@ 1004c6f8     LIBCMT:getqloc.obj
 0002:00008710       ??_C@_1BA@GMENCENF@?$AAb?$AAe?$AAl?$AAg?$AAi?$AAa?$AAn?$AA?$AA@ 1004c710     LIBCMT:getqloc.obj
 0002:00008720       ??_C@_1BC@PJMIIAAN@?$AAc?$AAa?$AAn?$AAa?$AAd?$AAi?$AAa?$AAn?$AA?$AA@ 1004c720     LIBCMT:getqloc.obj
 0002:00008734       ??_C@_17NOIMNFBF@?$AAc?$AAh?$AAh?$AA?$AA@ 1004c734     LIBCMT:getqloc.obj
 0002:0000873c       ??_C@_17GGDALCHA@?$AAc?$AAh?$AAi?$AA?$AA@ 1004c73c     LIBCMT:getqloc.obj
 0002:00008744       ??_C@_1BA@NPNJKIBL@?$AAc?$AAh?$AAi?$AAn?$AAe?$AAs?$AAe?$AA?$AA@ 1004c744     LIBCMT:getqloc.obj
 0002:00008754       ??_C@_1CC@DINBAMMJ@?$AAc?$AAh?$AAi?$AAn?$AAe?$AAs?$AAe?$AA?9?$AAh?$AAo?$AAn?$AAg?$AAk?$AAo?$AAn?$AAg?$AA?$AA@ 1004c754     LIBCMT:getqloc.obj
 0002:00008778       ??_C@_1CG@IOBJPACO@?$AAc?$AAh?$AAi?$AAn?$AAe?$AAs?$AAe?$AA?9?$AAs?$AAi?$AAm?$AAp?$AAl?$AAi?$AAf?$AAi?$AAe?$AAd?$AA?$AA@ 1004c778     LIBCMT:getqloc.obj
 0002:000087a0       ??_C@_1CE@GAJNDCKG@?$AAc?$AAh?$AAi?$AAn?$AAe?$AAs?$AAe?$AA?9?$AAs?$AAi?$AAn?$AAg?$AAa?$AAp?$AAo?$AAr?$AAe?$AA?$AA@ 1004c7a0     LIBCMT:getqloc.obj
 0002:000087c4       ??_C@_1CI@PAJPIOOD@?$AAc?$AAh?$AAi?$AAn?$AAe?$AAs?$AAe?$AA?9?$AAt?$AAr?$AAa?$AAd?$AAi?$AAt?$AAi?$AAo?$AAn?$AAa?$AAl?$AA?$AA@ 1004c7c4     LIBCMT:getqloc.obj
 0002:000087ec       ??_C@_1BM@NILJBMMD@?$AAd?$AAu?$AAt?$AAc?$AAh?$AA?9?$AAb?$AAe?$AAl?$AAg?$AAi?$AAa?$AAn?$AA?$AA@ 1004c7ec     LIBCMT:getqloc.obj
 0002:00008808       ??_C@_1CC@OOJPJNEJ@?$AAe?$AAn?$AAg?$AAl?$AAi?$AAs?$AAh?$AA?9?$AAa?$AAm?$AAe?$AAr?$AAi?$AAc?$AAa?$AAn?$AA?$AA@ 1004c808     LIBCMT:getqloc.obj
 0002:0000882c       ??_C@_1BI@IOLFEEM@?$AAe?$AAn?$AAg?$AAl?$AAi?$AAs?$AAh?$AA?9?$AAa?$AAu?$AAs?$AA?$AA@ 1004c82c     LIBCMT:getqloc.obj
 0002:00008844       ??_C@_1BO@HFFNLENJ@?$AAe?$AAn?$AAg?$AAl?$AAi?$AAs?$AAh?$AA?9?$AAb?$AAe?$AAl?$AAi?$AAz?$AAe?$AA?$AA@ 1004c844     LIBCMT:getqloc.obj
 0002:00008864       ??_C@_1BI@HAPKJMPO@?$AAe?$AAn?$AAg?$AAl?$AAi?$AAs?$AAh?$AA?9?$AAc?$AAa?$AAn?$AA?$AA@ 1004c864     LIBCMT:getqloc.obj
 0002:0000887c       ??_C@_1CE@HLNDMIOJ@?$AAe?$AAn?$AAg?$AAl?$AAi?$AAs?$AAh?$AA?9?$AAc?$AAa?$AAr?$AAi?$AAb?$AAb?$AAe?$AAa?$AAn?$AA?$AA@ 1004c87c     LIBCMT:getqloc.obj
 0002:000088a0       ??_C@_1BI@LDHJHHAC@?$AAe?$AAn?$AAg?$AAl?$AAi?$AAs?$AAh?$AA?9?$AAi?$AAr?$AAe?$AA?$AA@ 1004c8a0     LIBCMT:getqloc.obj
 0002:000088b8       ??_C@_1CA@NJMMCFOC@?$AAe?$AAn?$AAg?$AAl?$AAi?$AAs?$AAh?$AA?9?$AAj?$AAa?$AAm?$AAa?$AAi?$AAc?$AAa?$AA?$AA@ 1004c8b8     LIBCMT:getqloc.obj
 0002:000088d8       ??_C@_1BG@BHJEBBGG@?$AAe?$AAn?$AAg?$AAl?$AAi?$AAs?$AAh?$AA?9?$AAn?$AAz?$AA?$AA@ 1004c8d8     LIBCMT:getqloc.obj
 0002:000088f0       ??_C@_1CK@FGOEJJCO@?$AAe?$AAn?$AAg?$AAl?$AAi?$AAs?$AAh?$AA?9?$AAs?$AAo?$AAu?$AAt?$AAh?$AA?5?$AAa?$AAf?$AAr?$AAi?$AAc?$AAa?$AA?$AA@ 1004c8f0     LIBCMT:getqloc.obj
 0002:0000891c       ??_C@_1DE@PDBJPCJ@?$AAe?$AAn?$AAg?$AAl?$AAi?$AAs?$AAh?$AA?9?$AAt?$AAr?$AAi?$AAn?$AAi?$AAd?$AAa?$AAd?$AA?5?$AAy?$AA?5?$AAt?$AAo?$AAb?$AAa?$AAg?$AAo?$AA?$AA@ 1004c91c     LIBCMT:getqloc.obj
 0002:00008950       ??_C@_1BG@JGCANDME@?$AAe?$AAn?$AAg?$AAl?$AAi?$AAs?$AAh?$AA?9?$AAu?$AAk?$AA?$AA@ 1004c950     LIBCMT:getqloc.obj
 0002:00008968       ??_C@_1BG@DINKMLE@?$AAe?$AAn?$AAg?$AAl?$AAi?$AAs?$AAh?$AA?9?$AAu?$AAs?$AA?$AA@ 1004c968     LIBCMT:getqloc.obj
 0002:00008980       ??_C@_1BI@NMFDBHJE@?$AAe?$AAn?$AAg?$AAl?$AAi?$AAs?$AAh?$AA?9?$AAu?$AAs?$AAa?$AA?$AA@ 1004c980     LIBCMT:getqloc.obj
 0002:00008998       ??_C@_1BO@OIHKJKII@?$AAf?$AAr?$AAe?$AAn?$AAc?$AAh?$AA?9?$AAb?$AAe?$AAl?$AAg?$AAi?$AAa?$AAn?$AA?$AA@ 1004c998     LIBCMT:getqloc.obj
 0002:000089b8       ??_C@_1CA@NKAELJKI@?$AAf?$AAr?$AAe?$AAn?$AAc?$AAh?$AA?9?$AAc?$AAa?$AAn?$AAa?$AAd?$AAi?$AAa?$AAn?$AA?$AA@ 1004c9b8     LIBCMT:getqloc.obj
 0002:000089d8       ??_C@_1CE@MGKCNLGN@?$AAf?$AAr?$AAe?$AAn?$AAc?$AAh?$AA?9?$AAl?$AAu?$AAx?$AAe?$AAm?$AAb?$AAo?$AAu?$AAr?$AAg?$AA?$AA@ 1004c9d8     LIBCMT:getqloc.obj
 0002:000089fc       ??_C@_1BK@CEGEAILM@?$AAf?$AAr?$AAe?$AAn?$AAc?$AAh?$AA?9?$AAs?$AAw?$AAi?$AAs?$AAs?$AA?$AA@ 1004c9fc     LIBCMT:getqloc.obj
 0002:00008a18       ??_C@_1CA@PAFKEOCC@?$AAg?$AAe?$AAr?$AAm?$AAa?$AAn?$AA?9?$AAa?$AAu?$AAs?$AAt?$AAr?$AAi?$AAa?$AAn?$AA?$AA@ 1004ca18     LIBCMT:getqloc.obj
 0002:00008a38       ??_C@_1CI@HCFHGOFD@?$AAg?$AAe?$AAr?$AAm?$AAa?$AAn?$AA?9?$AAl?$AAi?$AAc?$AAh?$AAt?$AAe?$AAn?$AAs?$AAt?$AAe?$AAi?$AAn?$AA?$AA@ 1004ca38     LIBCMT:getqloc.obj
 0002:00008a60       ??_C@_1CE@FEDDNPDG@?$AAg?$AAe?$AAr?$AAm?$AAa?$AAn?$AA?9?$AAl?$AAu?$AAx?$AAe?$AAm?$AAb?$AAo?$AAu?$AAr?$AAg?$AA?$AA@ 1004ca60     LIBCMT:getqloc.obj
 0002:00008a84       ??_C@_1BK@LIMINNMN@?$AAg?$AAe?$AAr?$AAm?$AAa?$AAn?$AA?9?$AAs?$AAw?$AAi?$AAs?$AAs?$AA?$AA@ 1004ca84     LIBCMT:getqloc.obj
 0002:00008aa0       ??_C@_1BM@LGMDBEPD@?$AAi?$AAr?$AAi?$AAs?$AAh?$AA?9?$AAe?$AAn?$AAg?$AAl?$AAi?$AAs?$AAh?$AA?$AA@ 1004caa0     LIBCMT:getqloc.obj
 0002:00008abc       ??_C@_1BM@NNCFBAEE@?$AAi?$AAt?$AAa?$AAl?$AAi?$AAa?$AAn?$AA?9?$AAs?$AAw?$AAi?$AAs?$AAs?$AA?$AA@ 1004cabc     LIBCMT:getqloc.obj
 0002:00008ad8       ??_C@_1BE@FEDJNPIB@?$AAn?$AAo?$AAr?$AAw?$AAe?$AAg?$AAi?$AAa?$AAn?$AA?$AA@ 1004cad8     LIBCMT:getqloc.obj
 0002:00008aec       ??_C@_1CC@CILKDEIE@?$AAn?$AAo?$AAr?$AAw?$AAe?$AAg?$AAi?$AAa?$AAn?$AA?9?$AAb?$AAo?$AAk?$AAm?$AAa?$AAl?$AA?$AA@ 1004caec     LIBCMT:getqloc.obj
 0002:00008b10       ??_C@_1CE@DHMMHEPL@?$AAn?$AAo?$AAr?$AAw?$AAe?$AAg?$AAi?$AAa?$AAn?$AA?9?$AAn?$AAy?$AAn?$AAo?$AAr?$AAs?$AAk?$AA?$AA@ 1004cb10     LIBCMT:getqloc.obj
 0002:00008b34       ??_C@_1CK@OPNMHECD@?$AAp?$AAo?$AAr?$AAt?$AAu?$AAg?$AAu?$AAe?$AAs?$AAe?$AA?9?$AAb?$AAr?$AAa?$AAz?$AAi?$AAl?$AAi?$AAa?$AAn?$AA?$AA@ 1004cb34     LIBCMT:getqloc.obj
 0002:00008b60       ??_C@_1CE@KEEHCDB@?$AAs?$AAp?$AAa?$AAn?$AAi?$AAs?$AAh?$AA?9?$AAa?$AAr?$AAg?$AAe?$AAn?$AAt?$AAi?$AAn?$AAa?$AA?$AA@ 1004cb60     LIBCMT:getqloc.obj
 0002:00008b84       ??_C@_1CA@GIAOLHJD@?$AAs?$AAp?$AAa?$AAn?$AAi?$AAs?$AAh?$AA?9?$AAb?$AAo?$AAl?$AAi?$AAv?$AAi?$AAa?$AA?$AA@ 1004cb84     LIBCMT:getqloc.obj
 0002:00008ba4       ??_C@_1BM@OJNDFNPD@?$AAs?$AAp?$AAa?$AAn?$AAi?$AAs?$AAh?$AA?9?$AAc?$AAh?$AAi?$AAl?$AAe?$AA?$AA@ 1004cba4     LIBCMT:getqloc.obj
 0002:00008bc0       ??_C@_1CC@OCOLPALL@?$AAs?$AAp?$AAa?$AAn?$AAi?$AAs?$AAh?$AA?9?$AAc?$AAo?$AAl?$AAo?$AAm?$AAb?$AAi?$AAa?$AA?$AA@ 1004cbc0     LIBCMT:getqloc.obj
 0002:00008be4       ??_C@_1CG@BPOFMKBB@?$AAs?$AAp?$AAa?$AAn?$AAi?$AAs?$AAh?$AA?9?$AAc?$AAo?$AAs?$AAt?$AAa?$AA?5?$AAr?$AAi?$AAc?$AAa?$AA?$AA@ 1004cbe4     LIBCMT:getqloc.obj
 0002:00008c0c       ??_C@_1DG@IGOBAPBB@?$AAs?$AAp?$AAa?$AAn?$AAi?$AAs?$AAh?$AA?9?$AAd?$AAo?$AAm?$AAi?$AAn?$AAi?$AAc?$AAa?$AAn?$AA?5?$AAr?$AAe?$AAp?$AAu?$AAb?$AAl?$AAi?$AAc?$AA?$AA@ 1004cc0c     LIBCMT:getqloc.obj
 0002:00008c44       ??_C@_1CA@JHAPGEGI@?$AAs?$AAp?$AAa?$AAn?$AAi?$AAs?$AAh?$AA?9?$AAe?$AAc?$AAu?$AAa?$AAd?$AAo?$AAr?$AA?$AA@ 1004cc44     LIBCMT:getqloc.obj
 0002:00008c64       ??_C@_1CI@LAPALJPP@?$AAs?$AAp?$AAa?$AAn?$AAi?$AAs?$AAh?$AA?9?$AAe?$AAl?$AA?5?$AAs?$AAa?$AAl?$AAv?$AAa?$AAd?$AAo?$AAr?$AA?$AA@ 1004cc64     LIBCMT:getqloc.obj
 0002:00008c8c       ??_C@_1CE@PDGBOFOM@?$AAs?$AAp?$AAa?$AAn?$AAi?$AAs?$AAh?$AA?9?$AAg?$AAu?$AAa?$AAt?$AAe?$AAm?$AAa?$AAl?$AAa?$AA?$AA@ 1004cc8c     LIBCMT:getqloc.obj
 0002:00008cb0       ??_C@_1CC@NBEBAODI@?$AAs?$AAp?$AAa?$AAn?$AAi?$AAs?$AAh?$AA?9?$AAh?$AAo?$AAn?$AAd?$AAu?$AAr?$AAa?$AAs?$AA?$AA@ 1004ccb0     LIBCMT:getqloc.obj
 0002:00008cd4       ??_C@_1CA@LLKGHBMF@?$AAs?$AAp?$AAa?$AAn?$AAi?$AAs?$AAh?$AA?9?$AAm?$AAe?$AAx?$AAi?$AAc?$AAa?$AAn?$AA?$AA@ 1004ccd4     LIBCMT:getqloc.obj
 0002:00008cf4       ??_C@_1BO@LKNDOIGD@?$AAs?$AAp?$AAa?$AAn?$AAi?$AAs?$AAh?$AA?9?$AAm?$AAo?$AAd?$AAe?$AAr?$AAn?$AA?$AA@ 1004ccf4     LIBCMT:getqloc.obj
 0002:00008d14       ??_C@_1CE@NMDMOEEB@?$AAs?$AAp?$AAa?$AAn?$AAi?$AAs?$AAh?$AA?9?$AAn?$AAi?$AAc?$AAa?$AAr?$AAa?$AAg?$AAu?$AAa?$AA?$AA@ 1004cd14     LIBCMT:getqloc.obj
 0002:00008d38       ??_C@_1BO@LLCBEJGB@?$AAs?$AAp?$AAa?$AAn?$AAi?$AAs?$AAh?$AA?9?$AAp?$AAa?$AAn?$AAa?$AAm?$AAa?$AA?$AA@ 1004cd38     LIBCMT:getqloc.obj
 0002:00008d58       ??_C@_1CC@FKPGGIHO@?$AAs?$AAp?$AAa?$AAn?$AAi?$AAs?$AAh?$AA?9?$AAp?$AAa?$AAr?$AAa?$AAg?$AAu?$AAa?$AAy?$AA?$AA@ 1004cd58     LIBCMT:getqloc.obj
 0002:00008d7c       ??_C@_1BK@CDEIHOOP@?$AAs?$AAp?$AAa?$AAn?$AAi?$AAs?$AAh?$AA?9?$AAp?$AAe?$AAr?$AAu?$AA?$AA@ 1004cd7c     LIBCMT:getqloc.obj
 0002:00008d98       ??_C@_1CI@GAHAKKGP@?$AAs?$AAp?$AAa?$AAn?$AAi?$AAs?$AAh?$AA?9?$AAp?$AAu?$AAe?$AAr?$AAt?$AAo?$AA?5?$AAr?$AAi?$AAc?$AAo?$AA?$AA@ 1004cd98     LIBCMT:getqloc.obj
 0002:00008dc0       ??_C@_1CA@NKJBCAGP@?$AAs?$AAp?$AAa?$AAn?$AAi?$AAs?$AAh?$AA?9?$AAu?$AAr?$AAu?$AAg?$AAu?$AAa?$AAy?$AA?$AA@ 1004cdc0     LIBCMT:getqloc.obj
 0002:00008de0       ??_C@_1CE@ODILCONM@?$AAs?$AAp?$AAa?$AAn?$AAi?$AAs?$AAh?$AA?9?$AAv?$AAe?$AAn?$AAe?$AAz?$AAu?$AAe?$AAl?$AAa?$AA?$AA@ 1004cde0     LIBCMT:getqloc.obj
 0002:00008e04       ??_C@_1CA@OBNMCGFO@?$AAs?$AAw?$AAe?$AAd?$AAi?$AAs?$AAh?$AA?9?$AAf?$AAi?$AAn?$AAl?$AAa?$AAn?$AAd?$AA?$AA@ 1004ce04     LIBCMT:getqloc.obj
 0002:00008e24       ??_C@_1M@PIPDDPPI@?$AAs?$AAw?$AAi?$AAs?$AAs?$AA?$AA@ 1004ce24     LIBCMT:getqloc.obj
 0002:00008e30       ??_C@_15GMFIMNFM@?$AAu?$AAs?$AA?$AA@ 1004ce30     LIBCMT:getqloc.obj
 0002:00008e38       ??_C@_17HAEBFAGL@?$AAu?$AAs?$AAa?$AA?$AA@ 1004ce38     LIBCMT:getqloc.obj
 0002:00008e40       ___rg_country              1004ce40     LIBCMT:getqloc.obj
 0002:00008f54       ??_C@_1BA@DPFJEPHB@?$AAa?$AAm?$AAe?$AAr?$AAi?$AAc?$AAa?$AA?$AA@ 1004cf54     LIBCMT:getqloc.obj
 0002:00008f64       ??_C@_1BA@ELOGGFK@?$AAb?$AAr?$AAi?$AAt?$AAa?$AAi?$AAn?$AA?$AA@ 1004cf64     LIBCMT:getqloc.obj
 0002:00008f74       ??_C@_1M@GHBGIGDA@?$AAc?$AAh?$AAi?$AAn?$AAa?$AA?$AA@ 1004cf74     LIBCMT:getqloc.obj
 0002:00008f80       ??_C@_1M@NCHEJOPO@?$AAc?$AAz?$AAe?$AAc?$AAh?$AA?$AA@ 1004cf80     LIBCMT:getqloc.obj
 0002:00008f8c       ??_C@_1BA@BKPAPBLA@?$AAe?$AAn?$AAg?$AAl?$AAa?$AAn?$AAd?$AA?$AA@ 1004cf8c     LIBCMT:getqloc.obj
 0002:00008f9c       ??_C@_1BM@HKBCKIPC@?$AAg?$AAr?$AAe?$AAa?$AAt?$AA?5?$AAb?$AAr?$AAi?$AAt?$AAa?$AAi?$AAn?$AA?$AA@ 1004cf9c     LIBCMT:getqloc.obj
 0002:00008fb8       ??_C@_1BA@PPCHPGJB@?$AAh?$AAo?$AAl?$AAl?$AAa?$AAn?$AAd?$AA?$AA@ 1004cfb8     LIBCMT:getqloc.obj
 0002:00008fc8       ??_C@_1BE@JBMPEGDG@?$AAh?$AAo?$AAn?$AAg?$AA?9?$AAk?$AAo?$AAn?$AAg?$AA?$AA@ 1004cfc8     LIBCMT:getqloc.obj
 0002:00008fdc       ??_C@_1BI@KOELBBPJ@?$AAn?$AAe?$AAw?$AA?9?$AAz?$AAe?$AAa?$AAl?$AAa?$AAn?$AAd?$AA?$AA@ 1004cfdc     LIBCMT:getqloc.obj
 0002:00008ff4       ??_C@_15HIEBHAIO@?$AAn?$AAz?$AA?$AA@ 1004cff4     LIBCMT:getqloc.obj
 0002:00008ffc       ??_C@_1BC@CHBCPFPI@?$AAp?$AAr?$AA?5?$AAc?$AAh?$AAi?$AAn?$AAa?$AA?$AA@ 1004cffc     LIBCMT:getqloc.obj
 0002:00009010       ??_C@_1BC@JAOIIFKD@?$AAp?$AAr?$AA?9?$AAc?$AAh?$AAi?$AAn?$AAa?$AA?$AA@ 1004d010     LIBCMT:getqloc.obj
 0002:00009024       ??_C@_1BI@BEHPPHKC@?$AAp?$AAu?$AAe?$AAr?$AAt?$AAo?$AA?9?$AAr?$AAi?$AAc?$AAo?$AA?$AA@ 1004d024     LIBCMT:getqloc.obj
 0002:0000903c       ??_C@_1O@PAEOFKDI@?$AAs?$AAl?$AAo?$AAv?$AAa?$AAk?$AA?$AA@ 1004d03c     LIBCMT:getqloc.obj
 0002:0000904c       ??_C@_1BK@FIHMCKAM@?$AAs?$AAo?$AAu?$AAt?$AAh?$AA?5?$AAa?$AAf?$AAr?$AAi?$AAc?$AAa?$AA?$AA@ 1004d04c     LIBCMT:getqloc.obj
 0002:00009068       ??_C@_1BI@NAEOODKB@?$AAs?$AAo?$AAu?$AAt?$AAh?$AA?5?$AAk?$AAo?$AAr?$AAe?$AAa?$AA?$AA@ 1004d068     LIBCMT:getqloc.obj
 0002:00009080       ??_C@_1BK@FBDGGIFF@?$AAs?$AAo?$AAu?$AAt?$AAh?$AA?9?$AAa?$AAf?$AAr?$AAi?$AAc?$AAa?$AA?$AA@ 1004d080     LIBCMT:getqloc.obj
 0002:0000909c       ??_C@_1BI@GHLEJDPK@?$AAs?$AAo?$AAu?$AAt?$AAh?$AA?9?$AAk?$AAo?$AAr?$AAe?$AAa?$AA?$AA@ 1004d09c     LIBCMT:getqloc.obj
 0002:000090b4       ??_C@_1CE@PLHLOMJF@?$AAt?$AAr?$AAi?$AAn?$AAi?$AAd?$AAa?$AAd?$AA?5?$AA?$CG?$AA?5?$AAt?$AAo?$AAb?$AAa?$AAg?$AAo?$AA?$AA@ 1004d0b4     LIBCMT:getqloc.obj
 0002:000090d8       ??_C@_1BO@MODIMHHI@?$AAu?$AAn?$AAi?$AAt?$AAe?$AAd?$AA?9?$AAk?$AAi?$AAn?$AAg?$AAd?$AAo?$AAm?$AA?$AA@ 1004d0d8     LIBCMT:getqloc.obj
 0002:000090f8       ??_C@_1BM@FFHJONBJ@?$AAu?$AAn?$AAi?$AAt?$AAe?$AAd?$AA?9?$AAs?$AAt?$AAa?$AAt?$AAe?$AAs?$AA?$AA@ 1004d0f8     LIBCMT:getqloc.obj
 0002:00009114       ___rg_language_count       1004d114     LIBCMT:getqloc.obj
 0002:00009118       ___rg_country_count        1004d118     LIBCMT:getqloc.obj
 0002:0000911c       ??_C@_17DNCLJFIF@?$AAA?$AAC?$AAP?$AA?$AA@ 1004d11c     LIBCMT:getqloc.obj
 0002:00009124       ??_C@_17CIKBIHLH@?$AAO?$AAC?$AAP?$AA?$AA@ 1004d124     LIBCMT:getqloc.obj
 0002:0000912c       ___rglangidNotDefault      1004d12c     LIBCMT:getqloc_downlevel.obj
 0002:00009140       ??_C@_1BA@BALFACEM@?$AAC?$AAO?$AAN?$AAO?$AAU?$AAT?$AA$?$AA?$AA@ 1004d140     LIBCMT:initcon.obj
 0002:00009150       __load_config_used         1004d150     LIBCMT:loadcfg.obj
 0002:00009210       ??_R4type_info@@6B@        1004d210     LIBCMT:typinfo.obj
 0002:00009224       ??_R3type_info@@8          1004d224     LIBCMT:typinfo.obj
 0002:00009234       ??_R2type_info@@8          1004d234     LIBCMT:typinfo.obj
 0002:0000923c       ??_R1A@?0A@EA@type_info@@8 1004d23c     LIBCMT:typinfo.obj
 0002:00009258       ??_R1A@?0A@EA@exception@std@@8 1004d258     LIBCMT:new.obj
 0002:00009274       ??_R3exception@std@@8      1004d274     LIBCMT:new.obj
 0002:00009284       ??_R2exception@std@@8      1004d284     LIBCMT:new.obj
 0002:0000928c       ??_R4bad_alloc@std@@6B@    1004d28c     LIBCMT:new.obj
 0002:000092a0       ??_R3bad_alloc@std@@8      1004d2a0     LIBCMT:new.obj
 0002:000092b0       ??_R2bad_alloc@std@@8      1004d2b0     LIBCMT:new.obj
 0002:000092bc       ??_R1A@?0A@EA@bad_alloc@std@@8 1004d2bc     LIBCMT:new.obj
 0002:000092d8       ??_R4DNameNode@@6B@        1004d2d8     LIBCMT:undname.obj
 0002:000092ec       ??_R3DNameNode@@8          1004d2ec     LIBCMT:undname.obj
 0002:000092fc       ??_R2DNameNode@@8          1004d2fc     LIBCMT:undname.obj
 0002:00009304       ??_R1A@?0A@EA@DNameNode@@8 1004d304     LIBCMT:undname.obj
 0002:00009320       ??_R4charNode@@6B@         1004d320     LIBCMT:undname.obj
 0002:00009334       ??_R3charNode@@8           1004d334     LIBCMT:undname.obj
 0002:00009344       ??_R2charNode@@8           1004d344     LIBCMT:undname.obj
 0002:00009350       ??_R1A@?0A@EA@charNode@@8  1004d350     LIBCMT:undname.obj
 0002:0000936c       ??_R4pcharNode@@6B@        1004d36c     LIBCMT:undname.obj
 0002:00009380       ??_R3pcharNode@@8          1004d380     LIBCMT:undname.obj
 0002:00009390       ??_R2pcharNode@@8          1004d390     LIBCMT:undname.obj
 0002:0000939c       ??_R1A@?0A@EA@pcharNode@@8 1004d39c     LIBCMT:undname.obj
 0002:000093b8       ??_R4pDNameNode@@6B@       1004d3b8     LIBCMT:undname.obj
 0002:000093cc       ??_R3pDNameNode@@8         1004d3cc     LIBCMT:undname.obj
 0002:000093dc       ??_R2pDNameNode@@8         1004d3dc     LIBCMT:undname.obj
 0002:000093e8       ??_R1A@?0A@EA@pDNameNode@@8 1004d3e8     LIBCMT:undname.obj
 0002:00009404       ??_R4DNameStatusNode@@6B@  1004d404     LIBCMT:undname.obj
 0002:00009418       ??_R3DNameStatusNode@@8    1004d418     LIBCMT:undname.obj
 0002:00009428       ??_R2DNameStatusNode@@8    1004d428     LIBCMT:undname.obj
 0002:00009434       ??_R1A@?0A@EA@DNameStatusNode@@8 1004d434     LIBCMT:undname.obj
 0002:00009450       ??_R4pairNode@@6B@         1004d450     LIBCMT:undname.obj
 0002:00009464       ??_R3pairNode@@8           1004d464     LIBCMT:undname.obj
 0002:00009474       ??_R2pairNode@@8           1004d474     LIBCMT:undname.obj
 0002:00009480       ??_R1A@?0A@EA@pairNode@@8  1004d480     LIBCMT:undname.obj
 0002:0000949c       ??_R4exception@std@@6B@    1004d49c     LIBCMT:stdexcpt.obj
 0002:000094b0       ??_R4bad_cast@std@@6B@     1004d4b0     LIBCMT:stdexcpt.obj
 0002:000094c4       ??_R3bad_cast@std@@8       1004d4c4     LIBCMT:stdexcpt.obj
 0002:000094d4       ??_R2bad_cast@std@@8       1004d4d4     LIBCMT:stdexcpt.obj
 0002:000094e0       ??_R1A@?0A@EA@bad_cast@std@@8 1004d4e0     LIBCMT:stdexcpt.obj
 0002:000094fc       ??_R4bad_typeid@std@@6B@   1004d4fc     LIBCMT:stdexcpt.obj
 0002:00009510       ??_R3bad_typeid@std@@8     1004d510     LIBCMT:stdexcpt.obj
 0002:00009520       ??_R2bad_typeid@std@@8     1004d520     LIBCMT:stdexcpt.obj
 0002:0000952c       ??_R1A@?0A@EA@bad_typeid@std@@8 1004d52c     LIBCMT:stdexcpt.obj
 0002:00009548       ??_R4__non_rtti_object@std@@6B@ 1004d548     LIBCMT:stdexcpt.obj
 0002:0000955c       ??_R3__non_rtti_object@std@@8 1004d55c     LIBCMT:stdexcpt.obj
 0002:0000956c       ??_R2__non_rtti_object@std@@8 1004d56c     LIBCMT:stdexcpt.obj
 0002:0000957c       ??_R1A@?0A@EA@__non_rtti_object@std@@8 1004d57c     LIBCMT:stdexcpt.obj
 0002:000095a0       ___safe_se_handler_table   1004d5a0     <linker-defined>
 0002:000095ac       ___rtc_iaa                 1004d5ac     LIBCMT:initsect.obj
 0002:000095b0       ___rtc_izz                 1004d5b0     LIBCMT:initsect.obj
 0002:000095b4       ___rtc_taa                 1004d5b4     LIBCMT:initsect.obj
 0002:000095b8       ___rtc_tzz                 1004d5b8     LIBCMT:initsect.obj
 0002:000096bc       __TI2?AVbad_alloc@std@@    1004d6bc     LIBCMT:new.obj
 0002:000096cc       __CTA2?AVbad_alloc@std@@   1004d6cc     LIBCMT:new.obj
 0002:000096d8       __CT??_R0?AVbad_alloc@std@@@8??0bad_alloc@std@@QAE@ABV01@@Z12 1004d6d8     LIBCMT:new.obj
 0002:000096f4       __CT??_R0?AVexception@std@@@8??0exception@std@@QAE@ABV01@@Z12 1004d6f4     LIBCMT:new.obj
 0002:00009bb4       __DELAY_IMPORT_DESCRIPTOR_PhysX3Common_x86_dll 1004dbb4     PhysX3Common_x86:PhysX3Common_x86.dll
 0002:00009bd4       __NULL_DELAY_IMPORT_DESCRIPTOR 1004dbd4     PhysX3Common_x86:PhysX3Common_x86.dll
 0002:00009d34       \177PhysX3Common_x86_NULL_THUNK_DATA_DLN 1004dd34     PhysX3Common_x86:PhysX3Common_x86.dll
 0002:0000ad28       \177PhysX3Common_x86_NULL_THUNK_DATA_DLB 1004ed28     PhysX3Common_x86:PhysX3Common_x86.dll
 0002:0000aef4       __IMPORT_DESCRIPTOR_KERNEL32 1004eef4     kernel32:KERNEL32.dll
 0002:0000af08       __NULL_IMPORT_DESCRIPTOR   1004ef08     kernel32:KERNEL32.dll
 0003:00000030       ___pfnDliNotifyHook2       10050030     WindowsCookingDelayLoadHook.obj
 0003:00000040       ?g_PXTanEstCoefficients@aos@shdfnd@physx@@3UPX_VECTORF32@123@B 10050040     RTreeCooking.obj
 0003:00000050       ?g_PXATanEstCoefficients@aos@shdfnd@physx@@3UPX_VECTORF32@123@B 10050050     RTreeCooking.obj
 0003:00000060       ?g_PXASinEstConstants@aos@shdfnd@physx@@3UPX_VECTORF32@123@B 10050060     RTreeCooking.obj
 0003:00000070       ?g_PXPiConstants0@aos@shdfnd@physx@@3UPX_VECTORF32@123@B 10050070     RTreeCooking.obj
 0003:00000080       ?g_PXReciprocalTwoPi@aos@shdfnd@physx@@3UPX_VECTORF32@123@B 10050080     RTreeCooking.obj
 0003:00000090       ?g_PXTwoPi@aos@shdfnd@physx@@3UPX_VECTORF32@123@B 10050090     RTreeCooking.obj
 0003:000000a0       ?planetestepsilon@physx@@3MA 100500a0     hulllib.obj
 0003:000000b0       __fltused                  100500b0     LIBCMT:fpinit.obj
 0003:000000b4       __ldused                   100500b4     LIBCMT:fpinit.obj
 0003:000000c0       ___isa_enabled             100500c0     LIBCMT:cpu_disp.obj
 0003:000000d0       __cfltcvt_tab              100500d0     LIBCMT:cmiscdat.obj
 0003:000001e8       __d_inf                    100501e8     LIBCMT:util.obj
 0003:000001f0       __d_ind                    100501f0     LIBCMT:util.obj
 0003:000001f8       __d_max                    100501f8     LIBCMT:util.obj
 0003:00000200       __d_min                    10050200     LIBCMT:util.obj
 0003:00000208       __d_mzero                  10050208     LIBCMT:util.obj
 0003:00000230       __iob                      10050230     LIBCMT:_file.obj
 0003:000004b0       ___nullstring              100504b0     LIBCMT:output.obj
 0003:000004b4       ___wnullstring             100504b4     LIBCMT:output.obj
 0003:00000630       ___security_cookie         10050630     LIBCMT:gs_cookie.obj
 0003:00000634       ___security_cookie_complement 10050634     LIBCMT:gs_cookie.obj
 0003:00000658       ___abort_behavior          10050658     LIBCMT:abort.obj
 0003:0000065c       ___flsindex                1005065c     LIBCMT:tidtable.obj
 0003:00000660       ___badioinfo               10050660     LIBCMT:ioinit.obj
 0003:000006a8       __mbctype                  100506a8     LIBCMT:mbctype.obj
 0003:000007b0       __mbcasemap                100507b0     LIBCMT:mbctype.obj
 0003:000008b0       ___initialmbcinfo          100508b0     LIBCMT:mbctype.obj
 0003:00000ad4       ___ptmbcinfo               10050ad4     LIBCMT:mbctype.obj
 0003:00000bd0       ___mb_cur_max              10050bd0     LIBCMT:nlsdata.obj
 0003:00000bd4       ___wclocalestr             10050bd4     LIBCMT:nlsdata.obj
 0003:00000bd8       ___lc_time_c               10050bd8     LIBCMT:nlsdata.obj
 0003:00000d3c       ___ptlocinfo               10050d3c     LIBCMT:nlsdata.obj
 0003:00000d40       ___initiallocinfo          10050d40     LIBCMT:nlsdata.obj
 0003:00000df8       ___initiallocalestructinfo 10050df8     LIBCMT:nlsdata.obj
 0003:00000e00       ___globallocalestatus      10050e00     LIBCMT:glstatus.obj
 0003:00000f30       __matherr_flag             10050f30     LIBCMT:matherr.obj
 0003:00000f40       ___lconv                   10050f40     LIBCMT:lconv.obj
 0003:00000f44       ___lconv_static_decimal    10050f44     LIBCMT:lconv.obj
 0003:00000f48       ___lconv_c                 10050f48     LIBCMT:lconv.obj
 0003:00000f98       ___lconv_static_W_decimal  10050f98     LIBCMT:lconv.obj
 0003:00000fd0       __pctype                   10050fd0     LIBCMT:ctype.obj
 0003:00000fd4       __pwctype                  10050fd4     LIBCMT:ctype.obj
 0003:00000fe0       __NLG_Destination          10050fe0     LIBCMT:exsup.obj
 0003:00000ff0       __pow10pos                 10050ff0     LIBCMT:constpow.obj
 0003:00001150       __pow10neg                 10051150     LIBCMT:constpow.obj
 0003:000012b0       __confh                    100512b0     LIBCMT:initcon.obj
 0003:000012c0       __HUGE                     100512c0     LIBCMT:huge.obj
 0003:000012c8       ??_R0?AUInterval@physx@@@8 100512c8     RTreeCooking.obj
 0003:000012e8       ??_R0?AUPxBounds3V@physx@@@8 100512e8     RTreeCooking.obj
 0003:00001308       ??_R0I@8                   10051308     RTreeCooking.obj
 0003:00001314       ??_R0?AVPxVec3@physx@@@8   10051314     RTreeCooking.obj
 0003:00001330       ??_R0?AURTreeNodeNQ@physx@@@8 10051330     RTreeCooking.obj
 0003:00001350       ??_R0?AURTreeNodeQ@Gu@physx@@@8 10051350     RTreeCooking.obj
 0003:00001374       ??_R0E@8                   10051374     BigConvexDataBuilder.obj
 0003:00001380       ??_R0?AUValency@Gu@physx@@@8 10051380     BigConvexDataBuilder.obj
 0003:000013a0       ??_R0G@8                   100513a0     BigConvexDataBuilder.obj
 0003:000013ac       ??_R0?AUHullTriangleData@physx@@@8 100513ac     ConvexHullBuilder.obj
 0003:000013d4       ??_R0?AUEdgeDescData@Gu@physx@@@8 100513d4     ConvexHullBuilder.obj
 0003:000013f8       ??_R0?AVBigConvexData@physx@@@8 100513f8     ConvexMeshBuilder.obj
 0003:0000141c       ??_R0?AVConvexH@physx@@@8  1005141c     hulllib.obj
 0003:00001438       ??_R0?AVTri@physx@@@8      10051438     hulllib.obj
 0003:00001450       ??_R0M@8                   10051450     hulllib.obj
 0003:0000145c       ??_R0?AVAdjTriangle@physx@@@8 1005145c     Adjacencies.obj
 0003:0000147c       ??_R0?AVAdjEdge@@@8        1005147c     Adjacencies.obj
 0003:00001494       ??_R0?AVTriangleMeshBuilder@physx@@@8 10051494     Cooking.obj
 0003:000014bc       ??_R0?AVHeightField@Gu@physx@@@8 100514bc     Cooking.obj
 0003:000014e0       ??_R0?AVCooking@physx@@@8  100514e0     Cooking.obj
 0003:000014fc       ??_R0?AUEdgeTriangleData@Gu@physx@@@8 100514fc     EdgeList.obj
 0003:00001524       ??_R0?AUEdgeData@Gu@physx@@@8 10051524     EdgeList.obj
 0003:00001544       ??_R0?AVEdgeListBuilder@Gu@physx@@@8 10051544     InternalTriangleMeshBuilder.obj
 0003:0000156c       ??_R0?AVtype_info@@@8      1005156c     LIBCMT:typinfo.obj
 0003:00001584       ??_R0?AVbad_alloc@std@@@8  10051584     LIBCMT:new.obj
 0003:000015a0       ??_R0?AVexception@std@@@8  100515a0     LIBCMT:new.obj
 0003:000015bc       ??_R0?AVDNameNode@@@8      100515bc     LIBCMT:undname.obj
 0003:000015d4       ??_R0?AVcharNode@@@8       100515d4     LIBCMT:undname.obj
 0003:000015ec       ??_R0?AVpcharNode@@@8      100515ec     LIBCMT:undname.obj
 0003:00001604       ??_R0?AVpDNameNode@@@8     10051604     LIBCMT:undname.obj
 0003:00001620       ??_R0?AVDNameStatusNode@@@8 10051620     LIBCMT:undname.obj
 0003:00001640       ??_R0?AVpairNode@@@8       10051640     LIBCMT:undname.obj
 0003:00001658       ??_R0?AVbad_cast@std@@@8   10051658     LIBCMT:stdexcpt.obj
 0003:00001674       ??_R0?AVbad_typeid@std@@@8 10051674     LIBCMT:stdexcpt.obj
 0003:00001694       ??_R0?AV__non_rtti_object@std@@@8 10051694     LIBCMT:stdexcpt.obj
 0003:000016b8       __imp_?writeWord@physx@@YAXG_NAAVPxOutputStream@1@@Z 100516b8     PhysX3Common_x86:PhysX3Common_x86.dll
 0003:000016bc       __imp_?writeDword@physx@@YAXI_NAAVPxOutputStream@1@@Z 100516bc     PhysX3Common_x86:PhysX3Common_x86.dll
 0003:000016c0       __imp_?writeFloat@physx@@YAXM_NAAVPxOutputStream@1@@Z 100516c0     PhysX3Common_x86:PhysX3Common_x86.dll
 0003:000016c4       __imp_?writeHeader@physx@@YA_NCCCCI_NAAVPxOutputStream@1@@Z 100516c4     PhysX3Common_x86:PhysX3Common_x86.dll
 0003:000016c8       __imp__PxGetFoundation     100516c8     PhysX3Common_x86:PhysX3Common_x86.dll
 0003:000016cc       __imp_?getAllocator@shdfnd@physx@@YAAAVPxAllocatorCallback@2@XZ 100516cc     PhysX3Common_x86:PhysX3Common_x86.dll
 0003:000016d0       __imp_?allocate@Allocator@shdfnd@physx@@QAEPAXIPBDH@Z 100516d0     PhysX3Common_x86:PhysX3Common_x86.dll
 0003:000016d4       __imp_?allocate@TempAllocator@shdfnd@physx@@QAEPAXIPBDH@Z 100516d4     PhysX3Common_x86:PhysX3Common_x86.dll
 0003:000016d8       __imp_?deallocate@TempAllocator@shdfnd@physx@@QAEXPAX@Z 100516d8     PhysX3Common_x86:PhysX3Common_x86.dll
 0003:000016dc       __imp_?computeBoundsAroundVertices@Gu@physx@@YAXAAVPxBounds3@2@IPIBVPxVec3@2@@Z 100516dc     PhysX3Common_x86:PhysX3Common_x86.dll
 0003:000016e0       __imp_?deallocate@Allocator@shdfnd@physx@@QAEXPAX@Z 100516e0     PhysX3Common_x86:PhysX3Common_x86.dll
 0003:000016e4       __imp_?getInstance@Foundation@shdfnd@physx@@SAAAV123@XZ 100516e4     PhysX3Common_x86:PhysX3Common_x86.dll
 0003:000016e8       __imp_?error@Foundation@shdfnd@physx@@QAAXW4Enum@PxErrorCode@3@PBDH1ZZ 100516e8     PhysX3Common_x86:PhysX3Common_x86.dll
 0003:000016ec       __imp_?save@RTree@Gu@physx@@QBE_NAAVPxOutputStream@3@@Z 100516ec     PhysX3Common_x86:PhysX3Common_x86.dll
 0003:000016f0       __imp_?release@InternalTriangleMesh@physx@@QAEXXZ 100516f0     PhysX3Common_x86:PhysX3Common_x86.dll
 0003:000016f4       __imp_?allocateVertices@InternalTriangleMesh@physx@@QAEPAVPxVec3@2@I@Z 100516f4     PhysX3Common_x86:PhysX3Common_x86.dll
 0003:000016f8       __imp_?allocateTriangles@InternalTriangleMesh@physx@@QAEPAXI_N@Z 100516f8     PhysX3Common_x86:PhysX3Common_x86.dll
 0003:000016fc       __imp_?allocateMaterials@InternalTriangleMesh@physx@@QAEPAGXZ 100516fc     PhysX3Common_x86:PhysX3Common_x86.dll
 0003:00001700       __imp_?writeWordBuffer@physx@@YAXPBGI_NAAVPxOutputStream@1@@Z 10051700     PhysX3Common_x86:PhysX3Common_x86.dll
 0003:00001704       __imp_?writeFloatBuffer@physx@@YAXPBMI_NAAVPxOutputStream@1@@Z 10051704     PhysX3Common_x86:PhysX3Common_x86.dll
 0003:00001708       __imp_?computeMaxIndex@physx@@YAIPBII@Z 10051708     PhysX3Common_x86:PhysX3Common_x86.dll
 0003:0000170c       __imp_?storeIndices@physx@@YAXIIPBIAAVPxOutputStream@1@_N@Z 1005170c     PhysX3Common_x86:PhysX3Common_x86.dll
 0003:00001710       __imp_?computeMaxIndex@physx@@YAGPBGI@Z 10051710     PhysX3Common_x86:PhysX3Common_x86.dll
 0003:00001714       __imp_?WriteHeader@Gu@physx@@YA_NEEEEI_NAAVPxOutputStream@2@@Z 10051714     PhysX3Common_x86:PhysX3Common_x86.dll
 0003:00001718       __imp_?StoreIndices@Gu@physx@@YAXGIPBGAAVPxOutputStream@2@_N@Z 10051718     PhysX3Common_x86:PhysX3Common_x86.dll
 0003:0000171c       __imp_?CreateOffsets@BigConvexData@physx@@IAEXXZ 1005171c     PhysX3Common_x86:PhysX3Common_x86.dll
 0003:00001720       __imp_??0RadixSortBuffered@Gu@physx@@QAE@XZ 10051720     PhysX3Common_x86:PhysX3Common_x86.dll
 0003:00001724       __imp_??1RadixSortBuffered@Gu@physx@@UAE@XZ 10051724     PhysX3Common_x86:PhysX3Common_x86.dll
 0003:00001728       __imp_?Sort@RadixSortBuffered@Gu@physx@@QAEAAV123@PBIIW4RadixHint@23@@Z 10051728     PhysX3Common_x86:PhysX3Common_x86.dll
 0003:0000172c       __imp_??0Container@Gu@physx@@QAE@XZ 1005172c     PhysX3Common_x86:PhysX3Common_x86.dll
 0003:00001730       __imp_??0Container@Gu@physx@@QAE@ABV012@@Z 10051730     PhysX3Common_x86:PhysX3Common_x86.dll
 0003:00001734       __imp_??1Container@Gu@physx@@QAE@XZ 10051734     PhysX3Common_x86:PhysX3Common_x86.dll
 0003:00001738       __imp_?Empty@Container@Gu@physx@@QAEAAV123@XZ 10051738     PhysX3Common_x86:PhysX3Common_x86.dll
 0003:0000173c       __imp_?Contains@Container@Gu@physx@@QBE_NIPAI@Z 1005173c     PhysX3Common_x86:PhysX3Common_x86.dll
 0003:00001740       __imp_??4Container@Gu@physx@@QAEXABV012@@Z 10051740     PhysX3Common_x86:PhysX3Common_x86.dll
 0003:00001744       __imp_?Resize@Container@Gu@physx@@AAE_NI@Z 10051744     PhysX3Common_x86:PhysX3Common_x86.dll
 0003:00001748       __imp_??0ConvexMesh@Gu@physx@@QAE@XZ 10051748     PhysX3Common_x86:PhysX3Common_x86.dll
 0003:0000174c       __imp_??1ConvexMesh@Gu@physx@@UAE@XZ 1005174c     PhysX3Common_x86:PhysX3Common_x86.dll
 0003:00001750       __imp_??0BigConvexData@physx@@QAE@XZ 10051750     PhysX3Common_x86:PhysX3Common_x86.dll
 0003:00001754       __imp_??1BigConvexData@physx@@QAE@XZ 10051754     PhysX3Common_x86:PhysX3Common_x86.dll
 0003:00001758       __imp_?exportExtraData@ConvexMesh@Gu@physx@@UAEXAAVPxSerializationContext@3@@Z 10051758     PhysX3Common_x86:PhysX3Common_x86.dll
 0003:0000175c       __imp_?getConcreteTypeName@PxConvexMesh@physx@@UBEPBDXZ 1005175c     PhysX3Common_x86:PhysX3Common_x86.dll
 0003:00001760       __imp_?getIndexBuffer@ConvexMesh@Gu@physx@@UBEPBEXZ 10051760     PhysX3Common_x86:PhysX3Common_x86.dll
 0003:00001764       __imp_?getLocalBounds@ConvexMesh@Gu@physx@@UBE?AVPxBounds3@3@XZ 10051764     PhysX3Common_x86:PhysX3Common_x86.dll
 0003:00001768       __imp_?getMassInformation@ConvexMesh@Gu@physx@@UBEXAAMAAVPxMat33@3@AAVPxVec3@3@@Z 10051768     PhysX3Common_x86:PhysX3Common_x86.dll
 0003:0000176c       __imp_?getNbPolygons@ConvexMesh@Gu@physx@@UBEIXZ 1005176c     PhysX3Common_x86:PhysX3Common_x86.dll
 0003:00001770       __imp_?getNbVertices@ConvexMesh@Gu@physx@@UBEIXZ 10051770     PhysX3Common_x86:PhysX3Common_x86.dll
 0003:00001774       __imp_?getPolygonData@ConvexMesh@Gu@physx@@UBE_NIAAUPxHullPolygon@3@@Z 10051774     PhysX3Common_x86:PhysX3Common_x86.dll
 0003:00001778       __imp_?getReferenceCount@ConvexMesh@Gu@physx@@UBEIXZ 10051778     PhysX3Common_x86:PhysX3Common_x86.dll
 0003:0000177c       __imp_?getVertices@ConvexMesh@Gu@physx@@UBEPBVPxVec3@3@XZ 1005177c     PhysX3Common_x86:PhysX3Common_x86.dll
 0003:00001780       __imp_?isKindOf@PxConvexMesh@physx@@MBE_NPBD@Z 10051780     PhysX3Common_x86:PhysX3Common_x86.dll
 0003:00001784       __imp_?onRefCountZero@ConvexMesh@Gu@physx@@UAEXXZ 10051784     PhysX3Common_x86:PhysX3Common_x86.dll
 0003:00001788       __imp_?release@ConvexMesh@Gu@physx@@UAEXXZ 10051788     PhysX3Common_x86:PhysX3Common_x86.dll
 0003:0000178c       __imp_?readDword@physx@@YAI_NAAVPxInputStream@1@@Z 1005178c     PhysX3Common_x86:PhysX3Common_x86.dll
 0003:00001790       __imp_?ReadHeader@Gu@physx@@YA_NEEEEAAIAA_NAAVPxInputStream@2@@Z 10051790     PhysX3Common_x86:PhysX3Common_x86.dll
 0003:00001794       __imp_??0FPUGuard@shdfnd@physx@@QAE@XZ 10051794     PhysX3Common_x86:PhysX3Common_x86.dll
 0003:00001798       __imp_??1FPUGuard@shdfnd@physx@@QAE@XZ 10051798     PhysX3Common_x86:PhysX3Common_x86.dll
 0003:0000179c       __imp_?incRefCount@Foundation@shdfnd@physx@@SAXXZ 1005179c     PhysX3Common_x86:PhysX3Common_x86.dll
 0003:000017a0       __imp_?decRefCount@Foundation@shdfnd@physx@@SAXXZ 100517a0     PhysX3Common_x86:PhysX3Common_x86.dll
 0003:000017a4       __imp_??0TriangleMesh@Gu@physx@@QAE@XZ 100517a4     PhysX3Common_x86:PhysX3Common_x86.dll
 0003:000017a8       __imp_?checkMeshIndicesSize@TriangleMesh@Gu@physx@@QAEXXZ 100517a8     PhysX3Common_x86:PhysX3Common_x86.dll
 0003:000017ac       __imp_??1TriangleMesh@Gu@physx@@UAE@XZ 100517ac     PhysX3Common_x86:PhysX3Common_x86.dll
 0003:000017b0       __imp_??0HeightField@Gu@physx@@QAE@PAVGuMeshFactory@2@@Z 100517b0     PhysX3Common_x86:PhysX3Common_x86.dll
 0003:000017b4       __imp_?loadFromDesc@HeightField@Gu@physx@@QAE_NABVPxHeightFieldDesc@3@_N@Z 100517b4     PhysX3Common_x86:PhysX3Common_x86.dll
 0003:000017b8       __imp_?releaseMemory@HeightField@Gu@physx@@QAEX_N@Z 100517b8     PhysX3Common_x86:PhysX3Common_x86.dll
 0003:000017bc       __imp_?exportExtraData@TriangleMesh@Gu@physx@@UAEXAAVPxSerializationContext@3@@Z 100517bc     PhysX3Common_x86:PhysX3Common_x86.dll
 0003:000017c0       __imp_?getConcreteTypeName@PxTriangleMesh@physx@@UBEPBDXZ 100517c0     PhysX3Common_x86:PhysX3Common_x86.dll
 0003:000017c4       __imp_?getLocalBounds@TriangleMesh@Gu@physx@@UBE?AVPxBounds3@3@XZ 100517c4     PhysX3Common_x86:PhysX3Common_x86.dll
 0003:000017c8       __imp_?getNbTriangles@TriangleMesh@Gu@physx@@UBEIXZ 100517c8     PhysX3Common_x86:PhysX3Common_x86.dll
 0003:000017cc       __imp_?getNbVertices@TriangleMesh@Gu@physx@@UBEIXZ 100517cc     PhysX3Common_x86:PhysX3Common_x86.dll
 0003:000017d0       __imp_?getReferenceCount@TriangleMesh@Gu@physx@@UBEIXZ 100517d0     PhysX3Common_x86:PhysX3Common_x86.dll
 0003:000017d4       __imp_?getTriangleMaterialIndex@TriangleMesh@Gu@physx@@UBEGI@Z 100517d4     PhysX3Common_x86:PhysX3Common_x86.dll
 0003:000017d8       __imp_?getTriangleMeshFlags@TriangleMesh@Gu@physx@@UBE?AV?$PxFlags@W4Enum@PxTriangleMeshFlag@physx@@E@3@XZ 100517d8     PhysX3Common_x86:PhysX3Common_x86.dll
 0003:000017dc       __imp_?getTriangles@TriangleMesh@Gu@physx@@UBEPBXXZ 100517dc     PhysX3Common_x86:PhysX3Common_x86.dll
 0003:000017e0       __imp_?getTrianglesRemap@TriangleMesh@Gu@physx@@UBEPBIXZ 100517e0     PhysX3Common_x86:PhysX3Common_x86.dll
 0003:000017e4       __imp_?getVertices@TriangleMesh@Gu@physx@@UBEPBVPxVec3@3@XZ 100517e4     PhysX3Common_x86:PhysX3Common_x86.dll
 0003:000017e8       __imp_?isKindOf@PxTriangleMesh@physx@@MBE_NPBD@Z 100517e8     PhysX3Common_x86:PhysX3Common_x86.dll
 0003:000017ec       __imp_?onRefCountZero@TriangleMesh@Gu@physx@@UAEXXZ 100517ec     PhysX3Common_x86:PhysX3Common_x86.dll
 0003:000017f0       __imp_?release@TriangleMesh@Gu@physx@@UAEXXZ 100517f0     PhysX3Common_x86:PhysX3Common_x86.dll
 0003:000017f4       __imp_?setupMeshInterface@InternalTriangleMesh@physx@@QAEXXZ 100517f4     PhysX3Common_x86:PhysX3Common_x86.dll
 0003:000017f8       \177PhysX3Common_x86_NULL_THUNK_DATA_DLA 100517f8     PhysX3Common_x86:PhysX3Common_x86.dll
 0003:00001930       __hmod__PhysX3Common_x86_dll 10051930     PhysX3Common_x86:PhysX3Common_x86.dll
 0003:00001934       ___pfnDliFailureHook2      10051934     delayimp:delayhk1.obj
 0003:00001938       ___fastflag                10051938     LIBCMT:fpinit.obj
 0003:0000193c       ?__type_info_root_node@@3U__type_info_node@@A 1005193c     LIBCMT:tncleanup.obj
 0003:0000194c       __aenvptr                  1005194c     LIBCMT:dllcrt0.obj
 0003:00001950       __wenvptr                  10051950     LIBCMT:dllcrt0.obj
 0003:00001954       ___isa_available           10051954     LIBCMT:cpu_disp.obj
 0003:00001958       ___favor                   10051958     LIBCMT:cpu_disp.obj
 0003:00001964       ___pInvalidArgHandler      10051964     LIBCMT:invarg.obj
 0003:00001968       __cflush                   10051968     LIBCMT:_file.obj
 0003:0000196c       __stdbuf                   1005196c     LIBCMT:_sftbuf.obj
 0003:00001974       ___pPurecall               10051974     LIBCMT:inithelp.obj
 0003:00001978       __C_Exit_Done              10051978     LIBCMT:crt0dat.obj
 0003:0000197c       ___argc                    1005197c     LIBCMT:crt0dat.obj
 0003:00001980       ___argv                    10051980     LIBCMT:crt0dat.obj
 0003:00001984       ___wargv                   10051984     LIBCMT:crt0dat.obj
 0003:00001988       __environ                  10051988     LIBCMT:crt0dat.obj
 0003:0000198c       __wenviron                 1005198c     LIBCMT:crt0dat.obj
 0003:00001990       __pgmptr                   10051990     LIBCMT:crt0dat.obj
 0003:00001994       __wpgmptr                  10051994     LIBCMT:crt0dat.obj
 0003:00001998       __umaskval                 10051998     LIBCMT:crt0dat.obj
 0003:0000199c       __exitflag                 1005199c     LIBCMT:crt0dat.obj
 0003:000019a0       __C_Termination_Done       100519a0     LIBCMT:crt0dat.obj
 0003:000019a4       ___winitenv                100519a4     LIBCMT:crt0dat.obj
 0003:000019a8       ___initenv                 100519a8     LIBCMT:crt0dat.obj
 0003:000019ac       __crtheap                  100519ac     LIBCMT:heapinit.obj
 0003:000019b0       ___pioinfo                 100519b0     LIBCMT:ioinit.obj
 0003:00001bb8       __maxwait                  10051bb8     LIBCMT:crtheap.obj
 0003:00001bbc       ___mbcodepage              10051bbc     LIBCMT:mbctype.obj
 0003:00001bc0       ___ismbcodepage            10051bc0     LIBCMT:mbctype.obj
 0003:00001bc4       ___mbulinfo                10051bc4     LIBCMT:mbctype.obj
 0003:00001bd0       ___mblocalename            10051bd0     LIBCMT:mbctype.obj
 0003:00001bd8       __outputformat             10051bd8     LIBCMT:outputformat.obj
 0003:00001d30       ?pArgList@UnDecorator@@0PAVReplicator@@A 10051d30     LIBCMT:undname.obj
 0003:00001d34       ?pZNameList@UnDecorator@@0PAVReplicator@@A 10051d34     LIBCMT:undname.obj
 0003:00001d38       ?pTemplateArgList@UnDecorator@@0PAVReplicator@@A 10051d38     LIBCMT:undname.obj
 0003:00001d3c       ?gName@UnDecorator@@0PBDB  10051d3c     LIBCMT:undname.obj
 0003:00001d40       ?name@UnDecorator@@0PBDB   10051d40     LIBCMT:undname.obj
 0003:00001d44       ?outputString@UnDecorator@@0PADA 10051d44     LIBCMT:undname.obj
 0003:00001d48       ?maxStringLength@UnDecorator@@0HA 10051d48     LIBCMT:undname.obj
 0003:00001d4c       ?disableFlags@UnDecorator@@0KA 10051d4c     LIBCMT:undname.obj
 0003:00001d50       ?fExplicitTemplateParams@UnDecorator@@0_NA 10051d50     LIBCMT:undname.obj
 0003:00001d51       ?fGetTemplateArgumentList@UnDecorator@@0_NA 10051d51     LIBCMT:undname.obj
 0003:00001d54       ?m_pGetParameter@UnDecorator@@0P6APADJ@ZA 10051d54     LIBCMT:undname.obj
 0003:00001d6c       ?nodes@?1??make@DNameStatusNode@@SAPAV2@W4DNameStatus@@@Z@4PAV2@A 10051d6c     LIBCMT:undname.obj
 0003:00001d9c       ??_B?1??make@DNameStatusNode@@SAPAV1@W4DNameStatus@@@Z@51 10051d9c     LIBCMT:undname.obj
 0003:00001da0       ?_pnhHeap@@3P6AHI@ZA       10051da0     LIBCMT:handler.obj
 0003:00001dc0       ___app_type                10051dc0     LIBCMT:crt0msg.obj
 0003:000023f0       ?__pInconsistency@@3P6AXXZA 100523f0     LIBCMT:hooks.obj
 0003:000023f8       ___lconv_static_null       100523f8     LIBCMT:lconv.obj
 0003:000023fc       ___lconv_static_W_null     100523fc     LIBCMT:lconv.obj
 0003:00002400       ___locale_changed          10052400     LIBCMT:wsetloca.obj
 0003:00002728       __newmode                  10052728     LIBCMT:_newmode.obj
 0003:0000272c       ___error_mode              1005272c     LIBCMT:errmode.obj
 0003:00002744       ___unguarded_readlc_active 10052744     <common>
 0003:00002748       ___setlc_active            10052748     <common>
 0003:0000274c       ___use_sse2_mathfcns       1005274c     <common>
 0003:00002750       __debugger_hook_dummy      10052750     <common>
 0003:00002760       _encodedKERNEL32Functions  10052760     <common>
 0003:000027e4       __nhandle                  100527e4     <common>
 0003:000027e8       ___dyn_tls_init_callback   100527e8     <common>
 0003:000027ec       ___onexitend               100527ec     <common>
 0003:000027f0       ___onexitbegin             100527f0     <common>
 0003:000027f4       ___mbctype_initialized     100527f4     <common>
 0003:000027f8       ___env_initialized         100527f8     <common>
 0003:000027fc       __pDestructExceptionObject 100527fc     <common>
 0003:00002800       __bufin                    10052800     <common>
 0003:00003800       ___piob                    10053800     <common>
 0003:00003804       __nstream                  10053804     <common>
 0003:00003808       __acmdln                   10053808     <common>

 entry point at        0001:00021341

 Static symbols

 0000:fffa8000       .debug$S                   10000000     PhysX3Common_x86:PhysX3Common_x86.dll
 0000:fffa8000       .debug$S                   10000000     kernel32:KERNEL32.dll
 0000:fffa8000       .debug$S                   10000000     kernel32:KERNEL32.dll
 0000:fffa8000       .debug$S                   10000000     kernel32:KERNEL32.dll
 0000:fffa8000       .debug$S                   10000000     kernel32:KERNEL32.dll
 0000:fffa8000       .debug$S                   10000000     kernel32:KERNEL32.dll
 0000:fffa8000       .debug$S                   10000000     PhysX3Common_x86:PhysX3Common_x86.dll
 0000:fffa8000       .debug$S                   10000000     PhysX3Common_x86:PhysX3Common_x86.dll
 0000:fffa8000       .debug$S                   10000000     PhysX3Common_x86:PhysX3Common_x86.dll
 0000:fffa8000       .debug$S                   10000000     kernel32:KERNEL32.dll
 0000:fffa8000       .debug$S                   10000000     kernel32:KERNEL32.dll
 0000:fffa8000       .debug$S                   10000000     PhysX3Common_x86:PhysX3Common_x86.dll
 0000:fffa8000       .debug$S                   10000000     PhysX3Common_x86:PhysX3Common_x86.dll
 0000:fffa8000       .debug$S                   10000000     PhysX3Common_x86:PhysX3Common_x86.dll
 0000:fffa8000       .debug$S                   10000000     kernel32:KERNEL32.dll
 0000:fffa8000       .debug$S                   10000000     kernel32:KERNEL32.dll
 0000:fffa8000       .debug$S                   10000000     kernel32:KERNEL32.dll
 0000:fffa8000       .debug$S                   10000000     kernel32:KERNEL32.dll
 0000:fffa8000       .debug$S                   10000000     kernel32:KERNEL32.dll
 0000:fffa8000       .debug$S                   10000000     kernel32:KERNEL32.dll
 0000:fffa8000       .debug$S                   10000000     kernel32:KERNEL32.dll
 0000:fffa8000       .debug$S                   10000000     PhysX3Common_x86:PhysX3Common_x86.dll
 0000:fffa8000       .debug$S                   10000000     kernel32:KERNEL32.dll
 0000:fffa8000       .debug$S                   10000000     PhysX3Common_x86:PhysX3Common_x86.dll
 0000:fffa8000       .debug$S                   10000000     kernel32:KERNEL32.dll
 0000:fffa8000       .debug$S                   10000000     kernel32:KERNEL32.dll
 0000:fffa8000       .debug$S                   10000000     kernel32:KERNEL32.dll
 0000:fffa8000       .debug$S                   10000000     kernel32:KERNEL32.dll
 0000:fffa8000       .debug$S                   10000000     kernel32:KERNEL32.dll
 0000:fffa8000       .debug$S                   10000000     kernel32:KERNEL32.dll
 0000:fffa8000       .debug$S                   10000000     kernel32:KERNEL32.dll
 0000:fffa8000       .debug$S                   10000000     kernel32:KERNEL32.dll
 0000:fffa8000       .debug$S                   10000000     kernel32:KERNEL32.dll
 0000:fffa8000       .debug$S                   10000000     kernel32:KERNEL32.dll
 0000:fffa8000       .debug$S                   10000000     kernel32:KERNEL32.dll
 0000:fffa8000       .debug$S                   10000000     kernel32:KERNEL32.dll
 0000:fffa8000       .debug$S                   10000000     kernel32:KERNEL32.dll
 0000:fffa8000       .debug$S                   10000000     kernel32:KERNEL32.dll
 0000:fffa8000       .debug$S                   10000000     kernel32:KERNEL32.dll
 0000:fffa8000       .debug$S                   10000000     kernel32:KERNEL32.dll
 0000:fffa8000       .debug$S                   10000000     kernel32:KERNEL32.dll
 0000:fffa8000       .debug$S                   10000000     kernel32:KERNEL32.dll
 0000:fffa8000       .debug$S                   10000000     kernel32:KERNEL32.dll
 0000:fffa8000       .debug$S                   10000000     kernel32:KERNEL32.dll
 0000:fffa8000       .debug$S                   10000000     kernel32:KERNEL32.dll
 0000:fffa8000       .debug$S                   10000000     kernel32:KERNEL32.dll
 0000:fffa8000       .debug$S                   10000000     kernel32:KERNEL32.dll
 0000:fffa8000       .debug$S                   10000000     kernel32:KERNEL32.dll
 0000:fffa8000       .debug$S                   10000000     kernel32:KERNEL32.dll
 0000:fffa8000       .debug$S                   10000000     kernel32:KERNEL32.dll
 0000:fffa8000       .debug$S                   10000000     kernel32:KERNEL32.dll
 0000:fffa8000       .debug$S                   10000000     kernel32:KERNEL32.dll
 0000:fffa8000       .debug$S                   10000000     kernel32:KERNEL32.dll
 0000:fffa8000       .debug$S                   10000000     kernel32:KERNEL32.dll
 0000:fffa8000       .debug$S                   10000000     kernel32:KERNEL32.dll
 0000:fffa8000       .debug$S                   10000000     kernel32:KERNEL32.dll
 0000:fffa8000       .debug$S                   10000000     kernel32:KERNEL32.dll
 0000:fffa8000       .debug$S                   10000000     kernel32:KERNEL32.dll
 0000:fffa8000       .debug$S                   10000000     kernel32:KERNEL32.dll
 0000:fffa8000       .debug$S                   10000000     kernel32:KERNEL32.dll
 0000:fffa8000       .debug$S                   10000000     kernel32:KERNEL32.dll
 0000:fffa8000       .debug$S                   10000000     kernel32:KERNEL32.dll
 0000:fffa8000       .debug$S                   10000000     kernel32:KERNEL32.dll
 0000:fffa8000       .debug$S                   10000000     kernel32:KERNEL32.dll
 0000:fffa8000       .debug$S                   10000000     kernel32:KERNEL32.dll
 0000:fffa8000       .debug$S                   10000000     PhysX3Common_x86:PhysX3Common_x86.dll
 0000:fffa8000       .debug$S                   10000000     PhysX3Common_x86:PhysX3Common_x86.dll
 0000:fffa8000       .debug$S                   10000000     PhysX3Common_x86:PhysX3Common_x86.dll
 0000:fffa8000       .debug$S                   10000000     PhysX3Common_x86:PhysX3Common_x86.dll
 0000:fffa8000       .debug$S                   10000000     PhysX3Common_x86:PhysX3Common_x86.dll
 0000:fffa8000       .debug$S                   10000000     PhysX3Common_x86:PhysX3Common_x86.dll
 0000:fffa8000       .debug$S                   10000000     PhysX3Common_x86:PhysX3Common_x86.dll
 0000:fffa8000       .debug$S                   10000000     kernel32:KERNEL32.dll
 0000:fffa8000       .debug$S                   10000000     kernel32:KERNEL32.dll
 0000:fffa8000       .debug$S                   10000000     kernel32:KERNEL32.dll
 0000:fffa8000       .debug$S                   10000000     kernel32:KERNEL32.dll
 0000:fffa8000       .debug$S                   10000000     kernel32:KERNEL32.dll
 0000:fffa8000       .debug$S                   10000000     kernel32:KERNEL32.dll
 0000:fffa8000       .debug$S                   10000000     kernel32:KERNEL32.dll
 0000:fffa8000       .debug$S                   10000000     kernel32:KERNEL32.dll
 0000:fffa8000       .debug$S                   10000000     kernel32:KERNEL32.dll
 0000:fffa8000       .debug$S                   10000000     kernel32:KERNEL32.dll
 0000:fffa8000       .debug$S                   10000000     PhysX3Common_x86:PhysX3Common_x86.dll
 0000:fffa8000       .debug$S                   10000000     PhysX3Common_x86:PhysX3Common_x86.dll
 0000:fffa8000       .debug$S                   10000000     PhysX3Common_x86:PhysX3Common_x86.dll
 0000:fffa8000       .debug$S                   10000000     PhysX3Common_x86:PhysX3Common_x86.dll
 0000:fffa8000       .debug$S                   10000000     PhysX3Common_x86:PhysX3Common_x86.dll
 0000:fffa8000       .debug$S                   10000000     PhysX3Common_x86:PhysX3Common_x86.dll
 0000:fffa8000       .debug$S                   10000000     PhysX3Common_x86:PhysX3Common_x86.dll
 0000:fffa8000       .debug$S                   10000000     PhysX3Common_x86:PhysX3Common_x86.dll
 0000:fffa8000       .debug$S                   10000000     PhysX3Common_x86:PhysX3Common_x86.dll
 0000:fffa8000       .debug$S                   10000000     PhysX3Common_x86:PhysX3Common_x86.dll
 0000:fffa8000       .debug$S                   10000000     PhysX3Common_x86:PhysX3Common_x86.dll
 0000:fffa8000       .debug$S                   10000000     PhysX3Common_x86:PhysX3Common_x86.dll
 0000:fffa8000       .debug$S                   10000000     PhysX3Common_x86:PhysX3Common_x86.dll
 0000:fffa8000       .debug$S                   10000000     kernel32:KERNEL32.dll
 0000:fffa8000       .debug$S                   10000000     kernel32:KERNEL32.dll
 0000:fffa8000       .debug$S                   10000000     kernel32:KERNEL32.dll
 0000:fffa8000       .debug$S                   10000000     kernel32:KERNEL32.dll
 0000:fffa8000       .debug$S                   10000000     kernel32:KERNEL32.dll
 0000:fffa8000       .debug$S                   10000000     kernel32:KERNEL32.dll
 0000:fffa8000       .debug$S                   10000000     kernel32:KERNEL32.dll
 0000:fffa8000       .debug$S                   10000000     kernel32:KERNEL32.dll
 0000:fffa8000       .debug$S                   10000000     kernel32:KERNEL32.dll
 0000:fffa8000       .debug$S                   10000000     kernel32:KERNEL32.dll
 0000:fffa8000       .debug$S                   10000000     kernel32:KERNEL32.dll
 0000:fffa8000       .debug$S                   10000000     PhysX3Common_x86:PhysX3Common_x86.dll
 0000:fffa8000       .debug$S                   10000000     PhysX3Common_x86:PhysX3Common_x86.dll
 0000:fffa8000       .debug$S                   10000000     PhysX3Common_x86:PhysX3Common_x86.dll
 0000:fffa8000       .debug$S                   10000000     PhysX3Common_x86:PhysX3Common_x86.dll
 0000:fffa8000       .debug$S                   10000000     PhysX3Common_x86:PhysX3Common_x86.dll
 0000:fffa8000       .debug$S                   10000000     PhysX3Common_x86:PhysX3Common_x86.dll
 0000:fffa8000       .debug$S                   10000000     PhysX3Common_x86:PhysX3Common_x86.dll
 0000:fffa8000       .debug$S                   10000000     PhysX3Common_x86:PhysX3Common_x86.dll
 0000:fffa8000       .debug$S                   10000000     PhysX3Common_x86:PhysX3Common_x86.dll
 0000:fffa8000       .debug$S                   10000000     PhysX3Common_x86:PhysX3Common_x86.dll
 0000:fffa8000       .debug$S                   10000000     PhysX3Common_x86:PhysX3Common_x86.dll
 0000:fffa8000       .debug$S                   10000000     PhysX3Common_x86:PhysX3Common_x86.dll
 0000:fffa8000       .debug$S                   10000000     PhysX3Common_x86:PhysX3Common_x86.dll
 0000:fffa8000       .debug$S                   10000000     PhysX3Common_x86:PhysX3Common_x86.dll
 0000:fffa8000       .debug$S                   10000000     PhysX3Common_x86:PhysX3Common_x86.dll
 0000:fffa8000       .debug$S                   10000000     PhysX3Common_x86:PhysX3Common_x86.dll
 0000:fffa8000       .debug$S                   10000000     PhysX3Common_x86:PhysX3Common_x86.dll
 0000:fffa8000       .debug$S                   10000000     PhysX3Common_x86:PhysX3Common_x86.dll
 0000:fffa8000       .debug$S                   10000000     PhysX3Common_x86:PhysX3Common_x86.dll
 0000:fffa8000       .debug$S                   10000000     PhysX3Common_x86:PhysX3Common_x86.dll
 0000:fffa8000       .debug$S                   10000000     PhysX3Common_x86:PhysX3Common_x86.dll
 0000:fffa8000       .debug$S                   10000000     PhysX3Common_x86:PhysX3Common_x86.dll
 0000:fffa8000       .debug$S                   10000000     PhysX3Common_x86:PhysX3Common_x86.dll
 0000:fffa8000       .debug$S                   10000000     PhysX3Common_x86:PhysX3Common_x86.dll
 0000:fffa8000       .debug$S                   10000000     PhysX3Common_x86:PhysX3Common_x86.dll
 0000:fffa8000       .debug$S                   10000000     PhysX3Common_x86:PhysX3Common_x86.dll
 0000:fffa8000       .debug$S                   10000000     PhysX3Common_x86:PhysX3Common_x86.dll
 0000:fffa8000       .debug$S                   10000000     PhysX3Common_x86:PhysX3Common_x86.dll
 0000:fffa8000       .debug$S                   10000000     PhysX3Common_x86:PhysX3Common_x86.dll
 0000:fffa8000       .debug$S                   10000000     PhysX3Common_x86:PhysX3Common_x86.dll
 0000:fffa8000       .debug$S                   10000000     PhysX3Common_x86:PhysX3Common_x86.dll
 0000:fffa8000       .debug$S                   10000000     PhysX3Common_x86:PhysX3Common_x86.dll
 0000:fffa8000       .debug$S                   10000000     PhysX3Common_x86:PhysX3Common_x86.dll
 0000:fffa8000       .debug$S                   10000000     PhysX3Common_x86:PhysX3Common_x86.dll
 0000:fffa8000       .debug$S                   10000000     PhysX3Common_x86:PhysX3Common_x86.dll
 0000:fffa8000       .debug$S                   10000000     PhysX3Common_x86:PhysX3Common_x86.dll
 0000:fffa8000       .debug$S                   10000000     PhysX3Common_x86:PhysX3Common_x86.dll
 0000:fffa8000       .debug$S                   10000000     PhysX3Common_x86:PhysX3Common_x86.dll
 0000:fffa8000       .debug$S                   10000000     PhysX3Common_x86:PhysX3Common_x86.dll
 0000:fffa8000       .debug$S                   10000000     PhysX3Common_x86:PhysX3Common_x86.dll
 0000:fffa8000       .debug$S                   10000000     PhysX3Common_x86:PhysX3Common_x86.dll
 0000:fffa8000       .debug$S                   10000000     PhysX3Common_x86:PhysX3Common_x86.dll
 0000:fffa8000       .debug$S                   10000000     PhysX3Common_x86:PhysX3Common_x86.dll
 0000:fffa8000       .debug$S                   10000000     PhysX3Common_x86:PhysX3Common_x86.dll
 0000:fffa8000       .debug$S                   10000000     PhysX3Common_x86:PhysX3Common_x86.dll
 0000:fffa8000       .debug$S                   10000000     PhysX3Common_x86:PhysX3Common_x86.dll
 0000:fffa8000       .debug$S                   10000000     PhysX3Common_x86:PhysX3Common_x86.dll
 0000:fffa8000       .debug$S                   10000000     PhysX3Common_x86:PhysX3Common_x86.dll
 0000:fffa8000       .debug$S                   10000000     PhysX3Common_x86:PhysX3Common_x86.dll
 0000:fffa8000       .debug$S                   10000000     PhysX3Common_x86:PhysX3Common_x86.dll
 0000:fffa8000       .debug$S                   10000000     PhysX3Common_x86:PhysX3Common_x86.dll
 0000:fffa8000       .debug$S                   10000000     kernel32:KERNEL32.dll
 0001:00000000       ??__EmaxFError@_VecMathTests@aos@shdfnd@physx@@YAXXZ 10001000 f   RTreeCooking.obj
 0001:00000020       ??__EmaxV3Error@_VecMathTests@aos@shdfnd@physx@@YAXXZ 10001020 f   RTreeCooking.obj
 0001:00000030       ??__EmaxV4Error@_VecMathTests@aos@shdfnd@physx@@YAXXZ 10001030 f   RTreeCooking.obj
 0001:00000050       ??__EminFError@_VecMathTests@aos@shdfnd@physx@@YAXXZ 10001050 f   RTreeCooking.obj
 0001:00000070       ??__EminV3Error@_VecMathTests@aos@shdfnd@physx@@YAXXZ 10001070 f   RTreeCooking.obj
 0001:00000080       ??__EminV4Error@_VecMathTests@aos@shdfnd@physx@@YAXXZ 10001080 f   RTreeCooking.obj
 0001:000000a0       ??__EmaxFError@_VecMathTests@aos@shdfnd@physx@@YAXXZ 100010a0 f   TriangleMeshBuilder.obj
 0001:000000c0       ??__EmaxV3Error@_VecMathTests@aos@shdfnd@physx@@YAXXZ 100010c0 f   TriangleMeshBuilder.obj
 0001:000000d0       ??__EmaxV4Error@_VecMathTests@aos@shdfnd@physx@@YAXXZ 100010d0 f   TriangleMeshBuilder.obj
 0001:000000f0       ??__EminFError@_VecMathTests@aos@shdfnd@physx@@YAXXZ 100010f0 f   TriangleMeshBuilder.obj
 0001:00000110       ??__EminV3Error@_VecMathTests@aos@shdfnd@physx@@YAXXZ 10001110 f   TriangleMeshBuilder.obj
 0001:00000120       ??__EminV4Error@_VecMathTests@aos@shdfnd@physx@@YAXXZ 10001120 f   TriangleMeshBuilder.obj
 0001:00000140       ??__EmaxFError@_VecMathTests@aos@shdfnd@physx@@YAXXZ 10001140 f   ConvexMeshBuilder.obj
 0001:00000160       ??__EmaxV3Error@_VecMathTests@aos@shdfnd@physx@@YAXXZ 10001160 f   ConvexMeshBuilder.obj
 0001:00000170       ??__EmaxV4Error@_VecMathTests@aos@shdfnd@physx@@YAXXZ 10001170 f   ConvexMeshBuilder.obj
 0001:00000190       ??__EminFError@_VecMathTests@aos@shdfnd@physx@@YAXXZ 10001190 f   ConvexMeshBuilder.obj
 0001:000001b0       ??__EminV3Error@_VecMathTests@aos@shdfnd@physx@@YAXXZ 100011b0 f   ConvexMeshBuilder.obj
 0001:000001c0       ??__EminV4Error@_VecMathTests@aos@shdfnd@physx@@YAXXZ 100011c0 f   ConvexMeshBuilder.obj
 0001:00000220       $LN13                      10001220     WindowsCookingDelayLoadHook.obj
 0001:00000b00       ?buildFromBounds@physx@@YAXAAURTree@Gu@1@PBUPxBounds3V@1@IAAV?$Array@IV?$ReflectionAllocator@I@shdfnd@physx@@@shdfnd@1@PAURemapCallback@RTreeCooker@1@AAT__m128@@4MW4Enum@PxMeshCookingHint@1@@Z 10001b00 f   RTreeCooking.obj
 0001:000013c0       ?PxSAH@physx@@YAXABT__m128@@AAM@Z 100023c0 f   RTreeCooking.obj
 0001:00006028       $LN69                      10007028     BigConvexDataBuilder.obj
 0001:00006b80       ??Dphysx@@YA?AVPxVec3@0@MABV10@@Z 10007b80 f   ConvexHullBuilder.obj
 0001:00009160       ?inverseBuffer@@YA_NIPAE@Z 1000a160 f   ConvexHullBuilder.obj
 0001:000091b0       ?negatePlane@@YAXAAUHullPolygonData@Gu@physx@@@Z 1000a1b0 f   ConvexHullBuilder.obj
 0001:000091d0       ?findLineStrip@@YA_NAAVContainer@Gu@physx@@ABV123@@Z 1000a1d0 f   ConvexHullBuilder.obj
 0001:000093d0       ?CheckRedundantVertices@@YAXAAIAAVContainer@Gu@physx@@ABVConvexHullBuilder@3@11@Z 1000a3d0 f   ConvexHullBuilder.obj
 0001:00009810       ?ExtractHullPolygons@@YA_NAAIAAVContainer@Gu@physx@@ABVConvexHullBuilder@3@PAV123@1@Z 1000a810 f   ConvexHullBuilder.obj
 0001:00009df0       ?FloodFill@Local@?8??ExtractHullPolygons@@YA_NAAIAAVContainer@Gu@physx@@ABVConvexHullBuilder@5@PAV345@1@Z@SAX1PBVAdjTriangle@5@IPA_N@Z 1000adf0 f   ConvexHullBuilder.obj
 0001:00009e90       ?GetNeighborFace@Local@?8??ExtractHullPolygons@@YA_NAAIAAVContainer@Gu@physx@@ABVConvexHullBuilder@5@PAV345@1@Z@SA_NIIPBVAdjTriangle@5@PBI00@Z 1000ae90 f   ConvexHullBuilder.obj
 0001:00009fc0       ?CheckFloodFillFace@Local@?8??ExtractHullPolygons@@YA_NAAIAAVContainer@Gu@physx@@ABVConvexHullBuilder@5@PAV345@1@Z@SA_NIPBVAdjTriangle@5@PBI@Z 1000afc0 f   ConvexHullBuilder.obj
 0001:0000a130       ?CheckFloodFill@Local@?8??ExtractHullPolygons@@YA_NAAIAAVContainer@Gu@physx@@ABVConvexHullBuilder@5@PAV345@1@Z@SA_N1PAVAdjTriangle@5@PA_NPBI@Z 1000b130 f   ConvexHullBuilder.obj
 0001:0000a280       ?TestDuplicateTriangles@@YA_NAAIPAU?$TriangleT@I@Gu@physx@@_N@Z 1000b280 f   ConvexHullBuilder.obj
 0001:0000a380       ?testCulling@@YA_NABU?$TriangleT@I@Gu@physx@@PBVPxVec3@3@ABV43@@Z 1000b380 f   ConvexHullBuilder.obj
 0001:0000a520       ?TestUnifiedNormals@@YA_NIPBVPxVec3@physx@@IPAU?$TriangleT@I@Gu@2@_N@Z 1000b520 f   ConvexHullBuilder.obj
 0001:0000a960       ?cleanMesh@@YA_NAAI0PAVPxVec3@physx@@PAU?$TriangleT@I@Gu@2@@Z 1000b960 f   ConvexHullBuilder.obj
 0001:0000aa00       ?CleanHull@@YA_NAAIPAU?$TriangleT@I@Gu@physx@@0PAVPxVec3@3@@Z 1000ba00 f   ConvexHullBuilder.obj
 0001:0000aa70       ?CheckHull@@YA_NIPBU?$TriangleT@I@Gu@physx@@IPBVPxVec3@3@@Z 1000ba70 f   ConvexHullBuilder.obj
 0001:0000aab0       ?computeNewellPlane@@YA_NAAVPxPlane@physx@@IPBEPBVPxVec3@2@@Z 1000bab0 f   ConvexHullBuilder.obj
 0001:0000b960       $LN21                      1000c960     ConvexMeshBuilder.obj
 0001:0000c5f0       ?ComputeAABBNoTransform@@YAXAAVPxVec3@physx@@0IPBV12@@Z 1000d5f0 f   ConvexMeshBuilder.obj
 0001:0000c6c0       ?TestContainment@@YA_NABVPxVec3@physx@@QBMIPBUHullPolygonData@Gu@2@@Z 1000d6c0 f   ConvexMeshBuilder.obj
 0001:0000cc34       $LN12                      1000dc34     ConvexMeshBuilder.obj
 0001:00010740       ?sqr@physx@@YAMM@Z         10011740 f   hulllib.obj
 0001:00010750       ??Hphysx@@YA?AVfloat3@0@ABV10@0@Z 10011750 f   hulllib.obj
 0001:00010790       ??Gphysx@@YA?AVfloat3@0@ABV10@0@Z 10011790 f   hulllib.obj
 0001:000107d0       ??Gphysx@@YA?AVfloat3@0@ABV10@@Z 100117d0 f   hulllib.obj
 0001:00010810       ??Dphysx@@YA?AVfloat3@0@ABV10@M@Z 10011810 f   hulllib.obj
 0001:00010850       ??Kphysx@@YA?AVfloat3@0@ABV10@M@Z 10011850 f   hulllib.obj
 0001:00010890       ?dot@physx@@YAMABVfloat3@1@0@Z 10011890 f   hulllib.obj
 0001:000108b0       ?cross@physx@@YA?AVfloat3@1@ABV21@0@Z 100118b0 f   hulllib.obj
 0001:00010910       ??Yphysx@@YAAAVfloat3@0@AAV10@ABV10@@Z 10011910 f   hulllib.obj
 0001:00010950       ?magnitude@physx@@YAMABVfloat3@1@@Z 10011950 f   hulllib.obj
 0001:00010990       ?normalize@physx@@YA?AVfloat3@1@ABV21@@Z 10011990 f   hulllib.obj
 0001:00010a20       ?VectorMin@physx@@YA?AVfloat3@1@ABV21@0@Z 10011a20 f   hulllib.obj
 0001:00010a70       ?VectorMax@physx@@YA?AVfloat3@1@ABV21@0@Z 10011a70 f   hulllib.obj
 0001:00010ac0       ?Determinant@physx@@YAMABVfloat3x3@1@@Z 10011ac0 f   hulllib.obj
 0001:00010b40       ?Inverse@physx@@YA?AVfloat3x3@1@ABV21@@Z 10011b40 f   hulllib.obj
 0001:00010cb0       ?Transpose@physx@@YA?AVfloat3x3@1@ABV21@@Z 10011cb0 f   hulllib.obj
 0001:00010d30       ??Dphysx@@YA?AVfloat3@0@ABV10@ABVfloat3x3@0@@Z 10011d30 f   hulllib.obj
 0001:00010dd0       ?ThreePlaneIntersection@physx@@YA?AVfloat3@1@ABVPlane@1@00@Z 10011dd0 f   hulllib.obj
 0001:00010f20       ?TriNormal@physx@@YA?AVfloat3@1@ABV21@00@Z 10011f20 f   hulllib.obj
 0001:00011090       ?ConvexHDup@physx@@YAPAVConvexH@1@PAV21@@Z 10012090 f   hulllib.obj
 0001:00011140       ?PlaneTest@physx@@YAHABVPlane@1@ABVfloat3@1@@Z 10012140 f   hulllib.obj
 0001:000111a0       ?AssertIntact@physx@@YAHAAVConvexH@1@@Z 100121a0 f   hulllib.obj
 0001:00011470       ?test_cube@physx@@YAPAVConvexH@1@XZ 10012470 f   hulllib.obj
 0001:000118d0       ?ConvexHMakeCube@physx@@YAPAVConvexH@1@ABVfloat3@1@0@Z 100128d0 f   hulllib.obj
 0001:00011b40       ?ConvexHCrop@physx@@YAPAVConvexH@1@AAV21@ABVPlane@1@@Z 10012b40 f   hulllib.obj
 0001:00012660       ?candidateplane@physx@@YAHPAVPlane@1@HPAVConvexH@1@M@Z 10013660 f   hulllib.obj
 0001:000128b0       ?orth@physx@@YA?AVfloat3@1@ABV21@@Z 100138b0 f   hulllib.obj
 0001:00012a00       ?above@physx@@YAHPAVfloat3@1@ABVint3@1@ABV21@M@Z 10013a00 f   hulllib.obj
 0001:00012b20       ?hasvert@physx@@YAHABVint3@1@H@Z 10013b20 f   hulllib.obj
 0001:00012b50       ?deleteTri@physx@@YAXPAVTri@1@PAV?$Array@PAVTri@physx@@@hullLibArray@1@@Z 10013b50 f   hulllib.obj
 0001:00012c00       ?hasVolume@physx@@YA_NPAVfloat3@1@HHHH@Z 10013c00 f   hulllib.obj
 0001:00012da0       ?FindSimplex@physx@@YA?AVint4@1@PAVfloat3@1@HAAV?$Array@H@hullLibArray@1@ABV31@@Z 10013da0 f   hulllib.obj
 0001:000133d0       ?area2@physx@@YAMABVfloat3@1@00@Z 100143d0 f   hulllib.obj
 0001:00013460       ?overhull@physx@@YA?AW4HullError@1@PAVPlane@1@HPAVfloat3@1@HHAAPAV41@AAHAAPAH3M@Z 10014460 f   hulllib.obj
 0001:00013910       ?ReleaseHull@physx@@YAXAAVPHullResult@1@@Z 10014910 f   hulllib.obj
 0001:00013960       ?BringOutYourDead@physx@@YAXPBMIPAMAAIPAII@Z 10014960 f   hulllib.obj
 0001:00013a80       ?AddPoint@physx@@YAXAAIPAMMMM@Z 10014a80 f   hulllib.obj
 0001:00013ac0       ?GetDist@physx@@YAMMMMPBM@Z 10014ac0 f   hulllib.obj
 0001:00013b10       ?CleanupVertices@physx@@YA_NIPBMIAAIPAMM2@Z 10014b10 f   hulllib.obj
 0001:00014200       ?ComputeNormal@physx@@YAMPAMPBM11@Z 10015200 f   hulllib.obj
 0001:000142f0       ?AddConvexTriangle@physx@@YAXPAVConvexHullTriangleInterface@1@PBM11@Z 100152f0 f   hulllib.obj
 0001:00015dc0       ??Dphysx@@YA?AVPxVec3@0@MABV10@@Z 10016dc0 f   VolumeIntegration.obj
 0001:000188d0       ?_WalkFace@Local@?1??Walk@Adjacencies@physx@@QAE_NP6AXABUCommonWalkParams@4@IIII@ZPAX@Z@SAXAAUPrivateWalkParams@?1??234@QAE_N12@Z@IIII@Z 100198d0 f   Adjacencies.obj
 0001:000189a0       ?_WalkFace@Local@?1??Walk2@Adjacencies@physx@@QAE_NP6AXABUCommonWalkParams@4@IIII@ZPAXPBVPxVec3@4@PBU?$TriangleT@I@Gu@4@@Z@SAXAAUPrivateWalkParams@?1??234@QAE_N1234@Z@IIII@Z 100199a0 f   Adjacencies.obj
 0001:00018d70       ?AddEdge@@YAXIIIAAIPAVAdjEdge@@@Z 10019d70 f   Adjacencies.obj
 0001:00018db0       ?AddTriangle@@YAXIIIIPAVAdjTriangle@physx@@AAIPAVAdjEdge@@@Z 10019db0 f   Adjacencies.obj
 0001:00018e90       ?UpdateLink@@YA_NIIIIPAVAdjTriangle@physx@@ABUADJACENCIESCREATE@2@@Z 10019e90 f   Adjacencies.obj
 0001:00019030       ?CreateDatabase@@YA_NPAVAdjTriangle@physx@@IPBVAdjEdge@@ABUADJACENCIESCREATE@2@@Z 1001a030 f   Adjacencies.obj
 0001:00019748       $LN14                      1001a748     Cooking.obj
 0001:0001e680       ?getHashValue@@YAIABVPxVec3@physx@@@Z 1001f680 f   MeshCleaner.obj
 0001:0001e6b0       ?getHashValue@@YAIABUIndices@@@Z 1001f6b0 f   MeshCleaner.obj
 0001:0001ee42       ?FLoadedAtPreferredAddress@@YG_NPAU_IMAGE_NT_HEADERS@@PAUHINSTANCE__@@@Z 1001fe42 f   delayimp:delayhlp.obj
 0001:0001ee6b       ?OverlayIAT@@YGXPAU_IMAGE_THUNK_DATA32@@PBU1@@Z 1001fe6b f   delayimp:delayhlp.obj
 0001:0001ee9f       ?PiddFromDllName@@YGPBUImgDelayDescr@@PBD@Z 1001fe9f f   delayimp:delayhlp.obj
 0001:0001ef24       ?PinhFromImageBase@@YGPAU_IMAGE_NT_HEADERS@@PAUHINSTANCE__@@@Z 1001ff24 f   delayimp:delayhlp.obj
 0001:0001ef35       ?TimeStampOfImage@@YGKPAU_IMAGE_NT_HEADERS@@@Z 1001ff35 f   delayimp:delayhlp.obj
 0001:0001ef44       ?__memcmp@@YGHPBX0I@Z      1001ff44 f   delayimp:delayhlp.obj
 0001:0001ef75       ?__memcpy@@YGPAXPAXPBXI@Z  1001ff75 f   delayimp:delayhlp.obj
 0001:0001ef9c       ?__strlen@@YGIPBD@Z        1001ff9c f   delayimp:delayhlp.obj
 0001:0001f2c0       $$000000                   100202c0     LIBCMT:strstr.obj
 0001:0001f530       $$000000                   10020530     LIBCMT:memset.obj
 0001:0001f730       $$000000                   10020730     LIBCMT:alloca16.obj
 0001:0001f760       $$000000                   10020760     LIBCMT:ftol3.obj
 0001:0001fb40       $$000000                   10020b40     LIBCMT:memcpy.obj
 0001:0001fd90       LeadUpVec                  10020d90     LIBCMT:memcpy.obj
 0001:0001fe0c       UnwindUpVec                10020e0c     LIBCMT:memcpy.obj
 0001:0001fe78       TrailUpVec                 10020e78     LIBCMT:memcpy.obj
 0001:0001ff1c       LeadDownVec                10020f1c     LIBCMT:memcpy.obj
 0001:0001ffa8       UnwindDownVec              10020fa8     LIBCMT:memcpy.obj
 0001:00020014       TrailDownVec               10021014     LIBCMT:memcpy.obj
 0001:00021150       $$000000                   10022150     LIBCMT:chkstk.obj
 0001:00021364       ___DllMainCRTStartup       10022364 f   LIBCMT:dllcrt0.obj
 0001:00021610       $$000000                   10022610     LIBCMT:strchr.obj
 0001:00021ce4       __cftoe2_l                 10022ce4 f   LIBCMT:cvt.obj
 0001:00021f1e       __cftof2_l                 10022f1e f   LIBCMT:cvt.obj
 0001:00022392       __shift                    10023392 f   LIBCMT:cvt.obj
 0001:00022400       $$000000                   10023400     LIBCMT:strcmp.obj
 0001:00022a82       __get_fname                10023a82 f   LIBCMT:fpexcept.obj
 0001:000247cf       $LN277                     100257cf     LIBCMT:output.obj
 0001:00024823       _write_char                10025823 f   LIBCMT:output.obj
 0001:0002486b       _write_multi_char          1002586b f   LIBCMT:output.obj
 0001:00024897       _write_string              10025897 f   LIBCMT:output.obj
 0001:00024a20       $$000000                   10025a20     LIBCMT:sehprolg4.obj
 0001:00024a80       _ValidateLocalCookies      10025a80 f   LIBCMT:chandler4.obj
 0001:00024c60       $$000000                   10025c60     LIBCMT:cos.obj
 0001:00024d90       $$000000                   10025d90     LIBCMT:sin.obj
 0001:0002527a       _xcptlookup                1002627a f   LIBCMT:winxfltr.obj
 0001:00025a2c       __initterm                 10026a2c f   LIBCMT:crt0dat.obj
 0001:00025a96       _doexit                    10026a96 f   LIBCMT:crt0dat.obj
 0001:00025fc2       _parse_cmdline             10026fc2 f   LIBCMT:stdargv.obj
 0001:0002634e       ___IsPackagedAppHelper     1002734e f   LIBCMT:winapisupp.obj
 0001:00026ec4       ?CPtoLocaleName@@YAPB_WH@Z 10027ec4 f   LIBCMT:mbctype.obj
 0001:00026efe       ?getSystemCP@@YAHH@Z       10027efe f   LIBCMT:mbctype.obj
 0001:00026f6c       ?setSBCS@@YAXPAUthreadmbcinfostruct@@@Z 10027f6c f   LIBCMT:mbctype.obj
 0001:00026fcb       ?setSBUpLow@@YAXPAUthreadmbcinfostruct@@@Z 10027fcb f   LIBCMT:mbctype.obj
 0001:00027e50       $$000000                   10028e50     LIBCMT:strlen.obj
 0001:00027ee0       $$000000                   10028ee0     LIBCMT:memmove.obj
 0001:00028130       LeadUpVec                  10029130     LIBCMT:memmove.obj
 0001:000281ac       UnwindUpVec                100291ac     LIBCMT:memmove.obj
 0001:00028218       TrailUpVec                 10029218     LIBCMT:memmove.obj
 0001:000282bc       LeadDownVec                100292bc     LIBCMT:memmove.obj
 0001:00028348       UnwindDownVec              10029348     LIBCMT:memmove.obj
 0001:000283b4       TrailDownVec               100293b4     LIBCMT:memmove.obj
 0001:00028530       $$000000                   10029530     LIBCMT:strrchr.obj
 0001:00028aa0       $$000000                   10029aa0     LIBCMT:lldvrm.obj
 0001:00028b80       $$000000                   10029b80     LIBCMT:ullshr.obj
 0001:0002b01e       $LN113                     1002c01e     LIBCMT:undname.obj
 0001:0002b036       $LN105                     1002c036     LIBCMT:undname.obj
 0001:0002bd96       $LN27                      1002cd96     LIBCMT:undname.obj
 0001:0002e418       $LN129                     1002f418     LIBCMT:undname.obj
 0001:0002ea15       ?und_memcpy@@YAXPADPBDI@Z  1002fa15 f   LIBCMT:undname.obj
 0001:0002ea34       ?und_strlen@@YAIPBD@Z      1002fa34 f   LIBCMT:undname.obj
 0001:0002ea49       ?und_strncmp@@YAIPBD0I@Z   1002fa49 f   LIBCMT:undname.obj
 0001:0002ebc0       $$000000                   1002fbc0     LIBCMT:exsup4.obj
 0001:0002ec50       __unwind_handler4          1002fc50 f   LIBCMT:exsup4.obj
 0001:0002f219       _flsall                    10030219 f   LIBCMT:fflush.obj
 0001:0002fe79       $LN296                     10030e79     LIBCMT:outputs.obj
 0001:0002fe99       _write_char                10030e99 f   LIBCMT:outputs.obj
 0001:0002fee1       _write_multi_char          10030ee1 f   LIBCMT:outputs.obj
 0001:0002ff0d       _write_string              10030f0d f   LIBCMT:outputs.obj
 0001:0003129d       $LN736                     1003229d     LIBCMT:outputp.obj
 0001:00031406       _write_char                10032406 f   LIBCMT:outputp.obj
 0001:0003144e       _write_multi_char          1003244e f   LIBCMT:outputp.obj
 0001:0003147a       _write_string              1003247a f   LIBCMT:outputp.obj
 0001:00031b40       $$000000                   10032b40     LIBCMT:ulldvrm.obj
 0001:00031d50       $$000000                   10032d50     LIBCMT:cos_pentium4.obj
 0001:00031f00       $$000000                   10032f00     LIBCMT:87disp.obj
 0001:000320d0       $$000000                   100330d0     LIBCMT:common.obj
 0001:00032260       $$000000                   10033260     LIBCMT:genexcep.obj
 0001:000322c0       $$000000                   100332c0     LIBCMT:sin_pentium4.obj
 0001:000324c3       _ctrlevent_capture@4       100334c3 f   LIBCMT:winsig.obj
 0001:00032723       _siglookup                 10033723 f   LIBCMT:winsig.obj
 0001:00032a58       ?__crtGetLocaleInfoA_stat@@YAHPAUlocaleinfo_struct@@PB_WKPADH@Z 10033a58 f   LIBCMT:a_loc.obj
 0001:00032d2e       ___crtEnumLocalesProc@4    10033d2e f   LIBCMT:winapinls.obj
 0001:000331c9       __onexit_nolock            100341c9 f   LIBCMT:onexit.obj
 0001:00033439       ?x_ismbbtype_l@@YAHPAUlocaleinfo_struct@@IHH@Z 10034439 f   LIBCMT:ismbbyte.obj
 0001:00033d38       _fix_grouping              10034d38 f   LIBCMT:initmon.obj
 0001:00033fdd       _fix_grouping              10034fdd f   LIBCMT:initnum.obj
 0001:00034411       __get_lc_time              10035411 f   LIBCMT:inittime.obj
 0001:00034c2a       ?__crtLCMapStringA_stat@@YAHPAUlocaleinfo_struct@@PB_WKPBDHPADHHH@Z 10035c2a f   LIBCMT:a_map.obj
 0001:00034e2e       ?strncnt@@YAHPBDH@Z        10035e2e f   LIBCMT:a_map.obj
 0001:00034e94       ?__crtGetStringTypeA_stat@@YAHPAUlocaleinfo_struct@@KPBDHPAGHH@Z 10035e94 f   LIBCMT:a_str.obj
 0001:00035378       __copytlocinfo_nolock      10036378 f   LIBCMT:wsetloca.obj
 0001:00035af6       __wsetlocale_get_all       10036af6 f   LIBCMT:wsetloca.obj
 0001:00035c63       __wsetlocale_nolock        10036c63 f   LIBCMT:wsetloca.obj
 0001:00035eec       __wsetlocale_set_cat       10036eec f   LIBCMT:wsetloca.obj
 0001:00036296       _sync_legacy_variables_lk  10037296 f   LIBCMT:wsetloca.obj
 0001:000384d2       $LN333                     100394d2     LIBCMT:strgtold.obj
 0001:000392a3       ___abstract_cw_sse2        1003a2a3 f   LIBCMT:ieee87.obj
 0001:0003934c       ___abstract_sw_sse2        1003a34c f   LIBCMT:ieee87.obj
 0001:0003938d       ___clearfp_sse2            1003a38d f   LIBCMT:ieee87.obj
 0001:000396f7       ___control87_sse2          1003a6f7 f   LIBCMT:ieee87.obj
 0001:0003987a       ___fpreset_sse2            1003a87a f   LIBCMT:ieee87.obj
 0001:00039886       ___hw_cw_sse2              1003a886 f   LIBCMT:ieee87.obj
 0001:0003992f       ___statusfp_sse2           1003a92f f   LIBCMT:ieee87.obj
 0001:00039970       __abstract_cw              1003a970 f   LIBCMT:ieee87.obj
 0001:00039a0f       __abstract_sw              1003aa0f f   LIBCMT:ieee87.obj
 0001:0003a174       __hw_cw                    1003b174 f   LIBCMT:ieee87.obj
 0001:0003a410       $$000000                   1003b410     LIBCMT:exsup.obj
 0001:0003a430       __unwind_handler           1003b430 f   LIBCMT:exsup.obj
 0001:0003b067       ?strtoxl@@YAKPAUlocaleinfo_struct@@PBDPAPBDHH@Z 1003c067 f   LIBCMT:strtol.obj
 0001:0003bed2       _cmpBYTE                   1003ced2 f   LIBCMT:memcmp.obj
 0001:0003bef7       _cmpDWORD                  1003cef7 f   LIBCMT:memcmp.obj
 0001:0003bf82       _cmpResult                 1003cf82 f   LIBCMT:memcmp.obj
 0001:0003bf9e       _cmpWORD                   1003cf9e f   LIBCMT:memcmp.obj
 0001:0003d6e7       $LN1281                    1003e6e7     LIBCMT:memcmp.obj
 0001:0003d767       _unaligned_memcmp          1003e767 f   LIBCMT:memcmp.obj
 0001:0003ee83       $LN1269                    1003fe83     LIBCMT:memcmp.obj
 0001:0003f004       _GetLocaleNameFromDefault  10040004 f   LIBCMT:getqloc.obj
 0001:0003f07d       _GetLocaleNameFromLangCountry 1004007d f   LIBCMT:getqloc.obj
 0001:0003f0f1       _GetLocaleNameFromLanguage 100400f1 f   LIBCMT:getqloc.obj
 0001:0003f13b       _GetPrimaryLen             1004013b f   LIBCMT:getqloc.obj
 0001:0003f16d       _LangCountryEnumProcEx@12  1004016d f   LIBCMT:getqloc.obj
 0001:0003f38d       _LanguageEnumProcEx@12     1004038d f   LIBCMT:getqloc.obj
 0001:0003f440       _ProcessCodePage           10040440 f   LIBCMT:getqloc.obj
 0001:0003f4d5       _TestDefaultCountry        100404d5 f   LIBCMT:getqloc.obj
 0001:0003f521       _TestDefaultLanguage       10040521 f   LIBCMT:getqloc.obj
 0001:0003f55c       _TranslateName             1004055c f   LIBCMT:getqloc.obj
 0001:0003f78a       _CountryEnumProc@4         1004078a f   LIBCMT:getqloc_downlevel.obj
 0001:0003f83a       _GetLcidFromCountry        1004083a f   LIBCMT:getqloc_downlevel.obj
 0001:0003f87a       _GetLcidFromDefault        1004087a f   LIBCMT:getqloc_downlevel.obj
 0001:0003f896       _GetLcidFromLangCountry    10040896 f   LIBCMT:getqloc_downlevel.obj
 0001:0003f913       _GetLcidFromLanguage       10040913 f   LIBCMT:getqloc_downlevel.obj
 0001:0003f96c       _GetPrimaryLen             1004096c f   LIBCMT:getqloc_downlevel.obj
 0001:0003f996       _LangCountryEnumProc@4     10040996 f   LIBCMT:getqloc_downlevel.obj
 0001:0003fb8b       _LanguageEnumProc@4        10040b8b f   LIBCMT:getqloc_downlevel.obj
 0001:0003fc66       _LcidFromHexString         10040c66 f   LIBCMT:getqloc_downlevel.obj
 0001:0003fcb5       _ProcessCodePage           10040cb5 f   LIBCMT:getqloc_downlevel.obj
 0001:0003fd40       _TestDefaultCountry        10040d40 f   LIBCMT:getqloc_downlevel.obj
 0001:0003fd62       _TestDefaultLanguage       10040d62 f   LIBCMT:getqloc_downlevel.obj
 0001:0003fdcc       _TranslateName             10040dcc f   LIBCMT:getqloc_downlevel.obj
 0001:00040232       ?strtoxq@@YA_KPAUlocaleinfo_struct@@PBDPAPBDHH@Z 10041232 f   LIBCMT:strtoq.obj
 0001:00040de8       @x64tow_s@24               10041de8 f   LIBCMT:xtows.obj
 0001:00040fbb       _xtow_s@20                 10041fbb f   LIBCMT:xtows.obj
 0001:00041640       $$000000                   10042640     LIBCMT:llmul.obj
 0001:000416aa       ?wcstoxl@@YAKPB_WPAPB_WHH@Z 100426aa f   LIBCMT:wcstol.obj
 0001:000418eb       ?wcstoxq@@YA_KPAUlocaleinfo_struct@@PB_WPAPB_WHH@Z 100428eb f   LIBCMT:wcstoq.obj
 0001:00042ad2       $LN323                     10043ad2     LIBCMT:wstrgtold.obj
 0002:00000140       _minFError$initializer$    10044140     RTreeCooking.obj
 0002:00000144       _maxFError$initializer$    10044144     RTreeCooking.obj
 0002:00000148       _minV3Error$initializer$   10044148     RTreeCooking.obj
 0002:0000014c       _maxV3Error$initializer$   1004414c     RTreeCooking.obj
 0002:00000150       _minV4Error$initializer$   10044150     RTreeCooking.obj
 0002:00000154       _maxV4Error$initializer$   10044154     RTreeCooking.obj
 0002:00000158       _minFError$initializer$    10044158     TriangleMeshBuilder.obj
 0002:0000015c       _maxFError$initializer$    1004415c     TriangleMeshBuilder.obj
 0002:00000160       _minV3Error$initializer$   10044160     TriangleMeshBuilder.obj
 0002:00000164       _maxV3Error$initializer$   10044164     TriangleMeshBuilder.obj
 0002:00000168       _minV4Error$initializer$   10044168     TriangleMeshBuilder.obj
 0002:0000016c       _maxV4Error$initializer$   1004416c     TriangleMeshBuilder.obj
 0002:00000170       _minFError$initializer$    10044170     ConvexMeshBuilder.obj
 0002:00000174       _maxFError$initializer$    10044174     ConvexMeshBuilder.obj
 0002:00000178       _minV3Error$initializer$   10044178     ConvexMeshBuilder.obj
 0002:0000017c       _maxV3Error$initializer$   1004417c     ConvexMeshBuilder.obj
 0002:00000180       _minV4Error$initializer$   10044180     ConvexMeshBuilder.obj
 0002:00000184       _maxV4Error$initializer$   10044184     ConvexMeshBuilder.obj
 0002:00000190       _pinit                     10044190     LIBCMT:cpu_disp.obj
 0002:00000194       _pinit                     10044194     LIBCMT:_file.obj
 0002:00000198       _pinit                     10044198     LIBCMT:mbctype.obj
 0002:0000019c       _pinit                     1004419c     LIBCMT:mathfcns.obj
 0002:000001a0       _pinit                     100441a0     LIBCMT:onexit.obj
 0002:000001ac       _pterm                     100441ac     LIBCMT:wsetloca.obj
 0002:000001b0       _pterm                     100441b0     LIBCMT:initcon.obj
 0002:000001b4       _pterm                     100441b4     LIBCMT:_file.obj
 0002:000003c4       _PxPi                      100443c4     HeightFieldCooking.obj
 0002:000004b0       _gMaskXYZ                  100444b0     RTreeCooking.obj
 0002:000004c0       _PxPi                      100444c0     RTreeCooking.obj
 0002:000004c4       _PxTwoPi                   100444c4     RTreeCooking.obj
 0002:000004c8       _PxInvPi                   100444c8     RTreeCooking.obj
 0002:000004cc       _PxInvTwoPi                100444cc     RTreeCooking.obj
 0002:000004d0       _PxPiDivTwo                100444d0     RTreeCooking.obj
 0002:000004d4       _stopAtTrisPerPage         100444d4     RTreeCooking.obj
 0002:00000510       _stopAtTrisPerLeaf         10044510     RTreeCooking.obj
 0002:000007a0       _gMaskXYZ                  100447a0     TriangleMeshBuilder.obj
 0002:000007b0       _PxPi                      100447b0     TriangleMeshBuilder.obj
 0002:000007b4       _PxTwoPi                   100447b4     TriangleMeshBuilder.obj
 0002:000007b8       _PxInvPi                   100447b8     TriangleMeshBuilder.obj
 0002:000007bc       _PxInvTwoPi                100447bc     TriangleMeshBuilder.obj
 0002:000007c0       _PxPiDivTwo                100447c0     TriangleMeshBuilder.obj
 0002:000008c0       _PxPi                      100448c0     BigConvexDataBuilder.obj
 0002:00000920       _PxPi                      10044920     ConvexHullBuilder.obj
 0002:00000c40       _gMaskXYZ                  10044c40     ConvexMeshBuilder.obj
 0002:00000c50       _PxPi                      10044c50     ConvexMeshBuilder.obj
 0002:00000c54       _PxTwoPi                   10044c54     ConvexMeshBuilder.obj
 0002:00000c58       _PxInvPi                   10044c58     ConvexMeshBuilder.obj
 0002:00000c5c       _PxInvTwoPi                10044c5c     ConvexMeshBuilder.obj
 0002:00000c60       _PxPiDivTwo                10044c60     ConvexMeshBuilder.obj
 0002:00000f60       _minadjangle               10044f60     hulllib.obj
 0002:00001040       _PxPi                      10045040     VolumeIntegration.obj
 0002:00001284       _PxPi                      10045284     Cooking.obj
 0002:000015d4       _PxPi                      100455d4     EdgeList.obj
 0002:00001760       _PxPi                      10045760     InternalTriangleMeshBuilder.obj
 0002:000018e0       _Int32ToUInt32             100458e0     LIBCMT:ftol3.obj
 0002:000018f0       _MantissaMask              100458f0     LIBCMT:ftol3.obj
 0002:000018f8       _IntegerBit                100458f8     LIBCMT:ftol3.obj
 0002:00001900       _SignBit64                 10045900     LIBCMT:ftol3.obj
 0002:00001908       _MinFP64                   10045908     LIBCMT:ftol3.obj
 0002:00001910       _MinInt64                  10045910     LIBCMT:ftol3.obj
 0002:00001918       _MaxInt64                  10045918     LIBCMT:ftol3.obj
 0002:00001920       _MaxUInt64                 10045920     LIBCMT:ftol3.obj
 0002:00001928       _MaxFP32                   10045928     LIBCMT:ftol3.obj
 0002:00001930       _MinFP32                   10045930     LIBCMT:ftol3.obj
 0002:00001938       _MinSubInexact             10045938     LIBCMT:ftol3.obj
 0002:00001940       _FpExcptTable              10045940     LIBCMT:ftol3.obj
 0002:00001950       _i1075                     10045950     LIBCMT:ftol3.obj
 0002:00001954       _i1087                     10045954     LIBCMT:ftol3.obj
 0002:00001958       _x0800                     10045958     LIBCMT:ftol3.obj
 0002:0000195c       _x17FF                     1004595c     LIBCMT:ftol3.obj
 0002:00001960       _CWMask                    10045960     LIBCMT:ftol3.obj
 0002:00001980       _T_tbl                     10045980     LIBCMT:powf_sse2.obj
 0002:00001b90       _B_table                   10045b90     LIBCMT:powf_sse2.obj
 0002:00001da0       _exp2_tbl                  10045da0     LIBCMT:powf_sse2.obj
 0002:00001ea0       _cv                        10045ea0     LIBCMT:powf_sse2.obj
 0002:00001ec0       _cev                       10045ec0     LIBCMT:powf_sse2.obj
 0002:00001ee0       _ABSVALS                   10045ee0     LIBCMT:powf_sse2.obj
 0002:00001ef0       _ABSVALMASK                10045ef0     LIBCMT:powf_sse2.obj
 0002:00001ef8       _SIGMASK                   10045ef8     LIBCMT:powf_sse2.obj
 0002:00001f00       _EXPMASK                   10045f00     LIBCMT:powf_sse2.obj
 0002:00001f08       _SCALE5                    10045f08     LIBCMT:powf_sse2.obj
 0002:00001f10       _Shifter                   10045f10     LIBCMT:powf_sse2.obj
 0002:00001f18       _NEG_ZEROD                 10045f18     LIBCMT:powf_sse2.obj
 0002:00001f20       _INF                       10045f20     LIBCMT:powf_sse2.obj
 0002:00001f24       _NEG_INF                   10045f24     LIBCMT:powf_sse2.obj
 0002:00001f28       _ONEMASK                   10045f28     LIBCMT:powf_sse2.obj
 0002:00001f2c       _NEG_ZERO                  10045f2c     LIBCMT:powf_sse2.obj
 0002:00001f30       _sNaN                      10045f30     LIBCMT:powf_sse2.obj
 0002:00001f34       _dword_mask                10045f34     LIBCMT:powf_sse2.obj
 0002:00001f40       _Ctable                    10045f40     LIBCMT:cosf_sse2.obj
 0002:00002340       _BIT_31                    10046340     LIBCMT:cosf_sse2.obj
 0002:00002350       _P_2                       10046350     LIBCMT:cosf_sse2.obj
 0002:00002358       _P_1                       10046358     LIBCMT:cosf_sse2.obj
 0002:00002360       _ONE                       10046360     LIBCMT:cosf_sse2.obj
 0002:00002368       _S_1                       10046368     LIBCMT:cosf_sse2.obj
 0002:00002370       _S_2                       10046370     LIBCMT:cosf_sse2.obj
 0002:00002378       _C_1                       10046378     LIBCMT:cosf_sse2.obj
 0002:00002380       _C_2                       10046380     LIBCMT:cosf_sse2.obj
 0002:00002388       _PI_32_RECIP               10046388     LIBCMT:cosf_sse2.obj
 0002:00002390       _SHIFTER                   10046390     LIBCMT:cosf_sse2.obj
 0002:000023a0       _Ctable                    100463a0     LIBCMT:sinf_sse2.obj
 0002:000027a0       _BIT_31                    100467a0     LIBCMT:sinf_sse2.obj
 0002:000027b0       _P_2                       100467b0     LIBCMT:sinf_sse2.obj
 0002:000027b8       _P_1                       100467b8     LIBCMT:sinf_sse2.obj
 0002:000027c0       _ONE                       100467c0     LIBCMT:sinf_sse2.obj
 0002:000027c8       _S_1                       100467c8     LIBCMT:sinf_sse2.obj
 0002:000027d0       _S_2                       100467d0     LIBCMT:sinf_sse2.obj
 0002:000027d8       _C_1                       100467d8     LIBCMT:sinf_sse2.obj
 0002:000027e0       _C_2                       100467e0     LIBCMT:sinf_sse2.obj
 0002:000027e8       _ONE_M230                  100467e8     LIBCMT:sinf_sse2.obj
 0002:000027f0       _PI_32_RECIP               100467f0     LIBCMT:sinf_sse2.obj
 0002:000027f8       _SHIFTER                   100467f8     LIBCMT:sinf_sse2.obj
 0002:00002d10       __mb_locale_names          10046d10     LIBCMT:mbctype.obj
 0002:000030b0       _tokenTable                100470b0     LIBCMT:undname.obj
 0002:000030e8       _nameTable                 100470e8     LIBCMT:undname.obj
 0002:00003228       _rttiTable                 10047228     LIBCMT:undname.obj
 0002:00003c0c       ?ExceptionTemplate@?1??_CxxThrowException@@9@8@4UEHExceptionRecord@@B 10047c0c     LIBCMT:throw.obj
 0002:00003c90       Ctable                     10047c90     LIBCMT:cos_pentium4.obj
 0002:00004490       SC_1                       10048490     LIBCMT:cos_pentium4.obj
 0002:000044a0       SC_2                       100484a0     LIBCMT:cos_pentium4.obj
 0002:000044b0       SC_3                       100484b0     LIBCMT:cos_pentium4.obj
 0002:000044c0       SC_4                       100484c0     LIBCMT:cos_pentium4.obj
 0002:000044d0       PI32INV                    100484d0     LIBCMT:cos_pentium4.obj
 0002:000044d8       SHIFTER                    100484d8     LIBCMT:cos_pentium4.obj
 0002:000044e0       P_2                        100484e0     LIBCMT:cos_pentium4.obj
 0002:000044f0       P_1                        100484f0     LIBCMT:cos_pentium4.obj
 0002:000044f8       P_3                        100484f8     LIBCMT:cos_pentium4.obj
 0002:00004500       TWO_POW_55                 10048500     LIBCMT:cos_pentium4.obj
 0002:00004508       TWO_POW_M55                10048508     LIBCMT:cos_pentium4.obj
 0002:00004510       ALL_ONES                   10048510     LIBCMT:cos_pentium4.obj
 0002:00004518       NEG_ZERO                   10048518     LIBCMT:cos_pentium4.obj
 0002:00004520       ONE                        10048520     LIBCMT:cos_pentium4.obj
 0002:00004530       SIGN_MASK                  10048530     LIBCMT:cos_pentium4.obj
 0002:00004554       One                        10048554     LIBCMT:87disp.obj
 0002:0000455c       XAMtoTagTab                1004855c     LIBCMT:87disp.obj
 0002:00004570       One                        10048570     LIBCMT:common.obj
 0002:00004584       DblMax                     10048584     LIBCMT:common.obj
 0002:0000458c       DblMin                     1004858c     LIBCMT:common.obj
 0002:00004594       IeeeAdjO                   10048594     LIBCMT:common.obj
 0002:0000459c       IeeeAdjU                   1004859c     LIBCMT:common.obj
 0002:000045a4       _infinity                  100485a4     LIBCMT:common.obj
 0002:000045ac       _zero                      100485ac     LIBCMT:common.obj
 0002:000045c0       Ctable                     100485c0     LIBCMT:sin_pentium4.obj
 0002:00004dc0       SC_1                       10048dc0     LIBCMT:sin_pentium4.obj
 0002:00004dd0       SC_2                       10048dd0     LIBCMT:sin_pentium4.obj
 0002:00004de0       SC_3                       10048de0     LIBCMT:sin_pentium4.obj
 0002:00004df0       SC_4                       10048df0     LIBCMT:sin_pentium4.obj
 0002:00004e00       PI32INV                    10048e00     LIBCMT:sin_pentium4.obj
 0002:00004e08       SHIFTER                    10048e08     LIBCMT:sin_pentium4.obj
 0002:00004e10       P_2                        10048e10     LIBCMT:sin_pentium4.obj
 0002:00004e20       P_1                        10048e20     LIBCMT:sin_pentium4.obj
 0002:00004e28       P_3                        10048e28     LIBCMT:sin_pentium4.obj
 0002:00004e30       TWO_POW_55                 10048e30     LIBCMT:sin_pentium4.obj
 0002:00004e38       TWO_POW_M55                10048e38     LIBCMT:sin_pentium4.obj
 0002:00004e40       ALL_ONES                   10048e40     LIBCMT:sin_pentium4.obj
 0002:00004e48       NEG_ZERO                   10048e48     LIBCMT:sin_pentium4.obj
 0002:00004e50       ONE                        10048e50     LIBCMT:sin_pentium4.obj
 0002:00006ed8       _rterrs                    1004aed8     LIBCMT:crt0msg.obj
 0002:00007a38       __first_127char            1004ba38     LIBCMT:wsetloca.obj
 0002:00007afc       _GS_ExceptionPointers      1004bafc     LIBCMT:gs_report.obj
 0002:000095c0       __sehtable$_printf         1004d5c0     LIBCMT:printf.obj
 0002:000095e0       __sehtable$__CRT_INIT@12   1004d5e0     LIBCMT:dllcrt0.obj
 0002:00009600       __sehtable$___DllMainCRTStartup 1004d600     LIBCMT:dllcrt0.obj
 0002:00009620       __sehtable$?_Name_base@type_info@@CAPBDPBV1@PAU__type_info_node@@@Z 1004d620     LIBCMT:typname.obj
 0002:00009640       __sehtable$?_Type_info_dtor@type_info@@CAXPAV1@@Z 1004d640     LIBCMT:typname.obj
 0002:00009660       __sehtable$?_Name_base_internal@type_info@@CAPBDPBV1@PAU__type_info_node@@@Z 1004d660     LIBCMT:typname.obj
 0002:00009680       __sehtable$?_Type_info_dtor_internal@type_info@@CAXPAV1@@Z 1004d680     LIBCMT:typname.obj
 0002:000096a0       __sehtable$___clean_type_info_names_internal 1004d6a0     LIBCMT:typname.obj
 0002:00009710       __sehtable$___set_fpsr_sse2 1004d710     LIBCMT:fpctrl.obj
 0002:00009730       __sehtable$_vprintf_helper 1004d730     LIBCMT:vprintf.obj
 0002:00009750       __sehtable$__freefls@4     1004d750     LIBCMT:tidtable.obj
 0002:00009778       __sehtable$__initptd       1004d778     LIBCMT:tidtable.obj
 0002:000097a0       __sehtable$_doexit         1004d7a0     LIBCMT:crt0dat.obj
 0002:000097c0       __sehtable$__ioinit        1004d7c0     LIBCMT:ioinit.obj
 0002:000097e0       __sehtable$___updatetlocinfo 1004d7e0     LIBCMT:localref.obj
 0002:00009800       __sehtable$___updatetmbcinfo 1004d800     LIBCMT:mbctype.obj
 0002:00009820       __sehtable$__setmbcp       1004d820     LIBCMT:mbctype.obj
 0002:00009840       __sehtable$__mtinitlocknum 1004d840     LIBCMT:mlock.obj
 0002:00009860       __sehtable$___unDName      1004d860     LIBCMT:undname.obj
 0002:00009880       __sehtable$___unDNameEx    1004d880     LIBCMT:undname.obj
 0002:000098a0       __sehtable$__fcloseall     1004d8a0     LIBCMT:closeall.obj
 0002:000098c0       __sehtable$_fflush         1004d8c0     LIBCMT:fflush.obj
 0002:000098e0       __sehtable$_flsall         1004d8e0     LIBCMT:fflush.obj
 0002:00009908       __sehtable$__IsNonwritableInCurrentImage 1004d908     LIBCMT:pesect.obj
 0002:00009928       __sehtable$_signal         1004d928     LIBCMT:winsig.obj
 0002:00009948       __sehtable$_raise          1004d948     LIBCMT:winsig.obj
 0002:00009968       __sehtable$_ctrlevent_capture@4 1004d968     LIBCMT:winsig.obj
 0002:00009988       __sehtable$__onexit        1004d988     LIBCMT:onexit.obj
 0002:000099a8       __sehtable$?terminate@@YAXXZ 1004d9a8     LIBCMT:hooks.obj
 0002:000099c8       __sehtable$?_inconsistency@@YAXXZ 1004d9c8     LIBCMT:hooks.obj
 0002:000099e8       __sehtable$__get_current_locale 1004d9e8     LIBCMT:wsetloca.obj
 0002:00009a10       __sehtable$__free_locale   1004da10     LIBCMT:wsetloca.obj
 0002:00009a38       __sehtable$__wsetlocale    1004da38     LIBCMT:wsetloca.obj
 0002:00009a70       __sehtable$__locterm       1004da70     LIBCMT:wsetloca.obj
 0002:00009a90       __sehtable$_fclose         1004da90     LIBCMT:fclose.obj
 0002:00009ab0       __sehtable$__commit        1004dab0     LIBCMT:commit.obj
 0002:00009ad0       __sehtable$__write         1004dad0     LIBCMT:write.obj
 0002:00009af0       __sehtable$__lseeki64      1004daf0     LIBCMT:lseeki64.obj
 0002:00009b10       __sehtable$__close         1004db10     LIBCMT:close.obj
 0002:00009b30       __sehtable$__alloc_osfhnd  1004db30     LIBCMT:osfinfo.obj
 0002:00009b58       __sehtable$___lock_fhandle 1004db58     LIBCMT:osfinfo.obj
 0002:00009b78       __sehtable$__open_osfhandle 1004db78     LIBCMT:osfinfo.obj
 0002:00009b98       __sehtable$__putwch        1004db98     LIBCMT:putwch.obj
 0002:0000ae70       .edata                     1004ee70     PhysX3Cooking_x86.exp
 0002:0000ae98       rgpv                       1004ee98     PhysX3Cooking_x86.exp
 0002:0000aea0       rgszName                   1004eea0     PhysX3Cooking_x86.exp
 0002:0000aea8       rgwOrd                     1004eea8     PhysX3Cooking_x86.exp
 0002:0000aeac       szName                     1004eeac     PhysX3Cooking_x86.exp
 0002:0000aec2       $N00001                    1004eec2     PhysX3Cooking_x86.exp
 0002:0000aed2       $N00002                    1004eed2     PhysX3Cooking_x86.exp
 0002:0000b07e       .idata$6                   1004f07e     kernel32:KERNEL32.dll
 0003:00000000       _physXCommonDebugx64       10050000     WindowsCookingDelayLoadHook.obj
 0003:00000004       _physXCommonCheckedx64     10050004     WindowsCookingDelayLoadHook.obj
 0003:00000008       _physXCommonProfilex64     10050008     WindowsCookingDelayLoadHook.obj
 0003:0000000c       _physXCommonReleasex64     1005000c     WindowsCookingDelayLoadHook.obj
 0003:00000010       _physXCommonDebugx86       10050010     WindowsCookingDelayLoadHook.obj
 0003:00000014       _physXCommonCheckedx86     10050014     WindowsCookingDelayLoadHook.obj
 0003:00000018       _physXCommonProfilex86     10050018     WindowsCookingDelayLoadHook.obj
 0003:0000001c       _physXCommonReleasex86     1005001c     WindowsCookingDelayLoadHook.obj
 0003:00000020       _physXCommonDebugARM       10050020     WindowsCookingDelayLoadHook.obj
 0003:00000024       _physXCommonCheckedARM     10050024     WindowsCookingDelayLoadHook.obj
 0003:00000028       _physXCommonProfileARM     10050028     WindowsCookingDelayLoadHook.obj
 0003:0000002c       _physXCommonReleaseARM     1005002c     WindowsCookingDelayLoadHook.obj
 0003:000000a4       ?er@?1??neib@Tri@physx@@QAEAAHHH@Z@4HA 100500a4     hulllib.obj
 0003:00000100       ?_names@?1??_get_fname@@9@9 10050100     LIBCMT:fpexcept.obj
 0003:00000210       _over                      10050210     LIBCMT:fpctrl.obj
 0003:0000021c       _under                     1005021c     LIBCMT:fpctrl.obj
 0003:00000228       ?__DAZ_ENABLED@?1??__set_fpsr_sse2@@9@9 10050228     LIBCMT:fpctrl.obj
 0003:000004b8       _errtable                  100504b8     LIBCMT:dosmap.obj
 0003:00000620       _ErrnoNoMem                10050620     LIBCMT:dosmap.obj
 0003:00000624       _DoserrorNoMem             10050624     LIBCMT:dosmap.obj
 0003:00000640       _NAME_                     10050640     LIBCMT:cos.obj
 0003:00000650       _NAME_                     10050650     LIBCMT:sin.obj
 0003:000006a0       ?isPackaged@?1??__crtIsPackagedApp@@9@9 100506a0     LIBCMT:winapisupp.obj
 0003:00000ad0       ___rgctypeflag             10050ad0     LIBCMT:mbctype.obj
 0003:00000ad8       ___rgcode_page_info        10050ad8     LIBCMT:mbctype.obj
 0003:00000e08       __locktable                10050e08     LIBCMT:mlock.obj
 0003:00000f9c       __ctype_loc_style          10050f9c     LIBCMT:wsetloca.obj
 0003:00000fa0       _DoubleFormat              10050fa0     LIBCMT:intrncvt.obj
 0003:00000fb8       _FloatFormat               10050fb8     LIBCMT:intrncvt.obj
 0003:00001800       _gDelayLoadHook            10051800     WindowsCookingDelayLoadHook.obj
 0003:00001810       _minV4Error                10051810     RTreeCooking.obj
 0003:00001820       _maxV4Error                10051820     RTreeCooking.obj
 0003:00001830       _minFError                 10051830     RTreeCooking.obj
 0003:00001840       _minV3Error                10051840     RTreeCooking.obj
 0003:00001850       _maxV3Error                10051850     RTreeCooking.obj
 0003:00001860       _maxFError                 10051860     RTreeCooking.obj
 0003:00001870       _minV4Error                10051870     TriangleMeshBuilder.obj
 0003:00001880       _maxV4Error                10051880     TriangleMeshBuilder.obj
 0003:00001890       _minFError                 10051890     TriangleMeshBuilder.obj
 0003:000018a0       _minV3Error                100518a0     TriangleMeshBuilder.obj
 0003:000018b0       _maxV3Error                100518b0     TriangleMeshBuilder.obj
 0003:000018c0       _maxFError                 100518c0     TriangleMeshBuilder.obj
 0003:000018d0       _minV4Error                100518d0     ConvexMeshBuilder.obj
 0003:000018e0       _maxV4Error                100518e0     ConvexMeshBuilder.obj
 0003:000018f0       _minFError                 100518f0     ConvexMeshBuilder.obj
 0003:00001900       _minV3Error                10051900     ConvexMeshBuilder.obj
 0003:00001910       _maxV3Error                10051910     ConvexMeshBuilder.obj
 0003:00001920       _maxFError                 10051920     ConvexMeshBuilder.obj
 0003:00001944       ___enable_percent_n        10051944     LIBCMT:printf.obj
 0003:00001948       ___proc_attached           10051948     LIBCMT:dllcrt0.obj
 0003:0000195c       ___type_info_root_node     1005195c     LIBCMT:typname.obj
 0003:00001ab0       ?_pgmname@?1??_setargv@@9@9 10051ab0     LIBCMT:stdargv.obj
 0003:00001bd4       _fSystemSet                10051bd4     LIBCMT:mbctype.obj
 0003:00001be0       _lclcritsects              10051be0     LIBCMT:mlock.obj
 0003:00001d58       _heap                      10051d58     LIBCMT:undname.obj
 0003:00001da4       _ctrlc_action              10051da4     LIBCMT:winsig.obj
 0003:00001da8       _ctrlbreak_action          10051da8     LIBCMT:winsig.obj
 0003:00001dac       _abort_action              10051dac     LIBCMT:winsig.obj
 0003:00001db0       _term_action               10051db0     LIBCMT:winsig.obj
 0003:00001db4       _ConsoleCtrlHandler_Installed 10051db4     LIBCMT:winsig.obj
 0003:00001db8       ___crtCallProc             10051db8     LIBCMT:winapinls.obj
 0003:00001dc8       ?outmsg@?9??_NMSG_WRITE@@9@9 10051dc8     LIBCMT:crt0msg.obj
 0003:000023f4       _g_pfnRtlGenRandom         100523f4     LIBCMT:rand_s.obj
 0003:00002408       _GS_ExceptionRecord        10052408     LIBCMT:gs_report.obj
 0003:00002458       _GS_ContextRecord          10052458     LIBCMT:gs_report.obj
 0003:00002724       _DebuggerWasPresent        10052724     LIBCMT:gs_report.obj
 0003:00002730       ?pfnMessageBox@?1??__crtMessageBoxW@@9@9 10052730     LIBCMT:crtmboxw.obj
 0003:00002734       ?pfnGetActiveWindow@?1??__crtMessageBoxW@@9@9 10052734     LIBCMT:crtmboxw.obj
 0003:00002738       ?pfnGetLastActivePopup@?1??__crtMessageBoxW@@9@9 10052738     LIBCMT:crtmboxw.obj
 0003:0000273c       ?pfnGetProcessWindowStation@?1??__crtMessageBoxW@@9@9 1005273c     LIBCMT:crtmboxw.obj
 0003:00002740       ?pfnGetUserObjectInformation@?1??__crtMessageBoxW@@9@9 10052740     LIBCMT:crtmboxw.obj
 0004:000000a0       $R000000                   100540a0     PhysX3Cooking.res
 0004:000003d8       $R000338                   100543d8     PhysX3Cooking.res
