 PhysX3CommonDEBUG_x86

 Timestamp is 59432fec (Thu Jun 15 18:10:04 2017)

 Preferred load address is 10000000

 Start         Length     Name                   Class
 0001:00000000 00017fa0H .text$di                CODE
 0001:00017fa0 001466e0H .text$mn                CODE
 0001:0015e680 00001012H .text$yd                CODE
 0002:00000000 00000104H .CRT$XCA                DATA
 0002:00000104 00000cfcH .CRT$XCU                DATA
 0002:00000e00 00000104H .CRT$XCZ                DATA
 0002:00000f04 00000104H .CRT$XIA                DATA
 0002:00001008 00000104H .CRT$XIZ                DATA
 0002:0000110c 00000104H .CRT$XPA                DATA
 0002:00001210 00000104H .CRT$XPZ                DATA
 0002:00001314 00000104H .CRT$XTA                DATA
 0002:00001418 00000108H .CRT$XTZ                DATA
 0002:00001520 0000bea4H .rdata                  DATA
 0002:0000d3c4 0000027cH .rdata$r                DATA
 0002:0000d640 0000010cH .rdata$sxdata           DATA
 0002:0000d74c 00000194H .rdata$zzzdbg           DATA
 0002:0000d8e0 00000104H .rtc$IAA                DATA
 0002:0000d9e4 00000384H .rtc$IMZ                DATA
 0002:0000dd68 00000104H .rtc$IZZ                DATA
 0002:0000de6c 00000104H .rtc$TAA                DATA
 0002:0000df70 00000384H .rtc$TMZ                DATA
 0002:0000e2f4 00000104H .rtc$TZZ                DATA
 0002:0000e3f8 000002b8H .xdata$x                DATA
 0002:0000e6b0 00016f4fH .edata                  DATA
 0003:00000000 000005e4H .data                   DATA
 0003:000005e4 0000040cH .data$r                 DATA
 0003:000009f0 00003e90H .bss                    DATA
 0004:00000000 00000354H .idata$5                DATA
 0004:00000354 00000050H .idata$2                DATA
 0004:000003a4 00000014H .idata$3                DATA
 0004:000003b8 00000354H .idata$4                DATA
 0004:0000070c 00000a95H .idata$6                DATA
 0005:00000000 00000173H .gfids$y                DATA
 0006:00000000 00000104H .00cfg                  DATA
 0007:00000000 000001c0H .rsrc$01                DATA
 0007:000001c0 000006a9H .rsrc$02                DATA

  Address         Publics by Value              Rva+Base       Lib:Object

 0000:00000000       ___guard_fids_count        00000000     <absolute>
 0000:00000000       ___guard_iat_table         00000000     <absolute>
 0000:00000000       ___guard_longjmp_table     00000000     <absolute>
 0000:00000000       ___guard_iat_count         00000000     <absolute>
 0000:00000000       ___guard_longjmp_count     00000000     <absolute>
 0000:00000000       ___dynamic_value_reloc_table 00000000     <absolute>
 0000:00000000       ___guard_fids_table        00000000     <absolute>
 0000:00000002       ___safe_se_handler_count   00000002     <absolute>
 0000:00000100       ___guard_flags             00000100     <absolute>
 0000:00000000       ___ImageBase               10000000     <linker-defined>
 0001:00017fa0       ?atomicExchange@shdfnd@physx@@YAHPCHH@Z 10018fa0 f   PsWindowsAtomic.obj
 0001:00017fb0       ?atomicCompareExchange@shdfnd@physx@@YAHPCHHH@Z 10018fb0 f   PsWindowsAtomic.obj
 0001:00017fd0       ?atomicCompareExchangePointer@shdfnd@physx@@YAPAXPAPCXPAX1@Z 10018fd0 f   PsWindowsAtomic.obj
 0001:00017ff0       ?atomicIncrement@shdfnd@physx@@YAHPCH@Z 10018ff0 f   PsWindowsAtomic.obj
 0001:00018010       ?atomicDecrement@shdfnd@physx@@YAHPCH@Z 10019010 f   PsWindowsAtomic.obj
 0001:00018030       ?atomicAdd@shdfnd@physx@@YAHPCHH@Z 10019030 f   PsWindowsAtomic.obj
 0001:00018060       ?atomicMax@shdfnd@physx@@YAHPCHH@Z 10019060 f   PsWindowsAtomic.obj
 0001:000180e0       __InlineInterlockedCompareExchangePointer 100190e0 f i PsWindowsAtomic.obj
 0001:00018100       ?getCpuId@Cpu@shdfnd@physx@@SAEXZ 10019100 f   PsWindowsCpu.obj
 0001:00018150       ??0FPUGuard@shdfnd@physx@@QAE@XZ 10019150 f   PsWindowsFPU.obj
 0001:000181a0       ??1FPUGuard@shdfnd@physx@@QAE@XZ 100191a0 f   PsWindowsFPU.obj
 0001:00018200       ?enableFPExceptions@shdfnd@physx@@YAXXZ 10019200 f   PsWindowsFPU.obj
 0001:00018220       ?disableFPExceptions@shdfnd@physx@@YAXXZ 10019220 f   PsWindowsFPU.obj
 0001:00018280       ??4FPUGuard@shdfnd@physx@@QAEAAV012@ABV012@@Z 10019280 f i PsWindowsFPU.obj
 0001:000182b0       ??0MemoryMappedFile@shdfnd@physx@@QAE@PBDI@Z 100192b0 f   PsWindowsMemoryMappedFile.obj
 0001:00018370       ??1MemoryMappedFile@shdfnd@physx@@QAE@XZ 10019370 f   PsWindowsMemoryMappedFile.obj
 0001:000183d0       ?getBaseAddress@MemoryMappedFile@shdfnd@physx@@QAEPAXXZ 100193d0 f   PsWindowsMemoryMappedFile.obj
 0001:00018430       ??0Allocator@shdfnd@physx@@QAE@PBD@Z 10019430 f i PsWindowsMemoryMappedFile.obj
 0001:00018450       ??0PxFoundation@physx@@QAE@ABV01@@Z 10019450 f i PsWindowsMemoryMappedFile.obj
 0001:00018470       ??0PxFoundation@physx@@QAE@XZ 10019470 f i PsWindowsMemoryMappedFile.obj
 0001:00018490       ??1PxFoundation@physx@@MAE@XZ 10019490 f i PsWindowsMemoryMappedFile.obj
 0001:000184b0       ??4Allocator@shdfnd@physx@@QAEAAV012@$$QAV012@@Z 100194b0 f i PsWindowsMemoryMappedFile.obj
 0001:000184d0       ??4Allocator@shdfnd@physx@@QAEAAV012@ABV012@@Z 100194d0 f i PsWindowsMemoryMappedFile.obj
 0001:000184f0       ??4ErrorHandler@shdfnd@physx@@QAEAAV012@ABV012@@Z 100194f0 f i PsWindowsMemoryMappedFile.obj
 0001:00018530       ??4MutexImpl@shdfnd@physx@@QAEAAV012@ABV012@@Z 10019530 f i PsWindowsMemoryMappedFile.obj
 0001:00018550       ??4PAUtils@shdfnd@physx@@QAEAAV012@ABV012@@Z 10019550 f i PsWindowsMemoryMappedFile.obj
 0001:00018570       ??4PxFoundation@physx@@QAEAAV01@ABV01@@Z 10019570 f i PsWindowsMemoryMappedFile.obj
 0001:00018590       ??_EPxFoundation@physx@@MAEPAXI@Z 10019590 f i PsWindowsMemoryMappedFile.obj
 0001:00018630       ??_FAllocator@shdfnd@physx@@QAEXXZ 10019630 f i PsWindowsMemoryMappedFile.obj
 0001:00018650       ??_FNamedAllocator@shdfnd@physx@@QAEXXZ 10019650 f i PsWindowsMemoryMappedFile.obj
 0001:00018670       ??_GPxFoundation@physx@@MAEPAXI@Z 10019670 f i PsWindowsMemoryMappedFile.obj
 0001:000186b0       ??_I@YGXPAXIIP6EX0@Z@Z     100196b0 f i PsWindowsMemoryMappedFile.obj
 0001:00018720       ?getAllocator@Foundation@shdfnd@physx@@UBEAAVPxBroadcastingAllocator@3@XZ 10019720 f i PsWindowsMemoryMappedFile.obj
 0001:00018740       ?getCallbackCount@ErrorHandler@shdfnd@physx@@QBEIXZ 10019740 f i PsWindowsMemoryMappedFile.obj
 0001:00018760       ?getCheckedAllocator@Foundation@shdfnd@physx@@QAEAAVPxAllocatorCallback@3@XZ 10019760 f i PsWindowsMemoryMappedFile.obj
 0001:00018780       ?getErrorCallback@ErrorHandler@shdfnd@physx@@QBEPAVPxErrorCallback@3@H@Z 10019780 f i PsWindowsMemoryMappedFile.obj
 0001:000187a0       ?getErrorHandler@Foundation@shdfnd@physx@@QAEAAVErrorHandler@23@XZ 100197a0 f i PsWindowsMemoryMappedFile.obj
 0001:000187c0       ?getErrorMutex@Foundation@shdfnd@physx@@QAEAAV?$MutexT@VAllocator@shdfnd@physx@@@23@XZ 100197c0 f i PsWindowsMemoryMappedFile.obj
 0001:000187e0       ?getMaxCallbackNum@ErrorHandler@shdfnd@physx@@QBEIXZ 100197e0 f i PsWindowsMemoryMappedFile.obj
 0001:00018800       ?getNamedAllocMap@Foundation@shdfnd@physx@@QAEAAV?$HashMap@PBVNamedAllocator@shdfnd@physx@@PBDU?$Hash@PBVNamedAllocator@shdfnd@physx@@@23@VNonTrackingAllocator@23@@23@XZ 10019800 f i PsWindowsMemoryMappedFile.obj
 0001:00018820       ?getNamedAllocMutex@Foundation@shdfnd@physx@@QAEAAV?$MutexT@VAllocator@shdfnd@physx@@@23@XZ 10019820 f i PsWindowsMemoryMappedFile.obj
 0001:00018840       ?getPAUtils@Foundation@shdfnd@physx@@QAEAAVPAUtils@23@XZ 10019840 f i PsWindowsMemoryMappedFile.obj
 0001:00018860       ?getReportAllocationNames@Foundation@shdfnd@physx@@UBE_NXZ 10019860 f i PsWindowsMemoryMappedFile.obj
 0001:00018880       ?getTempAllocFreeTable@Foundation@shdfnd@physx@@QAEAAV?$Array@PATTempAllocatorChunk@shdfnd@physx@@VAllocator@23@@23@XZ 10019880 f i PsWindowsMemoryMappedFile.obj
 0001:000188a0       ?getTempAllocMutex@Foundation@shdfnd@physx@@QAEAAV?$MutexT@VAllocator@shdfnd@physx@@@23@XZ 100198a0 f i PsWindowsMemoryMappedFile.obj
 0001:000188c0       ?setReportAllocationNames@Foundation@shdfnd@physx@@UAEX_N@Z 100198c0 f i PsWindowsMemoryMappedFile.obj
 0001:000188e0       ??0PsModuleUpdateLoader@shdfnd@physx@@QAE@PBD@Z 100198e0 f   PsWindowsModuleUpdateLoader.obj
 0001:00018930       ??1PsModuleUpdateLoader@shdfnd@physx@@QAE@XZ 10019930 f   PsWindowsModuleUpdateLoader.obj
 0001:00018960       ?LoadModule@PsModuleUpdateLoader@shdfnd@physx@@QAEPAUHINSTANCE__@@PBD0@Z 10019960 f   PsWindowsModuleUpdateLoader.obj
 0001:000189e0       ??4PsModuleUpdateLoader@shdfnd@physx@@QAEAAV012@ABV012@@Z 100199e0 f i PsWindowsModuleUpdateLoader.obj
 0001:00018a10       ?loadLibrary@shdfnd@physx@@YGPAUHINSTANCE__@@PBD@Z 10019a10 f i PsWindowsModuleUpdateLoader.obj
 0001:00018a30       ??0MutexImpl@shdfnd@physx@@QAE@XZ 10019a30 f   PsWindowsMutex.obj
 0001:00018a70       ??1MutexImpl@shdfnd@physx@@QAE@XZ 10019a70 f   PsWindowsMutex.obj
 0001:00018a90       ?lock@MutexImpl@shdfnd@physx@@QAEXXZ 10019a90 f   PsWindowsMutex.obj
 0001:00018ad0       ?trylock@MutexImpl@shdfnd@physx@@QAE_NXZ 10019ad0 f   PsWindowsMutex.obj
 0001:00018b30       ?unlock@MutexImpl@shdfnd@physx@@QAEXXZ 10019b30 f   PsWindowsMutex.obj
 0001:00018b90       ?getSize@MutexImpl@shdfnd@physx@@SAABIXZ 10019b90 f   PsWindowsMutex.obj
 0001:00018ba0       ??0ReadWriteLock@shdfnd@physx@@QAE@XZ 10019ba0 f   PsWindowsMutex.obj
 0001:00018c20       ??1ReadWriteLock@shdfnd@physx@@QAE@XZ 10019c20 f   PsWindowsMutex.obj
 0001:00018c50       ?lockReader@ReadWriteLock@shdfnd@physx@@QAEXXZ 10019c50 f   PsWindowsMutex.obj
 0001:00018c80       ?lockWriter@ReadWriteLock@shdfnd@physx@@QAEXXZ 10019c80 f   PsWindowsMutex.obj
 0001:00018cb0       ?unlockReader@ReadWriteLock@shdfnd@physx@@QAEXXZ 10019cb0 f   PsWindowsMutex.obj
 0001:00018cd0       ?unlockWriter@ReadWriteLock@shdfnd@physx@@QAEXXZ 10019cd0 f   PsWindowsMutex.obj
 0001:00018db0       ??0?$MutexT@V?$ReflectionAllocator@VMutexImpl@shdfnd@physx@@@shdfnd@physx@@@shdfnd@physx@@QAE@ABV?$ReflectionAllocator@VMutexImpl@shdfnd@physx@@@12@@Z 10019db0 f i PsWindowsMutex.obj
 0001:00018e30       ??0?$ReflectionAllocator@VMutexImpl@shdfnd@physx@@@shdfnd@physx@@QAE@ABV012@@Z 10019e30 f i PsWindowsMutex.obj
 0001:00018e50       ??0?$ReflectionAllocator@VMutexImpl@shdfnd@physx@@@shdfnd@physx@@QAE@PBD@Z 10019e50 f i PsWindowsMutex.obj
 0001:00018e70       ??0ReadWriteLockImpl@shdfnd@physx@@QAE@XZ 10019e70 f i PsWindowsMutex.obj
 0001:00018ea0       ??1?$MutexT@V?$ReflectionAllocator@VMutexImpl@shdfnd@physx@@@shdfnd@physx@@@shdfnd@physx@@QAE@XZ 10019ea0 f i PsWindowsMutex.obj
 0001:00018ed0       ??1ReadWriteLockImpl@shdfnd@physx@@QAE@XZ 10019ed0 f i PsWindowsMutex.obj
 0001:00018ef0       ??2@YAPAXIPAX@Z            10019ef0 f i PsWindowsMutex.obj
 0001:00018f00       ??4ThreadImpl@shdfnd@physx@@QAEAAV012@ABV012@@Z 10019f00 f i PsWindowsMutex.obj
 0001:00018f20       ??_GMutexImpl@shdfnd@physx@@QAEPAXI@Z 10019f20 f i PsWindowsMutex.obj
 0001:00018f60       ??_GReadWriteLockImpl@shdfnd@physx@@QAEPAXI@Z 10019f60 f i PsWindowsMutex.obj
 0001:00018fa0       ?__empty_global_delete@@YAXPAX@Z 10019fa0 f i PsWindowsMutex.obj
 0001:00018fb0       ?__empty_global_delete@@YAXPAXI@Z 10019fb0 f i PsWindowsMutex.obj
 0001:00018fc0       ?allocate@?$ReflectionAllocator@VMutexImpl@shdfnd@physx@@@shdfnd@physx@@QAEPAXIPBDH@Z 10019fc0 f i PsWindowsMutex.obj
 0001:00019020       ?deallocate@?$ReflectionAllocator@VMutexImpl@shdfnd@physx@@@shdfnd@physx@@QAEXPAX@Z 1001a020 f i PsWindowsMutex.obj
 0001:00019060       ?getFoundation@shdfnd@physx@@YAAAVFoundation@12@XZ 1001a060 f i PsWindowsMutex.obj
 0001:00019070       ?getId@?$ThreadT@V?$ReflectionAllocator@VThreadImpl@shdfnd@physx@@@shdfnd@physx@@@shdfnd@physx@@SAIXZ 1001a070 f i PsWindowsMutex.obj
 0001:00019080       ?getName@?$ReflectionAllocator@VMutexImpl@shdfnd@physx@@@shdfnd@physx@@CAPBDXZ 1001a080 f i PsWindowsMutex.obj
 0001:000190d0       ?lock@?$MutexT@V?$ReflectionAllocator@VMutexImpl@shdfnd@physx@@@shdfnd@physx@@@shdfnd@physx@@QBEXXZ 1001a0d0 f i PsWindowsMutex.obj
 0001:000190f0       ?name@type_info@@QBEPBDXZ  1001a0f0 f i PsWindowsMutex.obj
 0001:00019120       ?unlock@?$MutexT@V?$ReflectionAllocator@VMutexImpl@shdfnd@physx@@@shdfnd@physx@@@shdfnd@physx@@QBEXXZ 1001a120 f i PsWindowsMutex.obj
 0001:00019140       ??0PAUtils@shdfnd@physx@@QAE@XZ 1001a140 f   PsWindowsPAEventSrc.obj
 0001:00019160       ??1PAUtils@shdfnd@physx@@QAE@XZ 1001a160 f   PsWindowsPAEventSrc.obj
 0001:000191a0       ?isEnabled@PAUtils@shdfnd@physx@@QAE_NXZ 1001a1a0 f   PsWindowsPAEventSrc.obj
 0001:000191d0       ?isEventEnabled@PAUtils@shdfnd@physx@@QAE_NG@Z 1001a1d0 f   PsWindowsPAEventSrc.obj
 0001:00019200       ?registerEvent@PAUtils@shdfnd@physx@@QAEGPBD@Z 1001a200 f   PsWindowsPAEventSrc.obj
 0001:00019270       ?startEvent@PAUtils@shdfnd@physx@@QAEXGG@Z 1001a270 f   PsWindowsPAEventSrc.obj
 0001:00019300       ?stopEvent@PAUtils@shdfnd@physx@@QAEXGG@Z 1001a300 f   PsWindowsPAEventSrc.obj
 0001:00019390       ?statEvent@PAUtils@shdfnd@physx@@QAEXGI@Z 1001a390 f   PsWindowsPAEventSrc.obj
 0001:000193d0       ?statEvent@PAUtils@shdfnd@physx@@QAEXGII@Z 1001a3d0 f   PsWindowsPAEventSrc.obj
 0001:00019400       ?debugEvent@PAUtils@shdfnd@physx@@QAEXGII@Z 1001a400 f   PsWindowsPAEventSrc.obj
 0001:00019430       ?rawEvent@PAUtils@shdfnd@physx@@QAEXGIIE@Z 1001a430 f   PsWindowsPAEventSrc.obj
 0001:00019470       ?rawEventWithTimestamp@PAUtils@shdfnd@physx@@QAE_NG_KIIE@Z 1001a470 f   PsWindowsPAEventSrc.obj
 0001:000194b0       ?lock@PAUtils@shdfnd@physx@@QAE_NXZ 1001a4b0 f   PsWindowsPAEventSrc.obj
 0001:00019520       ?unlock@PAUtils@shdfnd@physx@@QAE_NXZ 1001a520 f   PsWindowsPAEventSrc.obj
 0001:00019550       ??0ConnImpl@shdfnd@physx@@QAE@XZ 1001a550 f   PsWindowsPAEventSrc.obj
 0001:000197a0       ??1ConnImpl@shdfnd@physx@@QAE@XZ 1001a7a0 f   PsWindowsPAEventSrc.obj
 0001:000199b0       ??$?2V?$ReflectionAllocator@VConnImpl@shdfnd@physx@@@shdfnd@physx@@@UserAllocated@shdfnd@physx@@SAPAXIV?$ReflectionAllocator@VConnImpl@shdfnd@physx@@@12@PBDH@Z 1001a9b0 f i PsWindowsPAEventSrc.obj
 0001:000199d0       ??0?$ReflectionAllocator@VConnImpl@shdfnd@physx@@@shdfnd@physx@@QAE@PBD@Z 1001a9d0 f i PsWindowsPAEventSrc.obj
 0001:000199f0       ??3UserAllocated@shdfnd@physx@@SAXPAX@Z 1001a9f0 f i PsWindowsPAEventSrc.obj
 0001:00019a20       ??_GConnImpl@shdfnd@physx@@QAEPAXI@Z 1001aa20 f i PsWindowsPAEventSrc.obj
 0001:00019a80       ?GetProcID@ConnImpl@shdfnd@physx@@QAEEXZ 1001aa80 f i PsWindowsPAEventSrc.obj
 0001:00019ab0       ?GetThreadPriority@ConnImpl@shdfnd@physx@@QAEIXZ 1001aab0 f i PsWindowsPAEventSrc.obj
 0001:00019b10       ?allocate@?$ReflectionAllocator@VConnImpl@shdfnd@physx@@@shdfnd@physx@@QAEPAXIPBDH@Z 1001ab10 f i PsWindowsPAEventSrc.obj
 0001:00019b70       ?eventEnabled@ConnImpl@shdfnd@physx@@QAE_NG@Z 1001ab70 f i PsWindowsPAEventSrc.obj
 0001:00019bb0       ?eventLoggingEnabled@ConnImpl@shdfnd@physx@@QAE_NXZ 1001abb0 f i PsWindowsPAEventSrc.obj
 0001:00019bf0       ?getName@?$ReflectionAllocator@VConnImpl@shdfnd@physx@@@shdfnd@physx@@CAPBDXZ 1001abf0 f i PsWindowsPAEventSrc.obj
 0001:00019c40       ?registerEvent@ConnImpl@shdfnd@physx@@QAEGPBD@Z 1001ac40 f i PsWindowsPAEventSrc.obj
 0001:00019c80       ?submitEvent@ConnImpl@shdfnd@physx@@QAE_NGIIE@Z 1001ac80 f i PsWindowsPAEventSrc.obj
 0001:00019cd0       ?printFormatted@shdfnd@physx@@YAXPBDZZ 1001acd0 f   PsWindowsPrintString.obj
 0001:00019d20       ?printString@shdfnd@physx@@YAXPBD@Z 1001ad20 f   PsWindowsPrintString.obj
 0001:00019d70       ??$__vcrt_va_start_verify_argument_type@PBD@@YAXXZ 1001ad70 f i PsWindowsPrintString.obj
 0001:00019d80       ___local_stdio_printf_options 1001ad80 f i PsWindowsPrintString.obj
 0001:00019d90       __vsprintf_s_l             1001ad90 f i PsWindowsPrintString.obj
 0001:00019e00       _vsprintf_s                1001ae00 f i PsWindowsPrintString.obj
 0001:00019e30       ??0SListImpl@shdfnd@physx@@QAE@XZ 1001ae30 f   PsWindowsSList.obj
 0001:00019e60       ??1SListImpl@shdfnd@physx@@QAE@XZ 1001ae60 f   PsWindowsSList.obj
 0001:00019e70       ?push@SListImpl@shdfnd@physx@@QAEXPAVSListEntry@23@@Z 1001ae70 f   PsWindowsSList.obj
 0001:00019ea0       ?pop@SListImpl@shdfnd@physx@@QAEPAVSListEntry@23@XZ 1001aea0 f   PsWindowsSList.obj
 0001:00019ec0       ?flush@SListImpl@shdfnd@physx@@QAEPAVSListEntry@23@XZ 1001aec0 f   PsWindowsSList.obj
 0001:00019ee0       ?getSize@SListImpl@shdfnd@physx@@SAABIXZ 1001aee0 f   PsWindowsSList.obj
 0001:00019f30       ??4SListImpl@shdfnd@physx@@QAEAAU012@ABU012@@Z 1001af30 f i PsWindowsSList.obj
 0001:00019f50       ??0Socket@shdfnd@physx@@QAE@_N@Z 1001af50 f   PsWindowsSocket.obj
 0001:0001a040       ??1Socket@shdfnd@physx@@UAE@XZ 1001b040 f   PsWindowsSocket.obj
 0001:0001a0a0       ?connect@Socket@shdfnd@physx@@QAE_NPBDGI@Z 1001b0a0 f   PsWindowsSocket.obj
 0001:0001a0d0       ?listen@Socket@shdfnd@physx@@QAE_NGPAVConnection@123@@Z 1001b0d0 f   PsWindowsSocket.obj
 0001:0001a100       ?disconnect@Socket@shdfnd@physx@@QAEXXZ 1001b100 f   PsWindowsSocket.obj
 0001:0001a120       ?isConnected@Socket@shdfnd@physx@@QBE_NXZ 1001b120 f   PsWindowsSocket.obj
 0001:0001a140       ?getHost@Socket@shdfnd@physx@@QBEPBDXZ 1001b140 f   PsWindowsSocket.obj
 0001:0001a160       ?getPort@Socket@shdfnd@physx@@QBEGXZ 1001b160 f   PsWindowsSocket.obj
 0001:0001a180       ?flush@Socket@shdfnd@physx@@QAE_NXZ 1001b180 f   PsWindowsSocket.obj
 0001:0001a1c0       ?write@Socket@shdfnd@physx@@QAEIPBEI@Z 1001b1c0 f   PsWindowsSocket.obj
 0001:0001a200       ?read@Socket@shdfnd@physx@@QAEIPAEI@Z 1001b200 f   PsWindowsSocket.obj
 0001:0001a240       ?setBlocking@Socket@shdfnd@physx@@QAEX_N@Z 1001b240 f   PsWindowsSocket.obj
 0001:0001a280       ?isBlocking@Socket@shdfnd@physx@@QBE_NXZ 1001b280 f   PsWindowsSocket.obj
 0001:0001a2b0       ??0SocketImpl@shdfnd@physx@@QAE@XZ 1001b2b0 f   PsWindowsSocket.obj
 0001:0001a370       ??1SocketImpl@shdfnd@physx@@UAE@XZ 1001b370 f   PsWindowsSocket.obj
 0001:0001a3a0       ?connect@SocketImpl@shdfnd@physx@@QAE_NPBDGI@Z 1001b3a0 f   PsWindowsSocket.obj
 0001:0001a640       ?listen@SocketImpl@shdfnd@physx@@QAE_NGPAVConnection@Socket@23@@Z 1001b640 f   PsWindowsSocket.obj
 0001:0001a710       ?disconnect@SocketImpl@shdfnd@physx@@QAEXXZ 1001b710 f   PsWindowsSocket.obj
 0001:0001a7a0       ?setBlocking@SocketImpl@shdfnd@physx@@QAEX_N@Z 1001b7a0 f   PsWindowsSocket.obj
 0001:0001a800       ?write@SocketImpl@shdfnd@physx@@UAEIPBEI@Z 1001b800 f   PsWindowsSocket.obj
 0001:0001a860       ?flush@SocketImpl@shdfnd@physx@@UAE_NXZ 1001b860 f   PsWindowsSocket.obj
 0001:0001a870       ?read@SocketImpl@shdfnd@physx@@QAEIPAEI@Z 1001b870 f   PsWindowsSocket.obj
 0001:0001a930       ?execute@SocketImpl@shdfnd@physx@@UAEXXZ 1001b930 f   PsWindowsSocket.obj
 0001:0001a9a0       ??0BufferedSocketImpl@shdfnd@physx@@QAE@XZ 1001b9a0 f   PsWindowsSocket.obj
 0001:0001a9d0       ?flush@BufferedSocketImpl@shdfnd@physx@@UAE_NXZ 1001b9d0 f   PsWindowsSocket.obj
 0001:0001aa60       ?write@BufferedSocketImpl@shdfnd@physx@@UAEIPBEI@Z 1001ba60 f   PsWindowsSocket.obj
 0001:0001ae70       ??0?$ReflectionAllocator@VThreadImpl@shdfnd@physx@@@shdfnd@physx@@QAE@ABV012@@Z 1001be70 f i PsWindowsSocket.obj
 0001:0001ae90       ??0?$ReflectionAllocator@VThreadImpl@shdfnd@physx@@@shdfnd@physx@@QAE@PBD@Z 1001be90 f i PsWindowsSocket.obj
 0001:0001aeb0       ??0?$ThreadT@V?$ReflectionAllocator@VThreadImpl@shdfnd@physx@@@shdfnd@physx@@@shdfnd@physx@@QAE@ABV?$ReflectionAllocator@VThreadImpl@shdfnd@physx@@@12@@Z 1001beb0 f i PsWindowsSocket.obj
 0001:0001af60       ??0Runnable@shdfnd@physx@@QAE@XZ 1001bf60 f i PsWindowsSocket.obj
 0001:0001af80       ??0Socket@shdfnd@physx@@QAE@ABV012@@Z 1001bf80 f i PsWindowsSocket.obj
 0001:0001afd0       ??1?$ThreadT@V?$ReflectionAllocator@VThreadImpl@shdfnd@physx@@@shdfnd@physx@@@shdfnd@physx@@UAE@XZ 1001bfd0 f i PsWindowsSocket.obj
 0001:0001b020       ??1BufferedSocketImpl@shdfnd@physx@@UAE@XZ 1001c020 f i PsWindowsSocket.obj
 0001:0001b050       ??1Runnable@shdfnd@physx@@UAE@XZ 1001c050 f i PsWindowsSocket.obj
 0001:0001b070       ??2UserAllocated@shdfnd@physx@@SAPAXIPAX@Z 1001c070 f i PsWindowsSocket.obj
 0001:0001b080       ??4Socket@shdfnd@physx@@QAEAAV012@ABV012@@Z 1001c080 f i PsWindowsSocket.obj
 0001:0001b0b0       ??_ESocket@shdfnd@physx@@UAEPAXI@Z 1001c0b0 f i PsWindowsSocket.obj
 0001:0001b190       ??_FSocket@shdfnd@physx@@QAEXXZ 1001c190 f i PsWindowsSocket.obj
 0001:0001b1b0       ??_G?$ThreadT@V?$ReflectionAllocator@VThreadImpl@shdfnd@physx@@@shdfnd@physx@@@shdfnd@physx@@UAEPAXI@Z 1001c1b0 f i PsWindowsSocket.obj
 0001:0001b1b0       ??_E?$ThreadT@V?$ReflectionAllocator@VThreadImpl@shdfnd@physx@@@shdfnd@physx@@@shdfnd@physx@@UAEPAXI@Z 1001c1b0 f i PsWindowsSocket.obj
 0001:0001b210       ??_GBufferedSocketImpl@shdfnd@physx@@UAEPAXI@Z 1001c210 f i PsWindowsSocket.obj
 0001:0001b210       ??_EBufferedSocketImpl@shdfnd@physx@@UAEPAXI@Z 1001c210 f i PsWindowsSocket.obj
 0001:0001b270       ??_GRunnable@shdfnd@physx@@UAEPAXI@Z 1001c270 f i PsWindowsSocket.obj
 0001:0001b270       ??_ERunnable@shdfnd@physx@@UAEPAXI@Z 1001c270 f i PsWindowsSocket.obj
 0001:0001b2b0       ??_GSocket@shdfnd@physx@@UAEPAXI@Z 1001c2b0 f i PsWindowsSocket.obj
 0001:0001b310       ??_ESocketImpl@shdfnd@physx@@UAEPAXI@Z 1001c310 f i PsWindowsSocket.obj
 0001:0001b310       ??_GSocketImpl@shdfnd@physx@@UAEPAXI@Z 1001c310 f i PsWindowsSocket.obj
 0001:0001b370       ??_GThreadImpl@shdfnd@physx@@QAEPAXI@Z 1001c370 f i PsWindowsSocket.obj
 0001:0001b3b0       ??_VUserAllocated@shdfnd@physx@@SAXPAX@Z 1001c3b0 f i PsWindowsSocket.obj
 0001:0001b3e0       ?PxMemCopy@physx@@YAPAXPIAXPIBXI@Z 1001c3e0 f i PsWindowsSocket.obj
 0001:0001b400       ?PxMemSet@physx@@YAPAXPIAXHI@Z 1001c400 f i PsWindowsSocket.obj
 0001:0001b420       ?__global_array_delete@@YAXPAX@Z 1001c420 f i PsWindowsSocket.obj
 0001:0001b440       ?__global_array_delete@@YAXPAXI@Z 1001c440 f i PsWindowsSocket.obj
 0001:0001b460       ?__global_delete@@YAXPAX@Z 1001c460 f i PsWindowsSocket.obj
 0001:0001b480       ?__global_delete@@YAXPAXI@Z 1001c480 f i PsWindowsSocket.obj
 0001:0001b4a0       ?allocate@?$ReflectionAllocator@VThreadImpl@shdfnd@physx@@@shdfnd@physx@@QAEPAXIPBDH@Z 1001c4a0 f i PsWindowsSocket.obj
 0001:0001b500       ?deallocate@?$ReflectionAllocator@VThreadImpl@shdfnd@physx@@@shdfnd@physx@@QAEXPAX@Z 1001c500 f i PsWindowsSocket.obj
 0001:0001b540       ?execute@?$ThreadT@V?$ReflectionAllocator@VThreadImpl@shdfnd@physx@@@shdfnd@physx@@@shdfnd@physx@@UAEXXZ 1001c540 f i PsWindowsSocket.obj
 0001:0001b550       ?execute@Runnable@shdfnd@physx@@UAEXXZ 1001c550 f i PsWindowsSocket.obj
 0001:0001b560       ?getDefaultStackSize@?$ThreadT@V?$ReflectionAllocator@VThreadImpl@shdfnd@physx@@@shdfnd@physx@@@shdfnd@physx@@SAIXZ 1001c560 f i PsWindowsSocket.obj
 0001:0001b570       ?getHost@SocketImpl@shdfnd@physx@@QBEPBDXZ 1001c570 f i PsWindowsSocket.obj
 0001:0001b590       ?getName@?$ReflectionAllocator@VThreadImpl@shdfnd@physx@@@shdfnd@physx@@CAPBDXZ 1001c590 f i PsWindowsSocket.obj
 0001:0001b5e0       ?getPort@SocketImpl@shdfnd@physx@@QBEGXZ 1001c5e0 f i PsWindowsSocket.obj
 0001:0001b600       ?isBlocking@SocketImpl@shdfnd@physx@@QBE_NXZ 1001c600 f i PsWindowsSocket.obj
 0001:0001b620       ?isConnected@SocketImpl@shdfnd@physx@@QBE_NXZ 1001c620 f i PsWindowsSocket.obj
 0001:0001b640       ?memCopy@intrinsics@physx@@YAPAXPIAXPIBXI@Z 1001c640 f i PsWindowsSocket.obj
 0001:0001b660       ?memSet@intrinsics@physx@@YAPAXPIAXHI@Z 1001c660 f i PsWindowsSocket.obj
 0001:0001b680       ?quit@?$ThreadT@V?$ReflectionAllocator@VThreadImpl@shdfnd@physx@@@shdfnd@physx@@@shdfnd@physx@@QAEXXZ 1001c680 f i PsWindowsSocket.obj
 0001:0001b6a0       ?quitIsSignalled@?$ThreadT@V?$ReflectionAllocator@VThreadImpl@shdfnd@physx@@@shdfnd@physx@@@shdfnd@physx@@QAE_NXZ 1001c6a0 f i PsWindowsSocket.obj
 0001:0001b6c0       ?signalQuit@?$ThreadT@V?$ReflectionAllocator@VThreadImpl@shdfnd@physx@@@shdfnd@physx@@@shdfnd@physx@@QAEXXZ 1001c6c0 f i PsWindowsSocket.obj
 0001:0001b6e0       ?sleep@?$ThreadT@V?$ReflectionAllocator@VThreadImpl@shdfnd@physx@@@shdfnd@physx@@@shdfnd@physx@@SAXI@Z 1001c6e0 f i PsWindowsSocket.obj
 0001:0001b700       ?start@?$ThreadT@V?$ReflectionAllocator@VThreadImpl@shdfnd@physx@@@shdfnd@physx@@@shdfnd@physx@@QAEXI@Z 1001c700 f i PsWindowsSocket.obj
 0001:0001b730       ?waitForQuit@?$ThreadT@V?$ReflectionAllocator@VThreadImpl@shdfnd@physx@@@shdfnd@physx@@@shdfnd@physx@@QAE_NXZ 1001c730 f i PsWindowsSocket.obj
 0001:0001b750       ??0SyncImpl@shdfnd@physx@@QAE@XZ 1001c750 f   PsWindowsSync.obj
 0001:0001b780       ??1SyncImpl@shdfnd@physx@@QAE@XZ 1001c780 f   PsWindowsSync.obj
 0001:0001b7a0       ?wait@SyncImpl@shdfnd@physx@@QAE_NI@Z 1001c7a0 f   PsWindowsSync.obj
 0001:0001b7f0       ?set@SyncImpl@shdfnd@physx@@QAEXXZ 1001c7f0 f   PsWindowsSync.obj
 0001:0001b810       ?reset@SyncImpl@shdfnd@physx@@QAEXXZ 1001c810 f   PsWindowsSync.obj
 0001:0001b830       ?getSize@SyncImpl@shdfnd@physx@@SAABIXZ 1001c830 f   PsWindowsSync.obj
 0001:0001b890       ??4SyncImpl@shdfnd@physx@@QAEAAV012@ABV012@@Z 1001c890 f i PsWindowsSync.obj
 0001:0001b8b0       ?getDefaultStackSize@ThreadImpl@shdfnd@physx@@SAIXZ 1001c8b0 f   PsWindowsThread.obj
 0001:0001b8c0       ?getId@ThreadImpl@shdfnd@physx@@SAIXZ 1001c8c0 f   PsWindowsThread.obj
 0001:0001b8d0       ??0ThreadImpl@shdfnd@physx@@QAE@XZ 1001c8d0 f   PsWindowsThread.obj
 0001:0001b950       ??0ThreadImpl@shdfnd@physx@@QAE@P6APAXPAX@Z0@Z 1001c950 f   PsWindowsThread.obj
 0001:0001b9e0       ??1ThreadImpl@shdfnd@physx@@QAE@XZ 1001c9e0 f   PsWindowsThread.obj
 0001:0001ba20       ?start@ThreadImpl@shdfnd@physx@@QAEXIPAVRunnable@23@@Z 1001ca20 f   PsWindowsThread.obj
 0001:0001bb10       ?kill@ThreadImpl@shdfnd@physx@@QAEXXZ 1001cb10 f   PsWindowsThread.obj
 0001:0001bb60       ?signalQuit@ThreadImpl@shdfnd@physx@@QAEXXZ 1001cb60 f   PsWindowsThread.obj
 0001:0001bb80       ?waitForQuit@ThreadImpl@shdfnd@physx@@QAE_NXZ 1001cb80 f   PsWindowsThread.obj
 0001:0001bbc0       ?quitIsSignalled@ThreadImpl@shdfnd@physx@@QAE_NXZ 1001cbc0 f   PsWindowsThread.obj
 0001:0001bc00       ?quit@ThreadImpl@shdfnd@physx@@QAEXXZ 1001cc00 f   PsWindowsThread.obj
 0001:0001bc30       ?setAffinityMask@ThreadImpl@shdfnd@physx@@QAEII@Z 1001cc30 f   PsWindowsThread.obj
 0001:0001bc90       ?getPriority@ThreadImpl@shdfnd@physx@@SA?AW4Enum@ThreadPriority@23@I@Z 1001cc90 f   PsWindowsThread.obj
 0001:0001bcf0       ?setPriority@ThreadImpl@shdfnd@physx@@QAEXW4Enum@ThreadPriority@23@@Z 1001ccf0 f   PsWindowsThread.obj
 0001:0001bdb0       ?setName@ThreadImpl@shdfnd@physx@@QAEXPBD@Z 1001cdb0 f   PsWindowsThread.obj
 0001:0001be50       ?sleep@ThreadImpl@shdfnd@physx@@SAXI@Z 1001ce50 f   PsWindowsThread.obj
 0001:0001be60       ?yield@ThreadImpl@shdfnd@physx@@SAXXZ 1001ce60 f   PsWindowsThread.obj
 0001:0001be70       ?getNbPhysicalCores@ThreadImpl@shdfnd@physx@@SAIXZ 1001ce70 f   PsWindowsThread.obj
 0001:0001bff0       ?getSize@ThreadImpl@shdfnd@physx@@SAABIXZ 1001cff0 f   PsWindowsThread.obj
 0001:0001c000       ?TlsAlloc@shdfnd@physx@@YAIXZ 1001d000 f   PsWindowsThread.obj
 0001:0001c060       ?TlsFree@shdfnd@physx@@YAXI@Z 1001d060 f   PsWindowsThread.obj
 0001:0001c070       ?TlsGet@shdfnd@physx@@YAPAXI@Z 1001d070 f   PsWindowsThread.obj
 0001:0001c080       ?TlsSet@shdfnd@physx@@YAIIPAX@Z 1001d080 f   PsWindowsThread.obj
 0001:0001c320       ??$PX_UNUSED@K@@YAXABK@Z   1001d320 f i PsWindowsThread.obj
 0001:0001c330       ?getBootCounterFrequency@Time@shdfnd@physx@@SAABUCounterFrequencyToTensOfNanos@23@XZ 1001d330 f   PsWindowsTime.obj
 0001:0001c340       ?getCounterFrequency@Time@shdfnd@physx@@SA?AUCounterFrequencyToTensOfNanos@23@XZ 1001d340 f   PsWindowsTime.obj
 0001:0001c370       ?getCurrentCounterValue@Time@shdfnd@physx@@SA_KXZ 1001d370 f   PsWindowsTime.obj
 0001:0001c390       ??0Time@shdfnd@physx@@QAE@XZ 1001d390 f   PsWindowsTime.obj
 0001:0001c3c0       ?getElapsedSeconds@Time@shdfnd@physx@@QAENXZ 1001d3c0 f   PsWindowsTime.obj
 0001:0001c410       ?peekElapsedSeconds@Time@shdfnd@physx@@QAENXZ 1001d410 f   PsWindowsTime.obj
 0001:0001c450       ?getLastTime@Time@shdfnd@physx@@QBENXZ 1001d450 f   PsWindowsTime.obj
 0001:0001c540       ??0CounterFrequencyToTensOfNanos@shdfnd@physx@@QAE@_K0@Z 1001d540 f i PsWindowsTime.obj
 0001:0001c580       ??4Time@shdfnd@physx@@QAEAAV012@$$QAV012@@Z 1001d580 f i PsWindowsTime.obj
 0001:0001c5b0       ??4Time@shdfnd@physx@@QAEAAV012@ABV012@@Z 1001d5b0 f i PsWindowsTime.obj
 0001:0001c5e0       ?getCurrentTimeInTensOfNanoSeconds@Time@shdfnd@physx@@SA_KXZ 1001d5e0 f i PsWindowsTime.obj
 0001:0001c620       ?toTensOfNanos@CounterFrequencyToTensOfNanos@shdfnd@physx@@QBE_K_K@Z 1001d620 f i PsWindowsTime.obj
 0001:0001c670       ?allocate@Allocator@shdfnd@physx@@QAEPAXIPBDH@Z 1001d670 f   PsAllocator.obj
 0001:0001c6b0       ?deallocate@Allocator@shdfnd@physx@@QAEXPAX@Z 1001d6b0 f   PsAllocator.obj
 0001:0001c6e0       ??0NamedAllocator@shdfnd@physx@@QAE@ABW4PxEMPTY@2@@Z 1001d6e0 f   PsAllocator.obj
 0001:0001c720       ??0NamedAllocator@shdfnd@physx@@QAE@PBD@Z 1001d720 f   PsAllocator.obj
 0001:0001c760       ??0NamedAllocator@shdfnd@physx@@QAE@ABV012@@Z 1001d760 f   PsAllocator.obj
 0001:0001c800       ??1NamedAllocator@shdfnd@physx@@QAE@XZ 1001d800 f   PsAllocator.obj
 0001:0001c890       ??4NamedAllocator@shdfnd@physx@@QAEAAV012@ABV012@@Z 1001d890 f   PsAllocator.obj
 0001:0001c930       ?allocate@NamedAllocator@shdfnd@physx@@QAEPAXIPBDH@Z 1001d930 f   PsAllocator.obj
 0001:0001c9e0       ?deallocate@NamedAllocator@shdfnd@physx@@QAEXPAX@Z 1001d9e0 f   PsAllocator.obj
 0001:0001cb00       ??$PX_UNUSED@_N@@YAXAB_N@Z 1001db00 f i PsAllocator.obj
 0001:0001cb10       ??0?$Pair@QBVNamedAllocator@shdfnd@physx@@PBD@shdfnd@physx@@QAE@ABQBVNamedAllocator@12@ABQBD@Z 1001db10 f i PsAllocator.obj
 0001:0001cb40       ??0?$Pair@QBVNamedAllocator@shdfnd@physx@@PBD@shdfnd@physx@@QAE@ABV012@@Z 1001db40 f i PsAllocator.obj
 0001:0001cb70       ??0ScopedLock@?$MutexT@VAllocator@shdfnd@physx@@@shdfnd@physx@@QAE@AAV123@@Z 1001db70 f i PsAllocator.obj
 0001:0001cba0       ??1ScopedLock@?$MutexT@VAllocator@shdfnd@physx@@@shdfnd@physx@@QAE@XZ 1001dba0 f i PsAllocator.obj
 0001:0001cbc0       ??A?$HashMapBase@PBVNamedAllocator@shdfnd@physx@@PBDU?$Hash@PBVNamedAllocator@shdfnd@physx@@@23@VNonTrackingAllocator@23@@internal@shdfnd@physx@@QAEAAPBDABQBVNamedAllocator@23@@Z 1001dbc0 f i PsAllocator.obj
 0001:0001cc50       ??R?$Hash@PBVNamedAllocator@shdfnd@physx@@@shdfnd@physx@@QBEIABQBVNamedAllocator@12@@Z 1001dc50 f i PsAllocator.obj
 0001:0001cc80       ??R?$Hash@PBVNamedAllocator@shdfnd@physx@@@shdfnd@physx@@QBE_NABQBVNamedAllocator@12@0@Z 1001dc80 f i PsAllocator.obj
 0001:0001ccc0       ??RGetKey@?$HashMapBase@PBVNamedAllocator@shdfnd@physx@@PBDU?$Hash@PBVNamedAllocator@shdfnd@physx@@@23@VNonTrackingAllocator@23@@internal@shdfnd@physx@@QAEABQBVNamedAllocator@34@ABV?$Pair@QBVNamedAllocator@shdfnd@physx@@PBD@34@@Z 1001dcc0 f i PsAllocator.obj
 0001:0001cce0       ?allocate@NonTrackingAllocator@shdfnd@physx@@QAEPAXIPBDH@Z 1001dce0 f i PsAllocator.obj
 0001:0001cd40       ?create@?$HashBase@V?$Pair@QBVNamedAllocator@shdfnd@physx@@PBD@shdfnd@physx@@PBVNamedAllocator@23@U?$Hash@PBVNamedAllocator@shdfnd@physx@@@23@UGetKey@?$HashMapBase@PBVNamedAllocator@shdfnd@physx@@PBDU?$Hash@PBVNamedAllocator@shdfnd@physx@@@23@VNonTrackingAllocator@23@@internal@23@VNonTrackingAllocator@23@$00@internal@shdfnd@physx@@QAEPAV?$Pair@QBVNamedAllocator@shdfnd@physx@@PBD@34@ABQBVNamedAllocator@34@AA_N@Z 1001dd40 f i PsAllocator.obj
 0001:0001cee0       ?deallocate@NonTrackingAllocator@shdfnd@physx@@QAEXPAX@Z 1001dee0 f i PsAllocator.obj
 0001:0001cf30       ?erase@?$HashBase@V?$Pair@QBVNamedAllocator@shdfnd@physx@@PBD@shdfnd@physx@@PBVNamedAllocator@23@U?$Hash@PBVNamedAllocator@shdfnd@physx@@@23@UGetKey@?$HashMapBase@PBVNamedAllocator@shdfnd@physx@@PBDU?$Hash@PBVNamedAllocator@shdfnd@physx@@@23@VNonTrackingAllocator@23@@internal@23@VNonTrackingAllocator@23@$00@internal@shdfnd@physx@@QAE_NABQBVNamedAllocator@34@@Z 1001df30 f i PsAllocator.obj
 0001:0001d070       ?erase@?$HashMapBase@PBVNamedAllocator@shdfnd@physx@@PBDU?$Hash@PBVNamedAllocator@shdfnd@physx@@@23@VNonTrackingAllocator@23@@internal@shdfnd@physx@@QAE_NABQBVNamedAllocator@34@@Z 1001e070 f i PsAllocator.obj
 0001:0001d090       ?find@?$HashBase@V?$Pair@QBVNamedAllocator@shdfnd@physx@@PBD@shdfnd@physx@@PBVNamedAllocator@23@U?$Hash@PBVNamedAllocator@shdfnd@physx@@@23@UGetKey@?$HashMapBase@PBVNamedAllocator@shdfnd@physx@@PBDU?$Hash@PBVNamedAllocator@shdfnd@physx@@@23@VNonTrackingAllocator@23@@internal@23@VNonTrackingAllocator@23@$00@internal@shdfnd@physx@@QBEPBV?$Pair@QBVNamedAllocator@shdfnd@physx@@PBD@34@ABQBVNamedAllocator@34@@Z 1001e090 f i PsAllocator.obj
 0001:0001d160       ?find@?$HashMapBase@PBVNamedAllocator@shdfnd@physx@@PBDU?$Hash@PBVNamedAllocator@shdfnd@physx@@@23@VNonTrackingAllocator@23@@internal@shdfnd@physx@@QBEPBV?$Pair@QBVNamedAllocator@shdfnd@physx@@PBD@34@ABQBVNamedAllocator@34@@Z 1001e160 f i PsAllocator.obj
 0001:0001d180       ?freeListAdd@?$HashBase@V?$Pair@QBVNamedAllocator@shdfnd@physx@@PBD@shdfnd@physx@@PBVNamedAllocator@23@U?$Hash@PBVNamedAllocator@shdfnd@physx@@@23@UGetKey@?$HashMapBase@PBVNamedAllocator@shdfnd@physx@@PBDU?$Hash@PBVNamedAllocator@shdfnd@physx@@@23@VNonTrackingAllocator@23@@internal@23@VNonTrackingAllocator@23@$00@internal@shdfnd@physx@@AAEXI@Z 1001e180 f i PsAllocator.obj
 0001:0001d230       ?freeListAdd@?$HashBase@V?$Pair@QBVNamedAllocator@shdfnd@physx@@PBD@shdfnd@physx@@PBVNamedAllocator@23@U?$Hash@PBVNamedAllocator@shdfnd@physx@@@23@UGetKey@?$HashMapBase@PBVNamedAllocator@shdfnd@physx@@PBDU?$Hash@PBVNamedAllocator@shdfnd@physx@@@23@VNonTrackingAllocator@23@@internal@23@VNonTrackingAllocator@23@$00@internal@shdfnd@physx@@AAEXII@Z 1001e230 f i PsAllocator.obj
 0001:0001d320       ?freeListEmpty@?$HashBase@V?$Pair@QBVNamedAllocator@shdfnd@physx@@PBD@shdfnd@physx@@PBVNamedAllocator@23@U?$Hash@PBVNamedAllocator@shdfnd@physx@@@23@UGetKey@?$HashMapBase@PBVNamedAllocator@shdfnd@physx@@PBDU?$Hash@PBVNamedAllocator@shdfnd@physx@@@23@VNonTrackingAllocator@23@@internal@23@VNonTrackingAllocator@23@$00@internal@shdfnd@physx@@ABE_NXZ 1001e320 f i PsAllocator.obj
 0001:0001d390       ?freeListGetNext@?$HashBase@V?$Pair@QBVNamedAllocator@shdfnd@physx@@PBD@shdfnd@physx@@PBVNamedAllocator@23@U?$Hash@PBVNamedAllocator@shdfnd@physx@@@23@UGetKey@?$HashMapBase@PBVNamedAllocator@shdfnd@physx@@PBDU?$Hash@PBVNamedAllocator@shdfnd@physx@@@23@VNonTrackingAllocator@23@@internal@23@VNonTrackingAllocator@23@$00@internal@shdfnd@physx@@AAEIXZ 1001e390 f i PsAllocator.obj
 0001:0001d4f0       ?grow@?$HashBase@V?$Pair@QBVNamedAllocator@shdfnd@physx@@PBD@shdfnd@physx@@PBVNamedAllocator@23@U?$Hash@PBVNamedAllocator@shdfnd@physx@@@23@UGetKey@?$HashMapBase@PBVNamedAllocator@shdfnd@physx@@PBDU?$Hash@PBVNamedAllocator@shdfnd@physx@@@23@VNonTrackingAllocator@23@@internal@23@VNonTrackingAllocator@23@$00@internal@shdfnd@physx@@AAEXXZ 1001e4f0 f i PsAllocator.obj
 0001:0001d5b0       ?hash@?$HashBase@V?$Pair@QBVNamedAllocator@shdfnd@physx@@PBD@shdfnd@physx@@PBVNamedAllocator@23@U?$Hash@PBVNamedAllocator@shdfnd@physx@@@23@UGetKey@?$HashMapBase@PBVNamedAllocator@shdfnd@physx@@PBDU?$Hash@PBVNamedAllocator@shdfnd@physx@@@23@VNonTrackingAllocator@23@@internal@23@VNonTrackingAllocator@23@$00@internal@shdfnd@physx@@ABEIABQBVNamedAllocator@34@@Z 1001e5b0 f i PsAllocator.obj
 0001:0001d5e0       ?hash@?$HashBase@V?$Pair@QBVNamedAllocator@shdfnd@physx@@PBD@shdfnd@physx@@PBVNamedAllocator@23@U?$Hash@PBVNamedAllocator@shdfnd@physx@@@23@UGetKey@?$HashMapBase@PBVNamedAllocator@shdfnd@physx@@PBDU?$Hash@PBVNamedAllocator@shdfnd@physx@@@23@VNonTrackingAllocator@23@@internal@23@VNonTrackingAllocator@23@$00@internal@shdfnd@physx@@ABEIABQBVNamedAllocator@34@I@Z 1001e5e0 f i PsAllocator.obj
 0001:0001d610       ?hash@shdfnd@physx@@YAII@Z 1001e610 f i PsAllocator.obj
 0001:0001d690       ?hash@shdfnd@physx@@YAIPBX@Z 1001e690 f i PsAllocator.obj
 0001:0001d6b0       ?insert@?$HashMapBase@PBVNamedAllocator@shdfnd@physx@@PBDU?$Hash@PBVNamedAllocator@shdfnd@physx@@@23@VNonTrackingAllocator@23@@internal@shdfnd@physx@@QAE_NQBVNamedAllocator@34@QBD@Z 1001e6b0 f i PsAllocator.obj
 0001:0001d750       ?isPowerOfTwo@shdfnd@physx@@YA_NI@Z 1001e750 f i PsAllocator.obj
 0001:0001d790       ?lock@?$MutexT@VAllocator@shdfnd@physx@@@shdfnd@physx@@QBEXXZ 1001e790 f i PsAllocator.obj
 0001:0001d7b0       ?nextPowerOfTwo@shdfnd@physx@@YAII@Z 1001e7b0 f i PsAllocator.obj
 0001:0001d810       ?replaceWithLast@?$HashBase@V?$Pair@QBVNamedAllocator@shdfnd@physx@@PBD@shdfnd@physx@@PBVNamedAllocator@23@U?$Hash@PBVNamedAllocator@shdfnd@physx@@@23@UGetKey@?$HashMapBase@PBVNamedAllocator@shdfnd@physx@@PBDU?$Hash@PBVNamedAllocator@shdfnd@physx@@@23@VNonTrackingAllocator@23@@internal@23@VNonTrackingAllocator@23@$00@internal@shdfnd@physx@@AAEXI@Z 1001e810 f i PsAllocator.obj
 0001:0001d960       ?reserve@?$HashBase@V?$Pair@QBVNamedAllocator@shdfnd@physx@@PBD@shdfnd@physx@@PBVNamedAllocator@23@U?$Hash@PBVNamedAllocator@shdfnd@physx@@@23@UGetKey@?$HashMapBase@PBVNamedAllocator@shdfnd@physx@@PBDU?$Hash@PBVNamedAllocator@shdfnd@physx@@@23@VNonTrackingAllocator@23@@internal@23@VNonTrackingAllocator@23@$00@internal@shdfnd@physx@@QAEXI@Z 1001e960 f i PsAllocator.obj
 0001:0001d990       ?reserveInternal@?$HashBase@V?$Pair@QBVNamedAllocator@shdfnd@physx@@PBD@shdfnd@physx@@PBVNamedAllocator@23@U?$Hash@PBVNamedAllocator@shdfnd@physx@@@23@UGetKey@?$HashMapBase@PBVNamedAllocator@shdfnd@physx@@PBDU?$Hash@PBVNamedAllocator@shdfnd@physx@@@23@VNonTrackingAllocator@23@@internal@23@VNonTrackingAllocator@23@$00@internal@shdfnd@physx@@AAEXI@Z 1001e990 f i PsAllocator.obj
 0001:0001de40       ?unlock@?$MutexT@VAllocator@shdfnd@physx@@@shdfnd@physx@@QBEXXZ 1001ee40 f i PsAllocator.obj
 0001:0001de60       ?PxGetAssertHandler@physx@@YAAAVPxAssertHandler@1@XZ 1001ee60 f   PsAssert.obj
 0001:0001de70       ?PxSetAssertHandler@physx@@YAXAAVPxAssertHandler@1@@Z 1001ee70 f   PsAssert.obj
 0001:0001de90       ??$__vcrt_va_start_verify_argument_type@QBD@@YAXXZ 1001ee90 f i PsAssert.obj
 0001:0001ded0       ??0PxAssertHandler@physx@@QAE@XZ 1001eed0 f i PsAssert.obj
 0001:0001df10       ??1PxAssertHandler@physx@@UAE@XZ 1001ef10 f i PsAssert.obj
 0001:0001e010       ??_GDefaultAssertHandler@?A0x8c7671c9@@UAEPAXI@Z 1001f010 f i PsAssert.obj
 0001:0001e010       ??_EDefaultAssertHandler@?A0x8c7671c9@@UAEPAXI@Z 1001f010 f i PsAssert.obj
 0001:0001e050       ??_GPxAssertHandler@physx@@UAEPAXI@Z 1001f050 f i PsAssert.obj
 0001:0001e050       ??_EPxAssertHandler@physx@@UAEPAXI@Z 1001f050 f i PsAssert.obj
 0001:0001e090       __vsnprintf_l              1001f090 f i PsAssert.obj
 0001:0001e100       __vsprintf_l               1001f100 f i PsAssert.obj
 0001:0001e130       _sprintf                   1001f130 f i PsAssert.obj
 0001:0001e180       ??0ErrorHandler@shdfnd@physx@@QAE@XZ 1001f180 f   PsErrorHandler.obj
 0001:0001e1d0       ??1ErrorHandler@shdfnd@physx@@QAE@XZ 1001f1d0 f   PsErrorHandler.obj
 0001:0001e230       ?reportError@ErrorHandler@shdfnd@physx@@QAEXW4Enum@PxErrorCode@3@PBD1H@Z 1001f230 f   PsErrorHandler.obj
 0001:0001e2b0       ?registerErrorCallback@ErrorHandler@shdfnd@physx@@QAEHAAVPxErrorCallback@3@@Z 1001f2b0 f   PsErrorHandler.obj
 0001:0001e380       ?unRegisterErrorCallback@ErrorHandler@shdfnd@physx@@QAEXAAVPxErrorCallback@3@@Z 1001f380 f   PsErrorHandler.obj
 0001:0001e3d0       ?unRegisterErrorCallback@ErrorHandler@shdfnd@physx@@QAEXH@Z 1001f3d0 f   PsErrorHandler.obj
 0001:0001e510       ?lowestSetBit@shdfnd@physx@@YAII@Z 1001f510 f i PsErrorHandler.obj
 0001:0001e570       ?lowestSetBitUnsafe@shdfnd@physx@@YAII@Z 1001f570 f i PsErrorHandler.obj
 0001:0001e590       ?createFastIPC@shdfnd@physx@@YAPAVPxIPC@12@AAW4ErrorCode@312@W4ConnectionType@312@PBDII_N3I@Z 1001f590 f   PsFastIPC.obj
 0001:0001e680       ??$?2V?$ReflectionAllocator@VFastIPC@shdfnd@physx@@@shdfnd@physx@@@UserAllocated@shdfnd@physx@@SAPAXIV?$ReflectionAllocator@VFastIPC@shdfnd@physx@@@12@PBDH@Z 1001f680 f i PsFastIPC.obj
 0001:0001e6a0       ??$?2V?$ReflectionAllocator@VMemoryMappedFile@shdfnd@physx@@@shdfnd@physx@@@UserAllocated@shdfnd@physx@@SAPAXIV?$ReflectionAllocator@VMemoryMappedFile@shdfnd@physx@@@12@PBDH@Z 1001f6a0 f i PsFastIPC.obj
 0001:0001e6c0       ??$?2V?$ReflectionAllocator@VMultiPartData@PxRingBuffer@shdfnd@physx@@@shdfnd@physx@@@UserAllocated@shdfnd@physx@@SAPAXIV?$ReflectionAllocator@VMultiPartData@PxRingBuffer@shdfnd@physx@@@12@PBDH@Z 1001f6c0 f i PsFastIPC.obj
 0001:0001e6e0       ??$?2V?$ReflectionAllocator@VMultiPartPacket@PxRingBuffer@shdfnd@physx@@@shdfnd@physx@@@UserAllocated@shdfnd@physx@@SAPAXIV?$ReflectionAllocator@VMultiPartPacket@PxRingBuffer@shdfnd@physx@@@12@PBDH@Z 1001f6e0 f i PsFastIPC.obj
 0001:0001e700       ??0?$ReflectionAllocator@VFastIPC@shdfnd@physx@@@shdfnd@physx@@QAE@PBD@Z 1001f700 f i PsFastIPC.obj
 0001:0001e720       ??0?$ReflectionAllocator@VMemoryMappedFile@shdfnd@physx@@@shdfnd@physx@@QAE@PBD@Z 1001f720 f i PsFastIPC.obj
 0001:0001e740       ??0?$ReflectionAllocator@VMultiPartData@PxRingBuffer@shdfnd@physx@@@shdfnd@physx@@QAE@PBD@Z 1001f740 f i PsFastIPC.obj
 0001:0001e760       ??0?$ReflectionAllocator@VMultiPartPacket@PxRingBuffer@shdfnd@physx@@@shdfnd@physx@@QAE@PBD@Z 1001f760 f i PsFastIPC.obj
 0001:0001e780       ??0FastIPC@shdfnd@physx@@QAE@AAW4ErrorCode@PxIPC@12@W4ConnectionType@412@PBDII_N3I@Z 1001f780 f i PsFastIPC.obj
 0001:0001eca0       ??0MultiPartData@PxRingBuffer@shdfnd@physx@@QAE@PBVMultiPartPacketHeader@123@@Z 1001fca0 f i PsFastIPC.obj
 0001:0001ed30       ??0MultiPartPacket@PxRingBuffer@shdfnd@physx@@QAE@W4MessageType@123@PBXIIPAV123@@Z 1001fd30 f i PsFastIPC.obj
 0001:0001ee10       ??0PxIPC@shdfnd@physx@@QAE@XZ 1001fe10 f i PsFastIPC.obj
 0001:0001ee30       ??0PxRingBuffer@shdfnd@physx@@QAE@XZ 1001fe30 f i PsFastIPC.obj
 0001:0001eed0       ??1FastIPC@shdfnd@physx@@UAE@XZ 1001fed0 f i PsFastIPC.obj
 0001:0001ef90       ??1MultiPartData@PxRingBuffer@shdfnd@physx@@QAE@XZ 1001ff90 f i PsFastIPC.obj
 0001:0001efc0       ??1MultiPartPacket@PxRingBuffer@shdfnd@physx@@QAE@XZ 1001ffc0 f i PsFastIPC.obj
 0001:0001eff0       ??1PxIPC@shdfnd@physx@@MAE@XZ 1001fff0 f i PsFastIPC.obj
 0001:0001f010       ??1PxRingBuffer@shdfnd@physx@@QAE@XZ 10020010 f i PsFastIPC.obj
 0001:0001f0e0       ??_EFastIPC@shdfnd@physx@@UAEPAXI@Z 100200e0 f i PsFastIPC.obj
 0001:0001f0e0       ??_GFastIPC@shdfnd@physx@@UAEPAXI@Z 100200e0 f i PsFastIPC.obj
 0001:0001f140       ??_GMemoryMappedFile@shdfnd@physx@@QAEPAXI@Z 10020140 f i PsFastIPC.obj
 0001:0001f1a0       ??_GMultiPartData@PxRingBuffer@shdfnd@physx@@QAEPAXI@Z 100201a0 f i PsFastIPC.obj
 0001:0001f200       ??_GMultiPartPacket@PxRingBuffer@shdfnd@physx@@QAEPAXI@Z 10020200 f i PsFastIPC.obj
 0001:0001f260       ??_GPxIPC@shdfnd@physx@@MAEPAXI@Z 10020260 f i PsFastIPC.obj
 0001:0001f260       ??_EPxIPC@shdfnd@physx@@MAEPAXI@Z 10020260 f i PsFastIPC.obj
 0001:0001f2a0       ?acknowledgeInternal@PxRingBuffer@shdfnd@physx@@AAEXXZ 100202a0 f i PsFastIPC.obj
 0001:0001f370       ?allocate@?$ReflectionAllocator@VFastIPC@shdfnd@physx@@@shdfnd@physx@@QAEPAXIPBDH@Z 10020370 f i PsFastIPC.obj
 0001:0001f3d0       ?allocate@?$ReflectionAllocator@VMemoryMappedFile@shdfnd@physx@@@shdfnd@physx@@QAEPAXIPBDH@Z 100203d0 f i PsFastIPC.obj
 0001:0001f430       ?allocate@?$ReflectionAllocator@VMultiPartData@PxRingBuffer@shdfnd@physx@@@shdfnd@physx@@QAEPAXIPBDH@Z 10020430 f i PsFastIPC.obj
 0001:0001f490       ?allocate@?$ReflectionAllocator@VMultiPartPacket@PxRingBuffer@shdfnd@physx@@@shdfnd@physx@@QAEPAXIPBDH@Z 10020490 f i PsFastIPC.obj
 0001:0001f4f0       ?canSend@FastIPC@shdfnd@physx@@UAE_NI@Z 100204f0 f i PsFastIPC.obj
 0001:0001f560       ?canSend@PxRingBuffer@shdfnd@physx@@QBE?AW4ErrorCode@123@I@Z 10020560 f i PsFastIPC.obj
 0001:0001f6b0       ?getData@MultiPartData@PxRingBuffer@shdfnd@physx@@QBEPBXXZ 100206b0 f i PsFastIPC.obj
 0001:0001f6d0       ?getDataLen@PacketHeader@PxRingBuffer@shdfnd@physx@@QBEIXZ 100206d0 f i PsFastIPC.obj
 0001:0001f6f0       ?getMessageSize@MultiPartData@PxRingBuffer@shdfnd@physx@@QBEIXZ 100206f0 f i PsFastIPC.obj
 0001:0001f710       ?getMessageSize@MultiPartPacket@PxRingBuffer@shdfnd@physx@@QBEIXZ 10020710 f i PsFastIPC.obj
 0001:0001f730       ?getMessageType@MultiPartData@PxRingBuffer@shdfnd@physx@@QBE?AW4MessageType@234@XZ 10020730 f i PsFastIPC.obj
 0001:0001f750       ?getMessageType@PacketHeader@PxRingBuffer@shdfnd@physx@@QBE?AW4MessageType@234@XZ 10020750 f i PsFastIPC.obj
 0001:0001f770       ?getName@?$ReflectionAllocator@VFastIPC@shdfnd@physx@@@shdfnd@physx@@CAPBDXZ 10020770 f i PsFastIPC.obj
 0001:0001f7c0       ?getName@?$ReflectionAllocator@VMemoryMappedFile@shdfnd@physx@@@shdfnd@physx@@CAPBDXZ 100207c0 f i PsFastIPC.obj
 0001:0001f810       ?getName@?$ReflectionAllocator@VMultiPartData@PxRingBuffer@shdfnd@physx@@@shdfnd@physx@@CAPBDXZ 10020810 f i PsFastIPC.obj
 0001:0001f860       ?getName@?$ReflectionAllocator@VMultiPartPacket@PxRingBuffer@shdfnd@physx@@@shdfnd@physx@@CAPBDXZ 10020860 f i PsFastIPC.obj
 0001:0001f8b0       ?getNext@MultiPartPacket@PxRingBuffer@shdfnd@physx@@QBEPAV1234@XZ 100208b0 f i PsFastIPC.obj
 0001:0001f8d0       ?getReadAddress@PxRingBuffer@shdfnd@physx@@ABEIXZ 100208d0 f i PsFastIPC.obj
 0001:0001f940       ?getWriteAddress@PxRingBuffer@shdfnd@physx@@ABEIXZ 10020940 f i PsFastIPC.obj
 0001:0001f9b0       ?haveConnection@FastIPC@shdfnd@physx@@UBE_NXZ 100209b0 f i PsFastIPC.obj
 0001:0001fa10       ?init@PacketHeader@PxRingBuffer@shdfnd@physx@@QAEXIII@Z 10020a10 f i PsFastIPC.obj
 0001:0001fa60       ?init@PxRingBuffer@shdfnd@physx@@QAEXPAXI_N1IPAI2@Z 10020a60 f i PsFastIPC.obj
 0001:0001fbe0       ?isFinished@MultiPartData@PxRingBuffer@shdfnd@physx@@QBE_NXZ 10020be0 f i PsFastIPC.obj
 0001:0001fc20       ?isPadded@PacketHeader@PxRingBuffer@shdfnd@physx@@QBE_NXZ 10020c20 f i PsFastIPC.obj
 0001:0001fc60       ?isServer@FastIPC@shdfnd@physx@@UBE_NXZ 10020c60 f i PsFastIPC.obj
 0001:0001fc80       ?process@MultiPartData@PxRingBuffer@shdfnd@physx@@QAE_NPBXI@Z 10020c80 f i PsFastIPC.obj
 0001:0001fdb0       ?process@MultiPartPacket@PxRingBuffer@shdfnd@physx@@QAE?AW4ErrorCode@234@XZ 10020db0 f i PsFastIPC.obj
 0001:0001fee0       ?pumpPendingSends@FastIPC@shdfnd@physx@@UAE_NXZ 10020ee0 f i PsFastIPC.obj
 0001:0001ff70       ?pumpPendingSends@PxRingBuffer@shdfnd@physx@@QAE_NXZ 10020f70 f i PsFastIPC.obj
 0001:00020040       ?readData@PxRingBuffer@shdfnd@physx@@AAEPBXAAII@Z 10021040 f i PsFastIPC.obj
 0001:000200d0       ?receiveAcknowledge@FastIPC@shdfnd@physx@@UAE?AW4ErrorCode@PxIPC@23@XZ 100210d0 f i PsFastIPC.obj
 0001:00020180       ?receiveAcknowledge@PxRingBuffer@shdfnd@physx@@QAE?AW4ErrorCode@123@XZ 10021180 f i PsFastIPC.obj
 0001:00020290       ?receiveData@FastIPC@shdfnd@physx@@UAEPBXAAI@Z 10021290 f i PsFastIPC.obj
 0001:00020340       ?receiveData@PxRingBuffer@shdfnd@physx@@QAE?AW4MessageType@123@AAPBXAAI@Z 10021340 f i PsFastIPC.obj
 0001:00020760       ?release@FastIPC@shdfnd@physx@@UAEXXZ 10021760 f i PsFastIPC.obj
 0001:000207b0       ?sendData@FastIPC@shdfnd@physx@@UAE?AW4ErrorCode@PxIPC@23@PBXI_N@Z 100217b0 f i PsFastIPC.obj
 0001:00020870       ?sendData@PxRingBuffer@shdfnd@physx@@QAE?AW4ErrorCode@123@W4MessageType@123@PBXI_N@Z 10021870 f i PsFastIPC.obj
 0001:00020a60       ?sendDataInternal@PxRingBuffer@shdfnd@physx@@AAE?AW4ErrorCode@123@W4MessageType@123@PBXI@Z 10021a60 f i PsFastIPC.obj
 0001:00020af0       ?sendHeader@MultiPartPacket@PxRingBuffer@shdfnd@physx@@QAE?AW4ErrorCode@234@XZ 10021af0 f i PsFastIPC.obj
 0001:00020ba0       ?setNext@MultiPartPacket@PxRingBuffer@shdfnd@physx@@QAEXPAV1234@@Z 10021ba0 f i PsFastIPC.obj
 0001:00020bc0       ?setReadAddress@PxRingBuffer@shdfnd@physx@@AAEXI@Z 10021bc0 f i PsFastIPC.obj
 0001:00020c90       ?setWriteAddress@PxRingBuffer@shdfnd@physx@@AAEXI@Z 10021c90 f i PsFastIPC.obj
 0001:00020d60       ?writeData@PxRingBuffer@shdfnd@physx@@AAEXW4MessageType@123@PBXI@Z 10021d60 f i PsFastIPC.obj
 0001:00020fc0       ?createFastXml@shdfnd@physx@@YAPAVFastXml@12@PAVCallback@312@@Z 10021fc0 f   PsFastXml.obj
 0001:00021030       ??0AttributePairs@FastXml@shdfnd@physx@@QAE@HPAPBD@Z 10022030 f i PsFastXml.obj
 0001:00021060       ??0FastXml@shdfnd@physx@@QAE@XZ 10022060 f i PsFastXml.obj
 0001:00021270       ??1FastXml@shdfnd@physx@@MAE@XZ 10022270 f i PsFastXml.obj
 0001:000212c0       ??_GFastXml@shdfnd@physx@@MAEPAXI@Z 100222c0 f i PsFastXml.obj
 0001:000212c0       ??_EFastXml@shdfnd@physx@@MAEPAXI@Z 100222c0 f i PsFastXml.obj
 0001:00021300       ??_EMyFastXml@?A0x376bbd1f@@EAEPAXI@Z 10022300 f i PsFastXml.obj
 0001:00021300       ??_GMyFastXml@?A0x376bbd1f@@EAEPAXI@Z 10022300 f i PsFastXml.obj
 0001:00023220       ?strchr@@YAPADQADH@Z       10024220 f i PsFastXml.obj
 0001:00023240       ?strstr@@YAPADQADQBD@Z     10024240 f i PsFastXml.obj
 0001:00023260       _PxCreateFoundation        10024260 f   PsFoundation.obj
 0001:00023280       _PxGetFoundation           10024280 f   PsFoundation.obj
 0001:00023290       ?getAllocator@shdfnd@physx@@YAAAVPxAllocatorCallback@2@XZ 10024290 f   PsFoundation.obj
 0001:000232b0       ??0Foundation@shdfnd@physx@@AAE@AAVPxErrorCallback@2@AAVPxAllocatorCallback@2@@Z 100242b0 f   PsFoundation.obj
 0001:000233f0       ??1Foundation@shdfnd@physx@@EAE@XZ 100243f0 f   PsFoundation.obj
 0001:000234e0       ?release@Foundation@shdfnd@physx@@UAEXXZ 100244e0 f   PsFoundation.obj
 0001:000234f0       ?createInstance@Foundation@shdfnd@physx@@SAPAV123@IAAVPxErrorCallback@3@AAVPxAllocatorCallback@3@@Z 100244f0 f   PsFoundation.obj
 0001:00023690       ?destroyInstance@Foundation@shdfnd@physx@@SAXXZ 10024690 f   PsFoundation.obj
 0001:00023750       ?getInstance@Foundation@shdfnd@physx@@SAAAV123@XZ 10024750 f   PsFoundation.obj
 0001:000237a0       ?incRefCount@Foundation@shdfnd@physx@@SAXXZ 100247a0 f   PsFoundation.obj
 0001:00023820       ?decRefCount@Foundation@shdfnd@physx@@SAXXZ 10024820 f   PsFoundation.obj
 0001:000238a0       ?getErrorCallback@Foundation@shdfnd@physx@@UBEAAVPxErrorCallback@3@XZ 100248a0 f   PsFoundation.obj
 0001:000238c0       ?setErrorLevel@Foundation@shdfnd@physx@@UAEXW4Enum@PxErrorCode@3@@Z 100248c0 f   PsFoundation.obj
 0001:000238e0       ?getErrorLevel@Foundation@shdfnd@physx@@UBE?AW4Enum@PxErrorCode@3@XZ 100248e0 f   PsFoundation.obj
 0001:00023900       ?getAllocatorCallback@Foundation@shdfnd@physx@@UBEAAVPxAllocatorCallback@3@XZ 10024900 f   PsFoundation.obj
 0001:00023920       ?error@Foundation@shdfnd@physx@@QAAXW4Enum@PxErrorCode@3@PBDH1ZZ 10024920 f   PsFoundation.obj
 0001:00023960       ?errorImpl@Foundation@shdfnd@physx@@QAEXW4Enum@PxErrorCode@3@PBDH1PAD@Z 10024960 f   PsFoundation.obj
 0001:00023a20       ?getWarnOnceTimestamp@Foundation@shdfnd@physx@@SAIXZ 10024a20 f   PsFoundation.obj
 0001:00023a70       ?allocate@AlignCheckAllocator@Foundation@shdfnd@physx@@UAEPAXIPBD0H@Z 10024a70 f   PsFoundation.obj
 0001:00023d90       ??$PX_UNUSED@H@@YAXABH@Z   10024d90 f i PsFoundation.obj
 0001:00023da0       ??0?$Array@PATTempAllocatorChunk@shdfnd@physx@@VAllocator@23@@shdfnd@physx@@QAE@ABVAllocator@12@@Z 10024da0 f i PsFoundation.obj
 0001:00023de0       ??0?$HashBase@V?$Pair@QBVNamedAllocator@shdfnd@physx@@PBD@shdfnd@physx@@PBVNamedAllocator@23@U?$Hash@PBVNamedAllocator@shdfnd@physx@@@23@UGetKey@?$HashMapBase@PBVNamedAllocator@shdfnd@physx@@PBDU?$Hash@PBVNamedAllocator@shdfnd@physx@@@23@VNonTrackingAllocator@23@@internal@23@VNonTrackingAllocator@23@$00@internal@shdfnd@physx@@QAE@IM@Z 10024de0 f i PsFoundation.obj
 0001:00023e30       ??0?$HashMap@PBVNamedAllocator@shdfnd@physx@@PBDU?$Hash@PBVNamedAllocator@shdfnd@physx@@@23@VNonTrackingAllocator@23@@shdfnd@physx@@QAE@IM@Z 10024e30 f i PsFoundation.obj
 0001:00023e60       ??0?$HashMapBase@PBVNamedAllocator@shdfnd@physx@@PBDU?$Hash@PBVNamedAllocator@shdfnd@physx@@@23@VNonTrackingAllocator@23@@internal@shdfnd@physx@@QAE@IM@Z 10024e60 f i PsFoundation.obj
 0001:00023e90       ??0?$MutexT@VAllocator@shdfnd@physx@@@shdfnd@physx@@QAE@ABVAllocator@12@@Z 10024e90 f i PsFoundation.obj
 0001:00023f10       ??0AlignCheckAllocator@Foundation@shdfnd@physx@@QAE@AAVPxAllocatorCallback@3@@Z 10024f10 f i PsFoundation.obj
 0001:00023f60       ??0NonTrackingAllocator@shdfnd@physx@@QAE@PBD@Z 10024f60 f i PsFoundation.obj
 0001:00023f80       ??0PxAllocatorCallback@physx@@QAE@XZ 10024f80 f i PsFoundation.obj
 0001:00023fa0       ??0PxBroadcastingAllocator@physx@@QAE@XZ 10024fa0 f i PsFoundation.obj
 0001:00023fd0       ??0TempAllocator@shdfnd@physx@@QAE@PBD@Z 10024fd0 f i PsFoundation.obj
 0001:00023ff0       ??1?$Array@PATTempAllocatorChunk@shdfnd@physx@@VAllocator@23@@shdfnd@physx@@QAE@XZ 10024ff0 f i PsFoundation.obj
 0001:00024060       ??1?$HashBase@V?$Pair@QBVNamedAllocator@shdfnd@physx@@PBD@shdfnd@physx@@PBVNamedAllocator@23@U?$Hash@PBVNamedAllocator@shdfnd@physx@@@23@UGetKey@?$HashMapBase@PBVNamedAllocator@shdfnd@physx@@PBDU?$Hash@PBVNamedAllocator@shdfnd@physx@@@23@VNonTrackingAllocator@23@@internal@23@VNonTrackingAllocator@23@$00@internal@shdfnd@physx@@QAE@XZ 10025060 f i PsFoundation.obj
 0001:000240a0       ??1?$HashMap@PBVNamedAllocator@shdfnd@physx@@PBDU?$Hash@PBVNamedAllocator@shdfnd@physx@@@23@VNonTrackingAllocator@23@@shdfnd@physx@@QAE@XZ 100250a0 f i PsFoundation.obj
 0001:000240c0       ??1?$HashMapBase@PBVNamedAllocator@shdfnd@physx@@PBDU?$Hash@PBVNamedAllocator@shdfnd@physx@@@23@VNonTrackingAllocator@23@@internal@shdfnd@physx@@QAE@XZ 100250c0 f i PsFoundation.obj
 0001:000240e0       ??1?$MutexT@VAllocator@shdfnd@physx@@@shdfnd@physx@@QAE@XZ 100250e0 f i PsFoundation.obj
 0001:00024110       ??1AlignCheckAllocator@Foundation@shdfnd@physx@@UAE@XZ 10025110 f i PsFoundation.obj
 0001:00024130       ??1PxAllocatorCallback@physx@@UAE@XZ 10025130 f i PsFoundation.obj
 0001:00024150       ??1PxBroadcastingAllocator@physx@@MAE@XZ 10025150 f i PsFoundation.obj
 0001:00024180       ??4TempAllocator@shdfnd@physx@@QAEAAV012@$$QAV012@@Z 10025180 f i PsFoundation.obj
 0001:000241a0       ??4TempAllocator@shdfnd@physx@@QAEAAV012@ABV012@@Z 100251a0 f i PsFoundation.obj
 0001:000241c0       ??A?$Array@PATTempAllocatorChunk@shdfnd@physx@@VAllocator@23@@shdfnd@physx@@QAEAAPATTempAllocatorChunk@12@I@Z 100251c0 f i PsFoundation.obj
 0001:00024230       ??_EFoundation@shdfnd@physx@@EAEPAXI@Z 10025230 f i PsFoundation.obj
 0001:000242d0       ??_FTempAllocator@shdfnd@physx@@QAEXXZ 100252d0 f i PsFoundation.obj
 0001:000242f0       ??_GAlignCheckAllocator@Foundation@shdfnd@physx@@UAEPAXI@Z 100252f0 f i PsFoundation.obj
 0001:000242f0       ??_EAlignCheckAllocator@Foundation@shdfnd@physx@@UAEPAXI@Z 100252f0 f i PsFoundation.obj
 0001:00024330       ??_GFoundation@shdfnd@physx@@EAEPAXI@Z 10025330 f i PsFoundation.obj
 0001:00024370       ??_GPxAllocatorCallback@physx@@UAEPAXI@Z 10025370 f i PsFoundation.obj
 0001:00024370       ??_EPxAllocatorCallback@physx@@UAEPAXI@Z 10025370 f i PsFoundation.obj
 0001:000243b0       ??_EPxBroadcastingAllocator@physx@@MAEPAXI@Z 100253b0 f i PsFoundation.obj
 0001:000243b0       ??_GPxBroadcastingAllocator@physx@@MAEPAXI@Z 100253b0 f i PsFoundation.obj
 0001:000243f0       ?allocate@?$Array@PATTempAllocatorChunk@shdfnd@physx@@VAllocator@23@@shdfnd@physx@@IAEPAPATTempAllocatorChunk@23@I@Z 100253f0 f i PsFoundation.obj
 0001:00024470       ?capacity@?$Array@PATTempAllocatorChunk@shdfnd@physx@@VAllocator@23@@shdfnd@physx@@QBEIXZ 10025470 f i PsFoundation.obj
 0001:00024490       ?copy@?$Array@PATTempAllocatorChunk@shdfnd@physx@@VAllocator@23@@shdfnd@physx@@KAXPAPATTempAllocatorChunk@23@0PBQAT423@@Z 10025490 f i PsFoundation.obj
 0001:00024500       ?create@?$Array@PATTempAllocatorChunk@shdfnd@physx@@VAllocator@23@@shdfnd@physx@@KAXPAPATTempAllocatorChunk@23@0ABQAT423@@Z 10025500 f i PsFoundation.obj
 0001:00024570       ?deallocate@?$Array@PATTempAllocatorChunk@shdfnd@physx@@VAllocator@23@@shdfnd@physx@@IAEXPAX@Z 10025570 f i PsFoundation.obj
 0001:00024590       ?deallocate@AlignCheckAllocator@Foundation@shdfnd@physx@@UAEXPAX@Z 10025590 f i PsFoundation.obj
 0001:00024620       ?deregisterAllocationListener@AlignCheckAllocator@Foundation@shdfnd@physx@@UAEXAAVPxAllocationListener@4@@Z 10025620 f i PsFoundation.obj
 0001:000246a0       ?destroy@?$Array@PATTempAllocatorChunk@shdfnd@physx@@VAllocator@23@@shdfnd@physx@@KAXPAPATTempAllocatorChunk@23@0@Z 100256a0 f i PsFoundation.obj
 0001:000246c0       ?destroy@?$HashBase@V?$Pair@QBVNamedAllocator@shdfnd@physx@@PBD@shdfnd@physx@@PBVNamedAllocator@23@U?$Hash@PBVNamedAllocator@shdfnd@physx@@@23@UGetKey@?$HashMapBase@PBVNamedAllocator@shdfnd@physx@@PBDU?$Hash@PBVNamedAllocator@shdfnd@physx@@@23@VNonTrackingAllocator@23@@internal@23@VNonTrackingAllocator@23@$00@internal@shdfnd@physx@@AAEXXZ 100256c0 f i PsFoundation.obj
 0001:00024730       ?getBaseAllocator@AlignCheckAllocator@Foundation@shdfnd@physx@@QBEAAVPxAllocatorCallback@4@XZ 10025730 f i PsFoundation.obj
 0001:00024750       ?grow@?$Array@PATTempAllocatorChunk@shdfnd@physx@@VAllocator@23@@shdfnd@physx@@IAEXI@Z 10025750 f i PsFoundation.obj
 0001:000247d0       ?init@?$HashBase@V?$Pair@QBVNamedAllocator@shdfnd@physx@@PBD@shdfnd@physx@@PBVNamedAllocator@23@U?$Hash@PBVNamedAllocator@shdfnd@physx@@@23@UGetKey@?$HashMapBase@PBVNamedAllocator@shdfnd@physx@@PBDU?$Hash@PBVNamedAllocator@shdfnd@physx@@@23@VNonTrackingAllocator@23@@internal@23@VNonTrackingAllocator@23@$00@internal@shdfnd@physx@@AAEXIM@Z 100257d0 f i PsFoundation.obj
 0001:00024880       ?isInUserMemory@?$Array@PATTempAllocatorChunk@shdfnd@physx@@VAllocator@23@@shdfnd@physx@@QBEIXZ 10025880 f i PsFoundation.obj
 0001:000248a0       ?recreate@?$Array@PATTempAllocatorChunk@shdfnd@physx@@VAllocator@23@@shdfnd@physx@@IAEXI@Z 100258a0 f i PsFoundation.obj
 0001:000249b0       ?registerAllocationListener@AlignCheckAllocator@Foundation@shdfnd@physx@@UAEXAAVPxAllocationListener@4@@Z 100259b0 f i PsFoundation.obj
 0001:00024a50       ?reserve@?$Array@PATTempAllocatorChunk@shdfnd@physx@@VAllocator@23@@shdfnd@physx@@QAEXI@Z 10025a50 f i PsFoundation.obj
 0001:00024a80       ?reset@?$Array@PATTempAllocatorChunk@shdfnd@physx@@VAllocator@23@@shdfnd@physx@@QAEXXZ 10025a80 f i PsFoundation.obj
 0001:00024ac0       ?resize@?$Array@PATTempAllocatorChunk@shdfnd@physx@@VAllocator@23@@shdfnd@physx@@QAEXIABQATTempAllocatorChunk@23@@Z 10025ac0 f i PsFoundation.obj
 0001:00024b50       ?shrink@?$Array@PATTempAllocatorChunk@shdfnd@physx@@VAllocator@23@@shdfnd@physx@@QAEXXZ 10025b50 f i PsFoundation.obj
 0001:00024b70       ?size@?$Array@PATTempAllocatorChunk@shdfnd@physx@@VAllocator@23@@shdfnd@physx@@QBEIXZ 10025b70 f i PsFoundation.obj
 0001:00024b90       ?sprintf_s@string@physx@@YAHPADIPBDZZ 10025b90 f i PsFoundation.obj
 0001:00024be0       __vsnprintf                10025be0 f i PsFoundation.obj
 0001:00024c10       ?computeQuatFromNormal@shdfnd@physx@@YA?AVPxQuat@2@ABVPxVec3@2@@Z 10025c10 f   PsMathUtils.obj
 0001:00024d80       ?optimizeBoundingBox@shdfnd@physx@@YA?AVPxVec3@2@AAVPxMat33@2@@Z 10025d80 f   PsMathUtils.obj
 0001:00025090       ?slerp@shdfnd@physx@@YA?AVPxQuat@2@MABV32@0@Z 10026090 f   PsMathUtils.obj
 0001:00025210       ?integrateTransform@shdfnd@physx@@YAXABVPxTransform@2@ABVPxVec3@2@1MAAV32@@Z 10026210 f   PsMathUtils.obj
 0001:000255c0       ??$PX_UNUSED@W4PxIDENTITY@physx@@@@YAXABW4PxIDENTITY@physx@@@Z 100265c0 f i PsMathUtils.obj
 0001:000255d0       ??$PxClamp@M@physx@@YAMMMM@Z 100265d0 f i PsMathUtils.obj
 0001:00025670       ??$PxMax@M@physx@@YAMMM@Z  10026670 f i PsMathUtils.obj
 0001:000256a0       ??$PxMin@M@physx@@YAMMM@Z  100266a0 f i PsMathUtils.obj
 0001:000256d0       ??$swap@I@shdfnd@physx@@YAXAAI0@Z 100266d0 f i PsMathUtils.obj
 0001:00025700       ??0PxQuat@physx@@QAE@ABV01@@Z 10026700 f i PsMathUtils.obj
 0001:00025750       ??0PxQuat@physx@@QAE@MABVPxVec3@1@@Z 10026750 f i PsMathUtils.obj
 0001:00025890       ??0PxQuat@physx@@QAE@MMMM@Z 10026890 f i PsMathUtils.obj
 0001:000258f0       ??0PxQuat@physx@@QAE@W4PxIDENTITY@1@@Z 100268f0 f i PsMathUtils.obj
 0001:00025950       ??0PxQuat@physx@@QAE@XZ    10026950 f i PsMathUtils.obj
 0001:00025970       ??0PxVec3@physx@@QAE@ABV01@@Z 10026970 f i PsMathUtils.obj
 0001:000259b0       ??0PxVec3@physx@@QAE@MMM@Z 100269b0 f i PsMathUtils.obj
 0001:00025a00       ??4PxQuat@physx@@QAEAAV01@ABV01@@Z 10026a00 f i PsMathUtils.obj
 0001:00025a50       ??4PxVec3@physx@@QAEAAV01@ABV01@@Z 10026a50 f i PsMathUtils.obj
 0001:00025a90       ??APxMat33@physx@@QAEAAVPxVec3@1@H@Z 10026a90 f i PsMathUtils.obj
 0001:00025ab0       ??APxVec3@physx@@QAEAAMH@Z 10026ab0 f i PsMathUtils.obj
 0001:00025b20       ??APxVec3@physx@@QAEAAMI@Z 10026b20 f i PsMathUtils.obj
 0001:00025b90       ??DPxQuat@physx@@QBE?AV01@ABV01@@Z 10026b90 f i PsMathUtils.obj
 0001:00025d40       ??DPxQuat@physx@@QBE?AV01@M@Z 10026d40 f i PsMathUtils.obj
 0001:00025dc0       ??DPxVec3@physx@@QBE?AV01@M@Z 10026dc0 f i PsMathUtils.obj
 0001:00025e30       ??HPxQuat@physx@@QBE?AV01@ABV01@@Z 10026e30 f i PsMathUtils.obj
 0001:00025ec0       ??HPxVec3@physx@@QBE?AV01@ABV01@@Z 10026ec0 f i PsMathUtils.obj
 0001:00025f30       ??XPxVec3@physx@@QAEAAV01@M@Z 10026f30 f i PsMathUtils.obj
 0001:00025f90       ??ZPxVec3@physx@@QAEAAV01@ABV01@@Z 10026f90 f i PsMathUtils.obj
 0001:00026000       ??_0PxVec3@physx@@QAEAAV01@M@Z 10027000 f i PsMathUtils.obj
 0001:00026080       ?PxAbs@physx@@YAMM@Z       10027080 f i PsMathUtils.obj
 0001:000260a0       ?PxAsin@physx@@YAMM@Z      100270a0 f i PsMathUtils.obj
 0001:000260f0       ?PxAtan2@physx@@YAMMM@Z    100270f0 f i PsMathUtils.obj
 0001:00026120       ?PxCos@physx@@YAMM@Z       10027120 f i PsMathUtils.obj
 0001:00026140       ?PxRecipSqrt@physx@@YAMM@Z 10027140 f i PsMathUtils.obj
 0001:00026160       ?PxSin@physx@@YAMM@Z       10027160 f i PsMathUtils.obj
 0001:00026180       ?PxSqrt@physx@@YAMM@Z      10027180 f i PsMathUtils.obj
 0001:000261a0       ?abs@intrinsics@physx@@YAMM@Z 100271a0 f i PsMathUtils.obj
 0001:000261c0       ?cos@intrinsics@physx@@YAMM@Z 100271c0 f i PsMathUtils.obj
 0001:000261e0       ?dot@PxQuat@physx@@QBEMABV12@@Z 100271e0 f i PsMathUtils.obj
 0001:00026260       ?dot@PxVec3@physx@@QBEMABV12@@Z 10027260 f i PsMathUtils.obj
 0001:000262c0       ?fsel@intrinsics@physx@@YAMMMM@Z 100272c0 f i PsMathUtils.obj
 0001:00026300       ?magnitude@PxVec3@physx@@QBEMXZ 10027300 f i PsMathUtils.obj
 0001:00026330       ?magnitudeSquared@PxVec3@physx@@QBEMXZ 10027330 f i PsMathUtils.obj
 0001:00026390       ?normalize@PxVec3@physx@@QAEMXZ 10027390 f i PsMathUtils.obj
 0001:000263e0       ?recipSqrt@intrinsics@physx@@YAMM@Z 100273e0 f i PsMathUtils.obj
 0001:00026430       ?selectMax@intrinsics@physx@@YAMMM@Z 10027430 f i PsMathUtils.obj
 0001:00026470       ?selectMin@intrinsics@physx@@YAMMM@Z 10027470 f i PsMathUtils.obj
 0001:000264b0       ?sin@intrinsics@physx@@YAMM@Z 100274b0 f i PsMathUtils.obj
 0001:000264d0       ?sqrt@intrinsics@physx@@YAMM@Z 100274d0 f i PsMathUtils.obj
 0001:000264f0       _asinf                     100274f0 f i PsMathUtils.obj
 0001:00026520       _atan2f                    10027520 f i PsMathUtils.obj
 0001:00026560       _cosf                      10027560 f i PsMathUtils.obj
 0001:00026590       _fabsf                     10027590 f i PsMathUtils.obj
 0001:000265c0       _sinf                      100275c0 f i PsMathUtils.obj
 0001:000265f0       _sqrtf                     100275f0 f i PsMathUtils.obj
 0001:00026620       ?allocate@TempAllocator@shdfnd@physx@@QAEPAXIPBDH@Z 10027620 f   PsTempAllocator.obj
 0001:00026790       ?deallocate@TempAllocator@shdfnd@physx@@QAEXPAX@Z 10027790 f   PsTempAllocator.obj
 0001:000268e0       ??$PxMax@I@physx@@YAIII@Z  100278e0 f i PsTempAllocator.obj
 0001:00026910       ??$PxMin@PAPATTempAllocatorChunk@shdfnd@physx@@@physx@@YAPAPATTempAllocatorChunk@shdfnd@0@PAPAT120@0@Z 10027910 f i PsTempAllocator.obj
 0001:00026940       ?begin@?$Array@PATTempAllocatorChunk@shdfnd@physx@@VAllocator@23@@shdfnd@physx@@QAEPAPATTempAllocatorChunk@23@XZ 10027940 f i PsTempAllocator.obj
 0001:00026960       ?end@?$Array@PATTempAllocatorChunk@shdfnd@physx@@VAllocator@23@@shdfnd@physx@@QAEPAPATTempAllocatorChunk@23@XZ 10027960 f i PsTempAllocator.obj
 0001:000269c0       ?highestSetBit@shdfnd@physx@@YAII@Z 100279c0 f i PsTempAllocator.obj
 0001:00026a20       ?highestSetBitUnsafe@shdfnd@physx@@YAII@Z 10027a20 f i PsTempAllocator.obj
 0001:00026a40       ?checkValid@shdfnd@physx@@YA_NABM@Z 10027a40 f   PsUtilities.obj
 0001:00026a60       ?checkValid@shdfnd@physx@@YA_NABVPxVec3@2@@Z 10027a60 f   PsUtilities.obj
 0001:00026ae0       ?checkValid@shdfnd@physx@@YA_NABVPxQuat@2@@Z 10027ae0 f   PsUtilities.obj
 0001:00026b70       ?checkValid@shdfnd@physx@@YA_NABVPxMat33@2@@Z 10027b70 f   PsUtilities.obj
 0001:00026cc0       ?checkValid@shdfnd@physx@@YA_NABVPxTransform@2@@Z 10027cc0 f   PsUtilities.obj
 0001:00026d10       ?checkValid@shdfnd@physx@@YA_NPBD@Z 10027d10 f   PsUtilities.obj
 0001:00026e10       ??APxMat33@physx@@QBEABVPxVec3@1@I@Z 10027e10 f i PsUtilities.obj
 0001:00026e30       ??APxVec3@physx@@QBEABMI@Z 10027e30 f i PsUtilities.obj
 0001:00026ea0       ??RPxMat33@physx@@QBEMII@Z 10027ea0 f i PsUtilities.obj
 0001:00026ed0       ?PxIsFinite@physx@@YA_NM@Z 10027ed0 f i PsUtilities.obj
 0001:00026ef0       ?isFinite@intrinsics@physx@@YA_NM@Z 10027ef0 f i PsUtilities.obj
 0001:00026f40       ?PxCreateCollection@@YAPAVPxCollection@physx@@XZ 10027f40 f   CmCollection.obj
 0001:00026f90       ?add@Collection@Cm@physx@@UAEXAAVPxBase@3@_K@Z 10027f90 f   CmCollection.obj
 0001:00027050       ?remove@Collection@Cm@physx@@UAEXAAVPxBase@3@@Z 10028050 f   CmCollection.obj
 0001:00027100       ?contains@Collection@Cm@physx@@UBE_NAAVPxBase@3@@Z 10028100 f   CmCollection.obj
 0001:00027140       ?addId@Collection@Cm@physx@@UAEXAAVPxBase@3@_K@Z 10028140 f   CmCollection.obj
 0001:00027290       ?removeId@Collection@Cm@physx@@UAEX_K@Z 10028290 f   CmCollection.obj
 0001:00027360       ?find@Collection@Cm@physx@@UBEPAVPxBase@3@_K@Z 10028360 f   CmCollection.obj
 0001:000273d0       ?add@Collection@Cm@physx@@UAEXAAVPxCollection@3@@Z 100283d0 f   CmCollection.obj
 0001:00027560       ?remove@Collection@Cm@physx@@UAEXAAVPxCollection@3@@Z 10028560 f   CmCollection.obj
 0001:00027620       ?getNbObjects@Collection@Cm@physx@@UBEIXZ 10028620 f   CmCollection.obj
 0001:00027640       ?getObject@Collection@Cm@physx@@UBEAAVPxBase@3@I@Z 10028640 f   CmCollection.obj
 0001:000276b0       ?getObjects@Collection@Cm@physx@@UBEIPAPAVPxBase@3@II@Z 100286b0 f   CmCollection.obj
 0001:00027790       ?getNbIds@Collection@Cm@physx@@UBEIXZ 10028790 f   CmCollection.obj
 0001:000277b0       ?getId@Collection@Cm@physx@@UBE_KABVPxBase@3@@Z 100287b0 f   CmCollection.obj
 0001:00027800       ?getIds@Collection@Cm@physx@@UBEIPA_KII@Z 10028800 f   CmCollection.obj
 0001:00027b80       ??$?2V?$ReflectionAllocator@VCollection@Cm@physx@@@shdfnd@physx@@@UserAllocated@shdfnd@physx@@SAPAXIV?$ReflectionAllocator@VCollection@Cm@physx@@@12@PBDH@Z 10028b80 f i CmCollection.obj
 0001:00027ba0       ??0?$CoalescedHashMap@PAVPxBase@physx@@_KU?$Hash@PAVPxBase@physx@@@shdfnd@2@VAllocator@42@@shdfnd@physx@@QAE@IM@Z 10028ba0 f i CmCollection.obj
 0001:00027bd0       ??0?$CoalescedHashMap@_KPAVPxBase@physx@@U?$Hash@_K@shdfnd@2@VAllocator@42@@shdfnd@physx@@QAE@IM@Z 10028bd0 f i CmCollection.obj
 0001:00027c00       ??0?$CollectionHashMap@PAVPxBase@physx@@_KU?$Hash@PAVPxBase@physx@@@shdfnd@2@VAllocator@42@@Cm@physx@@QAE@IM@Z 10028c00 f i CmCollection.obj
 0001:00027c30       ??0?$CollectionHashMap@_KPAVPxBase@physx@@U?$Hash@_K@shdfnd@2@VAllocator@42@@Cm@physx@@QAE@IM@Z 10028c30 f i CmCollection.obj
 0001:00027c60       ??0?$HashBase@V?$Pair@$$CB_KPAVPxBase@physx@@@shdfnd@physx@@_KU?$Hash@_K@23@UGetKey@?$HashMapBase@_KPAVPxBase@physx@@U?$Hash@_K@shdfnd@2@VAllocator@42@@internal@23@VAllocator@23@$00@internal@shdfnd@physx@@QAE@IM@Z 10028c60 f i CmCollection.obj
 0001:00027cb0       ??0?$HashBase@V?$Pair@QAVPxBase@physx@@_K@shdfnd@physx@@PAVPxBase@3@U?$Hash@PAVPxBase@physx@@@23@UGetKey@?$HashMapBase@PAVPxBase@physx@@_KU?$Hash@PAVPxBase@physx@@@shdfnd@2@VAllocator@42@@internal@23@VAllocator@23@$00@internal@shdfnd@physx@@QAE@IM@Z 10028cb0 f i CmCollection.obj
 0001:00027d00       ??0?$HashMapBase@PAVPxBase@physx@@_KU?$Hash@PAVPxBase@physx@@@shdfnd@2@VAllocator@42@@internal@shdfnd@physx@@QAE@IM@Z 10028d00 f i CmCollection.obj
 0001:00027d30       ??0?$HashMapBase@_KPAVPxBase@physx@@U?$Hash@_K@shdfnd@2@VAllocator@42@@internal@shdfnd@physx@@QAE@IM@Z 10028d30 f i CmCollection.obj
 0001:00027d60       ??0?$Pair@$$CB_KPAVPxBase@physx@@@shdfnd@physx@@QAE@ABV012@@Z 10028d60 f i CmCollection.obj
 0001:00027da0       ??0?$Pair@$$CB_KPAVPxBase@physx@@@shdfnd@physx@@QAE@AB_KABQAVPxBase@2@@Z 10028da0 f i CmCollection.obj
 0001:00027de0       ??0?$Pair@QAVPxBase@physx@@_K@shdfnd@physx@@QAE@ABQAVPxBase@2@AB_K@Z 10028de0 f i CmCollection.obj
 0001:00027e20       ??0?$Pair@QAVPxBase@physx@@_K@shdfnd@physx@@QAE@ABV012@@Z 10028e20 f i CmCollection.obj
 0001:00027e60       ??0?$ReflectionAllocator@VCollection@Cm@physx@@@shdfnd@physx@@QAE@PBD@Z 10028e60 f i CmCollection.obj
 0001:00027e80       ??0Collection@Cm@physx@@QAE@XZ 10028e80 f i CmCollection.obj
 0001:00027ef0       ??0Iter@?$HashBase@V?$Pair@$$CB_KPAVPxBase@physx@@@shdfnd@physx@@_KU?$Hash@_K@23@UGetKey@?$HashMapBase@_KPAVPxBase@physx@@U?$Hash@_K@shdfnd@2@VAllocator@42@@internal@23@VAllocator@23@$00@internal@shdfnd@physx@@QAE@AAV1234@@Z 10028ef0 f i CmCollection.obj
 0001:00027f70       ??0PxCollection@physx@@IAE@XZ 10028f70 f i CmCollection.obj
 0001:00027f90       ??1?$CoalescedHashMap@PAVPxBase@physx@@_KU?$Hash@PAVPxBase@physx@@@shdfnd@2@VAllocator@42@@shdfnd@physx@@QAE@XZ 10028f90 f i CmCollection.obj
 0001:00027fb0       ??1?$CoalescedHashMap@_KPAVPxBase@physx@@U?$Hash@_K@shdfnd@2@VAllocator@42@@shdfnd@physx@@QAE@XZ 10028fb0 f i CmCollection.obj
 0001:00027fd0       ??1?$CollectionHashMap@PAVPxBase@physx@@_KU?$Hash@PAVPxBase@physx@@@shdfnd@2@VAllocator@42@@Cm@physx@@QAE@XZ 10028fd0 f i CmCollection.obj
 0001:00027ff0       ??1?$CollectionHashMap@_KPAVPxBase@physx@@U?$Hash@_K@shdfnd@2@VAllocator@42@@Cm@physx@@QAE@XZ 10028ff0 f i CmCollection.obj
 0001:00028010       ??1?$HashBase@V?$Pair@$$CB_KPAVPxBase@physx@@@shdfnd@physx@@_KU?$Hash@_K@23@UGetKey@?$HashMapBase@_KPAVPxBase@physx@@U?$Hash@_K@shdfnd@2@VAllocator@42@@internal@23@VAllocator@23@$00@internal@shdfnd@physx@@QAE@XZ 10029010 f i CmCollection.obj
 0001:00028050       ??1?$HashBase@V?$Pair@QAVPxBase@physx@@_K@shdfnd@physx@@PAVPxBase@3@U?$Hash@PAVPxBase@physx@@@23@UGetKey@?$HashMapBase@PAVPxBase@physx@@_KU?$Hash@PAVPxBase@physx@@@shdfnd@2@VAllocator@42@@internal@23@VAllocator@23@$00@internal@shdfnd@physx@@QAE@XZ 10029050 f i CmCollection.obj
 0001:00028090       ??1?$HashMapBase@PAVPxBase@physx@@_KU?$Hash@PAVPxBase@physx@@@shdfnd@2@VAllocator@42@@internal@shdfnd@physx@@QAE@XZ 10029090 f i CmCollection.obj
 0001:000280b0       ??1?$HashMapBase@_KPAVPxBase@physx@@U?$Hash@_K@shdfnd@2@VAllocator@42@@internal@shdfnd@physx@@QAE@XZ 100290b0 f i CmCollection.obj
 0001:000280d0       ??1Collection@Cm@physx@@UAE@XZ 100290d0 f i CmCollection.obj
 0001:00028110       ??1PxCollection@physx@@MAE@XZ 10029110 f i CmCollection.obj
 0001:00028130       ??A?$HashMapBase@PAVPxBase@physx@@_KU?$Hash@PAVPxBase@physx@@@shdfnd@2@VAllocator@42@@internal@shdfnd@physx@@QAEAA_KABQAVPxBase@3@@Z 10029130 f i CmCollection.obj
 0001:000281c0       ??A?$HashMapBase@_KPAVPxBase@physx@@U?$Hash@_K@shdfnd@2@VAllocator@42@@internal@shdfnd@physx@@QAEAAPAVPxBase@3@AB_K@Z 100291c0 f i CmCollection.obj
 0001:00028250       ??CIter@?$HashBase@V?$Pair@$$CB_KPAVPxBase@physx@@@shdfnd@physx@@_KU?$Hash@_K@23@UGetKey@?$HashMapBase@_KPAVPxBase@physx@@U?$Hash@_K@shdfnd@2@VAllocator@42@@internal@23@VAllocator@23@$00@internal@shdfnd@physx@@QBEPAV?$Pair@$$CB_KPAVPxBase@physx@@@34@XZ 10029250 f i CmCollection.obj
 0001:00028280       ??EIter@?$HashBase@V?$Pair@$$CB_KPAVPxBase@physx@@@shdfnd@physx@@_KU?$Hash@_K@23@UGetKey@?$HashMapBase@_KPAVPxBase@physx@@U?$Hash@_K@shdfnd@2@VAllocator@42@@internal@23@VAllocator@23@$00@internal@shdfnd@physx@@QAE?AV01234@H@Z 10029280 f i CmCollection.obj
 0001:000282f0       ??R?$Hash@PAVPxBase@physx@@@shdfnd@physx@@QBEIABQAVPxBase@2@@Z 100292f0 f i CmCollection.obj
 0001:00028320       ??R?$Hash@PAVPxBase@physx@@@shdfnd@physx@@QBE_NABQAVPxBase@2@0@Z 10029320 f i CmCollection.obj
 0001:00028360       ??R?$Hash@_K@shdfnd@physx@@QBEIAB_K@Z 10029360 f i CmCollection.obj
 0001:00028390       ??R?$Hash@_K@shdfnd@physx@@QBE_NAB_K0@Z 10029390 f i CmCollection.obj
 0001:000283f0       ??RGetKey@?$HashMapBase@PAVPxBase@physx@@_KU?$Hash@PAVPxBase@physx@@@shdfnd@2@VAllocator@42@@internal@shdfnd@physx@@QAEABQAVPxBase@4@ABV?$Pair@QAVPxBase@physx@@_K@34@@Z 100293f0 f i CmCollection.obj
 0001:00028410       ??RGetKey@?$HashMapBase@_KPAVPxBase@physx@@U?$Hash@_K@shdfnd@2@VAllocator@42@@internal@shdfnd@physx@@QAEAB_KABV?$Pair@$$CB_KPAVPxBase@physx@@@34@@Z 10029410 f i CmCollection.obj
 0001:00028430       ??_GCollection@Cm@physx@@UAEPAXI@Z 10029430 f i CmCollection.obj
 0001:00028430       ??_ECollection@Cm@physx@@UAEPAXI@Z 10029430 f i CmCollection.obj
 0001:00028490       ??_GPxCollection@physx@@MAEPAXI@Z 10029490 f i CmCollection.obj
 0001:00028490       ??_EPxCollection@physx@@MAEPAXI@Z 10029490 f i CmCollection.obj
 0001:000284d0       ?advance@Iter@?$HashBase@V?$Pair@$$CB_KPAVPxBase@physx@@@shdfnd@physx@@_KU?$Hash@_K@23@UGetKey@?$HashMapBase@_KPAVPxBase@physx@@U?$Hash@_K@shdfnd@2@VAllocator@42@@internal@23@VAllocator@23@$00@internal@shdfnd@physx@@AAEXXZ 100294d0 f i CmCollection.obj
 0001:00028510       ?allocate@?$ReflectionAllocator@VCollection@Cm@physx@@@shdfnd@physx@@QAEPAXIPBDH@Z 10029510 f i CmCollection.obj
 0001:00028570       ?capacity@?$HashBase@V?$Pair@QAVPxBase@physx@@_K@shdfnd@physx@@PAVPxBase@3@U?$Hash@PAVPxBase@physx@@@23@UGetKey@?$HashMapBase@PAVPxBase@physx@@_KU?$Hash@PAVPxBase@physx@@@shdfnd@2@VAllocator@42@@internal@23@VAllocator@23@$00@internal@shdfnd@physx@@QBEIXZ 10029570 f i CmCollection.obj
 0001:00028590       ?capacity@?$HashMapBase@PAVPxBase@physx@@_KU?$Hash@PAVPxBase@physx@@@shdfnd@2@VAllocator@42@@internal@shdfnd@physx@@QBEIXZ 10029590 f i CmCollection.obj
 0001:000285b0       ?check@Iter@?$HashBase@V?$Pair@$$CB_KPAVPxBase@physx@@@shdfnd@physx@@_KU?$Hash@_K@23@UGetKey@?$HashMapBase@_KPAVPxBase@physx@@U?$Hash@_K@shdfnd@2@VAllocator@42@@internal@23@VAllocator@23@$00@internal@shdfnd@physx@@QBEXXZ 100295b0 f i CmCollection.obj
 0001:00028620       ?create@?$HashBase@V?$Pair@$$CB_KPAVPxBase@physx@@@shdfnd@physx@@_KU?$Hash@_K@23@UGetKey@?$HashMapBase@_KPAVPxBase@physx@@U?$Hash@_K@shdfnd@2@VAllocator@42@@internal@23@VAllocator@23@$00@internal@shdfnd@physx@@QAEPAV?$Pair@$$CB_KPAVPxBase@physx@@@34@AB_KAA_N@Z 10029620 f i CmCollection.obj
 0001:000287c0       ?create@?$HashBase@V?$Pair@QAVPxBase@physx@@_K@shdfnd@physx@@PAVPxBase@3@U?$Hash@PAVPxBase@physx@@@23@UGetKey@?$HashMapBase@PAVPxBase@physx@@_KU?$Hash@PAVPxBase@physx@@@shdfnd@2@VAllocator@42@@internal@23@VAllocator@23@$00@internal@shdfnd@physx@@QAEPAV?$Pair@QAVPxBase@physx@@_K@34@ABQAVPxBase@4@AA_N@Z 100297c0 f i CmCollection.obj
 0001:00028960       ?destroy@?$HashBase@V?$Pair@$$CB_KPAVPxBase@physx@@@shdfnd@physx@@_KU?$Hash@_K@23@UGetKey@?$HashMapBase@_KPAVPxBase@physx@@U?$Hash@_K@shdfnd@2@VAllocator@42@@internal@23@VAllocator@23@$00@internal@shdfnd@physx@@AAEXXZ 10029960 f i CmCollection.obj
 0001:000289d0       ?destroy@?$HashBase@V?$Pair@QAVPxBase@physx@@_K@shdfnd@physx@@PAVPxBase@3@U?$Hash@PAVPxBase@physx@@@23@UGetKey@?$HashMapBase@PAVPxBase@physx@@_KU?$Hash@PAVPxBase@physx@@@shdfnd@2@VAllocator@42@@internal@23@VAllocator@23@$00@internal@shdfnd@physx@@AAEXXZ 100299d0 f i CmCollection.obj
 0001:00028a40       ?done@Iter@?$HashBase@V?$Pair@$$CB_KPAVPxBase@physx@@@shdfnd@physx@@_KU?$Hash@_K@23@UGetKey@?$HashMapBase@_KPAVPxBase@physx@@U?$Hash@_K@shdfnd@2@VAllocator@42@@internal@23@VAllocator@23@$00@internal@shdfnd@physx@@QBE_NXZ 10029a40 f i CmCollection.obj
 0001:00028a80       ?erase@?$HashBase@V?$Pair@$$CB_KPAVPxBase@physx@@@shdfnd@physx@@_KU?$Hash@_K@23@UGetKey@?$HashMapBase@_KPAVPxBase@physx@@U?$Hash@_K@shdfnd@2@VAllocator@42@@internal@23@VAllocator@23@$00@internal@shdfnd@physx@@QAE_NAB_K@Z 10029a80 f i CmCollection.obj
 0001:00028bc0       ?erase@?$HashBase@V?$Pair@QAVPxBase@physx@@_K@shdfnd@physx@@PAVPxBase@3@U?$Hash@PAVPxBase@physx@@@23@UGetKey@?$HashMapBase@PAVPxBase@physx@@_KU?$Hash@PAVPxBase@physx@@@shdfnd@2@VAllocator@42@@internal@23@VAllocator@23@$00@internal@shdfnd@physx@@QAE_NABQAVPxBase@4@@Z 10029bc0 f i CmCollection.obj
 0001:00028d00       ?erase@?$HashMapBase@PAVPxBase@physx@@_KU?$Hash@PAVPxBase@physx@@@shdfnd@2@VAllocator@42@@internal@shdfnd@physx@@QAE_NABQAVPxBase@4@@Z 10029d00 f i CmCollection.obj
 0001:00028d20       ?erase@?$HashMapBase@_KPAVPxBase@physx@@U?$Hash@_K@shdfnd@2@VAllocator@42@@internal@shdfnd@physx@@QAE_NAB_K@Z 10029d20 f i CmCollection.obj
 0001:00028d40       ?find@?$HashBase@V?$Pair@$$CB_KPAVPxBase@physx@@@shdfnd@physx@@_KU?$Hash@_K@23@UGetKey@?$HashMapBase@_KPAVPxBase@physx@@U?$Hash@_K@shdfnd@2@VAllocator@42@@internal@23@VAllocator@23@$00@internal@shdfnd@physx@@QBEPBV?$Pair@$$CB_KPAVPxBase@physx@@@34@AB_K@Z 10029d40 f i CmCollection.obj
 0001:00028e10       ?find@?$HashBase@V?$Pair@QAVPxBase@physx@@_K@shdfnd@physx@@PAVPxBase@3@U?$Hash@PAVPxBase@physx@@@23@UGetKey@?$HashMapBase@PAVPxBase@physx@@_KU?$Hash@PAVPxBase@physx@@@shdfnd@2@VAllocator@42@@internal@23@VAllocator@23@$00@internal@shdfnd@physx@@QBEPBV?$Pair@QAVPxBase@physx@@_K@34@ABQAVPxBase@4@@Z 10029e10 f i CmCollection.obj
 0001:00028ee0       ?find@?$HashMapBase@PAVPxBase@physx@@_KU?$Hash@PAVPxBase@physx@@@shdfnd@2@VAllocator@42@@internal@shdfnd@physx@@QBEPBV?$Pair@QAVPxBase@physx@@_K@34@ABQAVPxBase@4@@Z 10029ee0 f i CmCollection.obj
 0001:00028f00       ?find@?$HashMapBase@_KPAVPxBase@physx@@U?$Hash@_K@shdfnd@2@VAllocator@42@@internal@shdfnd@physx@@QBEPBV?$Pair@$$CB_KPAVPxBase@physx@@@34@AB_K@Z 10029f00 f i CmCollection.obj
 0001:00028f20       ?freeListAdd@?$HashBase@V?$Pair@$$CB_KPAVPxBase@physx@@@shdfnd@physx@@_KU?$Hash@_K@23@UGetKey@?$HashMapBase@_KPAVPxBase@physx@@U?$Hash@_K@shdfnd@2@VAllocator@42@@internal@23@VAllocator@23@$00@internal@shdfnd@physx@@AAEXI@Z 10029f20 f i CmCollection.obj
 0001:00028fd0       ?freeListAdd@?$HashBase@V?$Pair@$$CB_KPAVPxBase@physx@@@shdfnd@physx@@_KU?$Hash@_K@23@UGetKey@?$HashMapBase@_KPAVPxBase@physx@@U?$Hash@_K@shdfnd@2@VAllocator@42@@internal@23@VAllocator@23@$00@internal@shdfnd@physx@@AAEXII@Z 10029fd0 f i CmCollection.obj
 0001:000290c0       ?freeListAdd@?$HashBase@V?$Pair@QAVPxBase@physx@@_K@shdfnd@physx@@PAVPxBase@3@U?$Hash@PAVPxBase@physx@@@23@UGetKey@?$HashMapBase@PAVPxBase@physx@@_KU?$Hash@PAVPxBase@physx@@@shdfnd@2@VAllocator@42@@internal@23@VAllocator@23@$00@internal@shdfnd@physx@@AAEXI@Z 1002a0c0 f i CmCollection.obj
 0001:00029170       ?freeListAdd@?$HashBase@V?$Pair@QAVPxBase@physx@@_K@shdfnd@physx@@PAVPxBase@3@U?$Hash@PAVPxBase@physx@@@23@UGetKey@?$HashMapBase@PAVPxBase@physx@@_KU?$Hash@PAVPxBase@physx@@@shdfnd@2@VAllocator@42@@internal@23@VAllocator@23@$00@internal@shdfnd@physx@@AAEXII@Z 1002a170 f i CmCollection.obj
 0001:00029260       ?freeListEmpty@?$HashBase@V?$Pair@$$CB_KPAVPxBase@physx@@@shdfnd@physx@@_KU?$Hash@_K@23@UGetKey@?$HashMapBase@_KPAVPxBase@physx@@U?$Hash@_K@shdfnd@2@VAllocator@42@@internal@23@VAllocator@23@$00@internal@shdfnd@physx@@ABE_NXZ 1002a260 f i CmCollection.obj
 0001:000292d0       ?freeListEmpty@?$HashBase@V?$Pair@QAVPxBase@physx@@_K@shdfnd@physx@@PAVPxBase@3@U?$Hash@PAVPxBase@physx@@@23@UGetKey@?$HashMapBase@PAVPxBase@physx@@_KU?$Hash@PAVPxBase@physx@@@shdfnd@2@VAllocator@42@@internal@23@VAllocator@23@$00@internal@shdfnd@physx@@ABE_NXZ 1002a2d0 f i CmCollection.obj
 0001:00029340       ?freeListGetNext@?$HashBase@V?$Pair@$$CB_KPAVPxBase@physx@@@shdfnd@physx@@_KU?$Hash@_K@23@UGetKey@?$HashMapBase@_KPAVPxBase@physx@@U?$Hash@_K@shdfnd@2@VAllocator@42@@internal@23@VAllocator@23@$00@internal@shdfnd@physx@@AAEIXZ 1002a340 f i CmCollection.obj
 0001:00029460       ?freeListGetNext@?$HashBase@V?$Pair@QAVPxBase@physx@@_K@shdfnd@physx@@PAVPxBase@3@U?$Hash@PAVPxBase@physx@@@23@UGetKey@?$HashMapBase@PAVPxBase@physx@@_KU?$Hash@PAVPxBase@physx@@@shdfnd@2@VAllocator@42@@internal@23@VAllocator@23@$00@internal@shdfnd@physx@@AAEIXZ 1002a460 f i CmCollection.obj
 0001:00029580       ?getEntries@?$CoalescedHashMap@PAVPxBase@physx@@_KU?$Hash@PAVPxBase@physx@@@shdfnd@2@VAllocator@42@@shdfnd@physx@@QBEPBV?$Pair@QAVPxBase@physx@@_K@23@XZ 1002a580 f i CmCollection.obj
 0001:000295a0       ?getEntries@?$HashBase@V?$Pair@QAVPxBase@physx@@_K@shdfnd@physx@@PAVPxBase@3@U?$Hash@PAVPxBase@physx@@@23@UGetKey@?$HashMapBase@PAVPxBase@physx@@_KU?$Hash@PAVPxBase@physx@@@shdfnd@2@VAllocator@42@@internal@23@VAllocator@23@$00@internal@shdfnd@physx@@QBEPBV?$Pair@QAVPxBase@physx@@_K@34@XZ 1002a5a0 f i CmCollection.obj
 0001:000295c0       ?getIterator@?$HashMapBase@_KPAVPxBase@physx@@U?$Hash@_K@shdfnd@2@VAllocator@42@@internal@shdfnd@physx@@QAE?AVIter@?$HashBase@V?$Pair@$$CB_KPAVPxBase@physx@@@shdfnd@physx@@_KU?$Hash@_K@23@UGetKey@?$HashMapBase@_KPAVPxBase@physx@@U?$Hash@_K@shdfnd@2@VAllocator@42@@internal@23@VAllocator@23@$00@234@XZ 1002a5c0 f i CmCollection.obj
 0001:000295f0       ?getName@?$ReflectionAllocator@VCollection@Cm@physx@@@shdfnd@physx@@CAPBDXZ 1002a5f0 f i CmCollection.obj
 0001:00029640       ?grow@?$HashBase@V?$Pair@$$CB_KPAVPxBase@physx@@@shdfnd@physx@@_KU?$Hash@_K@23@UGetKey@?$HashMapBase@_KPAVPxBase@physx@@U?$Hash@_K@shdfnd@2@VAllocator@42@@internal@23@VAllocator@23@$00@internal@shdfnd@physx@@AAEXXZ 1002a640 f i CmCollection.obj
 0001:00029700       ?grow@?$HashBase@V?$Pair@QAVPxBase@physx@@_K@shdfnd@physx@@PAVPxBase@3@U?$Hash@PAVPxBase@physx@@@23@UGetKey@?$HashMapBase@PAVPxBase@physx@@_KU?$Hash@PAVPxBase@physx@@@shdfnd@2@VAllocator@42@@internal@23@VAllocator@23@$00@internal@shdfnd@physx@@AAEXXZ 1002a700 f i CmCollection.obj
 0001:000297c0       ?hash@?$HashBase@V?$Pair@$$CB_KPAVPxBase@physx@@@shdfnd@physx@@_KU?$Hash@_K@23@UGetKey@?$HashMapBase@_KPAVPxBase@physx@@U?$Hash@_K@shdfnd@2@VAllocator@42@@internal@23@VAllocator@23@$00@internal@shdfnd@physx@@ABEIAB_K@Z 1002a7c0 f i CmCollection.obj
 0001:000297f0       ?hash@?$HashBase@V?$Pair@$$CB_KPAVPxBase@physx@@@shdfnd@physx@@_KU?$Hash@_K@23@UGetKey@?$HashMapBase@_KPAVPxBase@physx@@U?$Hash@_K@shdfnd@2@VAllocator@42@@internal@23@VAllocator@23@$00@internal@shdfnd@physx@@ABEIAB_KI@Z 1002a7f0 f i CmCollection.obj
 0001:00029820       ?hash@?$HashBase@V?$Pair@QAVPxBase@physx@@_K@shdfnd@physx@@PAVPxBase@3@U?$Hash@PAVPxBase@physx@@@23@UGetKey@?$HashMapBase@PAVPxBase@physx@@_KU?$Hash@PAVPxBase@physx@@@shdfnd@2@VAllocator@42@@internal@23@VAllocator@23@$00@internal@shdfnd@physx@@ABEIABQAVPxBase@4@@Z 1002a820 f i CmCollection.obj
 0001:00029850       ?hash@?$HashBase@V?$Pair@QAVPxBase@physx@@_K@shdfnd@physx@@PAVPxBase@3@U?$Hash@PAVPxBase@physx@@@23@UGetKey@?$HashMapBase@PAVPxBase@physx@@_KU?$Hash@PAVPxBase@physx@@@shdfnd@2@VAllocator@42@@internal@23@VAllocator@23@$00@internal@shdfnd@physx@@ABEIABQAVPxBase@4@I@Z 1002a850 f i CmCollection.obj
 0001:00029880       ?hash@shdfnd@physx@@YAI_K@Z 1002a880 f i CmCollection.obj
 0001:000299b0       ?init@?$HashBase@V?$Pair@$$CB_KPAVPxBase@physx@@@shdfnd@physx@@_KU?$Hash@_K@23@UGetKey@?$HashMapBase@_KPAVPxBase@physx@@U?$Hash@_K@shdfnd@2@VAllocator@42@@internal@23@VAllocator@23@$00@internal@shdfnd@physx@@AAEXIM@Z 1002a9b0 f i CmCollection.obj
 0001:00029a60       ?init@?$HashBase@V?$Pair@QAVPxBase@physx@@_K@shdfnd@physx@@PAVPxBase@3@U?$Hash@PAVPxBase@physx@@@23@UGetKey@?$HashMapBase@PAVPxBase@physx@@_KU?$Hash@PAVPxBase@physx@@@shdfnd@2@VAllocator@42@@internal@23@VAllocator@23@$00@internal@shdfnd@physx@@AAEXIM@Z 1002aa60 f i CmCollection.obj
 0001:00029b10       ?insert@?$HashMapBase@PAVPxBase@physx@@_KU?$Hash@PAVPxBase@physx@@@shdfnd@2@VAllocator@42@@internal@shdfnd@physx@@QAE_NQAVPxBase@4@_K@Z 1002ab10 f i CmCollection.obj
 0001:00029bb0       ?insert@?$HashMapBase@_KPAVPxBase@physx@@U?$Hash@_K@shdfnd@2@VAllocator@42@@internal@shdfnd@physx@@QAE_N_KQAVPxBase@4@@Z 1002abb0 f i CmCollection.obj
 0001:00029c50       ?release@Collection@Cm@physx@@UAEXXZ 1002ac50 f i CmCollection.obj
 0001:00029ca0       ?replaceWithLast@?$HashBase@V?$Pair@$$CB_KPAVPxBase@physx@@@shdfnd@physx@@_KU?$Hash@_K@23@UGetKey@?$HashMapBase@_KPAVPxBase@physx@@U?$Hash@_K@shdfnd@2@VAllocator@42@@internal@23@VAllocator@23@$00@internal@shdfnd@physx@@AAEXI@Z 1002aca0 f i CmCollection.obj
 0001:00029df0       ?replaceWithLast@?$HashBase@V?$Pair@QAVPxBase@physx@@_K@shdfnd@physx@@PAVPxBase@3@U?$Hash@PAVPxBase@physx@@@23@UGetKey@?$HashMapBase@PAVPxBase@physx@@_KU?$Hash@PAVPxBase@physx@@@shdfnd@2@VAllocator@42@@internal@23@VAllocator@23@$00@internal@shdfnd@physx@@AAEXI@Z 1002adf0 f i CmCollection.obj
 0001:00029f40       ?reserve@?$HashBase@V?$Pair@$$CB_KPAVPxBase@physx@@@shdfnd@physx@@_KU?$Hash@_K@23@UGetKey@?$HashMapBase@_KPAVPxBase@physx@@U?$Hash@_K@shdfnd@2@VAllocator@42@@internal@23@VAllocator@23@$00@internal@shdfnd@physx@@QAEXI@Z 1002af40 f i CmCollection.obj
 0001:00029f70       ?reserve@?$HashBase@V?$Pair@QAVPxBase@physx@@_K@shdfnd@physx@@PAVPxBase@3@U?$Hash@PAVPxBase@physx@@@23@UGetKey@?$HashMapBase@PAVPxBase@physx@@_KU?$Hash@PAVPxBase@physx@@@shdfnd@2@VAllocator@42@@internal@23@VAllocator@23@$00@internal@shdfnd@physx@@QAEXI@Z 1002af70 f i CmCollection.obj
 0001:00029fa0       ?reserve@?$HashMapBase@PAVPxBase@physx@@_KU?$Hash@PAVPxBase@physx@@@shdfnd@2@VAllocator@42@@internal@shdfnd@physx@@QAEXI@Z 1002afa0 f i CmCollection.obj
 0001:00029fc0       ?reserveInternal@?$HashBase@V?$Pair@$$CB_KPAVPxBase@physx@@@shdfnd@physx@@_KU?$Hash@_K@23@UGetKey@?$HashMapBase@_KPAVPxBase@physx@@U?$Hash@_K@shdfnd@2@VAllocator@42@@internal@23@VAllocator@23@$00@internal@shdfnd@physx@@AAEXI@Z 1002afc0 f i CmCollection.obj
 0001:0002a470       ?reserveInternal@?$HashBase@V?$Pair@QAVPxBase@physx@@_K@shdfnd@physx@@PAVPxBase@3@U?$Hash@PAVPxBase@physx@@@23@UGetKey@?$HashMapBase@PAVPxBase@physx@@_KU?$Hash@PAVPxBase@physx@@@shdfnd@2@VAllocator@42@@internal@23@VAllocator@23@$00@internal@shdfnd@physx@@AAEXI@Z 1002b470 f i CmCollection.obj
 0001:0002a920       ?size@?$HashBase@V?$Pair@$$CB_KPAVPxBase@physx@@@shdfnd@physx@@_KU?$Hash@_K@23@UGetKey@?$HashMapBase@_KPAVPxBase@physx@@U?$Hash@_K@shdfnd@2@VAllocator@42@@internal@23@VAllocator@23@$00@internal@shdfnd@physx@@QBEIXZ 1002b920 f i CmCollection.obj
 0001:0002a940       ?size@?$HashBase@V?$Pair@QAVPxBase@physx@@_K@shdfnd@physx@@PAVPxBase@3@U?$Hash@PAVPxBase@physx@@@23@UGetKey@?$HashMapBase@PAVPxBase@physx@@_KU?$Hash@PAVPxBase@physx@@@shdfnd@2@VAllocator@42@@internal@23@VAllocator@23@$00@internal@shdfnd@physx@@QBEIXZ 1002b940 f i CmCollection.obj
 0001:0002a960       ?size@?$HashMapBase@PAVPxBase@physx@@_KU?$Hash@PAVPxBase@physx@@@shdfnd@2@VAllocator@42@@internal@shdfnd@physx@@QBEIXZ 1002b960 f i CmCollection.obj
 0001:0002a980       ?size@?$HashMapBase@_KPAVPxBase@physx@@U?$Hash@_K@shdfnd@2@VAllocator@42@@internal@shdfnd@physx@@QBEIXZ 1002b980 f i CmCollection.obj
 0001:0002a9a0       ?skip@Iter@?$HashBase@V?$Pair@$$CB_KPAVPxBase@physx@@@shdfnd@physx@@_KU?$Hash@_K@23@UGetKey@?$HashMapBase@_KPAVPxBase@physx@@U?$Hash@_K@shdfnd@2@VAllocator@42@@internal@23@VAllocator@23@$00@internal@shdfnd@physx@@AAEXXZ 1002b9a0 f i CmCollection.obj
 0001:0002aa10       ?getProfileNames@CmEventNameProvider@Cm@physx@@UBE?AUPxProfileNames@3@XZ 1002ba10 f   CmEventProfiler.obj
 0001:0002aa40       ?getStringFromId@EventProfiler@Cm@physx@@QAEPBDG@Z 1002ba40 f   CmEventProfiler.obj
 0001:0002aa60       ?enableNVTXSupport@Cm@physx@@YAX_N@Z 1002ba60 f   CmEventProfiler.obj
 0001:0002aa70       ?isNVTXSupportEnabled@Cm@physx@@YA_NXZ 1002ba70 f   CmEventProfiler.obj
 0001:0002aaa0       ??0?$Pair@$$CBUEventIdContextPair@nvtx@@_K@shdfnd@physx@@QAE@ABUEventIdContextPair@nvtx@@AB_K@Z 1002baa0 f i CmEventProfiler.obj
 0001:0002aaf0       ??0?$Pair@$$CBUEventIdContextPair@nvtx@@_K@shdfnd@physx@@QAE@ABV012@@Z 1002baf0 f i CmEventProfiler.obj
 0001:0002ab40       ??0?$PxProfileCompileTimeFilteredEventId@$00@physx@@QAE@G@Z 1002bb40 f i CmEventProfiler.obj
 0001:0002ab70       ??0?$PxProfileCompileTimeFilteredEventId@$0A@@physx@@QAE@G@Z 1002bb70 f i CmEventProfiler.obj
 0001:0002aba0       ??0EventIdContextPair@nvtx@@QAE@_KG@Z 1002bba0 f i CmEventProfiler.obj
 0001:0002abe0       ??0PxProfileEventId@physx@@QAE@G_N@Z 1002bbe0 f i CmEventProfiler.obj
 0001:0002ac10       ??0PxProfileEventName@physx@@QAE@PBDUPxProfileEventId@1@@Z 1002bc10 f i CmEventProfiler.obj
 0001:0002ac40       ??0PxProfileNames@physx@@QAE@IPBUPxProfileEventName@1@@Z 1002bc40 f i CmEventProfiler.obj
 0001:0002ac70       ??0ScopedLock@?$MutexT@V?$ReflectionAllocator@VMutexImpl@shdfnd@physx@@@shdfnd@physx@@@shdfnd@physx@@QAE@AAV123@@Z 1002bc70 f i CmEventProfiler.obj
 0001:0002aca0       ??1ScopedLock@?$MutexT@V?$ReflectionAllocator@VMutexImpl@shdfnd@physx@@@shdfnd@physx@@@shdfnd@physx@@QAE@XZ 1002bca0 f i CmEventProfiler.obj
 0001:0002acc0       ??8EventIdContextPair@nvtx@@QBE_NABU01@@Z 1002bcc0 f i CmEventProfiler.obj
 0001:0002ad30       ??A?$HashMapBase@UEventIdContextPair@nvtx@@_KU?$Hash@UEventIdContextPair@nvtx@@@2@VAllocator@shdfnd@physx@@@internal@shdfnd@physx@@QAEAA_KABUEventIdContextPair@nvtx@@@Z 1002bd30 f i CmEventProfiler.obj
 0001:0002adc0       ??R?$Hash@UEventIdContextPair@nvtx@@@nvtx@@QBEIABUEventIdContextPair@1@@Z 1002bdc0 f i CmEventProfiler.obj
 0001:0002ae10       ??R?$Hash@UEventIdContextPair@nvtx@@@nvtx@@QBE_NABUEventIdContextPair@1@0@Z 1002be10 f i CmEventProfiler.obj
 0001:0002ae30       ??RGetKey@?$HashMapBase@UEventIdContextPair@nvtx@@_KU?$Hash@UEventIdContextPair@nvtx@@@2@VAllocator@shdfnd@physx@@@internal@shdfnd@physx@@QAEABUEventIdContextPair@nvtx@@ABV?$Pair@$$CBUEventIdContextPair@nvtx@@_K@34@@Z 1002be30 f i CmEventProfiler.obj
 0001:0002ae50       ?GetMBPPostUpdate@BroadPhase@ProfileEventId@Cm@physx@@SAABUPxProfileEventId@4@XZ 1002be50 f i CmEventProfiler.obj
 0001:0002ae60       ?GetMBPPostUpdateSPU@BroadPhase@ProfileEventId@Cm@physx@@SAABUPxProfileEventId@4@XZ 1002be60 f i CmEventProfiler.obj
 0001:0002ae70       ?GetMBPUpdate@BroadPhase@ProfileEventId@Cm@physx@@SAABUPxProfileEventId@4@XZ 1002be70 f i CmEventProfiler.obj
 0001:0002ae80       ?GetMBPUpdateSPU@BroadPhase@ProfileEventId@Cm@physx@@SAABUPxProfileEventId@4@XZ 1002be80 f i CmEventProfiler.obj
 0001:0002ae90       ?GetSapPostUpdate@BroadPhase@ProfileEventId@Cm@physx@@SAABUPxProfileEventId@4@XZ 1002be90 f i CmEventProfiler.obj
 0001:0002aea0       ?GetSapPostUpdateSPU@BroadPhase@ProfileEventId@Cm@physx@@SAABUPxProfileEventId@4@XZ 1002bea0 f i CmEventProfiler.obj
 0001:0002aeb0       ?GetSapUpdate@BroadPhase@ProfileEventId@Cm@physx@@SAABUPxProfileEventId@4@XZ 1002beb0 f i CmEventProfiler.obj
 0001:0002aec0       ?GetSapUpdateSPU@BroadPhase@ProfileEventId@Cm@physx@@SAABUPxProfileEventId@4@XZ 1002bec0 f i CmEventProfiler.obj
 0001:0002aed0       ?GetaddActor@API@ProfileEventId@Cm@physx@@SAABUPxProfileEventId@4@XZ 1002bed0 f i CmEventProfiler.obj
 0001:0002aee0       ?GetaddActorToSim@API@ProfileEventId@Cm@physx@@SAABUPxProfileEventId@4@XZ 1002bee0 f i CmEventProfiler.obj
 0001:0002aef0       ?GetaddActors@API@ProfileEventId@Cm@physx@@SAABUPxProfileEventId@4@XZ 1002bef0 f i CmEventProfiler.obj
 0001:0002af00       ?GetaddAggregate@API@ProfileEventId@Cm@physx@@SAABUPxProfileEventId@4@XZ 1002bf00 f i CmEventProfiler.obj
 0001:0002af10       ?GetaddArticulation@API@ProfileEventId@Cm@physx@@SAABUPxProfileEventId@4@XZ 1002bf10 f i CmEventProfiler.obj
 0001:0002af20       ?GetaddCloth@API@ProfileEventId@Cm@physx@@SAABUPxProfileEventId@4@XZ 1002bf20 f i CmEventProfiler.obj
 0001:0002af30       ?GetaddCollection@API@ProfileEventId@Cm@physx@@SAABUPxProfileEventId@4@XZ 1002bf30 f i CmEventProfiler.obj
 0001:0002af40       ?GetaddParticleFluid@API@ProfileEventId@Cm@physx@@SAABUPxProfileEventId@4@XZ 1002bf40 f i CmEventProfiler.obj
 0001:0002af50       ?GetaddParticleSystem@API@ProfileEventId@Cm@physx@@SAABUPxProfileEventId@4@XZ 1002bf50 f i CmEventProfiler.obj
 0001:0002af60       ?GetaddShapesToSQ@API@ProfileEventId@Cm@physx@@SAABUPxProfileEventId@4@XZ 1002bf60 f i CmEventProfiler.obj
 0001:0002af70       ?GetaddShapesToSim@API@ProfileEventId@Cm@physx@@SAABUPxProfileEventId@4@XZ 1002bf70 f i CmEventProfiler.obj
 0001:0002af80       ?GetapplyExternalImpulses@Articulations@ProfileEventId@Cm@physx@@SAABUPxProfileEventId@4@XZ 1002bf80 f i CmEventProfiler.obj
 0001:0002af90       ?GetapplyJointDrives@Articulations@ProfileEventId@Cm@physx@@SAABUPxProfileEventId@4@XZ 1002bf90 f i CmEventProfiler.obj
 0001:0002afa0       ?GetbroadPhase@Basic@ProfileEventId@Cm@physx@@SAABUPxProfileEventId@4@XZ 1002bfa0 f i CmEventProfiler.obj
 0001:0002afb0       ?GetbrokenEdgeIslands@IslandGen@ProfileEventId@Cm@physx@@SAABUPxProfileEventId@4@XZ 1002bfb0 f i CmEventProfiler.obj
 0001:0002afc0       ?GetbuildActiveTransforms@Sim@ProfileEventId@Cm@physx@@SAABUPxProfileEventId@4@XZ 1002bfc0 f i CmEventProfiler.obj
 0001:0002afd0       ?GetccdBroadPhase@Sim@ProfileEventId@Cm@physx@@SAABUPxProfileEventId@4@XZ 1002bfd0 f i CmEventProfiler.obj
 0001:0002afe0       ?GetccdBroadPhaseComplete@Sim@ProfileEventId@Cm@physx@@SAABUPxProfileEventId@4@XZ 1002bfe0 f i CmEventProfiler.obj
 0001:0002aff0       ?GetccdIsland@Sim@ProfileEventId@Cm@physx@@SAABUPxProfileEventId@4@XZ 1002bff0 f i CmEventProfiler.obj
 0001:0002b000       ?GetccdPair@Sim@ProfileEventId@Cm@physx@@SAABUPxProfileEventId@4@XZ 1002c000 f i CmEventProfiler.obj
 0001:0002b010       ?GetccdSweep@Sim@ProfileEventId@Cm@physx@@SAABUPxProfileEventId@4@XZ 1002c010 f i CmEventProfiler.obj
 0001:0002b020       ?GetccdSweepMerge@Sim@ProfileEventId@Cm@physx@@SAABUPxProfileEventId@4@XZ 1002c020 f i CmEventProfiler.obj
 0001:0002b030       ?GetcheckCollision@Basic@ProfileEventId@Cm@physx@@SAABUPxProfileEventId@4@XZ 1002c030 f i CmEventProfiler.obj
 0001:0002b040       ?GetcheckConstraintBreakage@Sim@ProfileEventId@Cm@physx@@SAABUPxProfileEventId@4@XZ 1002c040 f i CmEventProfiler.obj
 0001:0002b050       ?GetcheckResults@Basic@ProfileEventId@Cm@physx@@SAABUPxProfileEventId@4@XZ 1002c050 f i CmEventProfiler.obj
 0001:0002b060       ?GetcleanupEdgeEvents@IslandGen@ProfileEventId@Cm@physx@@SAABUPxProfileEventId@4@XZ 1002c060 f i CmEventProfiler.obj
 0001:0002b070       ?GetcollideQueueTasks@Sim@ProfileEventId@Cm@physx@@SAABUPxProfileEventId@4@XZ 1002c070 f i CmEventProfiler.obj
 0001:0002b080       ?Getcollision@Basic@ProfileEventId@Cm@physx@@SAABUPxProfileEventId@4@XZ 1002c080 f i CmEventProfiler.obj
 0001:0002b090       ?GetcomputeAABBUpdateLists@BroadPhase@ProfileEventId@Cm@physx@@SAABUPxProfileEventId@4@XZ 1002c090 f i CmEventProfiler.obj
 0001:0002b0a0       ?GetcomputeAggAggShapePairs@BroadPhase@ProfileEventId@Cm@physx@@SAABUPxProfileEventId@4@XZ 1002c0a0 f i CmEventProfiler.obj
 0001:0002b0b0       ?GetcomputeJointDrives@Articulations@ProfileEventId@Cm@physx@@SAABUPxProfileEventId@4@XZ 1002c0b0 f i CmEventProfiler.obj
 0001:0002b0c0       ?GetcorrelatePatches@Dynamics@ProfileEventId@Cm@physx@@SAABUPxProfileEventId@4@XZ 1002c0c0 f i CmEventProfiler.obj
 0001:0002b0d0       ?GetcreateBatchQuery@API@ProfileEventId@Cm@physx@@SAABUPxProfileEventId@4@XZ 1002c0d0 f i CmEventProfiler.obj
 0001:0002b0e0       ?GetcreateContactPatches@Dynamics@ProfileEventId@Cm@physx@@SAABUPxProfileEventId@4@XZ 1002c0e0 f i CmEventProfiler.obj
 0001:0002b0f0       ?GetcreateFinalize@Dynamics@ProfileEventId@Cm@physx@@SAABUPxProfileEventId@4@XZ 1002c0f0 f i CmEventProfiler.obj
 0001:0002b100       ?GetcreatePVDInstance@PVD@ProfileEventId@Cm@physx@@SAABUPxProfileEventId@4@XZ 1002c100 f i CmEventProfiler.obj
 0001:0002b110       ?GetcreatedNodes@IslandGen@ProfileEventId@Cm@physx@@SAABUPxProfileEventId@4@XZ 1002c110 f i CmEventProfiler.obj
 0001:0002b120       ?GetdeletedNodesEdges@IslandGen@ProfileEventId@Cm@physx@@SAABUPxProfileEventId@4@XZ 1002c120 f i CmEventProfiler.obj
 0001:0002b130       ?GetduplicateKinematicNodes@IslandGen@ProfileEventId@Cm@physx@@SAABUPxProfileEventId@4@XZ 1002c130 f i CmEventProfiler.obj
 0001:0002b140       ?Getdynamics@Basic@ProfileEventId@Cm@physx@@SAABUPxProfileEventId@4@XZ 1002c140 f i CmEventProfiler.obj
 0001:0002b150       ?GetemptyIslands@IslandGen@ProfileEventId@Cm@physx@@SAABUPxProfileEventId@4@XZ 1002c150 f i CmEventProfiler.obj
 0001:0002b160       ?GetendStep@ParticleSim@ProfileEventId@Cm@physx@@SAABUPxProfileEventId@4@XZ 1002c160 f i CmEventProfiler.obj
 0001:0002b170       ?Getexecute@BatchedSceneQuery@ProfileEventId@Cm@physx@@SAABUPxProfileEventId@4@XZ 1002c170 f i CmEventProfiler.obj
 0001:0002b180       ?GetfetchResults@Basic@ProfileEventId@Cm@physx@@SAABUPxProfileEventId@4@XZ 1002c180 f i CmEventProfiler.obj
 0001:0002b190       ?GetfetchResults@Sim@ProfileEventId@Cm@physx@@SAABUPxProfileEventId@4@XZ 1002c190 f i CmEventProfiler.obj
 0001:0002b1a0       ?GetfindAndReplaceWithLast@API@ProfileEventId@Cm@physx@@SAABUPxProfileEventId@4@XZ 1002c1a0 f i CmEventProfiler.obj
 0001:0002b1b0       ?Getfinish@BroadPhase@ProfileEventId@Cm@physx@@SAABUPxProfileEventId@4@XZ 1002c1b0 f i CmEventProfiler.obj
 0001:0002b1c0       ?GetfinishModifiablePairs@Sim@ProfileEventId@Cm@physx@@SAABUPxProfileEventId@4@XZ 1002c1c0 f i CmEventProfiler.obj
 0001:0002b1d0       ?GetfireCallBacksPostSync@Sim@ProfileEventId@Cm@physx@@SAABUPxProfileEventId@4@XZ 1002c1d0 f i CmEventProfiler.obj
 0001:0002b1e0       ?GetfireCallBacksPreSync@Sim@ProfileEventId@Cm@physx@@SAABUPxProfileEventId@4@XZ 1002c1e0 f i CmEventProfiler.obj
 0001:0002b1f0       ?GetfireCustomFilteringCallbacks@Sim@ProfileEventId@Cm@physx@@SAABUPxProfileEventId@4@XZ 1002c1f0 f i CmEventProfiler.obj
 0001:0002b200       ?GetflushQueryUpdates@API@ProfileEventId@Cm@physx@@SAABUPxProfileEventId@4@XZ 1002c200 f i CmEventProfiler.obj
 0001:0002b210       ?GetflushSimulation@API@ProfileEventId@Cm@physx@@SAABUPxProfileEventId@4@XZ 1002c210 f i CmEventProfiler.obj
 0001:0002b220       ?GetflushUpdates@SceneQuery@ProfileEventId@Cm@physx@@SAABUPxProfileEventId@4@XZ 1002c220 f i CmEventProfiler.obj
 0001:0002b230       ?GetforceDynamicTreeRebuild@API@ProfileEventId@Cm@physx@@SAABUPxProfileEventId@4@XZ 1002c230 f i CmEventProfiler.obj
 0001:0002b240       ?GetfreeBuffers@IslandGen@ProfileEventId@Cm@physx@@SAABUPxProfileEventId@4@XZ 1002c240 f i CmEventProfiler.obj
 0001:0002b250       ?GetgetFrictionPatch@Dynamics@ProfileEventId@Cm@physx@@SAABUPxProfileEventId@4@XZ 1002c250 f i CmEventProfiler.obj
 0001:0002b260       ?GetgetSimEvents@Sim@ProfileEventId@Cm@physx@@SAABUPxProfileEventId@4@XZ 1002c260 f i CmEventProfiler.obj
 0001:0002b270       ?GetgrowPatches@Dynamics@ProfileEventId@Cm@physx@@SAABUPxProfileEventId@4@XZ 1002c270 f i CmEventProfiler.obj
 0001:0002b280       ?Getintegrate@Articulations@ProfileEventId@Cm@physx@@SAABUPxProfileEventId@4@XZ 1002c280 f i CmEventProfiler.obj
 0001:0002b290       ?GetislandGen@Basic@ProfileEventId@Cm@physx@@SAABUPxProfileEventId@4@XZ 1002c290 f i CmEventProfiler.obj
 0001:0002b2a0       ?GetjoinedEdges@IslandGen@ProfileEventId@Cm@physx@@SAABUPxProfileEventId@4@XZ 1002c2a0 f i CmEventProfiler.obj
 0001:0002b2b0       ?GetjointLoads@Articulations@ProfileEventId@Cm@physx@@SAABUPxProfileEventId@4@XZ 1002c2b0 f i CmEventProfiler.obj
 0001:0002b2c0       ?GetnarrowPhase@Basic@ProfileEventId@Cm@physx@@SAABUPxProfileEventId@4@XZ 1002c2c0 f i CmEventProfiler.obj
 0001:0002b2d0       ?GetnarrowPhase@Sim@ProfileEventId@Cm@physx@@SAABUPxProfileEventId@4@XZ 1002c2d0 f i CmEventProfiler.obj
 0001:0002b2e0       ?GetnarrowPhaseMerge@Sim@ProfileEventId@Cm@physx@@SAABUPxProfileEventId@4@XZ 1002c2e0 f i CmEventProfiler.obj
 0001:0002b2f0       ?GetoriginShift@PVD@ProfileEventId@Cm@physx@@SAABUPxProfileEventId@4@XZ 1002c2f0 f i CmEventProfiler.obj
 0001:0002b300       ?GetoverlapMultiple@BatchedSceneQuery@ProfileEventId@Cm@physx@@SAABUPxProfileEventId@4@XZ 1002c300 f i CmEventProfiler.obj
 0001:0002b310       ?GetoverlapMultiple@SceneQuery@ProfileEventId@Cm@physx@@SAABUPxProfileEventId@4@XZ 1002c310 f i CmEventProfiler.obj
 0001:0002b320       ?GetparallelSolve@Dynamics@ProfileEventId@Cm@physx@@SAABUPxProfileEventId@4@XZ 1002c320 f i CmEventProfiler.obj
 0001:0002b330       ?GetpostIslandGenSecondPass@Sim@ProfileEventId@Cm@physx@@SAABUPxProfileEventId@4@XZ 1002c330 f i CmEventProfiler.obj
 0001:0002b340       ?GetpreIslandGen@Sim@ProfileEventId@Cm@physx@@SAABUPxProfileEventId@4@XZ 1002c340 f i CmEventProfiler.obj
 0001:0002b350       ?GetpreIslandGenSecondPass@Sim@ProfileEventId@Cm@physx@@SAABUPxProfileEventId@4@XZ 1002c350 f i CmEventProfiler.obj
 0001:0002b360       ?GetprepareDataBlock@Articulations@ProfileEventId@Cm@physx@@SAABUPxProfileEventId@4@XZ 1002c360 f i CmEventProfiler.obj
 0001:0002b370       ?GetprepareFsData@Articulations@ProfileEventId@Cm@physx@@SAABUPxProfileEventId@4@XZ 1002c370 f i CmEventProfiler.obj
 0001:0002b380       ?GetprocessBPResults@BroadPhase@ProfileEventId@Cm@physx@@SAABUPxProfileEventId@4@XZ 1002c380 f i CmEventProfiler.obj
 0001:0002b390       ?GetprocessLostOverlaps@Sim@ProfileEventId@Cm@physx@@SAABUPxProfileEventId@4@XZ 1002c390 f i CmEventProfiler.obj
 0001:0002b3a0       ?GetprocessNewOverlaps@Sim@ProfileEventId@Cm@physx@@SAABUPxProfileEventId@4@XZ 1002c3a0 f i CmEventProfiler.obj
 0001:0002b3b0       ?GetprocessSleepingIslands@IslandGen@ProfileEventId@Cm@physx@@SAABUPxProfileEventId@4@XZ 1002c3b0 f i CmEventProfiler.obj
 0001:0002b3c0       ?GetprocessTriggers@Sim@ProfileEventId@Cm@physx@@SAABUPxProfileEventId@4@XZ 1002c3c0 f i CmEventProfiler.obj
 0001:0002b3d0       ?GetprojectConstraints@Sim@ProfileEventId@Cm@physx@@SAABUPxProfileEventId@4@XZ 1002c3d0 f i CmEventProfiler.obj
 0001:0002b3e0       ?GetprojectContacts@Sim@ProfileEventId@Cm@physx@@SAABUPxProfileEventId@4@XZ 1002c3e0 f i CmEventProfiler.obj
 0001:0002b3f0       ?GetprojectionTreeUpdates@Sim@ProfileEventId@Cm@physx@@SAABUPxProfileEventId@4@XZ 1002c3f0 f i CmEventProfiler.obj
 0001:0002b400       ?GetpropagateDrivenInertia@Articulations@ProfileEventId@Cm@physx@@SAABUPxProfileEventId@4@XZ 1002c400 f i CmEventProfiler.obj
 0001:0002b410       ?GetpvdFrameStart@Basic@ProfileEventId@Cm@physx@@SAABUPxProfileEventId@4@XZ 1002c410 f i CmEventProfiler.obj
 0001:0002b420       ?GetqueueNarrowPhase@Sim@ProfileEventId@Cm@physx@@SAABUPxProfileEventId@4@XZ 1002c420 f i CmEventProfiler.obj
 0001:0002b430       ?GetraycastAny@BatchedSceneQuery@ProfileEventId@Cm@physx@@SAABUPxProfileEventId@4@XZ 1002c430 f i CmEventProfiler.obj
 0001:0002b440       ?GetraycastAny@SceneQuery@ProfileEventId@Cm@physx@@SAABUPxProfileEventId@4@XZ 1002c440 f i CmEventProfiler.obj
 0001:0002b450       ?GetraycastMultiple@BatchedSceneQuery@ProfileEventId@Cm@physx@@SAABUPxProfileEventId@4@XZ 1002c450 f i CmEventProfiler.obj
 0001:0002b460       ?GetraycastMultiple@SceneQuery@ProfileEventId@Cm@physx@@SAABUPxProfileEventId@4@XZ 1002c460 f i CmEventProfiler.obj
 0001:0002b470       ?GetraycastSingle@BatchedSceneQuery@ProfileEventId@Cm@physx@@SAABUPxProfileEventId@4@XZ 1002c470 f i CmEventProfiler.obj
 0001:0002b480       ?GetraycastSingle@SceneQuery@ProfileEventId@Cm@physx@@SAABUPxProfileEventId@4@XZ 1002c480 f i CmEventProfiler.obj
 0001:0002b490       ?GetreleaseBatchQuery@API@ProfileEventId@Cm@physx@@SAABUPxProfileEventId@4@XZ 1002c490 f i CmEventProfiler.obj
 0001:0002b4a0       ?GetreleasePVDInstance@PVD@ProfileEventId@Cm@physx@@SAABUPxProfileEventId@4@XZ 1002c4a0 f i CmEventProfiler.obj
 0001:0002b4b0       ?GetremoveActor@API@ProfileEventId@Cm@physx@@SAABUPxProfileEventId@4@XZ 1002c4b0 f i CmEventProfiler.obj
 0001:0002b4c0       ?GetremoveActorFromSim@API@ProfileEventId@Cm@physx@@SAABUPxProfileEventId@4@XZ 1002c4c0 f i CmEventProfiler.obj
 0001:0002b4d0       ?GetremoveActors@API@ProfileEventId@Cm@physx@@SAABUPxProfileEventId@4@XZ 1002c4d0 f i CmEventProfiler.obj
 0001:0002b4e0       ?GetremoveAggregate@API@ProfileEventId@Cm@physx@@SAABUPxProfileEventId@4@XZ 1002c4e0 f i CmEventProfiler.obj
 0001:0002b4f0       ?GetremoveArticulation@API@ProfileEventId@Cm@physx@@SAABUPxProfileEventId@4@XZ 1002c4f0 f i CmEventProfiler.obj
 0001:0002b500       ?GetremoveCloth@API@ProfileEventId@Cm@physx@@SAABUPxProfileEventId@4@XZ 1002c500 f i CmEventProfiler.obj
 0001:0002b510       ?GetremoveParticleFluid@API@ProfileEventId@Cm@physx@@SAABUPxProfileEventId@4@XZ 1002c510 f i CmEventProfiler.obj
 0001:0002b520       ?GetremoveParticleSystem@API@ProfileEventId@Cm@physx@@SAABUPxProfileEventId@4@XZ 1002c520 f i CmEventProfiler.obj
 0001:0002b530       ?GetremoveShapesFromSQ@API@ProfileEventId@Cm@physx@@SAABUPxProfileEventId@4@XZ 1002c530 f i CmEventProfiler.obj
 0001:0002b540       ?GetremoveShapesFromSim@API@ProfileEventId@Cm@physx@@SAABUPxProfileEventId@4@XZ 1002c540 f i CmEventProfiler.obj
 0001:0002b550       ?GetresetDependencies@Sim@ProfileEventId@Cm@physx@@SAABUPxProfileEventId@4@XZ 1002c550 f i CmEventProfiler.obj
 0001:0002b560       ?GetresizeArrays@IslandGen@ProfileEventId@Cm@physx@@SAABUPxProfileEventId@4@XZ 1002c560 f i CmEventProfiler.obj
 0001:0002b570       ?GetresizeForKinematics@IslandGen@ProfileEventId@Cm@physx@@SAABUPxProfileEventId@4@XZ 1002c570 f i CmEventProfiler.obj
 0001:0002b580       ?GetrigidBodySolver@Basic@ProfileEventId@Cm@physx@@SAABUPxProfileEventId@4@XZ 1002c580 f i CmEventProfiler.obj
 0001:0002b590       ?GetsceneFinalization@Sim@ProfileEventId@Cm@physx@@SAABUPxProfileEventId@4@XZ 1002c590 f i CmEventProfiler.obj
 0001:0002b5a0       ?GetsceneUpdate@PVD@ProfileEventId@Cm@physx@@SAABUPxProfileEventId@4@XZ 1002c5a0 f i CmEventProfiler.obj
 0001:0002b5b0       ?GetsendPVDArrays@PVD@ProfileEventId@Cm@physx@@SAABUPxProfileEventId@4@XZ 1002c5b0 f i CmEventProfiler.obj
 0001:0002b5c0       ?GetsetupConstraints@Articulations@ProfileEventId@Cm@physx@@SAABUPxProfileEventId@4@XZ 1002c5c0 f i CmEventProfiler.obj
 0001:0002b5d0       ?GetsetupDrives@Articulations@ProfileEventId@Cm@physx@@SAABUPxProfileEventId@4@XZ 1002c5d0 f i CmEventProfiler.obj
 0001:0002b5e0       ?GetsetupFinalize@Dynamics@ProfileEventId@Cm@physx@@SAABUPxProfileEventId@4@XZ 1002c5e0 f i CmEventProfiler.obj
 0001:0002b5f0       ?GetsetupProject@Articulations@ProfileEventId@Cm@physx@@SAABUPxProfileEventId@4@XZ 1002c5f0 f i CmEventProfiler.obj
 0001:0002b600       ?GetshapesUpdateProcessing@ParticleSim@ProfileEventId@Cm@physx@@SAABUPxProfileEventId@4@XZ 1002c600 f i CmEventProfiler.obj
 0001:0002b610       ?GetshiftOrigin@API@ProfileEventId@Cm@physx@@SAABUPxProfileEventId@4@XZ 1002c610 f i CmEventProfiler.obj
 0001:0002b620       ?GetsimAddShapeToBroadPhase@API@ProfileEventId@Cm@physx@@SAABUPxProfileEventId@4@XZ 1002c620 f i CmEventProfiler.obj
 0001:0002b630       ?Getsimulate@Basic@ProfileEventId@Cm@physx@@SAABUPxProfileEventId@4@XZ 1002c630 f i CmEventProfiler.obj
 0001:0002b640       ?GetsolveGroup@Dynamics@ProfileEventId@Cm@physx@@SAABUPxProfileEventId@4@XZ 1002c640 f i CmEventProfiler.obj
 0001:0002b650       ?GetsolveQueueTasks@Sim@ProfileEventId@Cm@physx@@SAABUPxProfileEventId@4@XZ 1002c650 f i CmEventProfiler.obj
 0001:0002b660       ?Getsolver@Dynamics@ProfileEventId@Cm@physx@@SAABUPxProfileEventId@4@XZ 1002c660 f i CmEventProfiler.obj
 0001:0002b670       ?GetsolverMergeResults@Dynamics@ProfileEventId@Cm@physx@@SAABUPxProfileEventId@4@XZ 1002c670 f i CmEventProfiler.obj
 0001:0002b680       ?GetsolverQueueTasks@Dynamics@ProfileEventId@Cm@physx@@SAABUPxProfileEventId@4@XZ 1002c680 f i CmEventProfiler.obj
 0001:0002b690       ?GetstartStep@ParticleSim@ProfileEventId@Cm@physx@@SAABUPxProfileEventId@4@XZ 1002c690 f i CmEventProfiler.obj
 0001:0002b6a0       ?GetstepSetupCollide@Sim@ProfileEventId@Cm@physx@@SAABUPxProfileEventId@4@XZ 1002c6a0 f i CmEventProfiler.obj
 0001:0002b6b0       ?GetstepSetupSimulate@Sim@ProfileEventId@Cm@physx@@SAABUPxProfileEventId@4@XZ 1002c6b0 f i CmEventProfiler.obj
 0001:0002b6c0       ?GetstepSetupSolve@Sim@ProfileEventId@Cm@physx@@SAABUPxProfileEventId@4@XZ 1002c6c0 f i CmEventProfiler.obj
 0001:0002b6d0       ?GetsweepAny@SceneQuery@ProfileEventId@Cm@physx@@SAABUPxProfileEventId@4@XZ 1002c6d0 f i CmEventProfiler.obj
 0001:0002b6e0       ?GetsweepAnyList@SceneQuery@ProfileEventId@Cm@physx@@SAABUPxProfileEventId@4@XZ 1002c6e0 f i CmEventProfiler.obj
 0001:0002b6f0       ?GetsweepMultiple@BatchedSceneQuery@ProfileEventId@Cm@physx@@SAABUPxProfileEventId@4@XZ 1002c6f0 f i CmEventProfiler.obj
 0001:0002b700       ?GetsweepMultiple@SceneQuery@ProfileEventId@Cm@physx@@SAABUPxProfileEventId@4@XZ 1002c700 f i CmEventProfiler.obj
 0001:0002b710       ?GetsweepMultipleList@SceneQuery@ProfileEventId@Cm@physx@@SAABUPxProfileEventId@4@XZ 1002c710 f i CmEventProfiler.obj
 0001:0002b720       ?GetsweepSingle@BatchedSceneQuery@ProfileEventId@Cm@physx@@SAABUPxProfileEventId@4@XZ 1002c720 f i CmEventProfiler.obj
 0001:0002b730       ?GetsweepSingle@SceneQuery@ProfileEventId@Cm@physx@@SAABUPxProfileEventId@4@XZ 1002c730 f i CmEventProfiler.obj
 0001:0002b740       ?GetsweepSingleList@SceneQuery@ProfileEventId@Cm@physx@@SAABUPxProfileEventId@4@XZ 1002c740 f i CmEventProfiler.obj
 0001:0002b750       ?GetsyncBodiesAfterIntegration@Sim@ProfileEventId@Cm@physx@@SAABUPxProfileEventId@4@XZ 1002c750 f i CmEventProfiler.obj
 0001:0002b760       ?GetsyncBodiesAfterSolver@Sim@ProfileEventId@Cm@physx@@SAABUPxProfileEventId@4@XZ 1002c760 f i CmEventProfiler.obj
 0001:0002b770       ?GetsyncState@Sim@ProfileEventId@Cm@physx@@SAABUPxProfileEventId@4@XZ 1002c770 f i CmEventProfiler.obj
 0001:0002b780       ?GettaskFrameworkSetup@Sim@ProfileEventId@Cm@physx@@SAABUPxProfileEventId@4@XZ 1002c780 f i CmEventProfiler.obj
 0001:0002b790       ?GetupdateAggAABBs@BroadPhase@ProfileEventId@Cm@physx@@SAABUPxProfileEventId@4@XZ 1002c790 f i CmEventProfiler.obj
 0001:0002b7a0       ?GetupdateAggLocalSpaceBounds@BroadPhase@ProfileEventId@Cm@physx@@SAABUPxProfileEventId@4@XZ 1002c7a0 f i CmEventProfiler.obj
 0001:0002b7b0       ?GetupdateBroadphase@BroadPhase@ProfileEventId@Cm@physx@@SAABUPxProfileEventId@4@XZ 1002c7b0 f i CmEventProfiler.obj
 0001:0002b7c0       ?GetupdateCCDMultiPass@Sim@ProfileEventId@Cm@physx@@SAABUPxProfileEventId@4@XZ 1002c7c0 f i CmEventProfiler.obj
 0001:0002b7d0       ?GetupdateCCDSinglePass@Sim@ProfileEventId@Cm@physx@@SAABUPxProfileEventId@4@XZ 1002c7d0 f i CmEventProfiler.obj
 0001:0002b7e0       ?GetupdateCloths@PVD@ProfileEventId@Cm@physx@@SAABUPxProfileEventId@4@XZ 1002c7e0 f i CmEventProfiler.obj
 0001:0002b7f0       ?GetupdateCollision@ParticleSim@ProfileEventId@Cm@physx@@SAABUPxProfileEventId@4@XZ 1002c7f0 f i CmEventProfiler.obj
 0001:0002b800       ?GetupdateContacts@PVD@ProfileEventId@Cm@physx@@SAABUPxProfileEventId@4@XZ 1002c800 f i CmEventProfiler.obj
 0001:0002b810       ?GetupdateDirtyShaders@Sim@ProfileEventId@Cm@physx@@SAABUPxProfileEventId@4@XZ 1002c810 f i CmEventProfiler.obj
 0001:0002b820       ?GetupdateDynamicBodies@PVD@ProfileEventId@Cm@physx@@SAABUPxProfileEventId@4@XZ 1002c820 f i CmEventProfiler.obj
 0001:0002b830       ?GetupdateForces@Sim@ProfileEventId@Cm@physx@@SAABUPxProfileEventId@4@XZ 1002c830 f i CmEventProfiler.obj
 0001:0002b840       ?GetupdateIslands@Sim@ProfileEventId@Cm@physx@@SAABUPxProfileEventId@4@XZ 1002c840 f i CmEventProfiler.obj
 0001:0002b850       ?GetupdateIslandsSecondPass@Sim@ProfileEventId@Cm@physx@@SAABUPxProfileEventId@4@XZ 1002c850 f i CmEventProfiler.obj
 0001:0002b860       ?GetupdateJoints@PVD@ProfileEventId@Cm@physx@@SAABUPxProfileEventId@4@XZ 1002c860 f i CmEventProfiler.obj
 0001:0002b870       ?GetupdateKinematics@Dynamics@ProfileEventId@Cm@physx@@SAABUPxProfileEventId@4@XZ 1002c870 f i CmEventProfiler.obj
 0001:0002b880       ?GetupdateLazyAggShapeAABBs@BroadPhase@ProfileEventId@Cm@physx@@SAABUPxProfileEventId@4@XZ 1002c880 f i CmEventProfiler.obj
 0001:0002b890       ?GetupdatePVDProperties@PVD@ProfileEventId@Cm@physx@@SAABUPxProfileEventId@4@XZ 1002c890 f i CmEventProfiler.obj
 0001:0002b8a0       ?GetupdatePariclesAndFluids@PVD@ProfileEventId@Cm@physx@@SAABUPxProfileEventId@4@XZ 1002c8a0 f i CmEventProfiler.obj
 0001:0002b8b0       ?GetupdatePositions@Dynamics@ProfileEventId@Cm@physx@@SAABUPxProfileEventId@4@XZ 1002c8b0 f i CmEventProfiler.obj
 0001:0002b8c0       ?GetupdatePruningTrees@Sim@ProfileEventId@Cm@physx@@SAABUPxProfileEventId@4@XZ 1002c8c0 f i CmEventProfiler.obj
 0001:0002b8d0       ?GetupdateShapeAABBs@BroadPhase@ProfileEventId@Cm@physx@@SAABUPxProfileEventId@4@XZ 1002c8d0 f i CmEventProfiler.obj
 0001:0002b8e0       ?GetupdateSleeping@PVD@ProfileEventId@Cm@physx@@SAABUPxProfileEventId@4@XZ 1002c8e0 f i CmEventProfiler.obj
 0001:0002b8f0       ?GetupdateVelocities@Dynamics@ProfileEventId@Cm@physx@@SAABUPxProfileEventId@4@XZ 1002c8f0 f i CmEventProfiler.obj
 0001:0002b900       ?GetvisualizeEndStep@Sim@ProfileEventId@Cm@physx@@SAABUPxProfileEventId@4@XZ 1002c900 f i CmEventProfiler.obj
 0001:0002b910       ?GetvisualizeStartStep@Sim@ProfileEventId@Cm@physx@@SAABUPxProfileEventId@4@XZ 1002c910 f i CmEventProfiler.obj
 0001:0002b920       ?create@?$HashBase@V?$Pair@$$CBUEventIdContextPair@nvtx@@_K@shdfnd@physx@@UEventIdContextPair@nvtx@@U?$Hash@UEventIdContextPair@nvtx@@@5@UGetKey@?$HashMapBase@UEventIdContextPair@nvtx@@_KU?$Hash@UEventIdContextPair@nvtx@@@2@VAllocator@shdfnd@physx@@@internal@23@VAllocator@23@$00@internal@shdfnd@physx@@QAEPAV?$Pair@$$CBUEventIdContextPair@nvtx@@_K@34@ABUEventIdContextPair@nvtx@@AA_N@Z 1002c920 f i CmEventProfiler.obj
 0001:0002bab0       ?freeListAdd@?$HashBase@V?$Pair@$$CBUEventIdContextPair@nvtx@@_K@shdfnd@physx@@UEventIdContextPair@nvtx@@U?$Hash@UEventIdContextPair@nvtx@@@5@UGetKey@?$HashMapBase@UEventIdContextPair@nvtx@@_KU?$Hash@UEventIdContextPair@nvtx@@@2@VAllocator@shdfnd@physx@@@internal@23@VAllocator@23@$00@internal@shdfnd@physx@@AAEXII@Z 1002cab0 f i CmEventProfiler.obj
 0001:0002bba0       ?freeListEmpty@?$HashBase@V?$Pair@$$CBUEventIdContextPair@nvtx@@_K@shdfnd@physx@@UEventIdContextPair@nvtx@@U?$Hash@UEventIdContextPair@nvtx@@@5@UGetKey@?$HashMapBase@UEventIdContextPair@nvtx@@_KU?$Hash@UEventIdContextPair@nvtx@@@2@VAllocator@shdfnd@physx@@@internal@23@VAllocator@23@$00@internal@shdfnd@physx@@ABE_NXZ 1002cba0 f i CmEventProfiler.obj
 0001:0002bc10       ?freeListGetNext@?$HashBase@V?$Pair@$$CBUEventIdContextPair@nvtx@@_K@shdfnd@physx@@UEventIdContextPair@nvtx@@U?$Hash@UEventIdContextPair@nvtx@@@5@UGetKey@?$HashMapBase@UEventIdContextPair@nvtx@@_KU?$Hash@UEventIdContextPair@nvtx@@@2@VAllocator@shdfnd@physx@@@internal@23@VAllocator@23@$00@internal@shdfnd@physx@@AAEIXZ 1002cc10 f i CmEventProfiler.obj
 0001:0002bd30       ?grow@?$HashBase@V?$Pair@$$CBUEventIdContextPair@nvtx@@_K@shdfnd@physx@@UEventIdContextPair@nvtx@@U?$Hash@UEventIdContextPair@nvtx@@@5@UGetKey@?$HashMapBase@UEventIdContextPair@nvtx@@_KU?$Hash@UEventIdContextPair@nvtx@@@2@VAllocator@shdfnd@physx@@@internal@23@VAllocator@23@$00@internal@shdfnd@physx@@AAEXXZ 1002cd30 f i CmEventProfiler.obj
 0001:0002bdf0       ?hash@?$HashBase@V?$Pair@$$CBUEventIdContextPair@nvtx@@_K@shdfnd@physx@@UEventIdContextPair@nvtx@@U?$Hash@UEventIdContextPair@nvtx@@@5@UGetKey@?$HashMapBase@UEventIdContextPair@nvtx@@_KU?$Hash@UEventIdContextPair@nvtx@@@2@VAllocator@shdfnd@physx@@@internal@23@VAllocator@23@$00@internal@shdfnd@physx@@ABEIABUEventIdContextPair@nvtx@@@Z 1002cdf0 f i CmEventProfiler.obj
 0001:0002be20       ?hash@?$HashBase@V?$Pair@$$CBUEventIdContextPair@nvtx@@_K@shdfnd@physx@@UEventIdContextPair@nvtx@@U?$Hash@UEventIdContextPair@nvtx@@@5@UGetKey@?$HashMapBase@UEventIdContextPair@nvtx@@_KU?$Hash@UEventIdContextPair@nvtx@@@2@VAllocator@shdfnd@physx@@@internal@23@VAllocator@23@$00@internal@shdfnd@physx@@ABEIABUEventIdContextPair@nvtx@@I@Z 1002ce20 f i CmEventProfiler.obj
 0001:0002be50       ?reserve@?$HashBase@V?$Pair@$$CBUEventIdContextPair@nvtx@@_K@shdfnd@physx@@UEventIdContextPair@nvtx@@U?$Hash@UEventIdContextPair@nvtx@@@5@UGetKey@?$HashMapBase@UEventIdContextPair@nvtx@@_KU?$Hash@UEventIdContextPair@nvtx@@@2@VAllocator@shdfnd@physx@@@internal@23@VAllocator@23@$00@internal@shdfnd@physx@@QAEXI@Z 1002ce50 f i CmEventProfiler.obj
 0001:0002be80       ?reserveInternal@?$HashBase@V?$Pair@$$CBUEventIdContextPair@nvtx@@_K@shdfnd@physx@@UEventIdContextPair@nvtx@@U?$Hash@UEventIdContextPair@nvtx@@@5@UGetKey@?$HashMapBase@UEventIdContextPair@nvtx@@_KU?$Hash@UEventIdContextPair@nvtx@@@2@VAllocator@shdfnd@physx@@@internal@23@VAllocator@23@$00@internal@shdfnd@physx@@AAEXI@Z 1002ce80 f i CmEventProfiler.obj
 0001:0002c320       ?storeCrossEvent@EventProfiler@Cm@physx@@QAEXG_K0@Z 1002d320 f i CmEventProfiler.obj
 0001:0002c390       ?dumpFreeListAllocatorState@Cm@physx@@YAXAAVFreeListAllocator@12@@Z 1002d390 f   CmFreeListAllocator.obj
 0001:0002c4b0       ??0FreeListAllocator@Cm@physx@@QAE@AAVPxAllocatorCallback@2@@Z 1002d4b0 f   CmFreeListAllocator.obj
 0001:0002c540       ??1FreeListAllocator@Cm@physx@@UAE@XZ 1002d540 f   CmFreeListAllocator.obj
 0001:0002c5b0       ?getQWSize@FreeListAllocator@Cm@physx@@SAII@Z 1002d5b0 f   CmFreeListAllocator.obj
 0001:0002c5d0       ?allocate@FreeListAllocator@Cm@physx@@UAEPAXIPBD0H@Z 1002d5d0 f   CmFreeListAllocator.obj
 0001:0002c640       ?deallocate@FreeListAllocator@Cm@physx@@UAEXPAX@Z 1002d640 f   CmFreeListAllocator.obj
 0001:0002c6b0       ?findBestFit@FreeListAllocator@Cm@physx@@AAEPAVChunk@23@IAAI@Z 1002d6b0 f   CmFreeListAllocator.obj
 0001:0002c720       ?pushOnFreeList@FreeListAllocator@Cm@physx@@AAEXPAVChunk@23@I@Z 1002d720 f   CmFreeListAllocator.obj
 0001:0002c780       ?popFromFreeList@FreeListAllocator@Cm@physx@@AAEPAVChunk@23@I@Z 1002d780 f   CmFreeListAllocator.obj
 0001:0002c820       ?unlinkFromFreeList@FreeListAllocator@Cm@physx@@AAEXPAVChunk@23@@Z 1002d820 f   CmFreeListAllocator.obj
 0001:0002c870       ?allocChunk@FreeListAllocator@Cm@physx@@AAEPAXI@Z 1002d870 f   CmFreeListAllocator.obj
 0001:0002c950       ?freeChunk@FreeListAllocator@Cm@physx@@AAEXPAVChunk@23@@Z 1002d950 f   CmFreeListAllocator.obj
 0001:0002ca60       ?directAlloc@FreeListAllocator@Cm@physx@@AAEPAXI@Z 1002da60 f   CmFreeListAllocator.obj
 0001:0002caf0       ?directFree@FreeListAllocator@Cm@physx@@AAEXPAX@Z 1002daf0 f   CmFreeListAllocator.obj
 0001:0002cb70       ?createFreeListAllocator@Cm@physx@@YAPAVFreeListAllocator@12@AAVPxAllocatorCallback@2@@Z 1002db70 f   CmFreeListAllocator.obj
 0001:0002cbf0       ?destroyFreeListAllocator@Cm@physx@@YAXAAVFreeListAllocator@12@@Z 1002dbf0 f   CmFreeListAllocator.obj
 0001:0002ce50       ??$addAddr@VBlock@Cm@physx@@@Cm@physx@@YAPAVBlock@01@PAV201@H@Z 1002de50 f i CmFreeListAllocator.obj
 0001:0002ce60       ??$addAddr@VChunk@Cm@physx@@@Cm@physx@@YAPAVChunk@01@PAV201@H@Z 1002de60 f i CmFreeListAllocator.obj
 0001:0002ce70       ??$addAddr@X@Cm@physx@@YAPAXPAXH@Z 1002de70 f i CmFreeListAllocator.obj
 0001:0002ce80       ??0?$MutexT@VMutexAllocator@FreeListAllocator@Cm@physx@@@shdfnd@physx@@QAE@ABVMutexAllocator@FreeListAllocator@Cm@2@@Z 1002de80 f i CmFreeListAllocator.obj
 0001:0002cf00       ??0FastBitMap@Cm@physx@@QAE@XZ 1002df00 f i CmFreeListAllocator.obj
 0001:0002cf60       ??0MutexAllocator@FreeListAllocator@Cm@physx@@QAE@AAVPxAllocatorCallback@3@@Z 1002df60 f i CmFreeListAllocator.obj
 0001:0002cf80       ??0ScopedLock@?$MutexT@VMutexAllocator@FreeListAllocator@Cm@physx@@@shdfnd@physx@@QAE@AAV123@@Z 1002df80 f i CmFreeListAllocator.obj
 0001:0002cfb0       ??1?$MutexT@VMutexAllocator@FreeListAllocator@Cm@physx@@@shdfnd@physx@@QAE@XZ 1002dfb0 f i CmFreeListAllocator.obj
 0001:0002cfe0       ??1ScopedLock@?$MutexT@VMutexAllocator@FreeListAllocator@Cm@physx@@@shdfnd@physx@@QAE@XZ 1002dfe0 f i CmFreeListAllocator.obj
 0001:0002d000       ??_GFreeListAllocator@Cm@physx@@UAEPAXI@Z 1002e000 f i CmFreeListAllocator.obj
 0001:0002d000       ??_EFreeListAllocator@Cm@physx@@UAEPAXI@Z 1002e000 f i CmFreeListAllocator.obj
 0001:0002d040       ?acquire@Chunk@Cm@physx@@QAEXXZ 1002e040 f i CmFreeListAllocator.obj
 0001:0002d070       ?allocate@MutexAllocator@FreeListAllocator@Cm@physx@@QAEPAXIPBDH@Z 1002e070 f i CmFreeListAllocator.obj
 0001:0002d0b0       ?deallocate@MutexAllocator@FreeListAllocator@Cm@physx@@QAEXPAX@Z 1002e0b0 f i CmFreeListAllocator.obj
 0001:0002d0e0       ?finalize@Block@Cm@physx@@QAEXAAPAV123@@Z 1002e0e0 f i CmFreeListAllocator.obj
 0001:0002d100       ?findFirst@FastBitMap@Cm@physx@@QAEII@Z 1002e100 f i CmFreeListAllocator.obj
 0001:0002d1b0       ?firstChunk@Block@Cm@physx@@QAEPAVChunk@23@XZ 1002e1b0 f i CmFreeListAllocator.obj
 0001:0002d1d0       ?fromFirstChunk@Block@Cm@physx@@SAPAV123@PAVChunk@23@@Z 1002e1d0 f i CmFreeListAllocator.obj
 0001:0002d1f0       ?fromMemAddr@Chunk@Cm@physx@@SAPAV123@PAX@Z 1002e1f0 f i CmFreeListAllocator.obj
 0001:0002d210       ?getBaseAllocator@FreeListAllocator@Cm@physx@@QBEAAVPxAllocatorCallback@3@XZ 1002e210 f i CmFreeListAllocator.obj
 0001:0002d230       ?getNext@?$Link@VBlock@Cm@physx@@@Cm@physx@@QAEPAVBlock@23@XZ 1002e230 f i CmFreeListAllocator.obj
 0001:0002d250       ?getNextInBlock@Chunk@Cm@physx@@QAEPAV123@XZ 1002e250 f i CmFreeListAllocator.obj
 0001:0002d2b0       ?getPrevChunkQWSize@Chunk@Cm@physx@@AAEIXZ 1002e2b0 f i CmFreeListAllocator.obj
 0001:0002d2d0       ?getPrevInBlock@Chunk@Cm@physx@@QAEPAV123@XZ 1002e2d0 f i CmFreeListAllocator.obj
 0001:0002d330       ?getQWSize@Chunk@Cm@physx@@QBEIXZ 1002e330 f i CmFreeListAllocator.obj
 0001:0002d350       ?getQWSizeFromBytes@Chunk@Cm@physx@@SAII@Z 1002e350 f i CmFreeListAllocator.obj
 0001:0002d380       ?init@?$Link@VBlock@Cm@physx@@@Cm@physx@@QAEXXZ 1002e380 f i CmFreeListAllocator.obj
 0001:0002d3b0       ?init@?$Link@VChunk@Cm@physx@@@Cm@physx@@QAEXXZ 1002e3b0 f i CmFreeListAllocator.obj
 0001:0002d3e0       ?init@Block@Cm@physx@@QAEXAAPAV123@@Z 1002e3e0 f i CmFreeListAllocator.obj
 0001:0002d430       ?init@Chunk@Cm@physx@@QAEXI@Z 1002e430 f i CmFreeListAllocator.obj
 0001:0002d470       ?isUsed@Chunk@Cm@physx@@QBE_NXZ 1002e470 f i CmFreeListAllocator.obj
 0001:0002d4b0       ?link@?$Link@VBlock@Cm@physx@@@Cm@physx@@QAEXAAPAVBlock@23@PAV423@@Z 1002e4b0 f i CmFreeListAllocator.obj
 0001:0002d520       ?link@?$Link@VChunk@Cm@physx@@@Cm@physx@@QAEXAAPAVChunk@23@PAV423@@Z 1002e520 f i CmFreeListAllocator.obj
 0001:0002d590       ?link@Chunk@Cm@physx@@QAEXAAPAV123@@Z 1002e590 f i CmFreeListAllocator.obj
 0001:0002d5c0       ?lock@?$MutexT@VMutexAllocator@FreeListAllocator@Cm@physx@@@shdfnd@physx@@QBEXXZ 1002e5c0 f i CmFreeListAllocator.obj
 0001:0002d5e0       ?memAddr@Chunk@Cm@physx@@QAEPAXXZ 1002e5e0 f i CmFreeListAllocator.obj
 0001:0002d600       ?merge@Chunk@Cm@physx@@QAEXAAV123@@Z 1002e600 f i CmFreeListAllocator.obj
 0001:0002d6e0       ?release@Chunk@Cm@physx@@QAEXXZ 1002e6e0 f i CmFreeListAllocator.obj
 0001:0002d710       ?reset@FastBitMap@Cm@physx@@QAEXI@Z 1002e710 f i CmFreeListAllocator.obj
 0001:0002d7a0       ?set@FastBitMap@Cm@physx@@QAEXI@Z 1002e7a0 f i CmFreeListAllocator.obj
 0001:0002d810       ?split@Chunk@Cm@physx@@QAEPAV123@I@Z 1002e810 f i CmFreeListAllocator.obj
 0001:0002d920       ?unlink@?$Link@VBlock@Cm@physx@@@Cm@physx@@QAEXAAPAVBlock@23@@Z 1002e920 f i CmFreeListAllocator.obj
 0001:0002d990       ?unlink@?$Link@VChunk@Cm@physx@@@Cm@physx@@QAEXAAPAVChunk@23@@Z 1002e990 f i CmFreeListAllocator.obj
 0001:0002da00       ?unlink@Chunk@Cm@physx@@QAEXAAPAV123@@Z 1002ea00 f i CmFreeListAllocator.obj
 0001:0002da30       ?unlock@?$MutexT@VMutexAllocator@FreeListAllocator@Cm@physx@@@shdfnd@physx@@QBEXXZ 1002ea30 f i CmFreeListAllocator.obj
 0001:0002da50       __vfprintf_l               1002ea50 f i CmFreeListAllocator.obj
 0001:0002da90       _printf                    1002ea90 f i CmFreeListAllocator.obj
 0001:0002dae0       ?PxShortestRotation@physx@@YA?AVPxQuat@1@ABVPxVec3@1@0@Z 1002eae0 f   CmMathUtils.obj
 0001:0002dc40       ?PxTransformFromPlaneEquation@physx@@YA?AVPxTransform@1@ABVPxPlane@1@@Z 1002ec40 f   CmMathUtils.obj
 0001:0002de40       ?PxTransformFromSegment@physx@@YA?AVPxTransform@1@ABVPxVec3@1@0PAM@Z 1002ee40 f   CmMathUtils.obj
 0001:0002df90       ?PxDiagonalize@physx@@YA?AVPxVec3@1@ABVPxMat33@1@AAVPxQuat@1@@Z 1002ef90 f   CmMathUtils.obj
 0001:0002e710       ??0PxMat33@physx@@QAE@ABVPxQuat@1@@Z 1002f710 f i CmMathUtils.obj
 0001:0002e990       ??0PxMat33@physx@@QAE@ABVPxVec3@1@00@Z 1002f990 f i CmMathUtils.obj
 0001:0002e9e0       ??0PxMat33@physx@@QAE@XZ   1002f9e0 f i CmMathUtils.obj
 0001:0002ea20       ??0PxPlane@physx@@QAE@ABV01@@Z 1002fa20 f i CmMathUtils.obj
 0001:0002ea60       ??0PxTransform@physx@@QAE@ABVPxVec3@1@ABVPxQuat@1@@Z 1002fa60 f i CmMathUtils.obj
 0001:0002eaf0       ??0PxVec3@physx@@QAE@XZ    1002faf0 f i CmMathUtils.obj
 0001:0002eb10       ??0PxVec4@physx@@QAE@MMMM@Z 1002fb10 f i CmMathUtils.obj
 0001:0002eb70       ??4PxMat33@physx@@QAEAAV01@ABV01@@Z 1002fb70 f i CmMathUtils.obj
 0001:0002ebc0       ??APxMat33@physx@@QAEAAVPxVec3@1@I@Z 1002fbc0 f i CmMathUtils.obj
 0001:0002ebe0       ??APxVec4@physx@@QAEAAMI@Z 1002fbe0 f i CmMathUtils.obj
 0001:0002ec50       ??DPxMat33@physx@@QBE?AV01@ABV01@@Z 1002fc50 f i CmMathUtils.obj
 0001:0002ecc0       ??GPxVec3@physx@@QBE?AV01@ABV01@@Z 1002fcc0 f i CmMathUtils.obj
 0001:0002ed30       ??GPxVec3@physx@@QBE?AV01@XZ 1002fd30 f i CmMathUtils.obj
 0001:0002eda0       ??KPxVec3@physx@@QBE?AV01@M@Z 1002fda0 f i CmMathUtils.obj
 0001:0002ee20       ?PxSign@physx@@YAMM@Z      1002fe20 f i CmMathUtils.obj
 0001:0002ee40       ?cross@PxVec3@physx@@QBE?AV12@ABV12@@Z 1002fe40 f i CmMathUtils.obj
 0001:0002ef00       ?getNextIndex3@shdfnd@physx@@YAII@Z 1002ff00 f i CmMathUtils.obj
 0001:0002ef20       ?getNormalized@PxQuat@physx@@QBE?AV12@XZ 1002ff20 f i CmMathUtils.obj
 0001:0002efd0       ?getTranspose@PxMat33@physx@@QBE?AV12@XZ 1002ffd0 f i CmMathUtils.obj
 0001:0002f0c0       ?isFinite@PxQuat@physx@@QBE_NXZ 100300c0 f i CmMathUtils.obj
 0001:0002f180       ?isSane@PxQuat@physx@@QBE_NXZ 10030180 f i CmMathUtils.obj
 0001:0002f210       ?magnitude@PxQuat@physx@@QBEMXZ 10030210 f i CmMathUtils.obj
 0001:0002f240       ?magnitudeSquared@PxQuat@physx@@QBEMXZ 10030240 f i CmMathUtils.obj
 0001:0002f2c0       ?normalize@PxPlane@physx@@QAEXXZ 100302c0 f i CmMathUtils.obj
 0001:0002f330       ?sign@intrinsics@physx@@YAMM@Z 10030330 f i CmMathUtils.obj
 0001:0002f380       ?transform@PxMat33@physx@@QBE?AVPxVec3@2@ABV32@@Z 10030380 f i CmMathUtils.obj
 0001:0002f420       ??0PtrTable@Cm@physx@@QAE@XZ 10030420 f   CmPtrTable.obj
 0001:0002f450       ??1PtrTable@Cm@physx@@QAE@XZ 10030450 f   CmPtrTable.obj
 0001:0002f510       ?add@PtrTable@Cm@physx@@QAEXPAXAAVPtrTableStorageManager@23@@Z 10030510 f   CmPtrTable.obj
 0001:0002f7d0       ?replaceWithLast@PtrTable@Cm@physx@@QAEXIAAVPtrTableStorageManager@23@@Z 100307d0 f   CmPtrTable.obj
 0001:0002fa90       ?clear@PtrTable@Cm@physx@@QAEXAAVPtrTableStorageManager@23@@Z 10030a90 f   CmPtrTable.obj
 0001:0002fb00       ?find@PtrTable@Cm@physx@@QBEIPBX@Z 10030b00 f   CmPtrTable.obj
 0001:0002fb90       ?exportExtraData@PtrTable@Cm@physx@@QAEXAAVPxSerializationContext@3@@Z 10030b90 f   CmPtrTable.obj
 0001:0002fbe0       ?importExtraData@PtrTable@Cm@physx@@QAEXAAVPxDeserializationContext@3@@Z 10030be0 f   CmPtrTable.obj
 0001:0002fc10       ?getBinaryMetaData@PtrTable@Cm@physx@@SAXAAVPxOutputStream@3@@Z 10030c10 f   CmPtrTable.obj
 0001:0002fe10       ?realloc@PtrTable@Cm@physx@@AAEXIIAAVPtrTableStorageManager@23@@Z 10030e10 f   CmPtrTable.obj
 0001:00030200       ??$readExtraData@PAX$0BA@@PxDeserializationContext@physx@@QAEPAPAXI@Z 10031200 f i CmPtrTable.obj
 0001:00030230       ??$readExtraData@PAX@PxDeserializationContext@physx@@QAEPAPAXI@Z 10031230 f i CmPtrTable.obj
 0001:00030270       ??0PtrTable@Cm@physx@@QAE@ABW4PxEMPTY@2@@Z 10031270 f i CmPtrTable.obj
 0001:000302d0       ??4PtrTable@Cm@physx@@QAEAAU012@ABU012@@Z 100312d0 f i CmPtrTable.obj
 0001:00030300       ?alignExtraData@PxDeserializationContext@physx@@QAEXI@Z 10031300 f i CmPtrTable.obj
 0001:00030350       ?getCount@PtrTable@Cm@physx@@QBEIXZ 10031350 f i CmPtrTable.obj
 0001:00030370       ?getPtrs@PtrTable@Cm@physx@@QAEPAPAXXZ 10031370 f i CmPtrTable.obj
 0001:000303b0       ?getPtrs@PtrTable@Cm@physx@@QBEPBQAXXZ 100313b0 f i CmPtrTable.obj
 0001:000303f0       ??6RenderOutput@Cm@physx@@QAEAAV012@W4Primitive@012@@Z 100313f0 f   CmRenderOutput.obj
 0001:00030420       ??6RenderOutput@Cm@physx@@QAEAAV012@I@Z 10031420 f   CmRenderOutput.obj
 0001:00030440       ??6RenderOutput@Cm@physx@@QAEAAV012@ABVPxMat44@2@@Z 10031440 f   CmRenderOutput.obj
 0001:00030460       ??6RenderOutput@Cm@physx@@QAEAAV012@ABVPxTransform@2@@Z 10031460 f   CmRenderOutput.obj
 0001:00030490       ??6RenderOutput@Cm@physx@@QAEAAV012@VPxVec3@2@@Z 10031490 f   CmRenderOutput.obj
 0001:000306b0       ??6RenderOutput@Cm@physx@@QAEAAV012@ABUDebugText@12@@Z 100316b0 f   CmRenderOutput.obj
 0001:00030810       ?outputCapsule@RenderOutput@Cm@physx@@QAEAAV123@MMABVMatrix34@23@@Z 10031810 f   CmRenderOutput.obj
 0001:00030dd0       ??0DebugText@Cm@physx@@QAA@ABVPxVec3@2@MPBDZZ 10031dd0 f   CmRenderOutput.obj
 0001:00030e40       ??6Cm@physx@@YAAAVRenderOutput@01@AAV201@ABUDebugBox@01@@Z 10031e40 f   CmRenderOutput.obj
 0001:00031580       ??6Cm@physx@@YAAAVRenderOutput@01@AAV201@ABUDebugArrow@01@@Z 10032580 f   CmRenderOutput.obj
 0001:00031790       ??6Cm@physx@@YAAAVRenderOutput@01@AAV201@ABUDebugBasis@01@@Z 10032790 f   CmRenderOutput.obj
 0001:00031900       ??6Cm@physx@@YAAAVRenderOutput@01@AAV201@ABUDebugCircle@01@@Z 10032900 f   CmRenderOutput.obj
 0001:00031a30       ??6Cm@physx@@YAAAVRenderOutput@01@AAV201@ABUDebugArc@01@@Z 10032a30 f   CmRenderOutput.obj
 0001:00032320       ??$swap@VPxVec4@physx@@@shdfnd@physx@@YAXAAVPxVec4@1@0@Z 10033320 f i CmRenderOutput.obj
 0001:00032360       ??0DebugArc@Cm@physx@@QAE@IMMM@Z 10033360 f i CmRenderOutput.obj
 0001:000323b0       ??0DebugArrow@Cm@physx@@QAE@ABVPxVec3@2@0M@Z 100333b0 f i CmRenderOutput.obj
 0001:00032400       ??0DebugCircle@Cm@physx@@QAE@IM@Z 10033400 f i CmRenderOutput.obj
 0001:00032430       ??0DebugText@Cm@physx@@QAE@$$QAU012@@Z 10033430 f i CmRenderOutput.obj
 0001:00032490       ??0DebugText@Cm@physx@@QAE@ABU012@@Z 10033490 f i CmRenderOutput.obj
 0001:000324f0       ??0PxDebugLine@physx@@QAE@ABU01@@Z 100334f0 f i CmRenderOutput.obj
 0001:00032550       ??0PxDebugLine@physx@@QAE@ABVPxVec3@1@0ABI@Z 10033550 f i CmRenderOutput.obj
 0001:000325b0       ??0PxDebugPoint@physx@@QAE@ABU01@@Z 100335b0 f i CmRenderOutput.obj
 0001:000325f0       ??0PxDebugPoint@physx@@QAE@ABVPxVec3@1@ABI@Z 100335f0 f i CmRenderOutput.obj
 0001:00032620       ??0PxDebugText@physx@@QAE@ABU01@@Z 10033620 f i CmRenderOutput.obj
 0001:00032670       ??0PxDebugText@physx@@QAE@ABVPxVec3@1@ABMABIPBD@Z 10033670 f i CmRenderOutput.obj
 0001:000326c0       ??0PxDebugTriangle@physx@@QAE@ABU01@@Z 100336c0 f i CmRenderOutput.obj
 0001:00032740       ??0PxDebugTriangle@physx@@QAE@ABVPxVec3@1@00ABI@Z 10033740 f i CmRenderOutput.obj
 0001:000327c0       ??0PxMat44@physx@@QAE@ABV01@@Z 100337c0 f i CmRenderOutput.obj
 0001:00032830       ??0PxMat44@physx@@QAE@ABVPxMat33@1@ABVPxVec3@1@@Z 10033830 f i CmRenderOutput.obj
 0001:000328d0       ??0PxMat44@physx@@QAE@ABVPxTransform@1@@Z 100338d0 f i CmRenderOutput.obj
 0001:00032950       ??0PxMat44@physx@@QAE@W4PxIDENTITY@1@@Z 10033950 f i CmRenderOutput.obj
 0001:00032a80       ??0PxMat44@physx@@QAE@XZ   10033a80 f i CmRenderOutput.obj
 0001:00032ad0       ??0PxVec3@physx@@QAE@M@Z   10033ad0 f i CmRenderOutput.obj
 0001:00032b20       ??0PxVec4@physx@@QAE@ABV01@@Z 10033b20 f i CmRenderOutput.obj
 0001:00032b70       ??0PxVec4@physx@@QAE@ABVPxVec3@1@M@Z 10033b70 f i CmRenderOutput.obj
 0001:00032bc0       ??0PxVec4@physx@@QAE@XZ    10033bc0 f i CmRenderOutput.obj
 0001:00032be0       ??0RenderOutput@Cm@physx@@QAE@AAVRenderBuffer@12@@Z 10033be0 f i CmRenderOutput.obj
 0001:00032c70       ??0RenderOutput@Cm@physx@@QAE@ABV012@@Z 10033c70 f i CmRenderOutput.obj
 0001:00032d10       ??4DebugText@Cm@physx@@QAEAAU012@$$QAU012@@Z 10033d10 f i CmRenderOutput.obj
 0001:00032da0       ??4DebugText@Cm@physx@@QAEAAU012@ABU012@@Z 10033da0 f i CmRenderOutput.obj
 0001:00032e30       ??4PxMat44@physx@@QAEABV01@ABV01@@Z 10033e30 f i CmRenderOutput.obj
 0001:00032ea0       ??4PxVec4@physx@@QAEAAV01@ABV01@@Z 10033ea0 f i CmRenderOutput.obj
 0001:00032ef0       ??A?$Array@UPxDebugText@physx@@VNamedAllocator@shdfnd@2@@shdfnd@physx@@QAEAAUPxDebugText@2@I@Z 10033ef0 f i CmRenderOutput.obj
 0001:00032f60       ??DPxVec4@physx@@QBE?AV01@M@Z 10033f60 f i CmRenderOutput.obj
 0001:00032fe0       ??GPxVec4@physx@@QBE?AV01@XZ 10033fe0 f i CmRenderOutput.obj
 0001:00033070       ??HPxVec4@physx@@QBE?AV01@ABV01@@Z 10034070 f i CmRenderOutput.obj
 0001:00033100       ??YPxVec4@physx@@QAEAAV01@ABV01@@Z 10034100 f i CmRenderOutput.obj
 0001:00033190       ?allocate@?$Array@DVNamedAllocator@shdfnd@physx@@@shdfnd@physx@@IAEPADI@Z 10034190 f i CmRenderOutput.obj
 0001:00033210       ?allocate@?$Array@UPxDebugLine@physx@@VNamedAllocator@shdfnd@2@@shdfnd@physx@@IAEPAUPxDebugLine@3@I@Z 10034210 f i CmRenderOutput.obj
 0001:00033290       ?allocate@?$Array@UPxDebugPoint@physx@@VNamedAllocator@shdfnd@2@@shdfnd@physx@@IAEPAUPxDebugPoint@3@I@Z 10034290 f i CmRenderOutput.obj
 0001:00033310       ?allocate@?$Array@UPxDebugText@physx@@VNamedAllocator@shdfnd@2@@shdfnd@physx@@IAEPAUPxDebugText@3@I@Z 10034310 f i CmRenderOutput.obj
 0001:00033390       ?allocate@?$Array@UPxDebugTriangle@physx@@VNamedAllocator@shdfnd@2@@shdfnd@physx@@IAEPAUPxDebugTriangle@3@I@Z 10034390 f i CmRenderOutput.obj
 0001:00033410       ?begin@?$Array@DVNamedAllocator@shdfnd@physx@@@shdfnd@physx@@QAEPADXZ 10034410 f i CmRenderOutput.obj
 0001:00033430       ?begin@?$Array@UPxDebugLine@physx@@VNamedAllocator@shdfnd@2@@shdfnd@physx@@QAEPAUPxDebugLine@3@XZ 10034430 f i CmRenderOutput.obj
 0001:00033450       ?capacity@?$Array@DVNamedAllocator@shdfnd@physx@@@shdfnd@physx@@QBEIXZ 10034450 f i CmRenderOutput.obj
 0001:00033470       ?capacity@?$Array@UPxDebugLine@physx@@VNamedAllocator@shdfnd@2@@shdfnd@physx@@QBEIXZ 10034470 f i CmRenderOutput.obj
 0001:00033490       ?capacity@?$Array@UPxDebugPoint@physx@@VNamedAllocator@shdfnd@2@@shdfnd@physx@@QBEIXZ 10034490 f i CmRenderOutput.obj
 0001:000334b0       ?capacity@?$Array@UPxDebugText@physx@@VNamedAllocator@shdfnd@2@@shdfnd@physx@@QBEIXZ 100344b0 f i CmRenderOutput.obj
 0001:000334d0       ?capacity@?$Array@UPxDebugTriangle@physx@@VNamedAllocator@shdfnd@2@@shdfnd@physx@@QBEIXZ 100344d0 f i CmRenderOutput.obj
 0001:000334f0       ?capacityIncrement@?$Array@DVNamedAllocator@shdfnd@physx@@@shdfnd@physx@@IBEIXZ 100344f0 f i CmRenderOutput.obj
 0001:00033530       ?capacityIncrement@?$Array@UPxDebugLine@physx@@VNamedAllocator@shdfnd@2@@shdfnd@physx@@IBEIXZ 10034530 f i CmRenderOutput.obj
 0001:00033570       ?capacityIncrement@?$Array@UPxDebugPoint@physx@@VNamedAllocator@shdfnd@2@@shdfnd@physx@@IBEIXZ 10034570 f i CmRenderOutput.obj
 0001:000335b0       ?capacityIncrement@?$Array@UPxDebugText@physx@@VNamedAllocator@shdfnd@2@@shdfnd@physx@@IBEIXZ 100345b0 f i CmRenderOutput.obj
 0001:000335f0       ?capacityIncrement@?$Array@UPxDebugTriangle@physx@@VNamedAllocator@shdfnd@2@@shdfnd@physx@@IBEIXZ 100345f0 f i CmRenderOutput.obj
 0001:00033630       ?copy@?$Array@DVNamedAllocator@shdfnd@physx@@@shdfnd@physx@@KAXPAD0PBD@Z 10034630 f i CmRenderOutput.obj
 0001:000336a0       ?copy@?$Array@UPxDebugLine@physx@@VNamedAllocator@shdfnd@2@@shdfnd@physx@@KAXPAUPxDebugLine@3@0PBU43@@Z 100346a0 f i CmRenderOutput.obj
 0001:00033710       ?copy@?$Array@UPxDebugPoint@physx@@VNamedAllocator@shdfnd@2@@shdfnd@physx@@KAXPAUPxDebugPoint@3@0PBU43@@Z 10034710 f i CmRenderOutput.obj
 0001:00033780       ?copy@?$Array@UPxDebugText@physx@@VNamedAllocator@shdfnd@2@@shdfnd@physx@@KAXPAUPxDebugText@3@0PBU43@@Z 10034780 f i CmRenderOutput.obj
 0001:000337f0       ?copy@?$Array@UPxDebugTriangle@physx@@VNamedAllocator@shdfnd@2@@shdfnd@physx@@KAXPAUPxDebugTriangle@3@0PBU43@@Z 100347f0 f i CmRenderOutput.obj
 0001:00033860       ?deallocate@?$Array@DVNamedAllocator@shdfnd@physx@@@shdfnd@physx@@IAEXPAX@Z 10034860 f i CmRenderOutput.obj
 0001:00033880       ?deallocate@?$Array@UPxDebugLine@physx@@VNamedAllocator@shdfnd@2@@shdfnd@physx@@IAEXPAX@Z 10034880 f i CmRenderOutput.obj
 0001:000338a0       ?deallocate@?$Array@UPxDebugPoint@physx@@VNamedAllocator@shdfnd@2@@shdfnd@physx@@IAEXPAX@Z 100348a0 f i CmRenderOutput.obj
 0001:000338c0       ?deallocate@?$Array@UPxDebugText@physx@@VNamedAllocator@shdfnd@2@@shdfnd@physx@@IAEXPAX@Z 100348c0 f i CmRenderOutput.obj
 0001:000338e0       ?deallocate@?$Array@UPxDebugTriangle@physx@@VNamedAllocator@shdfnd@2@@shdfnd@physx@@IAEXPAX@Z 100348e0 f i CmRenderOutput.obj
 0001:00033900       ?destroy@?$Array@DVNamedAllocator@shdfnd@physx@@@shdfnd@physx@@KAXPAD0@Z 10034900 f i CmRenderOutput.obj
 0001:00033920       ?destroy@?$Array@UPxDebugLine@physx@@VNamedAllocator@shdfnd@2@@shdfnd@physx@@KAXPAUPxDebugLine@3@0@Z 10034920 f i CmRenderOutput.obj
 0001:00033940       ?destroy@?$Array@UPxDebugPoint@physx@@VNamedAllocator@shdfnd@2@@shdfnd@physx@@KAXPAUPxDebugPoint@3@0@Z 10034940 f i CmRenderOutput.obj
 0001:00033960       ?destroy@?$Array@UPxDebugText@physx@@VNamedAllocator@shdfnd@2@@shdfnd@physx@@KAXPAUPxDebugText@3@0@Z 10034960 f i CmRenderOutput.obj
 0001:00033980       ?destroy@?$Array@UPxDebugTriangle@physx@@VNamedAllocator@shdfnd@2@@shdfnd@physx@@KAXPAUPxDebugTriangle@3@0@Z 10034980 f i CmRenderOutput.obj
 0001:000339a0       ?end@?$Array@DVNamedAllocator@shdfnd@physx@@@shdfnd@physx@@QAEPADXZ 100349a0 f i CmRenderOutput.obj
 0001:000339c0       ?getXYZ@PxVec4@physx@@QBE?AVPxVec3@2@XZ 100349c0 f i CmRenderOutput.obj
 0001:00033a20       ?grow@?$Array@DVNamedAllocator@shdfnd@physx@@@shdfnd@physx@@IAEXI@Z 10034a20 f i CmRenderOutput.obj
 0001:00033aa0       ?grow@?$Array@UPxDebugLine@physx@@VNamedAllocator@shdfnd@2@@shdfnd@physx@@IAEXI@Z 10034aa0 f i CmRenderOutput.obj
 0001:00033b20       ?growAndPushBack@?$Array@DVNamedAllocator@shdfnd@physx@@@shdfnd@physx@@IAEAADABD@Z 10034b20 f i CmRenderOutput.obj
 0001:00033ca0       ?growAndPushBack@?$Array@UPxDebugLine@physx@@VNamedAllocator@shdfnd@2@@shdfnd@physx@@IAEAAUPxDebugLine@3@ABU43@@Z 10034ca0 f i CmRenderOutput.obj
 0001:00033e30       ?growAndPushBack@?$Array@UPxDebugPoint@physx@@VNamedAllocator@shdfnd@2@@shdfnd@physx@@IAEAAUPxDebugPoint@3@ABU43@@Z 10034e30 f i CmRenderOutput.obj
 0001:00033fc0       ?growAndPushBack@?$Array@UPxDebugText@physx@@VNamedAllocator@shdfnd@2@@shdfnd@physx@@IAEAAUPxDebugText@3@ABU43@@Z 10034fc0 f i CmRenderOutput.obj
 0001:00034140       ?growAndPushBack@?$Array@UPxDebugTriangle@physx@@VNamedAllocator@shdfnd@2@@shdfnd@physx@@IAEAAUPxDebugTriangle@3@ABU43@@Z 10035140 f i CmRenderOutput.obj
 0001:000342c0       ?isInUserMemory@?$Array@DVNamedAllocator@shdfnd@physx@@@shdfnd@physx@@QBEIXZ 100352c0 f i CmRenderOutput.obj
 0001:000342e0       ?isInUserMemory@?$Array@UPxDebugLine@physx@@VNamedAllocator@shdfnd@2@@shdfnd@physx@@QBEIXZ 100352e0 f i CmRenderOutput.obj
 0001:00034300       ?isInUserMemory@?$Array@UPxDebugPoint@physx@@VNamedAllocator@shdfnd@2@@shdfnd@physx@@QBEIXZ 10035300 f i CmRenderOutput.obj
 0001:00034320       ?isInUserMemory@?$Array@UPxDebugText@physx@@VNamedAllocator@shdfnd@2@@shdfnd@physx@@QBEIXZ 10035320 f i CmRenderOutput.obj
 0001:00034340       ?isInUserMemory@?$Array@UPxDebugTriangle@physx@@VNamedAllocator@shdfnd@2@@shdfnd@physx@@QBEIXZ 10035340 f i CmRenderOutput.obj
 0001:00034360       ?normalToTangents@shdfnd@physx@@YAXABVPxVec3@2@AAV32@1@Z 10035360 f i CmRenderOutput.obj
 0001:00034470       ?outputSegment@RenderOutput@Cm@physx@@QAEXABVPxVec3@3@0@Z 10035470 f i CmRenderOutput.obj
 0001:000344c0       ?pushBack@?$Array@DVNamedAllocator@shdfnd@physx@@@shdfnd@physx@@QAEAADABD@Z 100354c0 f i CmRenderOutput.obj
 0001:00034570       ?pushBack@?$Array@UPxDebugLine@physx@@VNamedAllocator@shdfnd@2@@shdfnd@physx@@QAEAAUPxDebugLine@3@ABU43@@Z 10035570 f i CmRenderOutput.obj
 0001:00034620       ?pushBack@?$Array@UPxDebugPoint@physx@@VNamedAllocator@shdfnd@2@@shdfnd@physx@@QAEAAUPxDebugPoint@3@ABU43@@Z 10035620 f i CmRenderOutput.obj
 0001:000346d0       ?pushBack@?$Array@UPxDebugText@physx@@VNamedAllocator@shdfnd@2@@shdfnd@physx@@QAEAAUPxDebugText@3@ABU43@@Z 100356d0 f i CmRenderOutput.obj
 0001:00034780       ?pushBack@?$Array@UPxDebugTriangle@physx@@VNamedAllocator@shdfnd@2@@shdfnd@physx@@QAEAAUPxDebugTriangle@3@ABU43@@Z 10035780 f i CmRenderOutput.obj
 0001:00034830       ?recreate@?$Array@DVNamedAllocator@shdfnd@physx@@@shdfnd@physx@@IAEXI@Z 10035830 f i CmRenderOutput.obj
 0001:00034930       ?recreate@?$Array@UPxDebugLine@physx@@VNamedAllocator@shdfnd@2@@shdfnd@physx@@IAEXI@Z 10035930 f i CmRenderOutput.obj
 0001:00034a40       ?reserve@?$Array@DVNamedAllocator@shdfnd@physx@@@shdfnd@physx@@QAEXI@Z 10035a40 f i CmRenderOutput.obj
 0001:00034a70       ?reserve@?$Array@UPxDebugLine@physx@@VNamedAllocator@shdfnd@2@@shdfnd@physx@@QAEXI@Z 10035a70 f i CmRenderOutput.obj
 0001:00034aa0       ?reserveSegments@RenderOutput@Cm@physx@@QAEPAUPxDebugLine@3@I@Z 10035aa0 f i CmRenderOutput.obj
 0001:00034b00       ?resizeUninitialized@?$Array@UPxDebugLine@physx@@VNamedAllocator@shdfnd@2@@shdfnd@physx@@QAEXI@Z 10035b00 f i CmRenderOutput.obj
 0001:00034b30       ?rotate@PxMat44@physx@@QBE?BVPxVec3@2@ABV32@@Z 10035b30 f i CmRenderOutput.obj
 0001:00034b90       ?rotate@PxMat44@physx@@QBE?BVPxVec4@2@ABV32@@Z 10035b90 f i CmRenderOutput.obj
 0001:00034c30       ?size@?$Array@DVNamedAllocator@shdfnd@physx@@@shdfnd@physx@@QBEIXZ 10035c30 f i CmRenderOutput.obj
 0001:00034c50       ?size@?$Array@UPxDebugLine@physx@@VNamedAllocator@shdfnd@2@@shdfnd@physx@@QBEIXZ 10035c50 f i CmRenderOutput.obj
 0001:00034c70       ?size@?$Array@UPxDebugText@physx@@VNamedAllocator@shdfnd@2@@shdfnd@physx@@QBEIXZ 10035c70 f i CmRenderOutput.obj
 0001:00034c90       ?transform@PxMat44@physx@@QBE?AVPxVec3@2@ABV32@@Z 10035c90 f i CmRenderOutput.obj
 0001:00034cf0       ?transform@PxMat44@physx@@QBE?AVPxVec4@2@ABV32@@Z 10035cf0 f i CmRenderOutput.obj
 0001:00034dc0       _vsnprintf                 10035dc0 f i CmRenderOutput.obj
 0001:00034e80       ?visualizeJointFrames@Cm@physx@@YAXAAVRenderOutput@12@MABVPxTransform@2@1@Z 10035e80 f   CmVisualization.obj
 0001:00034f60       ?visualizeLinearLimit@Cm@physx@@YAXAAVRenderOutput@12@MABVPxTransform@2@1M_N@Z 10035f60 f   CmVisualization.obj
 0001:00035090       ?visualizeAngularLimit@Cm@physx@@YAXAAVRenderOutput@12@MABVPxTransform@2@MM_N@Z 10036090 f   CmVisualization.obj
 0001:00035260       ?visualizeLimitCone@Cm@physx@@YAXAAVRenderOutput@12@MABVPxTransform@2@MM_N@Z 10036260 f   CmVisualization.obj
 0001:000354c0       ?visualizeDoubleCone@Cm@physx@@YAXAAVRenderOutput@12@MABVPxTransform@2@M_N@Z 100364c0 f   CmVisualization.obj
 0001:00035b70       ??$PX_UNUSED@W4PxZERO@physx@@@@YAXABW4PxZERO@physx@@@Z 10036b70 f i CmVisualization.obj
 0001:00035b80       ??0DebugArrow@Cm@physx@@QAE@ABVPxVec3@2@0@Z 10036b80 f i CmVisualization.obj
 0001:00035bf0       ??0DebugBasis@Cm@physx@@QAE@ABVPxVec3@2@III@Z 10036bf0 f i CmVisualization.obj
 0001:00035c40       ??0PxTransform@physx@@QAE@W4PxIDENTITY@1@@Z 10036c40 f i CmVisualization.obj
 0001:00035c80       ??0PxVec3@physx@@QAE@W4PxZERO@1@@Z 10036c80 f i CmVisualization.obj
 0001:00035cd0       ?getBasisVector0@PxQuat@physx@@QBE?AVPxVec3@2@XZ 10036cd0 f i CmVisualization.obj
 0001:00035dc0       ?rotate@PxQuat@physx@@QBE?BVPxVec3@2@ABV32@@Z 10036dc0 f i CmVisualization.obj
 0001:00036000       ?contactCapsuleMesh@Gu@physx@@YA_NABVGeometryUnion@12@0ABVPxTransform@2@1ABMAAUCache@12@AAVContactBuffer@12@@Z 10037000 f   GuContactCapsuleMesh.obj
 0001:000361b0       ?contactCapsuleHeightfield@Gu@physx@@YA_NABVGeometryUnion@12@0ABVPxTransform@2@1ABMAAUCache@12@AAVContactBuffer@12@@Z 100371b0 f   GuContactCapsuleMesh.obj
 0001:00036f00       ??$PX_UNUSED@I@@YAXABI@Z   10037f00 f i GuContactCapsuleMesh.obj
 0001:00036f10       ??$PX_UNUSED@M@@YAXABM@Z   10037f10 f i GuContactCapsuleMesh.obj
 0001:00036f20       ??$PX_UNUSED@UCache@Gu@physx@@@@YAXABUCache@Gu@physx@@@Z 10037f20 f i GuContactCapsuleMesh.obj
 0001:00036f30       ??$PX_UNUSED@VGeometryUnion@Gu@physx@@@@YAXABVGeometryUnion@Gu@physx@@@Z 10037f30 f i GuContactCapsuleMesh.obj
 0001:00036f40       ??$checkType@$$CBUPxHeightFieldGeometryLL@physx@@@physx@@YAXABVGeometryUnion@Gu@0@@Z 10037f40 f i GuContactCapsuleMesh.obj
 0001:00036fb0       ??$checkType@$$CBUPxTriangleMeshGeometryLL@physx@@@physx@@YAXABVGeometryUnion@Gu@0@@Z 10037fb0 f i GuContactCapsuleMesh.obj
 0001:00037020       ??$checkType@$$CBVPxCapsuleGeometry@physx@@@physx@@YAXABVGeometryUnion@Gu@0@@Z 10038020 f i GuContactCapsuleMesh.obj
 0001:000370a0       ??$get@$$CBUPxHeightFieldGeometryLL@physx@@@GeometryUnion@Gu@physx@@QBEABUPxHeightFieldGeometryLL@2@XZ 100380a0 f i GuContactCapsuleMesh.obj
 0001:000370c0       ??$get@$$CBUPxTriangleMeshGeometryLL@physx@@@GeometryUnion@Gu@physx@@QBEABUPxTriangleMeshGeometryLL@2@XZ 100380c0 f i GuContactCapsuleMesh.obj
 0001:000370e0       ??$get@$$CBVPxCapsuleGeometry@physx@@@GeometryUnion@Gu@physx@@QBEABVPxCapsuleGeometry@2@XZ 100380e0 f i GuContactCapsuleMesh.obj
 0001:00037100       ??$memFetch@E@Cm@physx@@YAEII@Z 10038100 f i GuContactCapsuleMesh.obj
 0001:00037110       ??$memFetchAsync@UIndexTriple16@MeshInterface@Gu@physx@@@Cm@physx@@YAPAUIndexTriple16@MeshInterface@Gu@1@IIAAUMemFetchSmallBuffer@01@@Z 10038110 f i GuContactCapsuleMesh.obj
 0001:00037120       ??$memFetchAsync@UIndexTriple32@MeshInterface@Gu@physx@@@Cm@physx@@YAPAUIndexTriple32@MeshInterface@Gu@1@IIAAUMemFetchSmallBuffer@01@@Z 10038120 f i GuContactCapsuleMesh.obj
 0001:00037130       ??$memFetchAsync@VPxVec3@physx@@@Cm@physx@@YAPAVPxVec3@1@IIAAUMemFetchSmallBuffer@01@@Z 10038130 f i GuContactCapsuleMesh.obj
 0001:00037140       ??$swap@M@shdfnd@physx@@YAXAAM0@Z 10038140 f i GuContactCapsuleMesh.obj
 0001:00037180       ??0?$EntityReport@I@Gu@physx@@QAE@XZ 10038180 f i GuContactCapsuleMesh.obj
 0001:000371a0       ??0?$MeshHitCallback@UPxRaycastHit@physx@@@Gu@physx@@QAE@W4Enum@CallbackMode@12@@Z 100381a0 f i GuContactCapsuleMesh.obj
 0001:000371d0       ??0?$PxFlags@W4Enum@PxBaseFlag@physx@@G@physx@@QAE@ABV01@@Z 100381d0 f i GuContactCapsuleMesh.obj
 0001:00037200       ??0?$PxFlags@W4Enum@PxHeightFieldFlag@physx@@G@physx@@QAE@ABV01@@Z 10038200 f i GuContactCapsuleMesh.obj
 0001:00037230       ??0?$PxFlags@W4Enum@PxHeightFieldFlag@physx@@G@physx@@QAE@ABW4PxEMPTY@1@@Z 10038230 f i GuContactCapsuleMesh.obj
 0001:00037250       ??0?$PxFlags@W4Enum@PxHeightFieldFlag@physx@@G@physx@@QAE@XZ 10038250 f i GuContactCapsuleMesh.obj
 0001:00037270       ??0Box@Gu@physx@@QAE@ABV012@@Z 10038270 f i GuContactCapsuleMesh.obj
 0001:000372c0       ??0Box@Gu@physx@@QAE@ABVPxVec3@2@0ABVPxMat33@2@@Z 100382c0 f i GuContactCapsuleMesh.obj
 0001:00037310       ??0Box@Gu@physx@@QAE@XZ    10038310 f i GuContactCapsuleMesh.obj
 0001:00037350       ??0Capsule@Gu@physx@@QAE@ABVSegment@12@M@Z 10038350 f i GuContactCapsuleMesh.obj
 0001:00037750       ??0FastVertex2ShapeScaling@Cm@physx@@QAE@XZ 10038750 f i GuContactCapsuleMesh.obj
 0001:000377b0       ??0GeometryUnion@Gu@physx@@QAE@ABW4PxEMPTY@2@@Z 100387b0 f i GuContactCapsuleMesh.obj
 0001:000377d0       ??0GeometryUnion@Gu@physx@@QAE@XZ 100387d0 f i GuContactCapsuleMesh.obj
 0001:00037800       ??0HeightFieldData@Gu@physx@@QAE@$$QAU012@@Z 10038800 f i GuContactCapsuleMesh.obj
 0001:00037910       ??0HeightFieldData@Gu@physx@@QAE@ABU012@@Z 10038910 f i GuContactCapsuleMesh.obj
 0001:00037a20       ??0HeightFieldData@Gu@physx@@QAE@ABW4PxEMPTY@2@@Z 10038a20 f i GuContactCapsuleMesh.obj
 0001:00037a60       ??0HeightFieldData@Gu@physx@@QAE@XZ 10038a60 f i GuContactCapsuleMesh.obj
 0001:00037a90       ??0HeightFieldUtil@Gu@physx@@QAE@ABVPxHeightFieldGeometry@2@@Z 10038a90 f i GuContactCapsuleMesh.obj
 0001:00037ad0       ??0HeightFieldUtil@Gu@physx@@QAE@ABVPxHeightFieldGeometry@2@ABVHeightField@12@@Z 10038ad0 f i GuContactCapsuleMesh.obj
 0001:00037b10       ??0HeightFieldUtil@Gu@physx@@QAE@XZ 10038b10 f i GuContactCapsuleMesh.obj
 0001:00037b30       ??0InvalidGeometry@Gu@physx@@QAE@XZ 10038b30 f i GuContactCapsuleMesh.obj
 0001:00037b50       ??0MaterialIndicesStruct@physx@@QAE@ABW4PxEMPTY@1@@Z 10038b50 f i GuContactCapsuleMesh.obj
 0001:00037b70       ??0MaterialIndicesStruct@physx@@QAE@XZ 10038b70 f i GuContactCapsuleMesh.obj
 0001:00037ba0       ??0Matrix34@Cm@physx@@QAE@ABVPxTransform@2@@Z 10038ba0 f i GuContactCapsuleMesh.obj
 0001:00037c10       ??0PxBounds3@physx@@QAE@$$QAV01@@Z 10038c10 f i GuContactCapsuleMesh.obj
 0001:00037c50       ??0PxBounds3@physx@@QAE@ABV01@@Z 10038c50 f i GuContactCapsuleMesh.obj
 0001:00037c90       ??0PxBounds3@physx@@QAE@ABVPxVec3@1@0@Z 10038c90 f i GuContactCapsuleMesh.obj
 0001:00037cd0       ??0PxBounds3@physx@@QAE@XZ 10038cd0 f i GuContactCapsuleMesh.obj
 0001:00037d00       ??0PxGeometry@physx@@IAE@W4Enum@PxGeometryType@1@@Z 10038d00 f i GuContactCapsuleMesh.obj
 0001:00037d20       ??0PxMat33@physx@@QAE@ABV01@@Z 10038d20 f i GuContactCapsuleMesh.obj
 0001:00037d70       ??0PxMat33@physx@@QAE@W4PxIDENTITY@1@@Z 10038d70 f i GuContactCapsuleMesh.obj
 0001:00037e30       ??0PxPlane@physx@@QAE@ABVPxVec3@1@00@Z 10038e30 f i GuContactCapsuleMesh.obj
 0001:00037ed0       ??0PxQuat@physx@@QAE@ABVPxMat33@1@@Z 10038ed0 f i GuContactCapsuleMesh.obj
 0001:000387c0       ??0PxTriangle@physx@@QAE@XZ 100397c0 f i GuContactCapsuleMesh.obj
 0001:000387f0       ??0RTree@Gu@physx@@QAE@ABU012@@Z 100397f0 f i GuContactCapsuleMesh.obj
 0001:000388d0       ??0RTreeMidphase@Gu@physx@@QAE@ABV012@@Z 100398d0 f i GuContactCapsuleMesh.obj
 0001:00038920       ??0RTreeMidphase@Gu@physx@@QAE@ABW4PxEMPTY@2@@Z 10039920 f i GuContactCapsuleMesh.obj
 0001:00038960       ??0Segment@Gu@physx@@QAE@ABV012@@Z 10039960 f i GuContactCapsuleMesh.obj
 0001:000389a0       ??0Segment@Gu@physx@@QAE@ABVPxVec3@2@0@Z 100399a0 f i GuContactCapsuleMesh.obj
 0001:000389e0       ??0Segment@Gu@physx@@QAE@XZ 100399e0 f i GuContactCapsuleMesh.obj
 0001:00038a10       ??1?$EntityReport@I@Gu@physx@@UAE@XZ 10039a10 f i GuContactCapsuleMesh.obj
 0001:00038a30       ??1?$MeshHitCallback@UPxRaycastHit@physx@@@Gu@physx@@UAE@XZ 10039a30 f i GuContactCapsuleMesh.obj
 0001:00038a50       ??1Box@Gu@physx@@QAE@XZ    10039a50 f i GuContactCapsuleMesh.obj
 0001:00038a60       ??1Capsule@Gu@physx@@QAE@XZ 10039a60 f i GuContactCapsuleMesh.obj
 0001:00038ac0       ??1MaterialIndicesStruct@physx@@QAE@XZ 10039ac0 f i GuContactCapsuleMesh.obj
 0001:00038ad0       ??1PxBase@physx@@MAE@XZ    10039ad0 f i GuContactCapsuleMesh.obj
 0001:00038af0       ??1PxHeightField@physx@@MAE@XZ 10039af0 f i GuContactCapsuleMesh.obj
 0001:00038b20       ??1PxTriangle@physx@@QAE@XZ 10039b20 f i GuContactCapsuleMesh.obj
 0001:00038b30       ??1PxTriangleMesh@physx@@MAE@XZ 10039b30 f i GuContactCapsuleMesh.obj
 0001:00038b60       ??1RTree@Gu@physx@@QAE@XZ  10039b60 f i GuContactCapsuleMesh.obj
 0001:00038b80       ??1Segment@Gu@physx@@QAE@XZ 10039b80 f i GuContactCapsuleMesh.obj
 0001:00038b90       ??4?$PxFlags@W4Enum@PxHeightFieldFlag@physx@@G@physx@@QAEAAV01@ABV01@@Z 10039b90 f i GuContactCapsuleMesh.obj
 0001:00038bc0       ??4Box@Gu@physx@@QAEABV012@ABV012@@Z 10039bc0 f i GuContactCapsuleMesh.obj
 0001:00038c10       ??4GeometryUnion@Gu@physx@@QAEAAV012@$$QAV012@@Z 10039c10 f i GuContactCapsuleMesh.obj
 0001:00038c40       ??4GeometryUnion@Gu@physx@@QAEAAV012@ABV012@@Z 10039c40 f i GuContactCapsuleMesh.obj
 0001:00038c70       ??4HeightFieldData@Gu@physx@@QAEAAU012@$$QAU012@@Z 10039c70 f i GuContactCapsuleMesh.obj
 0001:00038d80       ??4HeightFieldData@Gu@physx@@QAEAAU012@ABU012@@Z 10039d80 f i GuContactCapsuleMesh.obj
 0001:00038e90       ??4HeightFieldUtil@Gu@physx@@QAEAAV012@$$QAV012@@Z 10039e90 f i GuContactCapsuleMesh.obj
 0001:00038ef0       ??4HeightFieldUtil@Gu@physx@@QAEAAV012@ABV012@@Z 10039ef0 f i GuContactCapsuleMesh.obj
 0001:00038f30       ??4MaterialIndicesStruct@physx@@QAEAAU01@ABU01@@Z 10039f30 f i GuContactCapsuleMesh.obj
 0001:00038f60       ??4MeshInterface@Gu@physx@@QAEAAV012@ABV012@@Z 10039f60 f i GuContactCapsuleMesh.obj
 0001:00038fa0       ??4PxBounds3@physx@@QAEAAV01@$$QAV01@@Z 10039fa0 f i GuContactCapsuleMesh.obj
 0001:00038fe0       ??4PxBounds3@physx@@QAEAAV01@ABV01@@Z 10039fe0 f i GuContactCapsuleMesh.obj
 0001:00039020       ??4RTree@Gu@physx@@QAEAAU012@ABU012@@Z 1003a020 f i GuContactCapsuleMesh.obj
 0001:00039100       ??4RTreeMidphase@Gu@physx@@QAEAAV012@ABV012@@Z 1003a100 f i GuContactCapsuleMesh.obj
 0001:00039150       ??APxMat33@physx@@QBEABVPxVec3@1@H@Z 1003a150 f i GuContactCapsuleMesh.obj
 0001:00039170       ??APxVec3@physx@@QBEABMH@Z 1003a170 f i GuContactCapsuleMesh.obj
 0001:000391e0       ??B?$PxBitAndDataT@E$0IA@@physx@@QBEEXZ 1003a1e0 f i GuContactCapsuleMesh.obj
 0001:00039200       ??B?$PxFlags@W4Enum@PxBaseFlag@physx@@G@physx@@QBE_NXZ 1003a200 f i GuContactCapsuleMesh.obj
 0001:00039230       ??B?$PxFlags@W4Enum@PxHeightFieldFlag@physx@@G@physx@@QBE_NXZ 1003a230 f i GuContactCapsuleMesh.obj
 0001:00039260       ??DFastVertex2ShapeScaling@Cm@physx@@QBE?AVPxVec3@2@ABV32@@Z 1003a260 f i GuContactCapsuleMesh.obj
 0001:00039290       ??DPxMat33@physx@@QBE?AVPxVec3@1@ABV21@@Z 1003a290 f i GuContactCapsuleMesh.obj
 0001:000392c0       ??I?$PxFlags@W4Enum@PxBaseFlag@physx@@G@physx@@QBE?AV01@W4Enum@PxBaseFlag@1@@Z 1003a2c0 f i GuContactCapsuleMesh.obj
 0001:00039310       ??I?$PxFlags@W4Enum@PxHeightFieldFlag@physx@@G@physx@@QBE?AV01@W4Enum@PxHeightFieldFlag@1@@Z 1003a310 f i GuContactCapsuleMesh.obj
 0001:00039360       ??YPxVec3@physx@@QAEAAV01@ABV01@@Z 1003a360 f i GuContactCapsuleMesh.obj
 0001:000393d0       ??_EPxHeightField@physx@@MAEPAXI@Z 1003a3d0 f i GuContactCapsuleMesh.obj
 0001:00039470       ??_EPxTriangleMesh@physx@@MAEPAXI@Z 1003a470 f i GuContactCapsuleMesh.obj
 0001:00039510       ??_G?$EntityReport@I@Gu@physx@@UAEPAXI@Z 1003a510 f i GuContactCapsuleMesh.obj
 0001:00039510       ??_E?$EntityReport@I@Gu@physx@@UAEPAXI@Z 1003a510 f i GuContactCapsuleMesh.obj
 0001:00039550       ??_G?$MeshHitCallback@UPxRaycastHit@physx@@@Gu@physx@@UAEPAXI@Z 1003a550 f i GuContactCapsuleMesh.obj
 0001:00039550       ??_E?$MeshHitCallback@UPxRaycastHit@physx@@@Gu@physx@@UAEPAXI@Z 1003a550 f i GuContactCapsuleMesh.obj
 0001:00039590       ??_ECapsuleHeightfieldContactGenerationCallback@?A0x109bc84c@@UAEPAXI@Z 1003a590 f i GuContactCapsuleMesh.obj
 0001:00039590       ??_GCapsuleHeightfieldContactGenerationCallback@?A0x109bc84c@@UAEPAXI@Z 1003a590 f i GuContactCapsuleMesh.obj
 0001:000395d0       ??_GCapsuleMeshContactGenerationCallback@?A0x109bc84c@@UAEPAXI@Z 1003a5d0 f i GuContactCapsuleMesh.obj
 0001:000395d0       ??_ECapsuleMeshContactGenerationCallback@?A0x109bc84c@@UAEPAXI@Z 1003a5d0 f i GuContactCapsuleMesh.obj
 0001:00039610       ??_GPxBase@physx@@MAEPAXI@Z 1003a610 f i GuContactCapsuleMesh.obj
 0001:00039610       ??_EPxBase@physx@@MAEPAXI@Z 1003a610 f i GuContactCapsuleMesh.obj
 0001:00039650       ??_H@YGXPAXIIP6EPAX0@Z@Z   1003a650 f i GuContactCapsuleMesh.obj
 0001:000396b0       ?FLoad@aos@shdfnd@physx@@YA?AT__m128@@M@Z 1003a6b0 f i GuContactCapsuleMesh.obj
 0001:000396f0       ?GetMeshInterface@RTreeMidphase@Gu@physx@@QBEPBVMeshInterface@23@XZ 1003a6f0 f i GuContactCapsuleMesh.obj
 0001:00039710       ?GetNbTriangles@MeshInterface@Gu@physx@@QBEIXZ 1003a710 f i GuContactCapsuleMesh.obj
 0001:00039730       ?GetNbVertices@MeshInterface@Gu@physx@@QBEIXZ 1003a730 f i GuContactCapsuleMesh.obj
 0001:00039750       ?GetTriangle@MeshInterface@Gu@physx@@QBEXAAUVertexPointers@23@I@Z 1003a750 f i GuContactCapsuleMesh.obj
 0001:000398b0       ?GetTriangleVerts@MeshInterface@Gu@physx@@SAXIIIIAAVPxVec3@3@00@Z 1003a8b0 f i GuContactCapsuleMesh.obj
 0001:00039a50       ?GetTriangleVerts@MeshInterface@Gu@physx@@SAXIIIIAAVPxVec3@3@00AAI11@Z 1003aa50 f i GuContactCapsuleMesh.obj
 0001:00039c10       ?GetTris@MeshInterface@Gu@physx@@QBEPBXXZ 1003ac10 f i GuContactCapsuleMesh.obj
 0001:00039c30       ?GetVerts@MeshInterface@Gu@physx@@QBEPBVPxVec3@3@XZ 1003ac30 f i GuContactCapsuleMesh.obj
 0001:00039c50       ?PxCeil@physx@@YAMM@Z      1003ac50 f i GuContactCapsuleMesh.obj
 0001:00039c70       ?PxFloor@physx@@YAMM@Z     1003ac70 f i GuContactCapsuleMesh.obj
 0001:00039c90       ?SetMeshInterface@RTreeMidphase@Gu@physx@@QAEXPBVMeshInterface@23@@Z 1003ac90 f i GuContactCapsuleMesh.obj
 0001:00039cb0       ?SetNbTriangles@MeshInterface@Gu@physx@@QAEXI@Z 1003acb0 f i GuContactCapsuleMesh.obj
 0001:00039cd0       ?SetNbVertices@MeshInterface@Gu@physx@@QAEXI@Z 1003acd0 f i GuContactCapsuleMesh.obj
 0001:00039cf0       ?V3Load@aos@shdfnd@physx@@YA?AT__m128@@M@Z 1003acf0 f i GuContactCapsuleMesh.obj
 0001:00039d50       ?V4Load@aos@shdfnd@physx@@YA?AT__m128@@M@Z 1003ad50 f i GuContactCapsuleMesh.obj
 0001:00039d90       ?allocate@MaterialIndicesStruct@physx@@QAEXG@Z 1003ad90 f i GuContactCapsuleMesh.obj
 0001:00039df0       ?basisExtent@PxBounds3@physx@@SA?AV12@ABVPxVec3@2@ABVPxMat33@2@0@Z 1003adf0 f i GuContactCapsuleMesh.obj
 0001:0003a040       ?ceilUp@HeightFieldUtil@Gu@physx@@SAMM@Z 1003b040 f i GuContactCapsuleMesh.obj
 0001:0003a0b0       ?clipShapeNormalToVertexVoronoi@HeightFieldUtil@Gu@physx@@QBE_NAAVPxVec3@3@III@Z 1003b0b0 f i GuContactCapsuleMesh.obj
 0001:0003a590       ?computeAABBExtent@Box@Gu@physx@@QBE?AVPxVec3@3@XZ 1003b590 f i GuContactCapsuleMesh.obj
 0001:0003a850       ?computeBarycentricPoint@shdfnd@physx@@YA?AVPxVec3@2@ABV32@00MM@Z 1003b850 f i GuContactCapsuleMesh.obj
 0001:0003a950       ?computeBounds@GeometryUnion@Gu@physx@@QBE?AVPxBounds3@3@ABVPxTransform@3@@Z 1003b950 f i GuContactCapsuleMesh.obj
 0001:0003a9b0       ?computeBoxPoints@Box@Gu@physx@@QBEXPIAVPxVec3@3@@Z 1003b9b0 f i GuContactCapsuleMesh.obj
 0001:0003aa00       ?computeCenter@Segment@Gu@physx@@QBE?AVPxVec3@3@XZ 1003ba00 f i GuContactCapsuleMesh.obj
 0001:0003aa50       ?computeDirection@Segment@Gu@physx@@QBE?AVPxVec3@3@XZ 1003ba50 f i GuContactCapsuleMesh.obj
 0001:0003aa80       ?computePointNormal@HeightFieldUtil@Gu@physx@@QBE?AVPxVec3@3@IABV43@ABVPxTransform@3@MMMMAAM@Z 1003ba80 f i GuContactCapsuleMesh.obj
 0001:0003ab80       ?contact@ContactBuffer@Gu@physx@@QAE_NABVPxVec3@3@0MII@Z 1003bb80 f i GuContactCapsuleMesh.obj
 0001:0003acb0       ?createDiagonal@PxMat33@physx@@SA?AV12@ABVPxVec3@2@@Z 1003bcb0 f i GuContactCapsuleMesh.obj
 0001:0003ad70       ?createIdentity@PxMat33@physx@@SA?AV12@XZ 1003bd70 f i GuContactCapsuleMesh.obj
 0001:0003ad90       ?deallocate@MaterialIndicesStruct@physx@@QAEXXZ 1003bd90 f i GuContactCapsuleMesh.obj
 0001:0003add0       ?denormalizedNormal@PxTriangle@physx@@QBEXAAVPxVec3@2@@Z 1003bdd0 f i GuContactCapsuleMesh.obj
 0001:0003ae50       ?distance@PxPlane@physx@@QBEMABVPxVec3@2@@Z 1003be50 f i GuContactCapsuleMesh.obj
 0001:0003ae90       ?distanceSegmentTriangleSquared@Gu@physx@@YAMABVSegment@12@ABVPxVec3@2@11PAM22@Z 1003be90 f i GuContactCapsuleMesh.obj
 0001:0003aee0       ?floorDown@HeightFieldUtil@Gu@physx@@SAMM@Z 1003bee0 f i GuContactCapsuleMesh.obj
 0001:0003af50       ?get64BitBasePage@RTree@Gu@physx@@IBEPAURTreePage@23@XZ 1003bf50 f i GuContactCapsuleMesh.obj
 0001:0003af70       ?getCapsuleSegment@Gu@physx@@YAXABVPxTransform@2@ABVPxCapsuleGeometry@2@AAVSegment@12@@Z 1003bf70 f i GuContactCapsuleMesh.obj
 0001:0003b000       ?getCenter@PxBounds3@physx@@QBE?AVPxVec3@2@XZ 1003c000 f i GuContactCapsuleMesh.obj
 0001:0003b0b0       ?getConcreteTypeName@PxBase@physx@@UBEPBDXZ 1003c0b0 f i GuContactCapsuleMesh.obj
 0001:0003b0c0       ?getConcreteTypeName@PxHeightField@physx@@UBEPBDXZ 1003c0c0 f i GuContactCapsuleMesh.obj
 0001:0003b0e0       ?getConcreteTypeName@PxTriangleMesh@physx@@UBEPBDXZ 1003c0e0 f i GuContactCapsuleMesh.obj
 0001:0003b100       ?getConjugate@PxQuat@physx@@QBE?AV12@XZ 1003c100 f i GuContactCapsuleMesh.obj
 0001:0003b180       ?getConvexEdgeThreshold@HeightField@Gu@physx@@UBEMXZ 1003c180 f i GuContactCapsuleMesh.obj
 0001:0003b1a0       ?getData@HeightField@Gu@physx@@QBEABUHeightFieldData@23@XZ 1003c1a0 f i GuContactCapsuleMesh.obj
 0001:0003b1c0       ?getDeterminant@PxMat33@physx@@QBEMXZ 1003c1c0 f i GuContactCapsuleMesh.obj
 0001:0003b200       ?getDimensions@PxBounds3@physx@@QBE?AVPxVec3@2@XZ 1003c200 f i GuContactCapsuleMesh.obj
 0001:0003b290       ?getEdgeDirection@HeightFieldUtil@Gu@physx@@QBE?AVPxVec3@3@II@Z 1003c290 f i GuContactCapsuleMesh.obj
 0001:0003b5f0       ?getExtents@PxBounds3@physx@@QBE?AVPxVec3@2@XZ 1003c5f0 f i GuContactCapsuleMesh.obj
 0001:0003b690       ?getFeatureIndex@HeightFieldUtil@Gu@physx@@SAII@Z 1003c690 f i GuContactCapsuleMesh.obj
 0001:0003b6a0       ?getFeatureType@HeightFieldUtil@Gu@physx@@SA?AW4Feature@123@I@Z 1003c6a0 f i GuContactCapsuleMesh.obj
 0001:0003b6b0       ?getFlags@HeightField@Gu@physx@@UBE?AV?$PxFlags@W4Enum@PxHeightFieldFlag@physx@@G@3@XZ 1003c6b0 f i GuContactCapsuleMesh.obj
 0001:0003b6e0       ?getFormat@HeightField@Gu@physx@@UBE?AW4Enum@PxHeightFieldFormat@3@XZ 1003c6e0 f i GuContactCapsuleMesh.obj
 0001:0003b700       ?getGeometry@GeometryUnion@Gu@physx@@QBEABVPxGeometry@3@XZ 1003c700 f i GuContactCapsuleMesh.obj
 0001:0003b720       ?getHeight@HeightField@Gu@physx@@QBEMI@Z 1003c720 f i GuContactCapsuleMesh.obj
 0001:0003b750       ?getHeight@HeightField@Gu@physx@@UBEMMM@Z 1003c750 f i GuContactCapsuleMesh.obj
 0001:0003b790       ?getHeightAtShapePoint2@HeightFieldUtil@Gu@physx@@QBEMIMM@Z 1003c790 f i GuContactCapsuleMesh.obj
 0001:0003b800       ?getHeightAtShapePoint@HeightFieldUtil@Gu@physx@@QBEMMM@Z 1003c800 f i GuContactCapsuleMesh.obj
 0001:0003b880       ?getHeightField@HeightFieldUtil@Gu@physx@@QBEABVHeightField@23@XZ 1003c880 f i GuContactCapsuleMesh.obj
 0001:0003b8a0       ?getHeightFieldGeometry@HeightFieldUtil@Gu@physx@@QBEABVPxHeightFieldGeometry@3@XZ 1003c8a0 f i GuContactCapsuleMesh.obj
 0001:0003b8c0       ?getHeightInternal2@HeightField@Gu@physx@@QBEMIMM@Z 1003c8c0 f i GuContactCapsuleMesh.obj
 0001:0003bb10       ?getHeightInternal@HeightField@Gu@physx@@QBEMMM@Z 1003cb10 f i GuContactCapsuleMesh.obj
 0001:0003bb80       ?getInverse@PxMat33@physx@@QBE?AV12@XZ 1003cb80 f i GuContactCapsuleMesh.obj
 0001:0003c110       ?getMaterialIndex0@HeightField@Gu@physx@@QBEGI@Z 1003d110 f i GuContactCapsuleMesh.obj
 0001:0003c140       ?getMaterialIndex1@HeightField@Gu@physx@@QBEGI@Z 1003d140 f i GuContactCapsuleMesh.obj
 0001:0003c170       ?getNbColumns@HeightField@Gu@physx@@UBEIXZ 1003d170 f i GuContactCapsuleMesh.obj
 0001:0003c190       ?getNbColumnsFast@HeightField@Gu@physx@@QBEIXZ 1003d190 f i GuContactCapsuleMesh.obj
 0001:0003c1b0       ?getNbRows@HeightField@Gu@physx@@UBEIXZ 1003d1b0 f i GuContactCapsuleMesh.obj
 0001:0003c1d0       ?getNbRowsFast@HeightField@Gu@physx@@QBEIXZ 1003d1d0 f i GuContactCapsuleMesh.obj
 0001:0003c1f0       ?getNodeIdxFromNodeHandle@RTree@Gu@physx@@IBEII@Z 1003d1f0 f i GuContactCapsuleMesh.obj
 0001:0003c210       ?getNormalAtShapePoint2@HeightFieldUtil@Gu@physx@@QBE?AVPxVec3@3@IMM@Z 1003d210 f i GuContactCapsuleMesh.obj
 0001:0003c290       ?getNormalAtShapePoint@HeightFieldUtil@Gu@physx@@QBE?AVPxVec3@3@MM@Z 1003d290 f i GuContactCapsuleMesh.obj
 0001:0003c320       ?getNormal_2@HeightField@Gu@physx@@QBE?AVPxVec3@3@IMMMMM@Z 1003d320 f i GuContactCapsuleMesh.obj
 0001:0003c630       ?getNormal_@HeightField@Gu@physx@@QBE?AVPxVec3@3@MMMMM@Z 1003d630 f i GuContactCapsuleMesh.obj
 0001:0003c6e0       ?getNormalized@PxVec3@physx@@QBE?AV12@XZ 1003d6e0 f i GuContactCapsuleMesh.obj
 0001:0003c790       ?getOneOverColumnScale@HeightFieldUtil@Gu@physx@@QBEMXZ 1003d790 f i GuContactCapsuleMesh.obj
 0001:0003c7b0       ?getOneOverHeightScale@HeightFieldUtil@Gu@physx@@QBEMXZ 1003d7b0 f i GuContactCapsuleMesh.obj
 0001:0003c7d0       ?getOneOverRowScale@HeightFieldUtil@Gu@physx@@QBEMXZ 1003d7d0 f i GuContactCapsuleMesh.obj
 0001:0003c7f0       ?getPageFromNodeHandle@RTree@Gu@physx@@IBEPAURTreePage@23@I@Z 1003d7f0 f i GuContactCapsuleMesh.obj
 0001:0003c820       ?getPointAt@Segment@Gu@physx@@QBE?AVPxVec3@3@M@Z 1003d820 f i GuContactCapsuleMesh.obj
 0001:0003c880       ?getRTreeMidphaseData@RTreeMidphase@Gu@physx@@QBEXAAURTreeMidphaseData@23@@Z 1003d880 f i GuContactCapsuleMesh.obj
 0001:0003c8c0       ?getSample@HeightField@Gu@physx@@QBEABUPxHeightFieldSample@3@I@Z 1003d8c0 f i GuContactCapsuleMesh.obj
 0001:0003c940       ?getSampleStride@HeightField@Gu@physx@@UBEIXZ 1003d940 f i GuContactCapsuleMesh.obj
 0001:0003c960       ?getThickness@HeightField@Gu@physx@@UBEMXZ 1003d960 f i GuContactCapsuleMesh.obj
 0001:0003c980       ?getTransform@Box@Gu@physx@@QBE?AVPxTransform@3@XZ 1003d980 f i GuContactCapsuleMesh.obj
 0001:0003c9c0       ?getTriangleMaterial@HeightField@Gu@physx@@QBEGI@Z 1003d9c0 f i GuContactCapsuleMesh.obj
 0001:0003ca20       ?getTriangleMaterialIndex@HeightField@Gu@physx@@UBEGI@Z 1003da20 f i GuContactCapsuleMesh.obj
 0001:0003ca40       ?getTriangleNormal@HeightField@Gu@physx@@UBE?AVPxVec3@3@I@Z 1003da40 f i GuContactCapsuleMesh.obj
 0001:0003ca70       ?getTriangleNormalInternal@HeightField@Gu@physx@@QBE?AVPxVec3@3@I@Z 1003da70 f i GuContactCapsuleMesh.obj
 0001:0003cce0       ?getTriangleVertexIndices@HeightField@Gu@physx@@QBEXIAAI00@Z 1003dce0 f i GuContactCapsuleMesh.obj
 0001:0003ce10       ?getType@GeometryUnion@Gu@physx@@QBE?AW4Enum@PxGeometryType@3@XZ 1003de10 f i GuContactCapsuleMesh.obj
 0001:0003ce30       ?getType@PxGeometry@physx@@QBE?AW4Enum@PxGeometryType@2@XZ 1003de30 f i GuContactCapsuleMesh.obj
 0001:0003ce50       ?getVertexNormal@HeightFieldUtil@Gu@physx@@QBE?AVPxVec3@3@I@Z 1003de50 f i GuContactCapsuleMesh.obj
 0001:0003cec0       ?has16BitIndices@MeshInterface@Gu@physx@@QBEIXZ 1003dec0 f i GuContactCapsuleMesh.obj
 0001:0003cee0       ?hf2shapen@HeightFieldUtil@Gu@physx@@QBE?AVPxVec3@3@ABV43@@Z 1003dee0 f i GuContactCapsuleMesh.obj
 0001:0003cf50       ?hf2shapep@HeightFieldUtil@Gu@physx@@QBE?AVPxVec3@3@ABV43@@Z 1003df50 f i GuContactCapsuleMesh.obj
 0001:0003cfd0       ?hf2worldn@HeightFieldUtil@Gu@physx@@QBE?AVPxVec3@3@ABVPxTransform@3@ABV43@@Z 1003dfd0 f i GuContactCapsuleMesh.obj
 0001:0003d010       ?hf2worldp@HeightFieldUtil@Gu@physx@@QBE?AVPxVec3@3@ABVPxTransform@3@ABV43@@Z 1003e010 f i GuContactCapsuleMesh.obj
 0001:0003d050       ?init@FastVertex2ShapeScaling@Cm@physx@@QAEXABVPxMeshScale@3@@Z 1003e050 f i GuContactCapsuleMesh.obj
 0001:0003d080       ?init@FastVertex2ShapeScaling@Cm@physx@@QAEXABVPxVec3@3@ABVPxQuat@3@@Z 1003e080 f i GuContactCapsuleMesh.obj
 0001:0003d140       ?initialize@HeightFieldUtil@Gu@physx@@AAEXXZ 1003e140 f i GuContactCapsuleMesh.obj
 0001:0003d310       ?initialize@HeightFieldUtil@Gu@physx@@QAEXABVPxHeightFieldGeometry@3@ABVHeightField@23@@Z 1003e310 f i GuContactCapsuleMesh.obj
 0001:0003d340       ?isAlmostZero@shdfnd@physx@@YA_NABVPxVec3@2@@Z 1003e340 f i GuContactCapsuleMesh.obj
 0001:0003d3f0       ?isBitSet@?$PxBitAndDataT@E$0IA@@physx@@QBEEXZ 1003e3f0 f i GuContactCapsuleMesh.obj
 0001:0003d410       ?isCollisionVertex@HeightField@Gu@physx@@QBE_NIIIG@Z 1003e410 f i GuContactCapsuleMesh.obj
 0001:0003d460       ?isCollisionVertex@HeightFieldUtil@Gu@physx@@QBE_NIII@Z 1003e460 f i GuContactCapsuleMesh.obj
 0001:0003d490       ?isFinite@PxBounds3@physx@@QBE_NXZ 1003e490 f i GuContactCapsuleMesh.obj
 0001:0003d4f0       ?isFinite@PxTransform@physx@@QBE_NXZ 1003e4f0 f i GuContactCapsuleMesh.obj
 0001:0003d550       ?isFinite@PxVec3@physx@@QBE_NXZ 1003e550 f i GuContactCapsuleMesh.obj
 0001:0003d5f0       ?isFirstTriangle@HeightField@Gu@physx@@QBE_NI@Z 1003e5f0 f i GuContactCapsuleMesh.obj
 0001:0003d630       ?isIdentity@PxMeshScale@physx@@QBE_NXZ 1003e630 f i GuContactCapsuleMesh.obj
 0001:0003d6b0       ?isKindOf@PxBase@physx@@MBE_NPBD@Z 1003e6b0 f i GuContactCapsuleMesh.obj
 0001:0003d700       ?isKindOf@PxHeightField@physx@@MBE_NPBD@Z 1003e700 f i GuContactCapsuleMesh.obj
 0001:0003d760       ?isKindOf@PxTriangleMesh@physx@@MBE_NPBD@Z 1003e760 f i GuContactCapsuleMesh.obj
 0001:0003d7c0       ?isQueryVertex@HeightFieldUtil@Gu@physx@@QBE_NIII@Z 1003e7c0 f i GuContactCapsuleMesh.obj
 0001:0003d8c0       ?isReleasable@PxBase@physx@@UBE_NXZ 1003e8c0 f i GuContactCapsuleMesh.obj
 0001:0003d8f0       ?isSane@PxTransform@physx@@QBE_NXZ 1003e8f0 f i GuContactCapsuleMesh.obj
 0001:0003d940       ?isShapePointOnHeightField@HeightFieldUtil@Gu@physx@@QBE_NMM@Z 1003e940 f i GuContactCapsuleMesh.obj
 0001:0003da10       ?isValid@Box@Gu@physx@@QBE_NXZ 1003ea10 f i GuContactCapsuleMesh.obj
 0001:0003da60       ?isValid@PxBounds3@physx@@QBE_NXZ 1003ea60 f i GuContactCapsuleMesh.obj
 0001:0003db80       ?isValidVertex@HeightField@Gu@physx@@QBE_NI@Z 1003eb80 f i GuContactCapsuleMesh.obj
 0001:0003dbd0       ?isZerothVertexShared@HeightField@Gu@physx@@QBE_NI@Z 1003ebd0 f i GuContactCapsuleMesh.obj
 0001:0003dc20       ?makeFatEdge@shdfnd@physx@@YAXAAVPxVec3@2@0M@Z 1003ec20 f i GuContactCapsuleMesh.obj
 0001:0003dca0       ?makeFeatureCode@HeightFieldUtil@Gu@physx@@SAIIW4Feature@123@@Z 1003eca0 f i GuContactCapsuleMesh.obj
 0001:0003dcc0       ?memFetchWait@Cm@physx@@YAXI@Z 1003ecc0 f i GuContactCapsuleMesh.obj
 0001:0003dcd0       ?normal@PxTriangle@physx@@QBEXAAVPxVec3@2@@Z 1003ecd0 f i GuContactCapsuleMesh.obj
 0001:0003dfb0       ?pagePtrFrom32Bits@RTree@Gu@physx@@KAPAURTreePage@23@I@Z 1003efb0 f i GuContactCapsuleMesh.obj
 0001:0003dfc0       ?pagePtrTo32Bits@RTree@Gu@physx@@KAIPBURTreePage@23@@Z 1003efc0 f i GuContactCapsuleMesh.obj
 0001:0003e590       ?rotate@Box@Gu@physx@@QBE?AVPxVec3@3@ABV43@@Z 1003f590 f i GuContactCapsuleMesh.obj
 0001:0003e5c0       ?rotate@Matrix34@Cm@physx@@QBE?AVPxVec3@3@ABV43@@Z 1003f5c0 f i GuContactCapsuleMesh.obj
 0001:0003e660       ?rotate@PxTransform@physx@@QBE?AVPxVec3@2@ABV32@@Z 1003f660 f i GuContactCapsuleMesh.obj
 0001:0003e6e0       ?rotateInv@Box@Gu@physx@@QBE?AVPxVec3@3@ABV43@@Z 1003f6e0 f i GuContactCapsuleMesh.obj
 0001:0003e710       ?rotateInv@PxQuat@physx@@QBE?BVPxVec3@2@ABV32@@Z 1003f710 f i GuContactCapsuleMesh.obj
 0001:0003e900       ?set@Matrix34@Cm@physx@@QAEXABVPxQuat@3@@Z 1003f900 f i GuContactCapsuleMesh.obj
 0001:0003eb40       ?setAxes@Box@Gu@physx@@QAEXABVPxVec3@3@00@Z 1003fb40 f i GuContactCapsuleMesh.obj
 0001:0003eb90       ?setEmpty@Box@Gu@physx@@QAEXXZ 1003fb90 f i GuContactCapsuleMesh.obj
 0001:0003ec30       ?shape2hfp@HeightFieldUtil@Gu@physx@@QBE?AVPxVec3@3@ABV43@@Z 1003fc30 f i GuContactCapsuleMesh.obj
 0001:0003eca0       ?tessFlag@PxHeightFieldSample@physx@@QBEEXZ 1003fca0 f i GuContactCapsuleMesh.obj
 0001:0003ece0       ?transform@Box@Gu@physx@@QBE?AVPxVec3@3@ABV43@@Z 1003fce0 f i GuContactCapsuleMesh.obj
 0001:0003ed30       ?transform@Matrix34@Cm@physx@@QBE?AVPxVec3@3@ABV43@@Z 1003fd30 f i GuContactCapsuleMesh.obj
 0001:0003edf0       ?transform@PxTransform@physx@@QBE?AVPxVec3@2@ABV32@@Z 1003fdf0 f i GuContactCapsuleMesh.obj
 0001:0003ee90       ?transformFast@PxBounds3@physx@@SA?AV12@ABVPxTransform@2@ABV12@@Z 1003fe90 f i GuContactCapsuleMesh.obj
 0001:0003ef50       ?transformInv@PxTransform@physx@@QBE?AV12@ABV12@@Z 1003ff50 f i GuContactCapsuleMesh.obj
 0001:0003f070       ?transformInv@PxTransform@physx@@QBE?AVPxVec3@2@ABV32@@Z 10040070 f i GuContactCapsuleMesh.obj
 0001:0003f100       ?transformQueryBounds@FastVertex2ShapeScaling@Cm@physx@@QBEXAAVPxVec3@3@0AAVPxMat33@3@@Z 10040100 f i GuContactCapsuleMesh.obj
 0001:0003f230       ?transformTranspose@PxMat33@physx@@QBE?AVPxVec3@2@ABV32@@Z 10040230 f i GuContactCapsuleMesh.obj
 0001:0003f2a0       _ceilf                     100402a0 f i GuContactCapsuleMesh.obj
 0001:0003f2d0       _floorf                    100402d0 f i GuContactCapsuleMesh.obj
 0001:0003f300       ?contactConvexMesh@Gu@physx@@YA_NABVGeometryUnion@12@0ABVPxTransform@2@1ABMAAUCache@12@AAVContactBuffer@12@@Z 10040300 f   GuContactConvexMesh.obj
 0001:0003f3e0       ?contactBoxMesh@Gu@physx@@YA_NABVGeometryUnion@12@0ABVPxTransform@2@1ABMAAUCache@12@AAVContactBuffer@12@@Z 100403e0 f   GuContactConvexMesh.obj
 0001:0003f4e0       ?contactConvexHeightfield@Gu@physx@@YA_NABVGeometryUnion@12@0ABVPxTransform@2@1ABMAAUCache@12@AAVContactBuffer@12@@Z 100404e0 f   GuContactConvexMesh.obj
 0001:0003f5b0       ?contactBoxHeightfield@Gu@physx@@YA_NABVGeometryUnion@12@0ABVPxTransform@2@1ABMAAUCache@12@AAVContactBuffer@12@@Z 100405b0 f   GuContactConvexMesh.obj
 0001:00042850       ??$PxMin@I@physx@@YAIII@Z  10043850 f i GuContactConvexMesh.obj
 0001:00042880       ??$checkType@$$CBVPxBoxGeometry@physx@@@physx@@YAXABVGeometryUnion@Gu@0@@Z 10043880 f i GuContactConvexMesh.obj
 0001:000428f0       ??$get@$$CBVPxBoxGeometry@physx@@@GeometryUnion@Gu@physx@@QBEABVPxBoxGeometry@2@XZ 100438f0 f i GuContactConvexMesh.obj
 0001:00042910       ??0?$CacheMap@UCachedEdge@Gu@physx@@$0IA@@Gu@physx@@QAE@XZ 10043910 f i GuContactConvexMesh.obj
 0001:00042990       ??0?$CacheMap@UCachedVertex@Gu@physx@@$0IA@@Gu@physx@@QAE@XZ 10043990 f i GuContactConvexMesh.obj
 0001:00042a10       ??0CachedEdge@Gu@physx@@QAE@II@Z 10043a10 f i GuContactConvexMesh.obj
 0001:00042a60       ??0CachedEdge@Gu@physx@@QAE@XZ 10043a60 f i GuContactConvexMesh.obj
 0001:00042a80       ??0CachedVertex@Gu@physx@@QAE@I@Z 10043a80 f i GuContactConvexMesh.obj
 0001:00042aa0       ??0CachedVertex@Gu@physx@@QAE@XZ 10043aa0 f i GuContactConvexMesh.obj
 0001:00042ac0       ??0ConvexMeshContactGenerationCallback@@QAE@AAVContainer@Gu@physx@@ABVPxTransform@3@1ABUPolygonalData@23@ABVMatrix34@Cm@3@3PBUInternalTriangleMeshData@23@PIBEABVFastVertex2ShapeScaling@73@6M_N7M11AAVContactBuffer@23@ABVBox@23@@Z 10043ac0 f i GuContactConvexMesh.obj
 0001:00042c40       ??0HullPolygonData@Gu@physx@@QAE@ABU012@@Z 10043c40 f i GuContactConvexMesh.obj
 0001:00042ca0       ??0Matrix34@Cm@physx@@QAE@ABV012@@Z 10043ca0 f i GuContactConvexMesh.obj
 0001:00042d40       ??0PolygonalBox@Gu@physx@@QAE@ABV012@@Z 10043d40 f i GuContactConvexMesh.obj
 0001:00042db0       ??0PolygonalData@Gu@physx@@QAE@XZ 10043db0 f i GuContactConvexMesh.obj
 0001:00042dd0       ??0PxPlane@physx@@QAE@ABVPxVec3@1@M@Z 10043dd0 f i GuContactConvexMesh.obj
 0001:00042e10       ??0PxPlane@physx@@QAE@XZ   10043e10 f i GuContactConvexMesh.obj
 0001:00042e30       ??0PxTransform@physx@@QAE@ABV01@@Z 10043e30 f i GuContactConvexMesh.obj
 0001:00042e70       ??0SeparatingAxes@Gu@physx@@QAE@$$QAV012@@Z 10043e70 f i GuContactConvexMesh.obj
 0001:00042ec0       ??0SeparatingAxes@Gu@physx@@QAE@ABV012@@Z 10043ec0 f i GuContactConvexMesh.obj
 0001:00042f10       ??0SeparatingAxes@Gu@physx@@QAE@XZ 10043f10 f i GuContactConvexMesh.obj
 0001:00042f50       ??1ConvexMeshContactGenerationCallback@@UAE@XZ 10043f50 f i GuContactConvexMesh.obj
 0001:00042f90       ??4SeparatingAxes@Gu@physx@@QAEAAV012@$$QAV012@@Z 10043f90 f i GuContactConvexMesh.obj
 0001:00043000       ??4SeparatingAxes@Gu@physx@@QAEAAV012@ABV012@@Z 10044000 f i GuContactConvexMesh.obj
 0001:00043070       ??8CachedEdge@Gu@physx@@QBE_NABU012@@Z 10044070 f i GuContactConvexMesh.obj
 0001:000430c0       ??8CachedVertex@Gu@physx@@QBE_NABU012@@Z 100440c0 f i GuContactConvexMesh.obj
 0001:00043100       ??AContainer@Gu@physx@@QAEAAII@Z 10044100 f i GuContactConvexMesh.obj
 0001:00043170       ??AContainer@Gu@physx@@QBEII@Z 10044170 f i GuContactConvexMesh.obj
 0001:000431e0       ??LFastVertex2ShapeScaling@Cm@physx@@QBE?AVPxVec3@2@ABV32@@Z 100441e0 f i GuContactConvexMesh.obj
 0001:00043210       ??_EConvexMeshContactGenerationCallback@@UAEPAXI@Z 10044210 f i GuContactConvexMesh.obj
 0001:00043210       ??_GConvexMeshContactGenerationCallback@@UAEPAXI@Z 10044210 f i GuContactConvexMesh.obj
 0001:00043250       ??_GConvexVsHeightfieldContactGenerationCallback@?A0x2952d824@@UAEPAXI@Z 10044250 f i GuContactConvexMesh.obj
 0001:00043250       ??_EConvexVsHeightfieldContactGenerationCallback@?A0x2952d824@@UAEPAXI@Z 10044250 f i GuContactConvexMesh.obj
 0001:00043290       ??__G@YGXPAX0IIP6EPAX00@Z@Z 10044290 f i GuContactConvexMesh.obj
 0001:00043300       ?Add@Container@Gu@physx@@QAEAAV123@ABV123@@Z 10044300 f i GuContactConvexMesh.obj
 0001:00043330       ?Add@Container@Gu@physx@@QAEAAV123@I@Z 10044330 f i GuContactConvexMesh.obj
 0001:00043390       ?Add@Container@Gu@physx@@QAEAAV123@M@Z 10044390 f i GuContactConvexMesh.obj
 0001:00043400       ?Add@Container@Gu@physx@@QAEAAV123@PBII@Z 10044400 f i GuContactConvexMesh.obj
 0001:00043490       ?Add@Container@Gu@physx@@QAEAAV123@PBMI@Z 10044490 f i GuContactConvexMesh.obj
 0001:00043510       ?AddUnique@Container@Gu@physx@@QAEAAV123@I@Z 10044510 f i GuContactConvexMesh.obj
 0001:00043550       ?DeleteIndex@Container@Gu@physx@@QAEXI@Z 10044550 f i GuContactConvexMesh.obj
 0001:000435a0       ?DeleteLastEntry@Container@Gu@physx@@QAEXXZ 100445a0 f i GuContactConvexMesh.obj
 0001:000435d0       ?ForceSize@Container@Gu@physx@@QAEXI@Z 100445d0 f i GuContactConvexMesh.obj
 0001:000435f0       ?GetEntries@Container@Gu@physx@@QBEPAIXZ 100445f0 f i GuContactConvexMesh.obj
 0001:00043610       ?GetEntry@Container@Gu@physx@@QBEII@Z 10044610 f i GuContactConvexMesh.obj
 0001:00043630       ?GetFirst@Container@Gu@physx@@QBEIXZ 10044630 f i GuContactConvexMesh.obj
 0001:00043660       ?GetGrowthFactor@Container@Gu@physx@@QBEMXZ 10044660 f i GuContactConvexMesh.obj
 0001:00043680       ?GetLast@Container@Gu@physx@@QBEIXZ 10044680 f i GuContactConvexMesh.obj
 0001:000436b0       ?GetMaxNbEntries@Container@Gu@physx@@QBEIXZ 100446b0 f i GuContactConvexMesh.obj
 0001:000436d0       ?GetNbEntries@Container@Gu@physx@@QBEIXZ 100446d0 f i GuContactConvexMesh.obj
 0001:000436f0       ?IsFull@Container@Gu@physx@@QBE_NXZ 100446f0 f i GuContactConvexMesh.obj
 0001:00043730       ?IsNotEmpty@Container@Gu@physx@@QBEHXZ 10044730 f i GuContactConvexMesh.obj
 0001:00043750       ?Reserve@Container@Gu@physx@@QAEPAII@Z 10044750 f i GuContactConvexMesh.obj
 0001:000437d0       ?Reset@Container@Gu@physx@@QAEXXZ 100447d0 f i GuContactConvexMesh.obj
 0001:00043800       ?SetGrowthFactor@Container@Gu@physx@@QAEXM@Z 10044800 f i GuContactConvexMesh.obj
 0001:00043840       ?addData@?$CacheMap@UCachedEdge@Gu@physx@@$0IA@@Gu@physx@@QAE_NABUCachedEdge@23@@Z 10044840 f i GuContactConvexMesh.obj
 0001:000439d0       ?addData@?$CacheMap@UCachedVertex@Gu@physx@@$0IA@@Gu@physx@@QAE_NABUCachedVertex@23@@Z 100449d0 f i GuContactConvexMesh.obj
 0001:00043b50       ?contains@?$CacheMap@UCachedEdge@Gu@physx@@$0IA@@Gu@physx@@QBE_NABUCachedEdge@23@@Z 10044b50 f i GuContactConvexMesh.obj
 0001:00043be0       ?contains@?$CacheMap@UCachedVertex@Gu@physx@@$0IA@@Gu@physx@@QBE_NABUCachedVertex@23@@Z 10044be0 f i GuContactConvexMesh.obj
 0001:00043c70       ?copyPlane@Gu@physx@@YAXPIAVPxPlane@2@PIBUHullPolygonData@12@@Z 10044c70 f i GuContactConvexMesh.obj
 0001:00043cb0       ?getAxes@SeparatingAxes@Gu@physx@@QBEPBVPxVec3@3@XZ 10044cb0 f i GuContactConvexMesh.obj
 0001:00043cd0       ?getHashCode@CachedEdge@Gu@physx@@QBEIXZ 10044cd0 f i GuContactConvexMesh.obj
 0001:00043d00       ?getHashCode@CachedVertex@Gu@physx@@QBEIXZ 10044d00 f i GuContactConvexMesh.obj
 0001:00043d20       ?getMax@HullPolygonData@Gu@physx@@QBEMXZ 10044d20 f i GuContactConvexMesh.obj
 0001:00043d50       ?getMin@HullPolygonData@Gu@physx@@QBEMPIBVPxVec3@3@@Z 10044d50 f i GuContactConvexMesh.obj
 0001:00043d80       ?getNumAxes@SeparatingAxes@Gu@physx@@QBEIXZ 10044d80 f i GuContactConvexMesh.obj
 0001:00043da0       ?getPolygonVertexRefs@PolygonalData@Gu@physx@@QBEPBEABUHullPolygonData@23@@Z 10044da0 f i GuContactConvexMesh.obj
 0001:00043dc0       ?invalidateCache@shdfnd@physx@@YAXPIAXH@Z 10044dc0 f i GuContactConvexMesh.obj
 0001:00044030       ?processHit@ConvexMeshContactGenerationCallback@@UAE_NABUPxRaycastHit@physx@@ABVPxVec3@3@11AAMPBI@Z 10045030 f i GuContactConvexMesh.obj
 0001:00044220       ?reset@SeparatingAxes@Gu@physx@@QAEXXZ 10045220 f i GuContactConvexMesh.obj
 0001:00044240       ?rotateTranspose@Matrix34@Cm@physx@@QBE?AVPxVec3@3@ABV43@@Z 10045240 f i GuContactConvexMesh.obj
 0001:000442b0       ?to8@shdfnd@physx@@YAEI@Z  100452b0 f i GuContactConvexMesh.obj
 0001:00044310       ?transformPlaneToShapeSpace@FastVertex2ShapeScaling@Cm@physx@@QBEXABVPxVec3@3@MAAV43@AAM@Z 10045310 f i GuContactConvexMesh.obj
 0001:000443f0       ?findRotationMatrixFromZ@Gu@physx@@YA?AVPxMat33@2@ABVPxVec3@2@@Z 100453f0 f   GuContactPolygonPolygon.obj
 0001:00044a20       ?contactPolygonPolygonExt@Gu@physx@@YA_NIPBVPxVec3@2@PBEABVMatrix34@Cm@2@ABVPxPlane@2@ABVPxMat33@2@I01234ABV32@22IIAAVContactBuffer@12@_N5M@Z 10045a20 f   GuContactPolygonPolygon.obj
 0001:000469e0       ??0Matrix34@Cm@physx@@QAE@ABVPxVec3@2@000@Z 100479e0 f i GuContactPolygonPolygon.obj
 0001:00046a40       ??4ContactPoint@Gu@physx@@QAEAAU012@ABU012@@Z 10047a40 f i GuContactPolygonPolygon.obj
 0001:00046b00       ??RPxMat33@physx@@QAEAAMII@Z 10047b00 f i GuContactPolygonPolygon.obj
 0001:00046b30       ?EdgeEdgeContactSpecial@@YA_NABVPxVec3@physx@@ABVPxPlane@2@00000AAMAAV12@IIM@Z 10047b30 f i GuContactPolygonPolygon.obj
 0001:00046db0       ?PxMemZero@physx@@YAPAXPIAXI@Z 10047db0 f i GuContactPolygonPolygon.obj
 0001:00046dd0       ?closestAxis@shdfnd@physx@@YAIABVPxVec3@2@AAI1@Z 10047dd0 f i GuContactPolygonPolygon.obj
 0001:00046ed0       ?contact@ContactBuffer@Gu@physx@@QAEPAUContactPoint@23@XZ 10047ed0 f i GuContactPolygonPolygon.obj
 0001:00046f30       ?cross001@shdfnd@physx@@YA?AVPxVec3@2@ABV32@@Z 10047f30 f i GuContactPolygonPolygon.obj
 0001:00046f80       ?degToRad@shdfnd@physx@@YAMM@Z 10047f80 f i GuContactPolygonPolygon.obj
 0001:00046fb0       ?memZero@intrinsics@physx@@YAPAXPIAXI@Z 10047fb0 f i GuContactPolygonPolygon.obj
 0001:00046fd0       ?pointInTriangle2D@@YA_NMMMMMMMM@Z 10047fd0 f i GuContactPolygonPolygon.obj
 0001:00047180       ?transform2D@@YAXAAM0ABVPxVec3@physx@@ABVMatrix34@Cm@2@@Z 10048180 f i GuContactPolygonPolygon.obj
 0001:00047240       ?transform2DT@@YAXAAM0ABVPxVec3@physx@@ABVPxMat33@2@@Z 10048240 f i GuContactPolygonPolygon.obj
 0001:00047280       ?transformTranspose@@YA?AVMatrix34@Cm@physx@@ABVPxMat33@3@ABV123@@Z 10048280 f i GuContactPolygonPolygon.obj
 0001:00047300       ?transformZ@@YAMABVPxVec3@physx@@ABVMatrix34@Cm@2@@Z 10048300 f i GuContactPolygonPolygon.obj
 0001:000473c0       ?contactSphereMesh@Gu@physx@@YA_NABVGeometryUnion@12@0ABVPxTransform@2@1ABMAAUCache@12@AAVContactBuffer@12@@Z 100483c0 f   GuContactSphereMesh.obj
 0001:000475e0       ?contactSphereHeightField@Gu@physx@@YA_NABVGeometryUnion@12@0ABVPxTransform@2@1ABMAAUCache@12@AAVContactBuffer@12@@Z 100485e0 f   GuContactSphereMesh.obj
 0001:00047fc0       ??$checkType@$$CBVPxSphereGeometry@physx@@@physx@@YAXABVGeometryUnion@Gu@0@@Z 10048fc0 f i GuContactSphereMesh.obj
 0001:00048030       ??$get@$$CBVPxSphereGeometry@physx@@@GeometryUnion@Gu@physx@@QBEABVPxSphereGeometry@2@XZ 10049030 f i GuContactSphereMesh.obj
 0001:00048050       ??$median3@USortKey@@$$CBU?$Less@USortKey@@@shdfnd@physx@@@internal@shdfnd@physx@@YAXPAUSortKey@@HHABU?$Less@USortKey@@@12@@Z 10049050 f i GuContactSphereMesh.obj
 0001:00048180       ??$partition@USortKey@@$$CBU?$Less@USortKey@@@shdfnd@physx@@@internal@shdfnd@physx@@YAHPAUSortKey@@HHABU?$Less@USortKey@@@12@@Z 10049180 f i GuContactSphereMesh.obj
 0001:00048350       ??$smallSort@USortKey@@$$CBU?$Less@USortKey@@@shdfnd@physx@@@internal@shdfnd@physx@@YAXPAUSortKey@@HHABU?$Less@USortKey@@@12@@Z 10049350 f i GuContactSphereMesh.obj
 0001:00048410       ??$sort@USortKey@@U?$Less@USortKey@@@shdfnd@physx@@VNullAllocator@?A0xd3e8f430@@@shdfnd@physx@@YAXPAUSortKey@@IABU?$Less@USortKey@@@01@ABVNullAllocator@?A0xd3e8f430@@I@Z 10049410 f i GuContactSphereMesh.obj
 0001:000486e0       ??$swap@USortKey@@@shdfnd@physx@@YAXAAUSortKey@@0@Z 100496e0 f i GuContactSphereMesh.obj
 0001:00048730       ??0?$ScopedPointer@HVTempAllocator@shdfnd@physx@@@shdfnd@physx@@QAE@XZ 10049730 f i GuContactSphereMesh.obj
 0001:00048750       ??0?$Stack@VNullAllocator@?A0xd3e8f430@@@internal@shdfnd@physx@@QAE@PAHIABVNullAllocator@?A0xd3e8f430@@@Z 10049750 f i GuContactSphereMesh.obj
 0001:00048790       ??0FastVertex2ShapeScaling@Cm@physx@@QAE@ABVPxMeshScale@2@@Z 10049790 f i GuContactSphereMesh.obj
 0001:000489e0       ??0TriangleData@@QAE@XZ    100499e0 f i GuContactSphereMesh.obj
 0001:00048a00       ??1?$ScopedPointer@HVTempAllocator@shdfnd@physx@@@shdfnd@physx@@QAE@XZ 10049a00 f i GuContactSphereMesh.obj
 0001:00048a30       ??1?$Stack@VNullAllocator@?A0xd3e8f430@@@internal@shdfnd@physx@@QAE@XZ 10049a30 f i GuContactSphereMesh.obj
 0001:00048ae0       ??B?$ScopedPointer@HVTempAllocator@shdfnd@physx@@@shdfnd@physx@@QBEPAHXZ 10049ae0 f i GuContactSphereMesh.obj
 0001:00048b00       ??MSortKey@@QBE_NABU0@@Z   10049b00 f i GuContactSphereMesh.obj
 0001:00048b40       ??R?$Less@USortKey@@@shdfnd@physx@@QBE_NABUSortKey@@0@Z 10049b40 f i GuContactSphereMesh.obj
 0001:00048b60       ??_ESphereHeightfieldContactGenerationCallback@?A0xd3e8f430@@UAEPAXI@Z 10049b60 f i GuContactSphereMesh.obj
 0001:00048b60       ??_GSphereHeightfieldContactGenerationCallback@?A0xd3e8f430@@UAEPAXI@Z 10049b60 f i GuContactSphereMesh.obj
 0001:00048ba0       ??_ESphereMeshContactGenerationCallback_NoScale@?A0xd3e8f430@@UAEPAXI@Z 10049ba0 f i GuContactSphereMesh.obj
 0001:00048ba0       ??_GSphereMeshContactGenerationCallback_NoScale@?A0xd3e8f430@@UAEPAXI@Z 10049ba0 f i GuContactSphereMesh.obj
 0001:00048be0       ??_ESphereMeshContactGenerationCallback_Scale@?A0xd3e8f430@@UAEPAXI@Z 10049be0 f i GuContactSphereMesh.obj
 0001:00048be0       ??_GSphereMeshContactGenerationCallback_Scale@?A0xd3e8f430@@UAEPAXI@Z 10049be0 f i GuContactSphereMesh.obj
 0001:00048e80       ?empty@?$Stack@VNullAllocator@?A0xd3e8f430@@@internal@shdfnd@physx@@QAE_NXZ 10049e80 f i GuContactSphereMesh.obj
 0001:000491f0       ?grow@?$Stack@VNullAllocator@?A0xd3e8f430@@@internal@shdfnd@physx@@QAEXXZ 1004a1f0 f i GuContactSphereMesh.obj
 0001:00049380       ?pop@?$Stack@VNullAllocator@?A0xd3e8f430@@@internal@shdfnd@physx@@QAEXAAH0@Z 1004a380 f i GuContactSphereMesh.obj
 0001:00049810       ?push@?$Stack@VNullAllocator@?A0xd3e8f430@@@internal@shdfnd@physx@@QAEXHH@Z 1004a810 f i GuContactSphereMesh.obj
 0001:000498a0       ?selectNormal@Gu@physx@@YA_NEMM@Z 1004a8a0 f   GuFeatureCode.obj
 0001:00049aa0       ?barycentricCoordinates@Gu@physx@@YAXABT__m128@@00AAT3@@Z 1004aaa0 f   GuBarycentricCoordinates.obj
 0001:00049b90       ?barycentricCoordinates@Gu@physx@@YAXABT__m128@@000AAT3@1@Z 1004ab90 f   GuBarycentricCoordinates.obj
 0001:00049ee0       ?barycentricCoordinates@Gu@physx@@YAXABT__m128@@00AAT3@1@Z 1004aee0 f   GuBarycentricCoordinates.obj
 0001:0004a260       ?FAdd@aos@shdfnd@physx@@YA?AT__m128@@T4@0@Z 1004b260 f i GuBarycentricCoordinates.obj
 0001:0004a2b0       ?FDiv@aos@shdfnd@physx@@YA?AT__m128@@T4@0@Z 1004b2b0 f i GuBarycentricCoordinates.obj
 0001:0004a300       ?FIsEq@aos@shdfnd@physx@@YA?AT__m128@@T4@0@Z 1004b300 f i GuBarycentricCoordinates.obj
 0001:0004a350       ?FMul@aos@shdfnd@physx@@YA?AT__m128@@T4@0@Z 1004b350 f i GuBarycentricCoordinates.obj
 0001:0004a3a0       ?FOne@aos@shdfnd@physx@@YA?AT__m128@@XZ 1004b3a0 f i GuBarycentricCoordinates.obj
 0001:0004a3f0       ?FRecip@aos@shdfnd@physx@@YA?AT__m128@@T4@@Z 1004b3f0 f i GuBarycentricCoordinates.obj
 0001:0004a440       ?FSel@aos@shdfnd@physx@@YA?AT__m128@@T4@00@Z 1004b440 f i GuBarycentricCoordinates.obj
 0001:0004a4b0       ?FSub@aos@shdfnd@physx@@YA?AT__m128@@T4@0@Z 1004b4b0 f i GuBarycentricCoordinates.obj
 0001:0004a500       ?FZero@aos@shdfnd@physx@@YA?AT__m128@@XZ 1004b500 f i GuBarycentricCoordinates.obj
 0001:0004a540       ?V3Cross@aos@shdfnd@physx@@YA?AT__m128@@ABUVecCrossV@123@0@Z 1004b540 f i GuBarycentricCoordinates.obj
 0001:0004a5b0       ?V3Cross@aos@shdfnd@physx@@YA?AT__m128@@T4@0@Z 1004b5b0 f i GuBarycentricCoordinates.obj
 0001:0004a6b0       ?V3Dot@aos@shdfnd@physx@@YA?AT__m128@@T4@0@Z 1004b6b0 f i GuBarycentricCoordinates.obj
 0001:0004a790       ?V3Neg@aos@shdfnd@physx@@YA?AT__m128@@T4@@Z 1004b790 f i GuBarycentricCoordinates.obj
 0001:0004a7e0       ?V3PrepareCross@aos@shdfnd@physx@@YA?AUVecCrossV@123@T__m128@@@Z 1004b7e0 f i GuBarycentricCoordinates.obj
 0001:0004a860       ?V3Sub@aos@shdfnd@physx@@YA?AT__m128@@T4@0@Z 1004b860 f i GuBarycentricCoordinates.obj
 0001:0004a8b0       ?addAxis@SeparatingAxes@Gu@physx@@QAE_NABVPxVec3@3@@Z 1004b8b0 f   GuSeparatingAxes.obj
 0001:0004a990       ??0BigConvexData@physx@@QAE@XZ 1004b990 f   GuBigConvexData.obj
 0001:0004a9f0       ??1BigConvexData@physx@@QAE@XZ 1004b9f0 f   GuBigConvexData.obj
 0001:0004aa70       ?Load@BigConvexData@physx@@QAE_NAAVPxInputStream@2@@Z 1004ba70 f   GuBigConvexData.obj
 0001:0004ab80       ?ComputeOffset@BigConvexData@physx@@QBEIABVPxVec3@2@@Z 1004bb80 f   GuBigConvexData.obj
 0001:0004aba0       ?ComputeNearestOffset@BigConvexData@physx@@QBEIABVPxVec3@2@@Z 1004bba0 f   GuBigConvexData.obj
 0001:0004abc0       ?exportExtraData@BigConvexData@physx@@QAEXAAVPxSerializationContext@2@@Z 1004bbc0 f   GuBigConvexData.obj
 0001:0004ac60       ?importExtraData@BigConvexData@physx@@QAEXAAVPxDeserializationContext@2@@Z 1004bc60 f   GuBigConvexData.obj
 0001:0004ace0       ?CreateOffsets@BigConvexData@physx@@IAEXXZ 1004bce0 f   GuBigConvexData.obj
 0001:0004ad50       ?VLoad@BigConvexData@physx@@IAE_NAAVPxInputStream@2@@Z 1004bd50 f   GuBigConvexData.obj
 0001:0004b0e0       ??$readExtraData@E$0BA@@PxDeserializationContext@physx@@QAEPAEI@Z 1004c0e0 f i GuBigConvexData.obj
 0001:0004b110       ??$readExtraData@E@PxDeserializationContext@physx@@QAEPAEI@Z 1004c110 f i GuBigConvexData.obj
 0001:0004b150       ??$readExtraData@UValency@Gu@physx@@@PxDeserializationContext@physx@@QAEPAUValency@Gu@1@I@Z 1004c150 f i GuBigConvexData.obj
 0001:0004b190       ??0BigConvexData@physx@@QAE@ABW4PxEMPTY@1@@Z 1004c190 f i GuBigConvexData.obj
 0001:0004b1b0       ??4BigConvexData@physx@@QAEAAV01@ABV01@@Z 1004c1b0 f i GuBigConvexData.obj
 0001:0004b1e0       ?ComputeCubemapNearestOffset@physx@@YAIABVPxVec3@1@I@Z 1004c1e0 f i GuBigConvexData.obj
 0001:0004b2f0       ?ComputeCubemapOffset@physx@@YAIABVPxVec3@1@I@Z 1004c2f0 f i GuBigConvexData.obj
 0001:0004b3f0       ?GetAdjacentVerts@BigConvexData@physx@@QBEPBEXZ 1004c3f0 f i GuBigConvexData.obj
 0001:0004b410       ?GetNbNeighbors@BigConvexData@physx@@QBEGI@Z 1004c410 f i GuBigConvexData.obj
 0001:0004b430       ?GetNbSamples@BigConvexData@physx@@QBEIXZ 1004c430 f i GuBigConvexData.obj
 0001:0004b450       ?GetNbVerts@BigConvexData@physx@@QBEIXZ 1004c450 f i GuBigConvexData.obj
 0001:0004b470       ?GetNeighbors@BigConvexData@physx@@QBEPBEI@Z 1004c470 f i GuBigConvexData.obj
 0001:0004b4a0       ?GetOffset@BigConvexData@physx@@QBEGI@Z 1004c4a0 f i GuBigConvexData.obj
 0001:0004b4d0       ?GetSubdiv@BigConvexData@physx@@QBEIXZ 1004c4d0 f i GuBigConvexData.obj
 0001:0004b4f0       ?GetValencies@BigConvexData@physx@@QBEPBUValency@Gu@2@XZ 1004c4f0 f i GuBigConvexData.obj
 0001:0004b510       ?GetValency@BigConvexData@physx@@QBEGI@Z 1004c510 f i GuBigConvexData.obj
 0001:0004b530       ?to16@shdfnd@physx@@YAGI@Z 1004c530 f i GuBigConvexData.obj
 0001:0004b590       ?getScaledConvex@Gu@physx@@YAXAAPAVPxVec3@2@AAPAEPAV32@PAE_NPBV32@PBEIABVFastVertex2ShapeScaling@Cm@2@@Z 1004c590 f   GuConvexHelper.obj
 0001:0004b630       ?getConvexData@Gu@physx@@YA_NABVGeometryUnion@12@AAVFastVertex2ShapeScaling@Cm@2@AAVPxBounds3@2@AAUPolygonalData@12@@Z 1004c630 f   GuConvexHelper.obj
 0001:0004b700       ?findUniqueConvexEdges@Gu@physx@@YAIIPIAUConvexEdge@12@IPIBUHullPolygonData@12@PIBE@Z 1004c700 f   GuConvexHelper.obj
 0001:0004b980       ??$checkType@$$CBUPxConvexMeshGeometryLL@physx@@@physx@@YAXABVGeometryUnion@Gu@0@@Z 1004c980 f i GuConvexHelper.obj
 0001:0004b9f0       ??$get@$$CBUPxConvexMeshGeometryLL@physx@@@GeometryUnion@Gu@physx@@QBEABUPxConvexMeshGeometryLL@2@XZ 1004c9f0 f i GuConvexHelper.obj
 0001:0004ba10       ?getVertex2ShapeSkew@FastVertex2ShapeScaling@Cm@physx@@QBEABVPxMat33@3@XZ 1004ca10 f i GuConvexHelper.obj
 0001:0004ba30       ?isEmpty@PxBounds3@physx@@QBE_NXZ 1004ca30 f i GuConvexHelper.obj
 0001:0004bac0       ?reset@InternalObjectsData@Gu@physx@@QAEXXZ 1004cac0 f i GuConvexHelper.obj
 0001:0004bb30       ?transformFast@PxBounds3@physx@@SA?AV12@ABVPxMat33@2@ABV12@@Z 1004cb30 f i GuConvexHelper.obj
 0001:0004bbe0       ?exportExtraData@ConvexMesh@Gu@physx@@UAEXAAVPxSerializationContext@3@@Z 1004cbe0 f   GuConvexMesh.obj
 0001:0004bc70       ?importExtraData@ConvexMesh@Gu@physx@@QAEXAAVPxDeserializationContext@3@@Z 1004cc70 f   GuConvexMesh.obj
 0001:0004bd20       ?onRefCountZero@ConvexMesh@Gu@physx@@UAEXXZ 1004cd20 f   GuConvexMesh.obj
 0001:0004bdb0       ?createObject@ConvexMesh@Gu@physx@@SAPAV123@AAPAEAAVPxDeserializationContext@3@@Z 1004cdb0 f   GuConvexMesh.obj
 0001:0004be30       ??0ConvexMesh@Gu@physx@@QAE@XZ 1004ce30 f   GuConvexMesh.obj
 0001:0004bed0       ?load@ConvexMesh@Gu@physx@@QAE_NAAVPxInputStream@3@@Z 1004ced0 f   GuConvexMesh.obj
 0001:0004c240       ?release@ConvexMesh@Gu@physx@@UAEXXZ 1004d240 f   GuConvexMesh.obj
 0001:0004c290       ?getPolygonData@ConvexMesh@Gu@physx@@UBE_NIAAUPxHullPolygon@3@@Z 1004d290 f   GuConvexMesh.obj
 0001:0004c330       ?getReferenceCount@ConvexMesh@Gu@physx@@UBEIXZ 1004d330 f   GuConvexMesh.obj
 0001:0004c350       ?getMassInformation@ConvexMesh@Gu@physx@@UBEXAAMAAVPxMat33@3@AAVPxVec3@3@@Z 1004d350 f   GuConvexMesh.obj
 0001:0004c390       ??1ConvexMesh@Gu@physx@@UAE@XZ 1004d390 f   GuConvexMesh.obj
 0001:0004c450       ?debugVisualize@ConvexMesh@Gu@physx@@QBEXAAVRenderOutput@Cm@3@ABVMatrix34@53@ABVPxBounds3@3@_KMI@Z 1004d450 f   GuConvexMesh.obj
 0001:0004ced0       ??$PX_UNUSED@G@@YAXABG@Z   1004ded0 f i GuConvexMesh.obj
 0001:0004cee0       ??$deletePxBase@VConvexMesh@Gu@physx@@@Cm@physx@@YAXPAVConvexMesh@Gu@1@@Z 1004dee0 f i GuConvexMesh.obj
 0001:0004cf70       ??$readExtraData@VBigConvexData@physx@@$0BA@@PxDeserializationContext@physx@@QAEPAVBigConvexData@1@I@Z 1004df70 f i GuConvexMesh.obj
 0001:0004cfa0       ??$readExtraData@VBigConvexData@physx@@@PxDeserializationContext@physx@@QAEPAVBigConvexData@1@I@Z 1004dfa0 f i GuConvexMesh.obj
 0001:0004cfe0       ??0?$Array@PAVGuMeshFactoryListener@physx@@VNamedAllocator@shdfnd@2@@shdfnd@physx@@QAE@ABVNamedAllocator@12@@Z 1004dfe0 f i GuConvexMesh.obj
 0001:0004d030       ??0?$CoalescedHashSet@PAVConvexMesh@Gu@physx@@U?$Hash@PAVConvexMesh@Gu@physx@@@shdfnd@3@VAllocator@53@@shdfnd@physx@@QAE@IM@Z 1004e030 f i GuConvexMesh.obj
 0001:0004d060       ??0?$CoalescedHashSet@PAVHeightField@Gu@physx@@U?$Hash@PAVHeightField@Gu@physx@@@shdfnd@3@VAllocator@53@@shdfnd@physx@@QAE@IM@Z 1004e060 f i GuConvexMesh.obj
 0001:0004d090       ??0?$CoalescedHashSet@PAVTriangleMesh@Gu@physx@@U?$Hash@PAVTriangleMesh@Gu@physx@@@shdfnd@3@VAllocator@53@@shdfnd@physx@@QAE@IM@Z 1004e090 f i GuConvexMesh.obj
 0001:0004d0c0       ??0?$HashBase@PAVConvexMesh@Gu@physx@@PAV123@U?$Hash@PAVConvexMesh@Gu@physx@@@shdfnd@3@UGetKey@?$HashSetBase@PAVConvexMesh@Gu@physx@@U?$Hash@PAVConvexMesh@Gu@physx@@@shdfnd@3@VAllocator@53@$00@internal@53@VAllocator@53@$00@internal@shdfnd@physx@@QAE@IM@Z 1004e0c0 f i GuConvexMesh.obj
 0001:0004d110       ??0?$HashBase@PAVHeightField@Gu@physx@@PAV123@U?$Hash@PAVHeightField@Gu@physx@@@shdfnd@3@UGetKey@?$HashSetBase@PAVHeightField@Gu@physx@@U?$Hash@PAVHeightField@Gu@physx@@@shdfnd@3@VAllocator@53@$00@internal@53@VAllocator@53@$00@internal@shdfnd@physx@@QAE@IM@Z 1004e110 f i GuConvexMesh.obj
 0001:0004d160       ??0?$HashBase@PAVTriangleMesh@Gu@physx@@PAV123@U?$Hash@PAVTriangleMesh@Gu@physx@@@shdfnd@3@UGetKey@?$HashSetBase@PAVTriangleMesh@Gu@physx@@U?$Hash@PAVTriangleMesh@Gu@physx@@@shdfnd@3@VAllocator@53@$00@internal@53@VAllocator@53@$00@internal@shdfnd@physx@@QAE@IM@Z 1004e160 f i GuConvexMesh.obj
 0001:0004d1b0       ??0?$HashSetBase@PAVConvexMesh@Gu@physx@@U?$Hash@PAVConvexMesh@Gu@physx@@@shdfnd@3@VAllocator@53@$00@internal@shdfnd@physx@@QAE@IM@Z 1004e1b0 f i GuConvexMesh.obj
 0001:0004d1e0       ??0?$HashSetBase@PAVHeightField@Gu@physx@@U?$Hash@PAVHeightField@Gu@physx@@@shdfnd@3@VAllocator@53@$00@internal@shdfnd@physx@@QAE@IM@Z 1004e1e0 f i GuConvexMesh.obj
 0001:0004d210       ??0?$HashSetBase@PAVTriangleMesh@Gu@physx@@U?$Hash@PAVTriangleMesh@Gu@physx@@@shdfnd@3@VAllocator@53@$00@internal@shdfnd@physx@@QAE@IM@Z 1004e210 f i GuConvexMesh.obj
 0001:0004d240       ??0?$PxBitAndDataT@I$0IAAAAAAA@@physx@@QAE@ABW4PxEMPTY@1@@Z 1004e240 f i GuConvexMesh.obj
 0001:0004d260       ??0?$PxBitAndDataT@I$0IAAAAAAA@@physx@@QAE@I_N@Z 1004e260 f i GuConvexMesh.obj
 0001:0004d2b0       ??0?$PxFlags@W4Enum@PxBaseFlag@physx@@G@physx@@QAE@W4Enum@PxBaseFlag@1@@Z 1004e2b0 f i GuConvexMesh.obj
 0001:0004d2d0       ??0?$PxFlags@W4Enum@PxBaseFlag@physx@@G@physx@@QAE@XZ 1004e2d0 f i GuConvexMesh.obj
 0001:0004d2f0       ??0?$ReflectionAllocator@VBigConvexData@physx@@@shdfnd@physx@@QAE@PBD@Z 1004e2f0 f i GuConvexMesh.obj
 0001:0004d310       ??0ConvexHullData@Gu@physx@@QAE@XZ 1004e310 f i GuConvexMesh.obj
 0001:0004d340       ??0ConvexMesh@Gu@physx@@QAE@V?$PxFlags@W4Enum@PxBaseFlag@physx@@G@2@@Z 1004e340 f i GuConvexMesh.obj
 0001:0004d3f0       ??0GuMeshFactory@physx@@QAE@XZ 1004e3f0 f i GuConvexMesh.obj
 0001:0004d4c0       ??0PxBase@physx@@IAE@GV?$PxFlags@W4Enum@PxBaseFlag@physx@@G@1@@Z 1004e4c0 f i GuConvexMesh.obj
 0001:0004d500       ??0PxBase@physx@@IAE@V?$PxFlags@W4Enum@PxBaseFlag@physx@@G@1@@Z 1004e500 f i GuConvexMesh.obj
 0001:0004d540       ??0PxConvexMesh@physx@@IAE@GV?$PxFlags@W4Enum@PxBaseFlag@physx@@G@1@@Z 1004e540 f i GuConvexMesh.obj
 0001:0004d580       ??0PxConvexMesh@physx@@IAE@V?$PxFlags@W4Enum@PxBaseFlag@physx@@G@1@@Z 1004e580 f i GuConvexMesh.obj
 0001:0004d5c0       ??0RefCountable@Cm@physx@@QAE@ABW4PxEMPTY@2@@Z 1004e5c0 f i GuConvexMesh.obj
 0001:0004d5f0       ??0RefCountable@Cm@physx@@QAE@I@Z 1004e5f0 f i GuConvexMesh.obj
 0001:0004d670       ??1PxConvexMesh@physx@@MAE@XZ 1004e670 f i GuConvexMesh.obj
 0001:0004d6a0       ??1RefCountable@Cm@physx@@UAE@XZ 1004e6a0 f i GuConvexMesh.obj
 0001:0004d6c0       ??B?$PxBitAndDataT@I$0IAAAAAAA@@physx@@QBEIXZ 1004e6c0 f i GuConvexMesh.obj
 0001:0004d6e0       ??R?$Hash@PAVConvexMesh@Gu@physx@@@shdfnd@physx@@QBEIABQAVConvexMesh@Gu@2@@Z 1004e6e0 f i GuConvexMesh.obj
 0001:0004d710       ??R?$Hash@PAVHeightField@Gu@physx@@@shdfnd@physx@@QBEIABQAVHeightField@Gu@2@@Z 1004e710 f i GuConvexMesh.obj
 0001:0004d740       ??R?$Hash@PAVTriangleMesh@Gu@physx@@@shdfnd@physx@@QBEIABQAVTriangleMesh@Gu@2@@Z 1004e740 f i GuConvexMesh.obj
 0001:0004d770       ??RGetKey@?$HashSetBase@PAVConvexMesh@Gu@physx@@U?$Hash@PAVConvexMesh@Gu@physx@@@shdfnd@3@VAllocator@53@$00@internal@shdfnd@physx@@QAEABQAVConvexMesh@Gu@4@ABQAV564@@Z 1004e770 f i GuConvexMesh.obj
 0001:0004d790       ??RGetKey@?$HashSetBase@PAVHeightField@Gu@physx@@U?$Hash@PAVHeightField@Gu@physx@@@shdfnd@3@VAllocator@53@$00@internal@shdfnd@physx@@QAEABQAVHeightField@Gu@4@ABQAV564@@Z 1004e790 f i GuConvexMesh.obj
 0001:0004d7b0       ??RGetKey@?$HashSetBase@PAVTriangleMesh@Gu@physx@@U?$Hash@PAVTriangleMesh@Gu@physx@@@shdfnd@3@VAllocator@53@$00@internal@shdfnd@physx@@QAEABQAVTriangleMesh@Gu@4@ABQAV564@@Z 1004e7b0 f i GuConvexMesh.obj
 0001:0004d7d0       ??S?$PxFlags@W4Enum@PxBaseFlag@physx@@G@physx@@QBE?AV01@XZ 1004e7d0 f i GuConvexMesh.obj
 0001:0004d810       ??Sphysx@@YA?AV?$PxFlags@W4Enum@PxBaseFlag@physx@@G@0@W4Enum@PxBaseFlag@0@@Z 1004e810 f i GuConvexMesh.obj
 0001:0004d840       ??Uphysx@@YA?AV?$PxFlags@W4Enum@PxBaseFlag@physx@@G@0@W4Enum@PxBaseFlag@0@0@Z 1004e840 f i GuConvexMesh.obj
 0001:0004d880       ??_4?$PxFlags@W4Enum@PxBaseFlag@physx@@G@physx@@QAEAAV01@ABV01@@Z 1004e880 f i GuConvexMesh.obj
 0001:0004d8b0       ??_5?$PxFlags@W4Enum@PxBaseFlag@physx@@G@physx@@QAEAAV01@W4Enum@PxBaseFlag@1@@Z 1004e8b0 f i GuConvexMesh.obj
 0001:0004d8e0       ??_EConvexMesh@Gu@physx@@UAEPAXI@Z 1004e8e0 f i GuConvexMesh.obj
 0001:0004d9bf       ??_EConvexMesh@Gu@physx@@W7AEPAXI@Z 1004e9bf f i GuConvexMesh.obj
 0001:0004d9d0       ??_EGuMeshFactory@physx@@MAEPAXI@Z 1004e9d0 f i GuConvexMesh.obj
 0001:0004dab0       ??_EPxConvexMesh@physx@@MAEPAXI@Z 1004eab0 f i GuConvexMesh.obj
 0001:0004db50       ??_GBigConvexData@physx@@QAEPAXI@Z 1004eb50 f i GuConvexMesh.obj
 0001:0004dbb0       ??_GGuMeshFactory@physx@@MAEPAXI@Z 1004ebb0 f i GuConvexMesh.obj
 0001:0004dc10       ??_ERefCountable@Cm@physx@@UAEPAXI@Z 1004ec10 f i GuConvexMesh.obj
 0001:0004dc10       ??_GRefCountable@Cm@physx@@UAEPAXI@Z 1004ec10 f i GuConvexMesh.obj
 0001:0004dc50       ?ReadDwordBuffer@physx@@YA_NPAII_NAAVPxInputStream@1@@Z 1004ec50 f i GuConvexMesh.obj
 0001:0004dc80       ?allocate@?$ReflectionAllocator@VBigConvexData@physx@@@shdfnd@physx@@QAEPAXIPBDH@Z 1004ec80 f i GuConvexMesh.obj
 0001:0004dce0       ?computeBufferSize@Gu@physx@@YAIABUConvexHullData@12@I@Z 1004ece0 f i GuConvexMesh.obj
 0001:0004dd80       ?contains@PxBounds3@physx@@QBE_NABVPxVec3@2@@Z 1004ed80 f i GuConvexMesh.obj
 0001:0004de80       ?decRefCount@RefCountable@Cm@physx@@QAEXXZ 1004ee80 f i GuConvexMesh.obj
 0001:0004df00       ?flip@physx@@YAXAAG@Z      1004ef00 f i GuConvexMesh.obj
 0001:0004df70       ?flip@physx@@YAXAAM@Z      1004ef70 f i GuConvexMesh.obj
 0001:0004e020       ?flipData@Gu@physx@@YAXAAUHullPolygonData@12@@Z 1004f020 f i GuConvexMesh.obj
 0001:0004e080       ?freeListAdd@?$HashBase@PAVConvexMesh@Gu@physx@@PAV123@U?$Hash@PAVConvexMesh@Gu@physx@@@shdfnd@3@UGetKey@?$HashSetBase@PAVConvexMesh@Gu@physx@@U?$Hash@PAVConvexMesh@Gu@physx@@@shdfnd@3@VAllocator@53@$00@internal@53@VAllocator@53@$00@internal@shdfnd@physx@@AAEXII@Z 1004f080 f i GuConvexMesh.obj
 0001:0004e170       ?freeListAdd@?$HashBase@PAVHeightField@Gu@physx@@PAV123@U?$Hash@PAVHeightField@Gu@physx@@@shdfnd@3@UGetKey@?$HashSetBase@PAVHeightField@Gu@physx@@U?$Hash@PAVHeightField@Gu@physx@@@shdfnd@3@VAllocator@53@$00@internal@53@VAllocator@53@$00@internal@shdfnd@physx@@AAEXII@Z 1004f170 f i GuConvexMesh.obj
 0001:0004e260       ?freeListAdd@?$HashBase@PAVTriangleMesh@Gu@physx@@PAV123@U?$Hash@PAVTriangleMesh@Gu@physx@@@shdfnd@3@UGetKey@?$HashSetBase@PAVTriangleMesh@Gu@physx@@U?$Hash@PAVTriangleMesh@Gu@physx@@@shdfnd@3@VAllocator@53@$00@internal@53@VAllocator@53@$00@internal@shdfnd@physx@@AAEXII@Z 1004f260 f i GuConvexMesh.obj
 0001:0004e350       ?getBaseFlags@PxBase@physx@@QBE?AV?$PxFlags@W4Enum@PxBaseFlag@physx@@G@2@XZ 1004f350 f i GuConvexMesh.obj
 0001:0004e380       ?getBufferSize@ConvexMesh@Gu@physx@@QBEIXZ 1004f380 f i GuConvexMesh.obj
 0001:0004e3b0       ?getConcreteTypeName@PxConvexMesh@physx@@UBEPBDXZ 1004f3b0 f i GuConvexMesh.obj
 0001:0004e3d0       ?getHull@ConvexMesh@Gu@physx@@QBEABUConvexHullData@23@XZ 1004f3d0 f i GuConvexMesh.obj
 0001:0004e3f0       ?getHullVertices@ConvexHullData@Gu@physx@@QBEPBVPxVec3@3@XZ 1004f3f0 f i GuConvexMesh.obj
 0001:0004e430       ?getIndexBuffer@ConvexMesh@Gu@physx@@UBEPBEXZ 1004f430 f i GuConvexMesh.obj
 0001:0004e450       ?getInertia@ConvexMesh@Gu@physx@@QBEABVPxMat33@3@XZ 1004f450 f i GuConvexMesh.obj
 0001:0004e470       ?getLocalBounds@ConvexMesh@Gu@physx@@UBE?AVPxBounds3@3@XZ 1004f470 f i GuConvexMesh.obj
 0001:0004e4f0       ?getMass@ConvexMesh@Gu@physx@@QBEMXZ 1004f4f0 f i GuConvexMesh.obj
 0001:0004e510       ?getName@?$ReflectionAllocator@VBigConvexData@physx@@@shdfnd@physx@@CAPBDXZ 1004f510 f i GuConvexMesh.obj
 0001:0004e560       ?getNb@ConvexMesh@Gu@physx@@ABEIXZ 1004f560 f i GuConvexMesh.obj
 0001:0004e580       ?getNbPolygons@ConvexMesh@Gu@physx@@UBEIXZ 1004f580 f i GuConvexMesh.obj
 0001:0004e5a0       ?getNbPolygonsFast@ConvexMesh@Gu@physx@@QBEIXZ 1004f5a0 f i GuConvexMesh.obj
 0001:0004e5c0       ?getNbVertices@ConvexMesh@Gu@physx@@UBEIXZ 1004f5c0 f i GuConvexMesh.obj
 0001:0004e5e0       ?getRefCount@RefCountable@Cm@physx@@QBEIXZ 1004f5e0 f i GuConvexMesh.obj
 0001:0004e600       ?getVertexData8@ConvexHullData@Gu@physx@@QBEPBEXZ 1004f600 f i GuConvexMesh.obj
 0001:0004e670       ?getVertices@ConvexMesh@Gu@physx@@UBEPBVPxVec3@3@XZ 1004f670 f i GuConvexMesh.obj
 0001:0004e690       ?hash@?$HashBase@PAVConvexMesh@Gu@physx@@PAV123@U?$Hash@PAVConvexMesh@Gu@physx@@@shdfnd@3@UGetKey@?$HashSetBase@PAVConvexMesh@Gu@physx@@U?$Hash@PAVConvexMesh@Gu@physx@@@shdfnd@3@VAllocator@53@$00@internal@53@VAllocator@53@$00@internal@shdfnd@physx@@ABEIABQAVConvexMesh@Gu@4@I@Z 1004f690 f i GuConvexMesh.obj
 0001:0004e6c0       ?hash@?$HashBase@PAVHeightField@Gu@physx@@PAV123@U?$Hash@PAVHeightField@Gu@physx@@@shdfnd@3@UGetKey@?$HashSetBase@PAVHeightField@Gu@physx@@U?$Hash@PAVHeightField@Gu@physx@@@shdfnd@3@VAllocator@53@$00@internal@53@VAllocator@53@$00@internal@shdfnd@physx@@ABEIABQAVHeightField@Gu@4@I@Z 1004f6c0 f i GuConvexMesh.obj
 0001:0004e6f0       ?hash@?$HashBase@PAVTriangleMesh@Gu@physx@@PAV123@U?$Hash@PAVTriangleMesh@Gu@physx@@@shdfnd@3@UGetKey@?$HashSetBase@PAVTriangleMesh@Gu@physx@@U?$Hash@PAVTriangleMesh@Gu@physx@@@shdfnd@3@VAllocator@53@$00@internal@53@VAllocator@53@$00@internal@shdfnd@physx@@ABEIABQAVTriangleMesh@Gu@4@I@Z 1004f6f0 f i GuConvexMesh.obj
 0001:0004e720       ?init@?$HashBase@PAVConvexMesh@Gu@physx@@PAV123@U?$Hash@PAVConvexMesh@Gu@physx@@@shdfnd@3@UGetKey@?$HashSetBase@PAVConvexMesh@Gu@physx@@U?$Hash@PAVConvexMesh@Gu@physx@@@shdfnd@3@VAllocator@53@$00@internal@53@VAllocator@53@$00@internal@shdfnd@physx@@AAEXIM@Z 1004f720 f i GuConvexMesh.obj
 0001:0004e7d0       ?init@?$HashBase@PAVHeightField@Gu@physx@@PAV123@U?$Hash@PAVHeightField@Gu@physx@@@shdfnd@3@UGetKey@?$HashSetBase@PAVHeightField@Gu@physx@@U?$Hash@PAVHeightField@Gu@physx@@@shdfnd@3@VAllocator@53@$00@internal@53@VAllocator@53@$00@internal@shdfnd@physx@@AAEXIM@Z 1004f7d0 f i GuConvexMesh.obj
 0001:0004e880       ?init@?$HashBase@PAVTriangleMesh@Gu@physx@@PAV123@U?$Hash@PAVTriangleMesh@Gu@physx@@@shdfnd@3@UGetKey@?$HashSetBase@PAVTriangleMesh@Gu@physx@@U?$Hash@PAVTriangleMesh@Gu@physx@@@shdfnd@3@VAllocator@53@$00@internal@53@VAllocator@53@$00@internal@shdfnd@physx@@AAEXIM@Z 1004f880 f i GuConvexMesh.obj
 0001:0004e930       ?isKindOf@PxConvexMesh@physx@@MBE_NPBD@Z 1004f930 f i GuConvexMesh.obj
 0001:0004e990       ?markSerializedMem@Cm@physx@@YAXPAXI@Z 1004f990 f i GuConvexMesh.obj
 0001:0004e9d0       ?onRefCountZero@RefCountable@Cm@physx@@UAEXXZ 1004f9d0 f i GuConvexMesh.obj
 0001:0004ea20       ?requires@ConvexMesh@Gu@physx@@UAEXAAVPxProcessPxBaseCallback@3@@Z 1004fa20 f i GuConvexMesh.obj
 0001:0004ea30       ?reserveInternal@?$HashBase@PAVConvexMesh@Gu@physx@@PAV123@U?$Hash@PAVConvexMesh@Gu@physx@@@shdfnd@3@UGetKey@?$HashSetBase@PAVConvexMesh@Gu@physx@@U?$Hash@PAVConvexMesh@Gu@physx@@@shdfnd@3@VAllocator@53@$00@internal@53@VAllocator@53@$00@internal@shdfnd@physx@@AAEXI@Z 1004fa30 f i GuConvexMesh.obj
 0001:0004eee0       ?reserveInternal@?$HashBase@PAVHeightField@Gu@physx@@PAV123@U?$Hash@PAVHeightField@Gu@physx@@@shdfnd@3@UGetKey@?$HashSetBase@PAVHeightField@Gu@physx@@U?$Hash@PAVHeightField@Gu@physx@@@shdfnd@3@VAllocator@53@$00@internal@53@VAllocator@53@$00@internal@shdfnd@physx@@AAEXI@Z 1004fee0 f i GuConvexMesh.obj
 0001:0004f390       ?reserveInternal@?$HashBase@PAVTriangleMesh@Gu@physx@@PAV123@U?$Hash@PAVTriangleMesh@Gu@physx@@@shdfnd@3@UGetKey@?$HashSetBase@PAVTriangleMesh@Gu@physx@@U?$Hash@PAVTriangleMesh@Gu@physx@@@shdfnd@3@VAllocator@53@$00@internal@53@VAllocator@53@$00@internal@shdfnd@physx@@AAEXI@Z 10050390 f i GuConvexMesh.obj
 0001:0004f840       ?resolveReferences@ConvexMesh@Gu@physx@@QAEXAAVPxDeserializationContext@3@@Z 10050840 f i GuConvexMesh.obj
 0001:0004f850       ?setBit@?$PxBitAndDataT@I$0IAAAAAAA@@physx@@QAEXXZ 10050850 f i GuConvexMesh.obj
 0001:0004f880       ?setEmpty@PxBounds3@physx@@QAEXXZ 10050880 f i GuConvexMesh.obj
 0001:0004f8f0       ?BFFFF@aos@shdfnd@physx@@YA?AT__m128@@XZ 100508f0 f i GuConvexSupportTable.obj
 0001:0004f930       ?BFFTF@aos@shdfnd@physx@@YA?AT__m128@@XZ 10050930 f i GuConvexSupportTable.obj
 0001:0004f980       ?BFTFF@aos@shdfnd@physx@@YA?AT__m128@@XZ 10050980 f i GuConvexSupportTable.obj
 0001:0004f9d0       ?BFTTF@aos@shdfnd@physx@@YA?AT__m128@@XZ 100509d0 f i GuConvexSupportTable.obj
 0001:0004fa20       ?BTFFF@aos@shdfnd@physx@@YA?AT__m128@@XZ 10050a20 f i GuConvexSupportTable.obj
 0001:0004fa70       ?BTFTF@aos@shdfnd@physx@@YA?AT__m128@@XZ 10050a70 f i GuConvexSupportTable.obj
 0001:0004fac0       ?BTTFF@aos@shdfnd@physx@@YA?AT__m128@@XZ 10050ac0 f i GuConvexSupportTable.obj
 0001:0004fb10       ?BTTTF@aos@shdfnd@physx@@YA?AT__m128@@XZ 10050b10 f i GuConvexSupportTable.obj
 0001:0004fb60       ?m128_I2F@internalWindowsSimd@aos@shdfnd@physx@@YA?AT__m128@@T__m128i@@@Z 10050b60 f i GuConvexSupportTable.obj
 0001:0004fba0       ?computeHullOBB@Gu@physx@@YAXAAVBox@12@ABVPxBounds3@2@MABVPxTransform@2@ABVMatrix34@Cm@2@3ABVFastVertex2ShapeScaling@72@_N@Z 10050ba0 f   GuConvexUtilsInternal.obj
 0001:0004fcf0       ?computeVertexSpaceOBB@Gu@physx@@YAXAAVBox@12@ABV312@ABVPxTransform@2@ABVPxMeshScale@2@@Z 10050cf0 f   GuConvexUtilsInternal.obj
 0001:0004fda0       ?computeOBBAroundConvex@Gu@physx@@YAXAAVBox@12@ABVPxConvexMeshGeometry@2@PBVPxConvexMesh@2@ABVPxTransform@2@@Z 10050da0 f   GuConvexUtilsInternal.obj
 0001:0004ffc0       ??0Matrix34@Cm@physx@@QAE@ABVPxMat33@2@ABVPxVec3@2@@Z 10050fc0 f i GuConvexUtilsInternal.obj
 0001:00050030       ??0Matrix34@Cm@physx@@QAE@XZ 10051030 f i GuConvexUtilsInternal.obj
 0001:00050080       ??4Matrix34@Cm@physx@@QAEABV012@ABV012@@Z 10051080 f i GuConvexUtilsInternal.obj
 0001:000500f0       ?getInverse@physx@@YAXAAVPxMat33@1@AAVPxVec3@1@ABV21@ABV31@@Z 100510f0 f i GuConvexUtilsInternal.obj
 0001:00050150       ?getLocalBoundsFast@ConvexMesh@Gu@physx@@QBEABVPxBounds3@3@XZ 10051150 f i GuConvexUtilsInternal.obj
 0001:00050170       ?rotate@physx@@YAXABVBox@Gu@1@ABVMatrix34@Cm@1@AAV231@@Z 10051170 f i GuConvexUtilsInternal.obj
 0001:00050200       ?toMat33@PxMeshScale@physx@@QBE?AVPxMat33@2@XZ 10051200 f i GuConvexUtilsInternal.obj
 0001:000502c0       ?transform@physx@@YA?AVBox@Gu@1@ABVMatrix34@Cm@1@ABV231@@Z 100512c0 f i GuConvexUtilsInternal.obj
 0001:00050410       ?transformTranspose@Matrix34@Cm@physx@@QBE?AVPxVec3@3@ABV43@@Z 10051410 f i GuConvexUtilsInternal.obj
 0001:00050450       ?CubemapLookup@physx@@YA?AW4CubeIndex@1@ABVPxVec3@1@AAM1@Z 10051450 f   GuCubeIndex.obj
 0001:00050610       ?localSearch@physx@@YAXAAIABVPxVec3@1@PBV21@PBUBigConvexRawData@Gu@1@@Z 10051610 f   GuHillClimbing.obj
 0001:00050960       ??0PolygonalBox@Gu@physx@@QAE@ABVPxVec3@2@@Z 10051960 f   GuShapeConvex.obj
 0001:00051150       ?getPolygonalData@PolygonalBox@Gu@physx@@QBEXPIAUPolygonalData@23@@Z 10052150 f   GuShapeConvex.obj
 0001:00051250       ?getPolygonalData_Convex@Gu@physx@@YAXPIAUPolygonalData@12@PIBUConvexHullData@12@ABVFastVertex2ShapeScaling@Cm@2@@Z 10052250 f   GuShapeConvex.obj
 0001:00052130       ??$PX_UNUSED@PIBVPxVec3@physx@@@@YAXABQIBVPxVec3@physx@@@Z 10053130 f i GuShapeConvex.obj
 0001:00052140       ??$PX_UNUSED@VFastVertex2ShapeScaling@Cm@physx@@@@YAXABVFastVertex2ShapeScaling@Cm@physx@@@Z 10053140 f i GuShapeConvex.obj
 0001:00052150       ??0HullPolygonData@Gu@physx@@QAE@XZ 10053150 f i GuShapeConvex.obj
 0001:00052170       ?getFacesByEdges8@ConvexHullData@Gu@physx@@QBEPBEXZ 10053170 f i GuShapeConvex.obj
 0001:000521c0       ?getSamples2@BigConvexRawData@Gu@physx@@QBEPBEXZ 100531c0 f i GuShapeConvex.obj
 0001:000521e0       ?pointsOnDir@Projection@Gu@physx@@SAXABVPxVec3@3@PBV43@IAAM2@Z 100531e0 f i GuShapeConvex.obj
 0001:000522c0       ?selectClosestPolygon@@YAIAAMIPBUHullPolygonData@Gu@physx@@ABVPxVec3@3@@Z 100532c0 f i GuShapeConvex.obj
 0001:00052370       ?distancePointBoxSquared@Gu@physx@@YAMABVPxVec3@2@00ABVPxMat33@2@PAV32@@Z 10053370 f   GuDistancePointBox.obj
 0001:000525e0       ?distancePointSegmentSquared@Gu@physx@@YAMABVPxVec3@2@00PAM@Z 100535e0 f   GuDistancePointSegment.obj
 0001:00052740       ?closestPtPointTriangle@Gu@physx@@YA?AVPxVec3@2@ABV32@000AAM1@Z 10053740 f   GuDistancePointTriangle.obj
 0001:00052b90       ?distancePointTriangleSquared@Gu@physx@@YA?AT__m128@@ABT3@000AAT3@11@Z 10053b90 f   GuDistancePointTriangle.obj
 0001:00053d00       ?BAllEq@aos@shdfnd@physx@@YAIT__m128@@0@Z 10054d00 f i GuDistancePointTriangle.obj
 0001:00053d90       ?BAllTrue4_R@internalWindowsSimd@aos@shdfnd@physx@@YAIT__m128@@@Z 10054d90 f i GuDistancePointTriangle.obj
 0001:00053df0       ?BAnd@aos@shdfnd@physx@@YA?AT__m128@@T4@0@Z 10054df0 f i GuDistancePointTriangle.obj
 0001:00053e40       ?BTTTT@aos@shdfnd@physx@@YA?AT__m128@@XZ 10054e40 f i GuDistancePointTriangle.obj
 0001:00053e90       ?FIsGrtr@aos@shdfnd@physx@@YA?AT__m128@@T4@0@Z 10054e90 f i GuDistancePointTriangle.obj
 0001:00053ee0       ?FIsGrtrOrEq@aos@shdfnd@physx@@YA?AT__m128@@T4@0@Z 10054ee0 f i GuDistancePointTriangle.obj
 0001:00053f30       ?V3Add@aos@shdfnd@physx@@YA?AT__m128@@T4@0@Z 10054f30 f i GuDistancePointTriangle.obj
 0001:00053f80       ?V3Scale@aos@shdfnd@physx@@YA?AT__m128@@T4@0@Z 10054f80 f i GuDistancePointTriangle.obj
 0001:00053fd0       ?m128_F2I@internalWindowsSimd@aos@shdfnd@physx@@YA?AT__m128i@@T__m128@@@Z 10054fd0 f i GuDistancePointTriangle.obj
 0001:00054010       ?distanceSegmentBoxSquared@Gu@physx@@YAMABVPxVec3@2@000ABVPxMat33@2@PAMPAV32@@Z 10055010 f   GuDistanceSegmentBox.obj
 0001:00057430       ?distanceSegmentSegmentSquaredOLD@Gu@physx@@YAMABVPxVec3@2@000PAM1@Z 10058430 f   GuDistanceSegmentSegment.obj
 0001:000574a0       ?distanceSegmentSegmentSquared2@Gu@physx@@YAMABVSegment@12@0PAM1@Z 100584a0 f   GuDistanceSegmentSegment.obj
 0001:000576b0       ?distanceSegmentSegmentSquared@Gu@physx@@YA?AT__m128@@ABT3@000AAT3@1@Z 100586b0 f   GuDistanceSegmentSegment.obj
 0001:00057bd0       ?distanceSegmentSegmentSquared4@Gu@physx@@YA?AT__m128@@ABT3@000000000AAT3@1@Z 10058bd0 f   GuDistanceSegmentSegment.obj
 0001:000587f0       ?distanceSegmentSegmentSquared4@Gu@physx@@YA?AT__m128@@ABT3@000000AAT3@1PAT3@@Z 100597f0 f   GuDistanceSegmentSegment.obj
 0001:0005b4e0       ?FClamp@aos@shdfnd@physx@@YA?AT__m128@@T4@00@Z 1005c4e0 f i GuDistanceSegmentSegment.obj
 0001:0005b550       ?FEps@aos@shdfnd@physx@@YA?AT__m128@@XZ 1005c550 f i GuDistanceSegmentSegment.obj
 0001:0005b5a0       ?FHalf@aos@shdfnd@physx@@YA?AT__m128@@XZ 1005c5a0 f i GuDistanceSegmentSegment.obj
 0001:0005b5f0       ?FMax@aos@shdfnd@physx@@YA?AT__m128@@T4@0@Z 1005c5f0 f i GuDistanceSegmentSegment.obj
 0001:0005b640       ?FMin@aos@shdfnd@physx@@YA?AT__m128@@T4@0@Z 1005c640 f i GuDistanceSegmentSegment.obj
 0001:0005b690       ?FScaleAdd@aos@shdfnd@physx@@YA?AT__m128@@T4@00@Z 1005c690 f i GuDistanceSegmentSegment.obj
 0001:0005b700       ?V3Dot4@aos@shdfnd@physx@@YA?AT__m128@@ABT4@0000000@Z 1005c700 f i GuDistanceSegmentSegment.obj
 0001:0005b9a0       ?V3GetX@aos@shdfnd@physx@@YA?AT__m128@@T4@@Z 1005c9a0 f i GuDistanceSegmentSegment.obj
 0001:0005b9f0       ?V3GetY@aos@shdfnd@physx@@YA?AT__m128@@T4@@Z 1005c9f0 f i GuDistanceSegmentSegment.obj
 0001:0005ba40       ?V3GetZ@aos@shdfnd@physx@@YA?AT__m128@@T4@@Z 1005ca40 f i GuDistanceSegmentSegment.obj
 0001:0005ba90       ?V3Mul@aos@shdfnd@physx@@YA?AT__m128@@T4@0@Z 1005ca90 f i GuDistanceSegmentSegment.obj
 0001:0005bae0       ?V3ScaleAdd@aos@shdfnd@physx@@YA?AT__m128@@T4@00@Z 1005cae0 f i GuDistanceSegmentSegment.obj
 0001:0005bb50       ?V4Abs@aos@shdfnd@physx@@YA?AT__m128@@T4@@Z 1005cb50 f i GuDistanceSegmentSegment.obj
 0001:0005bbb0       ?V4Add@aos@shdfnd@physx@@YA?AT__m128@@T4@0@Z 1005cbb0 f i GuDistanceSegmentSegment.obj
 0001:0005bc00       ?V4Clamp@aos@shdfnd@physx@@YA?AT__m128@@T4@00@Z 1005cc00 f i GuDistanceSegmentSegment.obj
 0001:0005bc70       ?V4ClearW@aos@shdfnd@physx@@YA?AT__m128@@T4@@Z 1005cc70 f i GuDistanceSegmentSegment.obj
 0001:0005bcc0       ?V4Div@aos@shdfnd@physx@@YA?AT__m128@@T4@0@Z 1005ccc0 f i GuDistanceSegmentSegment.obj
 0001:0005bd10       ?V4Eps@aos@shdfnd@physx@@YA?AT__m128@@XZ 1005cd10 f i GuDistanceSegmentSegment.obj
 0001:0005bd60       ?V4GetW@aos@shdfnd@physx@@YA?AT__m128@@T4@@Z 1005cd60 f i GuDistanceSegmentSegment.obj
 0001:0005bdb0       ?V4GetX@aos@shdfnd@physx@@YA?AT__m128@@T4@@Z 1005cdb0 f i GuDistanceSegmentSegment.obj
 0001:0005be00       ?V4GetY@aos@shdfnd@physx@@YA?AT__m128@@T4@@Z 1005ce00 f i GuDistanceSegmentSegment.obj
 0001:0005be50       ?V4GetZ@aos@shdfnd@physx@@YA?AT__m128@@T4@@Z 1005ce50 f i GuDistanceSegmentSegment.obj
 0001:0005bea0       ?V4IsGrtr@aos@shdfnd@physx@@YA?AT__m128@@T4@0@Z 1005cea0 f i GuDistanceSegmentSegment.obj
 0001:0005bef0       ?V4IsGrtrOrEq@aos@shdfnd@physx@@YA?AT__m128@@T4@0@Z 1005cef0 f i GuDistanceSegmentSegment.obj
 0001:0005bf40       ?V4Max@aos@shdfnd@physx@@YA?AT__m128@@T4@0@Z 1005cf40 f i GuDistanceSegmentSegment.obj
 0001:0005bf90       ?V4Min@aos@shdfnd@physx@@YA?AT__m128@@T4@0@Z 1005cf90 f i GuDistanceSegmentSegment.obj
 0001:0005bfe0       ?V4Mul@aos@shdfnd@physx@@YA?AT__m128@@T4@0@Z 1005cfe0 f i GuDistanceSegmentSegment.obj
 0001:0005c030       ?V4MulAdd@aos@shdfnd@physx@@YA?AT__m128@@T4@00@Z 1005d030 f i GuDistanceSegmentSegment.obj
 0001:0005c0a0       ?V4Neg@aos@shdfnd@physx@@YA?AT__m128@@T4@@Z 1005d0a0 f i GuDistanceSegmentSegment.obj
 0001:0005c0f0       ?V4One@aos@shdfnd@physx@@YA?AT__m128@@XZ 1005d0f0 f i GuDistanceSegmentSegment.obj
 0001:0005c140       ?V4Recip@aos@shdfnd@physx@@YA?AT__m128@@T4@@Z 1005d140 f i GuDistanceSegmentSegment.obj
 0001:0005c190       ?V4Sel@aos@shdfnd@physx@@YA?AT__m128@@T4@00@Z 1005d190 f i GuDistanceSegmentSegment.obj
 0001:0005c200       ?V4Splat@aos@shdfnd@physx@@YA?AT__m128@@T4@@Z 1005d200 f i GuDistanceSegmentSegment.obj
 0001:0005c240       ?V4Sub@aos@shdfnd@physx@@YA?AT__m128@@T4@0@Z 1005d240 f i GuDistanceSegmentSegment.obj
 0001:0005c290       ?V4UnpackXY@aos@shdfnd@physx@@YA?AT__m128@@ABT4@0@Z 1005d290 f i GuDistanceSegmentSegment.obj
 0001:0005c2e0       ?V4UnpackZW@aos@shdfnd@physx@@YA?AT__m128@@ABT4@0@Z 1005d2e0 f i GuDistanceSegmentSegment.obj
 0001:0005c330       ?V4Zero@aos@shdfnd@physx@@YA?AT__m128@@XZ 1005d330 f i GuDistanceSegmentSegment.obj
 0001:0005c370       ?Vec3V_From_Vec4V@aos@shdfnd@physx@@YA?AT__m128@@T4@@Z 1005d370 f i GuDistanceSegmentSegment.obj
 0001:0005c3c0       ?Vec4V_From_Vec3V@aos@shdfnd@physx@@YA?AT__m128@@T4@@Z 1005d3c0 f i GuDistanceSegmentSegment.obj
 0001:0005c400       ?distanceSegmentTriangleSquared@Gu@physx@@YAMABVPxVec3@2@0000PAM11@Z 1005d400 f   GuDistanceSegmentTriangle.obj
 0001:0005dbc0       ?distanceSegmentTriangleSquared@Gu@physx@@YA?AT__m128@@ABT3@0000AAT3@1@Z 1005ebc0 f   GuDistanceSegmentTriangle.obj
 0001:0005f620       ?FNeg@aos@shdfnd@physx@@YA?AT__m128@@T4@@Z 10060620 f i GuDistanceSegmentTriangle.obj
 0001:0005f670       ?V3NegScaleSub@aos@shdfnd@physx@@YA?AT__m128@@T4@00@Z 10060670 f i GuDistanceSegmentTriangle.obj
 0001:0005f6e0       ?V3Normalize@aos@shdfnd@physx@@YA?AT__m128@@T4@@Z 100606e0 f i GuDistanceSegmentTriangle.obj
 0001:0005f750       ?V3ScaleInv@aos@shdfnd@physx@@YA?AT__m128@@T4@0@Z 10060750 f i GuDistanceSegmentTriangle.obj
 0001:0005f7a0       ?V3Sel@aos@shdfnd@physx@@YA?AT__m128@@T4@00@Z 100607a0 f i GuDistanceSegmentTriangle.obj
 0001:0005f810       ?distancePointTriangleSquared@Gu@physx@@YAMABVPxVec3@2@000PAM1@Z 10060810 f i GuDistanceSegmentTriangle.obj
 0001:0005f8c0       ?isValidTriangleBarycentricCoord@Gu@physx@@YA?AT__m128@@ABT3@0@Z 100608c0 f i GuDistanceSegmentTriangle.obj
 0001:0005fab0       ?sweepBoxBox@Gu@physx@@YA_NABVBox@12@0ABVPxVec3@2@MAAV42@2AAMV?$PxFlags@W4Enum@PxHitFlag@physx@@G@2@@Z 10060ab0 f   GuSweepBoxBox.obj
 0001:00060450       ??0?$PxFlags@W4Enum@PxHitFlag@physx@@G@physx@@QAE@ABV01@@Z 10061450 f i GuSweepBoxBox.obj
 0001:00060480       ??0?$PxFlags@W4Enum@PxTriangleMeshFlag@physx@@E@physx@@QAE@E@Z 10061480 f i GuSweepBoxBox.obj
 0001:000604a0       ??0InternalTriangleMesh@physx@@QAE@ABV01@@Z 100614a0 f i GuSweepBoxBox.obj
 0001:00060590       ??0InternalTriangleMesh@physx@@QAE@ABW4PxEMPTY@1@@Z 10061590 f i GuSweepBoxBox.obj
 0001:000605e0       ??0InternalTriangleMeshData@Gu@physx@@QAE@ABU012@@Z 100615e0 f i GuSweepBoxBox.obj
 0001:00060690       ??0InternalTriangleMeshData@Gu@physx@@QAE@ABW4PxEMPTY@2@@Z 10061690 f i GuSweepBoxBox.obj
 0001:000606e0       ??0PxTriangleMesh@physx@@IAE@V?$PxFlags@W4Enum@PxBaseFlag@physx@@G@1@@Z 100616e0 f i GuSweepBoxBox.obj
 0001:00060720       ??0TriangleMesh@Gu@physx@@QAE@V?$PxFlags@W4Enum@PxBaseFlag@physx@@G@2@@Z 10061720 f i GuSweepBoxBox.obj
 0001:000607a0       ??4InternalTriangleMesh@physx@@QAEAAV01@ABV01@@Z 100617a0 f i GuSweepBoxBox.obj
 0001:00060890       ??4InternalTriangleMeshData@Gu@physx@@QAEAAU012@ABU012@@Z 10061890 f i GuSweepBoxBox.obj
 0001:00060940       ??B?$PxFlags@W4Enum@PxHitFlag@physx@@G@physx@@QBE_NXZ 10061940 f i GuSweepBoxBox.obj
 0001:00060970       ??I?$PxFlags@W4Enum@PxHitFlag@physx@@G@physx@@QBE?AV01@W4Enum@PxHitFlag@1@@Z 10061970 f i GuSweepBoxBox.obj
 0001:000609c0       ??_ETriangleMesh@Gu@physx@@UAEPAXI@Z 100619c0 f i GuSweepBoxBox.obj
 0001:00060a9f       ??_ETriangleMesh@Gu@physx@@W7AEPAXI@Z 10061a9f f i GuSweepBoxBox.obj
 0001:00060ab0       ?buildMatrixFromBox@physx@@YAXAAVMatrix34@Cm@1@ABVBox@Gu@1@@Z 10061ab0 f i GuSweepBoxBox.obj
 0001:00060b10       ?computeWorldToBoxMatrix@physx@@YAXAAVMatrix34@Cm@1@ABVBox@Gu@1@@Z 10061b10 f i GuSweepBoxBox.obj
 0001:00060b60       ?getAdjacencies@InternalTriangleMesh@physx@@QBEPBIXZ 10061b60 f i GuSweepBoxBox.obj
 0001:00060b80       ?getCollisionModel@InternalTriangleMesh@physx@@QBEABVRTreeMidphase@Gu@2@XZ 10061b80 f i GuSweepBoxBox.obj
 0001:00060ba0       ?getConvexEdgeThreshold@InternalTriangleMesh@physx@@QBEMXZ 10061ba0 f i GuSweepBoxBox.obj
 0001:00060bc0       ?getFaceRemap@InternalTriangleMesh@physx@@QBEPBIXZ 10061bc0 f i GuSweepBoxBox.obj
 0001:00060be0       ?getInverseRT@Matrix34@Cm@physx@@QBE?AV123@XZ 10061be0 f i GuSweepBoxBox.obj
 0001:00060c60       ?getLocalBounds@TriangleMesh@Gu@physx@@UBE?AVPxBounds3@3@XZ 10061c60 f i GuSweepBoxBox.obj
 0001:00060cf0       ?getMaterials@InternalTriangleMesh@physx@@QBEPBGXZ 10061cf0 f i GuSweepBoxBox.obj
 0001:00060d10       ?getMeshInterface@InternalTriangleMesh@physx@@QBEABVMeshInterface@Gu@2@XZ 10061d10 f i GuSweepBoxBox.obj
 0001:00060d30       ?getNbTriangles@TriangleMesh@Gu@physx@@UBEIXZ 10061d30 f i GuSweepBoxBox.obj
 0001:00060d50       ?getNbVertices@TriangleMesh@Gu@physx@@UBEIXZ 10061d50 f i GuSweepBoxBox.obj
 0001:00060d70       ?getNumTriangles@InternalTriangleMesh@physx@@QBEIXZ 10061d70 f i GuSweepBoxBox.obj
 0001:00060d90       ?getNumVertices@InternalTriangleMesh@physx@@QBEIXZ 10061d90 f i GuSweepBoxBox.obj
 0001:00060db0       ?getTriangleMaterialIndex@TriangleMesh@Gu@physx@@UBEGI@Z 10061db0 f i GuSweepBoxBox.obj
 0001:00060e10       ?getTriangleMeshFlags@InternalTriangleMesh@physx@@QBE?AV?$PxFlags@W4Enum@PxTriangleMeshFlag@physx@@E@2@XZ 10061e10 f i GuSweepBoxBox.obj
 0001:00060e40       ?getTriangleMeshFlags@TriangleMesh@Gu@physx@@UBE?AV?$PxFlags@W4Enum@PxTriangleMeshFlag@physx@@E@3@XZ 10061e40 f i GuSweepBoxBox.obj
 0001:00060e70       ?getTriangles@InternalTriangleMesh@physx@@QBEPBXXZ 10061e70 f i GuSweepBoxBox.obj
 0001:00060e90       ?getTriangles@TriangleMesh@Gu@physx@@UBEPBXXZ 10061e90 f i GuSweepBoxBox.obj
 0001:00060eb0       ?getTrianglesRemap@TriangleMesh@Gu@physx@@UBEPBIXZ 10061eb0 f i GuSweepBoxBox.obj
 0001:00060ed0       ?getTrigSharedEdgeFlagsFromData@InternalTriangleMesh@physx@@QBEII@Z 10061ed0 f i GuSweepBoxBox.obj
 0001:00060f50       ?getVertices@InternalTriangleMesh@physx@@QBEPBVPxVec3@2@XZ 10061f50 f i GuSweepBoxBox.obj
 0001:00060f70       ?getVertices@TriangleMesh@Gu@physx@@UBEPBVPxVec3@3@XZ 10061f70 f i GuSweepBoxBox.obj
 0001:00060f90       ?has16BitIndices@InternalTriangleMesh@physx@@QBE_NXZ 10061f90 f i GuSweepBoxBox.obj
 0001:00060fd0       ?hasPerTriangleMaterials@TriangleMesh@Gu@physx@@QBE_NXZ 10061fd0 f i GuSweepBoxBox.obj
 0001:00061010       ?requires@TriangleMesh@Gu@physx@@UAEXAAVPxProcessPxBaseCallback@3@@Z 10062010 f i GuSweepBoxBox.obj
 0001:00061020       ?setTriangleAdjacency@InternalTriangleMesh@physx@@QAEXIII@Z 10062020 f i GuSweepBoxBox.obj
 0001:000610a0       ?setTrigSharedEdgeFlag@InternalTriangleMesh@physx@@QAEXII@Z 100620a0 f i GuSweepBoxBox.obj
 0001:00061140       ?sweepBoxSphere@Gu@physx@@YA_NABVBox@12@MABVPxVec3@2@1MAAMAAV42@V?$PxFlags@W4Enum@PxHitFlag@physx@@G@2@@Z 10062140 f   GuSweepBoxSphere.obj
 0001:000617d0       ??0Capsule@Gu@physx@@QAE@ABVPxVec3@2@0M@Z 100627d0 f i GuSweepBoxSphere.obj
 0001:00061810       ??0Sphere@Gu@physx@@QAE@ABVPxVec3@2@M@Z 10062810 f i GuSweepBoxSphere.obj
 0001:00061850       ??1Sphere@Gu@physx@@QAE@XZ 10062850 f i GuSweepBoxSphere.obj
 0001:00061860       ?computePoint@Segment@Gu@physx@@QBEXAAVPxVec3@3@M@Z 10062860 f i GuSweepBoxSphere.obj
 0001:000618d0       ?distancePointSegmentSquared@Gu@physx@@YAMABVSegment@12@ABVPxVec3@2@PAM@Z 100628d0 f i GuSweepBoxSphere.obj
 0001:00061900       ?sweepBoxTriangle@Gu@physx@@YA_NABVPxTriangle@2@ABVPxBounds3@2@ABVPxVec3@2@2AAV52@3AAM@Z 10062900 f   GuSweepBoxTriangle_FeatureBased.obj
 0001:00063030       ??0PxTriangle@physx@@QAE@ABV01@@Z 10064030 f i GuSweepBoxTriangle_FeatureBased.obj
 0001:000630d0       ?triBoxSweepTestBoxSpace@Gu@physx@@YAHABVPxTriangle@2@ABVPxVec3@2@11MAAM_N@Z 100640d0 f   GuSweepBoxTriangle_SAT.obj
 0001:00063ba0       ?cross010@shdfnd@physx@@YA?AVPxVec3@2@ABV32@@Z 10064ba0 f i GuSweepBoxTriangle_SAT.obj
 0001:00063bf0       ?cross100@shdfnd@physx@@YA?AVPxVec3@2@ABV32@@Z 10064bf0 f i GuSweepBoxTriangle_SAT.obj
 0001:00063c40       ?sweepCapsuleBox@Gu@physx@@YA_NABVCapsule@12@ABVPxTransform@2@ABVPxVec3@2@2MAAV52@AAM3V?$PxFlags@W4Enum@PxHitFlag@physx@@G@2@@Z 10064c40 f   GuSweepCapsuleBox.obj
 0001:00064b90       ??0?$PxFlags@W4Enum@PxHitFlag@physx@@G@physx@@QAE@XZ 10065b90 f i GuSweepCapsuleBox.obj
 0001:00064bb0       ??0?$ScopedPointer@VPxTriangle@physx@@VTempAllocator@shdfnd@2@@shdfnd@physx@@QAE@XZ 10065bb0 f i GuSweepCapsuleBox.obj
 0001:00064bd0       ??1?$ScopedPointer@VPxTriangle@physx@@VTempAllocator@shdfnd@2@@shdfnd@physx@@QAE@XZ 10065bd0 f i GuSweepCapsuleBox.obj
 0001:00064c00       ??B?$ScopedPointer@VPxTriangle@physx@@VTempAllocator@shdfnd@2@@shdfnd@physx@@QBEPAVPxTriangle@2@XZ 10065c00 f i GuSweepCapsuleBox.obj
 0001:00064c70       ?sweepCapsuleCapsule@Gu@physx@@YA_NABVCapsule@12@0ABVPxVec3@2@MAAMAAV42@3IAAG@Z 10065c70 f   GuSweepCapsuleCapsule.obj
 0001:00065dc0       ??0?$PxFlags@W4Enum@PxHitFlag@physx@@G@physx@@QAE@W4Enum@PxHitFlag@1@@Z 10066dc0 f i GuSweepCapsuleCapsule.obj
 0001:00065de0       ??0Capsule@Gu@physx@@QAE@XZ 10066de0 f i GuSweepCapsuleCapsule.obj
 0001:00065e00       ??0PxTriangle@physx@@QAE@ABVPxVec3@1@00@Z 10066e00 f i GuSweepCapsuleCapsule.obj
 0001:00065e80       ??4Capsule@Gu@physx@@QAEAAV012@ABV012@@Z 10066e80 f i GuSweepCapsuleCapsule.obj
 0001:00065ec0       ??4Segment@Gu@physx@@QAEAAV012@ABV012@@Z 10066ec0 f i GuSweepCapsuleCapsule.obj
 0001:00065f00       ??8PxVec3@physx@@QBE_NABV01@@Z 10066f00 f i GuSweepCapsuleCapsule.obj
 0001:00065f80       ??B?$PxFlags@W4Enum@PxHitFlag@physx@@G@physx@@QBEGXZ 10066f80 f i GuSweepCapsuleCapsule.obj
 0001:00065fa0       ??B?$PxFlags@W4Enum@PxHitFlag@physx@@G@physx@@QBEIXZ 10066fa0 f i GuSweepCapsuleCapsule.obj
 0001:00065fc0       ??Uphysx@@YA?AV?$PxFlags@W4Enum@PxHitFlag@physx@@G@0@W4Enum@PxHitFlag@0@0@Z 10066fc0 f i GuSweepCapsuleCapsule.obj
 0001:00066000       ??_5?$PxFlags@W4Enum@PxHitFlag@physx@@G@physx@@QAEAAV01@W4Enum@PxHitFlag@1@@Z 10067000 f i GuSweepCapsuleCapsule.obj
 0001:00066080       ?sweepCapsuleTriangles@Gu@physx@@YA_NIPIBVPxTriangle@2@ABVCapsule@12@ABVPxVec3@2@MPIBIAAV?$PxFlags@W4Enum@PxHitFlag@physx@@G@2@AAMAAV52@6AAI6V62@_NPBVBox@12@@Z 10067080 f   GuSweepCapsuleTriangle.obj
 0001:000677c0       ??$PX_UNUSED@VPxVec3@physx@@@@YAXABVPxVec3@physx@@@Z 100687c0 f i GuSweepCapsuleTriangle.obj
 0001:000677d0       ??4?$PxFlags@W4Enum@PxHitFlag@physx@@G@physx@@QAEAAV01@ABV01@@Z 100687d0 f i GuSweepCapsuleTriangle.obj
 0001:00067800       ??4PxTriangle@physx@@QAEAAV01@ABV01@@Z 10068800 f i GuSweepCapsuleTriangle.obj
 0001:00067850       ??U?$PxFlags@W4Enum@PxHitFlag@physx@@G@physx@@QBE?AV01@W4Enum@PxHitFlag@1@@Z 10068850 f i GuSweepCapsuleTriangle.obj
 0001:000678a0       ?V3LoadU@aos@shdfnd@physx@@YA?AT__m128@@ABVPxVec3@3@@Z 100688a0 f i GuSweepCapsuleTriangle.obj
 0001:00067900       ?V3StoreU@aos@shdfnd@physx@@YAXT__m128@@AAVPxVec3@3@@Z 10068900 f i GuSweepCapsuleTriangle.obj
 0001:000679a0       ?coarseCulling@Gu@physx@@YA_NABVPxVec3@2@0MMABVPxTriangle@2@@Z 100689a0 f i GuSweepCapsuleTriangle.obj
 0001:00067b80       ?computeAlignmentValue@Gu@physx@@YAMABVPxVec3@2@0@Z 10068b80 f i GuSweepCapsuleTriangle.obj
 0001:00067bd0       ?cullTriangle@Gu@physx@@YA_NABVPxTriangle@2@ABVPxVec3@2@MMM@Z 10068bd0 f i GuSweepCapsuleTriangle.obj
 0001:00067cf0       ?getInitIndex@Gu@physx@@YAIPIBII@Z 10068cf0 f i GuSweepCapsuleTriangle.obj
 0001:00067d80       ?getTriangleIndex@physx@@YAIII@Z 10068d80 f i GuSweepCapsuleTriangle.obj
 0001:00067dc0       ?keepTriangle@Gu@physx@@YA_NMMMMM@Z 10068dc0 f i GuSweepCapsuleTriangle.obj
 0001:00067e80       ?rejectTriangle@Gu@physx@@YA_NABVPxVec3@2@0MMABVPxTriangle@2@M@Z 10068e80 f i GuSweepCapsuleTriangle.obj
 0001:00067f20       ?shouldFlipNormal@Gu@physx@@YA_NABVPxVec3@2@_N100@Z 10068f20 f i GuSweepCapsuleTriangle.obj
 0001:00068000       ?squareDistance@Gu@physx@@YAMABVPxVec3@2@0M0@Z 10069000 f i GuSweepCapsuleTriangle.obj
 0001:00068110       ?sweepSphereCapsule@Gu@physx@@YA_NABVSphere@12@ABVCapsule@12@ABVPxVec3@2@MAAMAAV52@4V?$PxFlags@W4Enum@PxHitFlag@physx@@G@2@@Z 10069110 f   GuSweepSphereCapsule.obj
 0001:00068540       ?sweepSphereSphere@Gu@physx@@YA_NABVPxVec3@2@M0M0AAMAAV32@@Z 10069540 f   GuSweepSphereSphere.obj
 0001:000689c0       ?sweepTriSphere@Gu@physx@@YA_NABVPxTriangle@2@ABVPxVec3@2@1M1AAM@Z 100699c0 f   GuSweepSphereTriangle.obj
 0001:00068f80       ?sweepSphereTriangles@Gu@physx@@YA_NIPIBVPxTriangle@2@ABVPxVec3@2@M1MPIBIAAV42@3AAMAAIAAV?$PxFlags@W4Enum@PxHitFlag@physx@@G@2@3_N7@Z 10069f80 f   GuSweepSphereTriangle.obj
 0001:000698b0       ?computeSphereTriImpactData@Gu@physx@@YAXAAVPxVec3@2@0ABV32@1MABVPxTriangle@2@@Z 1006a8b0 f   GuSweepTriangleUtils.obj
 0001:00069980       ?computeBoxTriImpactData@Gu@physx@@YAXAAVPxVec3@2@0ABV32@111ABVPxTriangle@2@@Z 1006a980 f   GuSweepTriangleUtils.obj
 0001:00069ac0       ?computeEdgeEdgeNormal@Gu@physx@@YAXAAVPxVec3@2@ABV32@1111M@Z 1006aac0 f   GuSweepTriangleUtils.obj
 0001:0006a270       ??0BoxV@Gu@physx@@QAE@ABT__m128@@0000@Z 1006b270 f i GuSweepTriangleUtils.obj
 0001:0006a310       ??0ConvexV@Gu@physx@@QAE@I@Z 1006b310 f i GuSweepTriangleUtils.obj
 0001:0006a3b0       ??0ConvexV@Gu@physx@@QAE@IABT__m128@@@Z 1006b3b0 f i GuSweepTriangleUtils.obj
 0001:0006a460       ??0Mat33V@aos@shdfnd@physx@@QAE@XZ 1006b460 f i GuSweepTriangleUtils.obj
 0001:0006a480       ??0TriangleV@Gu@physx@@QAE@ABT__m128@@00@Z 1006b480 f i GuSweepTriangleUtils.obj
 0001:0006a5d0       ??1BoxV@Gu@physx@@QAE@XZ   1006b5d0 f i GuSweepTriangleUtils.obj
 0001:0006a5f0       ??1ConvexV@Gu@physx@@IAE@XZ 1006b5f0 f i GuSweepTriangleUtils.obj
 0001:0006a600       ??1TriangleV@Gu@physx@@QAE@XZ 1006b600 f i GuSweepTriangleUtils.obj
 0001:0006a620       ?CalculateBoxMargin@Gu@physx@@YAXABT__m128@@AAT3@1@Z 1006b620 f i GuSweepTriangleUtils.obj
 0001:0006a710       ?FMax@aos@shdfnd@physx@@YA?AT__m128@@XZ 1006b710 f i GuSweepTriangleUtils.obj
 0001:0006a760       ?V3ExtractMin@aos@shdfnd@physx@@YA?AT__m128@@T4@@Z 1006b760 f i GuSweepTriangleUtils.obj
 0001:0006a810       ?epaPenetration@Gu@physx@@YAIABVConvexV@12@0PAVEPASupportMapPair@12@PIAE2EAAT__m128@@333_N@Z 1006b810 f   GuEPA.obj
 0001:0006acd0       ?silhouette@Facet@Gu@physx@@QAEXABT__m128@@PIBT4@1AAVEdgeBuffer@23@AAV?$InlineDeferredIDPool@$0EA@@Cm@3@@Z 1006bcd0 f   GuEPA.obj
 0001:0006ad30       ?PenetrationDepth@EPA@Gu@physx@@QAEIABVConvexV@23@0PAVEPASupportMapPair@23@PIBT__m128@@22HAAT6@333_N@Z 1006bd30 f   GuEPA.obj
 0001:0006bb00       ?expandPoint@EPA@Gu@physx@@QAE_NPAVEPASupportMapPair@23@AAHABT__m128@@2@Z 1006cb00 f   GuEPA.obj
 0001:0006bb90       ?expandSegment@EPA@Gu@physx@@QAE_NPAVEPASupportMapPair@23@AAHABT__m128@@2@Z 1006cb90 f   GuEPA.obj
 0001:0006bef0       ?expandTriangle@EPA@Gu@physx@@QAE_NAAHABT__m128@@1@Z 1006cef0 f   GuEPA.obj
 0001:0006bf90       ?addFacet@EPA@Gu@physx@@QAEPAVFacet@23@IIIABT__m128@@0@Z 1006cf90 f   GuEPA.obj
 0001:0006cd40       ??0?$DeferredIDPoolBase@V?$InlineFixedArray@I$0EA@@Cm@physx@@@Cm@physx@@QAE@XZ 1006dd40 f i GuEPA.obj
 0001:0006cd70       ??0?$IDPoolBase@V?$InlineFixedArray@I$0EA@@Cm@physx@@@Cm@physx@@QAE@XZ 1006dd70 f i GuEPA.obj
 0001:0006cda0       ??0?$InlineDeferredIDPool@$0EA@@Cm@physx@@QAE@XZ 1006dda0 f i GuEPA.obj
 0001:0006cdc0       ??0?$InlineFixedArray@I$0EA@@Cm@physx@@QAE@XZ 1006ddc0 f i GuEPA.obj
 0001:0006cdf0       ??0?$PriorityQueue@PAVFacet@Gu@physx@@$0EA@UFacetDistanceComparator@23@@Gu@physx@@QAE@ABUFacetDistanceComparator@12@@Z 1006ddf0 f i GuEPA.obj
 0001:0006ce10       ??0EPA@Gu@physx@@QAE@XZ    1006de10 f i GuEPA.obj
 0001:0006ce80       ??0Edge@Gu@physx@@QAE@PIAVFacet@12@I@Z 1006de80 f i GuEPA.obj
 0001:0006ceb0       ??0Edge@Gu@physx@@QAE@XZ   1006deb0 f i GuEPA.obj
 0001:0006ced0       ??0EdgeBuffer@Gu@physx@@QAE@XZ 1006ded0 f i GuEPA.obj
 0001:0006cf10       ??0Facet@Gu@physx@@QAE@III@Z 1006df10 f i GuEPA.obj
 0001:0006d020       ??0Facet@Gu@physx@@QAE@XZ  1006e020 f i GuEPA.obj
 0001:0006d040       ??1?$DeferredIDPoolBase@V?$InlineFixedArray@I$0EA@@Cm@physx@@@Cm@physx@@QAE@XZ 1006e040 f i GuEPA.obj
 0001:0006d070       ??1?$IDPoolBase@V?$InlineFixedArray@I$0EA@@Cm@physx@@@Cm@physx@@QAE@XZ 1006e070 f i GuEPA.obj
 0001:0006d090       ??1?$InlineDeferredIDPool@$0EA@@Cm@physx@@QAE@XZ 1006e090 f i GuEPA.obj
 0001:0006d0b0       ??1?$InlineFixedArray@I$0EA@@Cm@physx@@QAE@XZ 1006e0b0 f i GuEPA.obj
 0001:0006d0c0       ??1?$PriorityQueue@PAVFacet@Gu@physx@@$0EA@UFacetDistanceComparator@23@@Gu@physx@@QAE@XZ 1006e0c0 f i GuEPA.obj
 0001:0006d0d0       ??1EPA@Gu@physx@@QAE@XZ    1006e0d0 f i GuEPA.obj
 0001:0006d100       ??4Edge@Gu@physx@@QAEAAV012@ABV012@@Z 1006e100 f i GuEPA.obj
 0001:0006d130       ??A?$InlineFixedArray@I$0EA@@Cm@physx@@QAEAAII@Z 1006e130 f i GuEPA.obj
 0001:0006d1a0       ??AFacet@Gu@physx@@QBEII@Z 1006e1a0 f i GuEPA.obj
 0001:0006d1c0       ??MFacet@Gu@physx@@QBE_NABV012@@Z 1006e1c0 f i GuEPA.obj
 0001:0006d200       ??RFacetDistanceComparator@Gu@physx@@QBE_NPBVFacet@12@0@Z 1006e200 f i GuEPA.obj
 0001:0006d220       ?FAbs@aos@shdfnd@physx@@YA?AT__m128@@T4@@Z 1006e220 f i GuEPA.obj
 0001:0006d270       ?FAllGrtr@aos@shdfnd@physx@@YAIT__m128@@0@Z 1006e270 f i GuEPA.obj
 0001:0006d2c0       ?FAllGrtrOrEq@aos@shdfnd@physx@@YAIT__m128@@0@Z 1006e2c0 f i GuEPA.obj
 0001:0006d310       ?FNegScaleSub@aos@shdfnd@physx@@YA?AT__m128@@T4@00@Z 1006e310 f i GuEPA.obj
 0001:0006d380       ?FRsqrt@aos@shdfnd@physx@@YA?AT__m128@@T4@@Z 1006e380 f i GuEPA.obj
 0001:0006d3e0       ?FStore@aos@shdfnd@physx@@YAXT__m128@@PIAM@Z 1006e3e0 f i GuEPA.obj
 0001:0006d420       ?GJKCPairDoSimplex@Gu@physx@@YA?AT__m128@@PIAT3@00ABT3@AAI@Z 1006e420 f i GuEPA.obj
 0001:0006d560       ?Get@EdgeBuffer@Gu@physx@@QAEPAVEdge@23@I@Z 1006e560 f i GuEPA.obj
 0001:0006d5d0       ?Insert@EdgeBuffer@Gu@physx@@QAEPAVEdge@23@PIAVFacet@23@I@Z 1006e5d0 f i GuEPA.obj
 0001:0006d680       ?IsEmpty@EdgeBuffer@Gu@physx@@QAE_NXZ 1006e680 f i GuEPA.obj
 0001:0006d6c0       ?MakeEmpty@EdgeBuffer@Gu@physx@@QAEXXZ 1006e6c0 f i GuEPA.obj
 0001:0006d6e0       ?QuatRotate@aos@shdfnd@physx@@YA?AT__m128@@T4@0@Z 1006e6e0 f i GuEPA.obj
 0001:0006d8c0       ?Size@EdgeBuffer@Gu@physx@@QAEIXZ 1006e8c0 f i GuEPA.obj
 0001:0006d8e0       ?V3Splat@aos@shdfnd@physx@@YA?AT__m128@@T4@@Z 1006e8e0 f i GuEPA.obj
 0001:0006d960       ?V3UnitX@aos@shdfnd@physx@@YA?AT__m128@@XZ 1006e960 f i GuEPA.obj
 0001:0006d9d0       ?V3Zero@aos@shdfnd@physx@@YA?AT__m128@@XZ 1006e9d0 f i GuEPA.obj
 0001:0006da10       ?V4SetW@aos@shdfnd@physx@@YA?AT__m128@@T4@0@Z 1006ea10 f i GuEPA.obj
 0001:0006da70       ?Valid@Facet@Gu@physx@@QAE_NXZ 1006ea70 f i GuEPA.obj
 0001:0006db10       ?clear@?$InlineFixedArray@I$0EA@@Cm@physx@@QAEXXZ 1006eb10 f i GuEPA.obj
 0001:0006db30       ?clear@?$PriorityQueue@PAVFacet@Gu@physx@@$0EA@UFacetDistanceComparator@23@@Gu@physx@@QAEXXZ 1006eb30 f i GuEPA.obj
 0001:0006db50       ?closestPtPointSegment@Gu@physx@@YA?AT__m128@@PIAT3@AAI@Z 1006eb50 f i GuEPA.obj
 0001:0006dd90       ?closestPtPointTriangle@Gu@physx@@YA?AT__m128@@PIAT3@PAT3@1AAI@Z 1006ed90 f i GuEPA.obj
 0001:0006e100       ?closestPtPointTriangleBaryCentric@Gu@physx@@YA?AT__m128@@ABT3@00PIAIAAI@Z 1006f100 f i GuEPA.obj
 0001:0006eff0       ?compare@?$PriorityQueue@PAVFacet@Gu@physx@@$0EA@UFacetDistanceComparator@23@@Gu@physx@@ABE_NABQAVFacet@23@0@Z 1006fff0 f i GuEPA.obj
 0001:0006f020       ?deferredFreeID@?$DeferredIDPoolBase@V?$InlineFixedArray@I$0EA@@Cm@physx@@@Cm@physx@@QAEXI@Z 10070020 f i GuEPA.obj
 0001:0006f050       ?empty@?$PriorityQueue@PAVFacet@Gu@physx@@$0EA@UFacetDistanceComparator@23@@Gu@physx@@QBE_NXZ 10070050 f i GuEPA.obj
 0001:0006f090       ?freeID@?$IDPoolBase@V?$InlineFixedArray@I$0EA@@Cm@physx@@@Cm@physx@@QAEXI@Z 10070090 f i GuEPA.obj
 0001:0006f0e0       ?getCenter@ConvexV@Gu@physx@@QBE?AT__m128@@XZ 100700e0 f i GuEPA.obj
 0001:0006f110       ?getClosestPoint@Facet@Gu@physx@@QBEXPIBT__m128@@0AAT4@1@Z 10070110 f i GuEPA.obj
 0001:0006f710       ?getFacet@Edge@Gu@physx@@QBEPAVFacet@23@XZ 10070710 f i GuEPA.obj
 0001:0006f730       ?getIndex@Edge@Gu@physx@@QBEIXZ 10070730 f i GuEPA.obj
 0001:0006f750       ?getMargin@ConvexV@Gu@physx@@QBE?AT__m128@@XZ 10070750 f i GuEPA.obj
 0001:0006f780       ?getMinMargin@ConvexV@Gu@physx@@QBE?AT__m128@@XZ 10070780 f i GuEPA.obj
 0001:0006f7b0       ?getNewID@?$IDPoolBase@V?$InlineFixedArray@I$0EA@@Cm@physx@@@Cm@physx@@QAEIXZ 100707b0 f i GuEPA.obj
 0001:0006f810       ?getNumRemainingIDs@?$InlineDeferredIDPool@$0EA@@Cm@physx@@QAEIXZ 10070810 f i GuEPA.obj
 0001:0006f840       ?getNumUsedID@?$IDPoolBase@V?$InlineFixedArray@I$0EA@@Cm@physx@@@Cm@physx@@QAEIXZ 10070840 f i GuEPA.obj
 0001:0006f870       ?getPlaneDist@Facet@Gu@physx@@QBE?AT__m128@@ABT4@PIBT4@1@Z 10070870 f i GuEPA.obj
 0001:0006f950       ?getPlaneDist@Facet@Gu@physx@@QBE?AT__m128@@XZ 10070950 f i GuEPA.obj
 0001:0006f9b0       ?getPlaneNormal@Facet@Gu@physx@@QBE?AT__m128@@XZ 100709b0 f i GuEPA.obj
 0001:0006f9e0       ?getSource@Edge@Gu@physx@@QBEIXZ 100709e0 f i GuEPA.obj
 0001:0006fa60       ?getTarget@Edge@Gu@physx@@QBEIXZ 10070a60 f i GuEPA.obj
 0001:0006fae0       ?incMod3@Gu@physx@@YAII@Z  10070ae0 f i GuEPA.obj
 0001:0006fb00       ?isMarginEqRadius@ConvexV@Gu@physx@@QBE?AT__m128@@XZ 10070b00 f i GuEPA.obj
 0001:0006fb30       ?isObsolete@Facet@Gu@physx@@QBE_NXZ 10070b30 f i GuEPA.obj
 0001:0006fb50       ?isValid2@Facet@Gu@physx@@QAE?AT__m128@@IIIPIBT4@0ABT4@1@Z 10070b50 f i GuEPA.obj
 0001:0006ffd0       ?left@?$PriorityQueue@PAVFacet@Gu@physx@@$0EA@UFacetDistanceComparator@23@@Gu@physx@@CAII@Z 10070fd0 f i GuEPA.obj
 0001:0006ffe0       ?link@Facet@Gu@physx@@QAE_NIPIAV123@I@Z 10070fe0 f i GuEPA.obj
 0001:000700c0       ?parent@?$PriorityQueue@PAVFacet@Gu@physx@@$0EA@UFacetDistanceComparator@23@@Gu@physx@@CAII@Z 100710c0 f i GuEPA.obj
 0001:000700d0       ?pop@?$PriorityQueue@PAVFacet@Gu@physx@@$0EA@UFacetDistanceComparator@23@@Gu@physx@@QAEPAVFacet@23@XZ 100710d0 f i GuEPA.obj
 0001:00070350       ?popBack@?$InlineFixedArray@I$0EA@@Cm@physx@@QAEIXZ 10071350 f i GuEPA.obj
 0001:000703e0       ?prefetchLine@shdfnd@physx@@YAXPBXI@Z 100713e0 f i GuEPA.obj
 0001:00070400       ?processDeferredIds@?$DeferredIDPoolBase@V?$InlineFixedArray@I$0EA@@Cm@physx@@@Cm@physx@@QAEXXZ 10071400 f i GuEPA.obj
 0001:00070480       ?push@?$PriorityQueue@PAVFacet@Gu@physx@@$0EA@UFacetDistanceComparator@23@@Gu@physx@@QAEXABQAVFacet@23@@Z 10071480 f i GuEPA.obj
 0001:000705e0       ?pushBack@?$InlineFixedArray@I$0EA@@Cm@physx@@QAEXABI@Z 100715e0 f i GuEPA.obj
 0001:00070680       ?silhouette@Facet@Gu@physx@@QAEXIABT__m128@@PIBT4@1AAVEdgeBuffer@23@AAV?$InlineDeferredIDPool@$0EA@@Cm@3@@Z 10071680 f i GuEPA.obj
 0001:00070950       ?size@?$InlineFixedArray@I$0EA@@Cm@physx@@QBEIXZ 10071950 f i GuEPA.obj
 0001:00070970       ?size@?$PriorityQueue@PAVFacet@Gu@physx@@$0EA@UFacetDistanceComparator@23@@Gu@physx@@QBEIXZ 10071970 f i GuEPA.obj
 0001:00070990       ?toI8@shdfnd@physx@@YACI@Z 10071990 f i GuEPA.obj
 0001:000709f0       ?top@?$PriorityQueue@PAVFacet@Gu@physx@@$0EA@UFacetDistanceComparator@23@@Gu@physx@@QAEPAVFacet@23@XZ 100719f0 f i GuEPA.obj
 0001:00070a10       ?valid@?$PriorityQueue@PAVFacet@Gu@physx@@$0EA@UFacetDistanceComparator@23@@Gu@physx@@QBE_NXZ 10071a10 f i GuEPA.obj
 0001:00070a90       ?EPALocalPenetration@Gu@physx@@YAIABVCapsuleV@12@ABVBoxV@12@AAT__m128@@222PIAE3AAE_N@Z 10071a90 f   GuEPAPenetrationWrapper.obj
 0001:00070af0       ?EPALocalPenetration@Gu@physx@@YAIABVCapsuleV@12@ABVConvexHullV@12@AAT__m128@@222PIAE3AAE_N@Z 10071af0 f   GuEPAPenetrationWrapper.obj
 0001:00070b50       ?EPALocalPenetration@Gu@physx@@YAIABVTriangleV@12@ABVBoxV@12@AAT__m128@@222PIAE3AAE_N@Z 10071b50 f   GuEPAPenetrationWrapper.obj
 0001:00070bb0       ?EPALocalPenetration@Gu@physx@@YAIABVTriangleV@12@ABVConvexHullV@12@AAT__m128@@222PIAE3AAE_N@Z 10071bb0 f   GuEPAPenetrationWrapper.obj
 0001:00070c10       ?EPARelativePenetration@Gu@physx@@YAIABVBoxV@12@0ABVPsMatTransformV@aos@shdfnd@2@AAT__m128@@222PIAE3AAE_N@Z 10071c10 f   GuEPAPenetrationWrapper.obj
 0001:00070c80       ?EPARelativePenetration@Gu@physx@@YAIABVBoxV@12@ABVConvexHullV@12@ABVPsMatTransformV@aos@shdfnd@2@AAT__m128@@333PIAE4AAE_N@Z 10071c80 f   GuEPAPenetrationWrapper.obj
 0001:00070cf0       ?EPARelativePenetration@Gu@physx@@YAIABVConvexHullV@12@0ABVPsMatTransformV@aos@shdfnd@2@AAT__m128@@222PIAE3AAE_N@Z 10071cf0 f   GuEPAPenetrationWrapper.obj
 0001:00070d60       ?EPARelativePenetration@Gu@physx@@YAIABVConvexHullNoScaleV@12@0ABVPsMatTransformV@aos@shdfnd@2@AAT__m128@@222PIAE3AAE_N@Z 10071d60 f   GuEPAPenetrationWrapper.obj
 0001:00070dd0       ?EPARelativePenetration@Gu@physx@@YAIABVConvexHullNoScaleV@12@ABVConvexHullV@12@ABVPsMatTransformV@aos@shdfnd@2@AAT__m128@@333PIAE4AAE_N@Z 10071dd0 f   GuEPAPenetrationWrapper.obj
 0001:00070e40       ?EPARelativePenetration@Gu@physx@@YAIABVConvexHullV@12@ABVConvexHullNoScaleV@12@ABVPsMatTransformV@aos@shdfnd@2@AAT__m128@@333PIAE4AAE_N@Z 10071e40 f   GuEPAPenetrationWrapper.obj
 0001:00070fb0       ??0?$EPASupportMapPairLocalImpl@VCapsuleV@Gu@physx@@VBoxV@23@@Gu@physx@@QAE@ABVCapsuleV@12@ABVBoxV@12@@Z 10071fb0 f i GuEPAPenetrationWrapper.obj
 0001:00070ff0       ??0?$EPASupportMapPairLocalImpl@VCapsuleV@Gu@physx@@VConvexHullV@23@@Gu@physx@@QAE@ABVCapsuleV@12@ABVConvexHullV@12@@Z 10071ff0 f i GuEPAPenetrationWrapper.obj
 0001:00071030       ??0?$EPASupportMapPairLocalImpl@VTriangleV@Gu@physx@@VBoxV@23@@Gu@physx@@QAE@ABVTriangleV@12@ABVBoxV@12@@Z 10072030 f i GuEPAPenetrationWrapper.obj
 0001:00071070       ??0?$EPASupportMapPairLocalImpl@VTriangleV@Gu@physx@@VConvexHullV@23@@Gu@physx@@QAE@ABVTriangleV@12@ABVConvexHullV@12@@Z 10072070 f i GuEPAPenetrationWrapper.obj
 0001:000710b0       ??0?$EPASupportMapPairRelativeImpl@VBoxV@Gu@physx@@V123@@Gu@physx@@QAE@ABVBoxV@12@0ABVPsMatTransformV@aos@shdfnd@2@@Z 100720b0 f i GuEPAPenetrationWrapper.obj
 0001:00071100       ??0?$EPASupportMapPairRelativeImpl@VBoxV@Gu@physx@@VConvexHullV@23@@Gu@physx@@QAE@ABVBoxV@12@ABVConvexHullV@12@ABVPsMatTransformV@aos@shdfnd@2@@Z 10072100 f i GuEPAPenetrationWrapper.obj
 0001:00071150       ??0?$EPASupportMapPairRelativeImpl@VConvexHullNoScaleV@Gu@physx@@V123@@Gu@physx@@QAE@ABVConvexHullNoScaleV@12@0ABVPsMatTransformV@aos@shdfnd@2@@Z 10072150 f i GuEPAPenetrationWrapper.obj
 0001:000711a0       ??0?$EPASupportMapPairRelativeImpl@VConvexHullNoScaleV@Gu@physx@@VConvexHullV@23@@Gu@physx@@QAE@ABVConvexHullNoScaleV@12@ABVConvexHullV@12@ABVPsMatTransformV@aos@shdfnd@2@@Z 100721a0 f i GuEPAPenetrationWrapper.obj
 0001:000711f0       ??0?$EPASupportMapPairRelativeImpl@VConvexHullV@Gu@physx@@V123@@Gu@physx@@QAE@ABVConvexHullV@12@0ABVPsMatTransformV@aos@shdfnd@2@@Z 100721f0 f i GuEPAPenetrationWrapper.obj
 0001:00071240       ??0?$EPASupportMapPairRelativeImpl@VConvexHullV@Gu@physx@@VConvexHullNoScaleV@23@@Gu@physx@@QAE@ABVConvexHullV@12@ABVConvexHullNoScaleV@12@ABVPsMatTransformV@aos@shdfnd@2@@Z 10072240 f i GuEPAPenetrationWrapper.obj
 0001:00071290       ??0EPASupportMapPair@Gu@physx@@QAE@XZ 10072290 f i GuEPAPenetrationWrapper.obj
 0001:000712b0       ??1?$EPASupportMapPairLocalImpl@VCapsuleV@Gu@physx@@VBoxV@23@@Gu@physx@@UAE@XZ 100722b0 f i GuEPAPenetrationWrapper.obj
 0001:000712d0       ??1?$EPASupportMapPairLocalImpl@VCapsuleV@Gu@physx@@VConvexHullV@23@@Gu@physx@@UAE@XZ 100722d0 f i GuEPAPenetrationWrapper.obj
 0001:000712f0       ??1?$EPASupportMapPairLocalImpl@VTriangleV@Gu@physx@@VBoxV@23@@Gu@physx@@UAE@XZ 100722f0 f i GuEPAPenetrationWrapper.obj
 0001:00071310       ??1?$EPASupportMapPairLocalImpl@VTriangleV@Gu@physx@@VConvexHullV@23@@Gu@physx@@UAE@XZ 10072310 f i GuEPAPenetrationWrapper.obj
 0001:00071330       ??1?$EPASupportMapPairRelativeImpl@VBoxV@Gu@physx@@V123@@Gu@physx@@UAE@XZ 10072330 f i GuEPAPenetrationWrapper.obj
 0001:00071350       ??1?$EPASupportMapPairRelativeImpl@VBoxV@Gu@physx@@VConvexHullV@23@@Gu@physx@@UAE@XZ 10072350 f i GuEPAPenetrationWrapper.obj
 0001:00071370       ??1?$EPASupportMapPairRelativeImpl@VConvexHullNoScaleV@Gu@physx@@V123@@Gu@physx@@UAE@XZ 10072370 f i GuEPAPenetrationWrapper.obj
 0001:00071390       ??1?$EPASupportMapPairRelativeImpl@VConvexHullNoScaleV@Gu@physx@@VConvexHullV@23@@Gu@physx@@UAE@XZ 10072390 f i GuEPAPenetrationWrapper.obj
 0001:000713b0       ??1?$EPASupportMapPairRelativeImpl@VConvexHullV@Gu@physx@@V123@@Gu@physx@@UAE@XZ 100723b0 f i GuEPAPenetrationWrapper.obj
 0001:000713d0       ??1?$EPASupportMapPairRelativeImpl@VConvexHullV@Gu@physx@@VConvexHullNoScaleV@23@@Gu@physx@@UAE@XZ 100723d0 f i GuEPAPenetrationWrapper.obj
 0001:000713f0       ??1EPASupportMapPair@Gu@physx@@UAE@XZ 100723f0 f i GuEPAPenetrationWrapper.obj
 0001:00071410       ??_G?$EPASupportMapPairLocalImpl@VCapsuleV@Gu@physx@@VBoxV@23@@Gu@physx@@UAEPAXI@Z 10072410 f i GuEPAPenetrationWrapper.obj
 0001:00071410       ??_E?$EPASupportMapPairLocalImpl@VCapsuleV@Gu@physx@@VBoxV@23@@Gu@physx@@UAEPAXI@Z 10072410 f i GuEPAPenetrationWrapper.obj
 0001:00071450       ??_G?$EPASupportMapPairLocalImpl@VCapsuleV@Gu@physx@@VConvexHullV@23@@Gu@physx@@UAEPAXI@Z 10072450 f i GuEPAPenetrationWrapper.obj
 0001:00071450       ??_E?$EPASupportMapPairLocalImpl@VCapsuleV@Gu@physx@@VConvexHullV@23@@Gu@physx@@UAEPAXI@Z 10072450 f i GuEPAPenetrationWrapper.obj
 0001:00071490       ??_E?$EPASupportMapPairLocalImpl@VTriangleV@Gu@physx@@VBoxV@23@@Gu@physx@@UAEPAXI@Z 10072490 f i GuEPAPenetrationWrapper.obj
 0001:00071490       ??_G?$EPASupportMapPairLocalImpl@VTriangleV@Gu@physx@@VBoxV@23@@Gu@physx@@UAEPAXI@Z 10072490 f i GuEPAPenetrationWrapper.obj
 0001:000714d0       ??_E?$EPASupportMapPairLocalImpl@VTriangleV@Gu@physx@@VConvexHullV@23@@Gu@physx@@UAEPAXI@Z 100724d0 f i GuEPAPenetrationWrapper.obj
 0001:000714d0       ??_G?$EPASupportMapPairLocalImpl@VTriangleV@Gu@physx@@VConvexHullV@23@@Gu@physx@@UAEPAXI@Z 100724d0 f i GuEPAPenetrationWrapper.obj
 0001:00071510       ??_G?$EPASupportMapPairRelativeImpl@VBoxV@Gu@physx@@V123@@Gu@physx@@UAEPAXI@Z 10072510 f i GuEPAPenetrationWrapper.obj
 0001:00071510       ??_E?$EPASupportMapPairRelativeImpl@VBoxV@Gu@physx@@V123@@Gu@physx@@UAEPAXI@Z 10072510 f i GuEPAPenetrationWrapper.obj
 0001:00071550       ??_G?$EPASupportMapPairRelativeImpl@VBoxV@Gu@physx@@VConvexHullV@23@@Gu@physx@@UAEPAXI@Z 10072550 f i GuEPAPenetrationWrapper.obj
 0001:00071550       ??_E?$EPASupportMapPairRelativeImpl@VBoxV@Gu@physx@@VConvexHullV@23@@Gu@physx@@UAEPAXI@Z 10072550 f i GuEPAPenetrationWrapper.obj
 0001:00071590       ??_G?$EPASupportMapPairRelativeImpl@VConvexHullNoScaleV@Gu@physx@@V123@@Gu@physx@@UAEPAXI@Z 10072590 f i GuEPAPenetrationWrapper.obj
 0001:00071590       ??_E?$EPASupportMapPairRelativeImpl@VConvexHullNoScaleV@Gu@physx@@V123@@Gu@physx@@UAEPAXI@Z 10072590 f i GuEPAPenetrationWrapper.obj
 0001:000715d0       ??_G?$EPASupportMapPairRelativeImpl@VConvexHullNoScaleV@Gu@physx@@VConvexHullV@23@@Gu@physx@@UAEPAXI@Z 100725d0 f i GuEPAPenetrationWrapper.obj
 0001:000715d0       ??_E?$EPASupportMapPairRelativeImpl@VConvexHullNoScaleV@Gu@physx@@VConvexHullV@23@@Gu@physx@@UAEPAXI@Z 100725d0 f i GuEPAPenetrationWrapper.obj
 0001:00071610       ??_G?$EPASupportMapPairRelativeImpl@VConvexHullV@Gu@physx@@V123@@Gu@physx@@UAEPAXI@Z 10072610 f i GuEPAPenetrationWrapper.obj
 0001:00071610       ??_E?$EPASupportMapPairRelativeImpl@VConvexHullV@Gu@physx@@V123@@Gu@physx@@UAEPAXI@Z 10072610 f i GuEPAPenetrationWrapper.obj
 0001:00071650       ??_E?$EPASupportMapPairRelativeImpl@VConvexHullV@Gu@physx@@VConvexHullNoScaleV@23@@Gu@physx@@UAEPAXI@Z 10072650 f i GuEPAPenetrationWrapper.obj
 0001:00071650       ??_G?$EPASupportMapPairRelativeImpl@VConvexHullV@Gu@physx@@VConvexHullNoScaleV@23@@Gu@physx@@UAEPAXI@Z 10072650 f i GuEPAPenetrationWrapper.obj
 0001:00071690       ??_GEPASupportMapPair@Gu@physx@@UAEPAXI@Z 10072690 f i GuEPAPenetrationWrapper.obj
 0001:00071690       ??_EEPASupportMapPair@Gu@physx@@UAEPAXI@Z 10072690 f i GuEPAPenetrationWrapper.obj
 0001:000716d0       ?BruteForceSearch@ConvexHullV@Gu@physx@@QBEIABT__m128@@@Z 100726d0 f i GuEPAPenetrationWrapper.obj
 0001:00071820       ?HillClimbing@ConvexHullV@Gu@physx@@QBEIABT__m128@@@Z 10072820 f i GuEPAPenetrationWrapper.obj
 0001:00071ae0       ?M33MulV3@aos@shdfnd@physx@@YA?AT__m128@@ABUMat33V@123@T4@@Z 10072ae0 f i GuEPAPenetrationWrapper.obj
 0001:00071c40       ?M33TrnspsMulV3@aos@shdfnd@physx@@YA?AT__m128@@ABUMat33V@123@T4@@Z 10072c40 f i GuEPAPenetrationWrapper.obj
 0001:00071d30       ?V3IsGrtr@aos@shdfnd@physx@@YA?AT__m128@@T4@0@Z 10072d30 f i GuEPAPenetrationWrapper.obj
 0001:00071d80       ?V3Transpose@aos@shdfnd@physx@@YAXAAT__m128@@00@Z 10072d80 f i GuEPAPenetrationWrapper.obj
 0001:00071ec0       ?doSupport@?$EPASupportMapPairLocalImpl@VCapsuleV@Gu@physx@@VBoxV@23@@Gu@physx@@UBEXABT__m128@@AAT4@11@Z 10072ec0 f i GuEPAPenetrationWrapper.obj
 0001:00071f70       ?doSupport@?$EPASupportMapPairLocalImpl@VCapsuleV@Gu@physx@@VConvexHullV@23@@Gu@physx@@UBEXABT__m128@@AAT4@11@Z 10072f70 f i GuEPAPenetrationWrapper.obj
 0001:00072020       ?doSupport@?$EPASupportMapPairLocalImpl@VTriangleV@Gu@physx@@VBoxV@23@@Gu@physx@@UBEXABT__m128@@AAT4@11@Z 10073020 f i GuEPAPenetrationWrapper.obj
 0001:000720d0       ?doSupport@?$EPASupportMapPairLocalImpl@VTriangleV@Gu@physx@@VConvexHullV@23@@Gu@physx@@UBEXABT__m128@@AAT4@11@Z 100730d0 f i GuEPAPenetrationWrapper.obj
 0001:00072180       ?doSupport@?$EPASupportMapPairRelativeImpl@VBoxV@Gu@physx@@V123@@Gu@physx@@UBEXABT__m128@@AAT4@11@Z 10073180 f i GuEPAPenetrationWrapper.obj
 0001:00072240       ?doSupport@?$EPASupportMapPairRelativeImpl@VBoxV@Gu@physx@@VConvexHullV@23@@Gu@physx@@UBEXABT__m128@@AAT4@11@Z 10073240 f i GuEPAPenetrationWrapper.obj
 0001:00072300       ?doSupport@?$EPASupportMapPairRelativeImpl@VConvexHullNoScaleV@Gu@physx@@V123@@Gu@physx@@UBEXABT__m128@@AAT4@11@Z 10073300 f i GuEPAPenetrationWrapper.obj
 0001:000723c0       ?doSupport@?$EPASupportMapPairRelativeImpl@VConvexHullNoScaleV@Gu@physx@@VConvexHullV@23@@Gu@physx@@UBEXABT__m128@@AAT4@11@Z 100733c0 f i GuEPAPenetrationWrapper.obj
 0001:00072480       ?doSupport@?$EPASupportMapPairRelativeImpl@VConvexHullV@Gu@physx@@V123@@Gu@physx@@UBEXABT__m128@@AAT4@11@Z 10073480 f i GuEPAPenetrationWrapper.obj
 0001:00072540       ?doSupport@?$EPASupportMapPairRelativeImpl@VConvexHullV@Gu@physx@@VConvexHullNoScaleV@23@@Gu@physx@@UBEXABT__m128@@AAT4@11@Z 10073540 f i GuEPAPenetrationWrapper.obj
 0001:00072600       ?doWarmStartSupport@?$EPASupportMapPairLocalImpl@VCapsuleV@Gu@physx@@VBoxV@23@@Gu@physx@@UBEXHHAAT__m128@@00@Z 10073600 f i GuEPAPenetrationWrapper.obj
 0001:000726a0       ?doWarmStartSupport@?$EPASupportMapPairLocalImpl@VCapsuleV@Gu@physx@@VConvexHullV@23@@Gu@physx@@UBEXHHAAT__m128@@00@Z 100736a0 f i GuEPAPenetrationWrapper.obj
 0001:00072740       ?doWarmStartSupport@?$EPASupportMapPairLocalImpl@VTriangleV@Gu@physx@@VBoxV@23@@Gu@physx@@UBEXHHAAT__m128@@00@Z 10073740 f i GuEPAPenetrationWrapper.obj
 0001:000727e0       ?doWarmStartSupport@?$EPASupportMapPairLocalImpl@VTriangleV@Gu@physx@@VConvexHullV@23@@Gu@physx@@UBEXHHAAT__m128@@00@Z 100737e0 f i GuEPAPenetrationWrapper.obj
 0001:00072880       ?doWarmStartSupport@?$EPASupportMapPairRelativeImpl@VBoxV@Gu@physx@@V123@@Gu@physx@@UBEXHHAAT__m128@@00@Z 10073880 f i GuEPAPenetrationWrapper.obj
 0001:00072930       ?doWarmStartSupport@?$EPASupportMapPairRelativeImpl@VBoxV@Gu@physx@@VConvexHullV@23@@Gu@physx@@UBEXHHAAT__m128@@00@Z 10073930 f i GuEPAPenetrationWrapper.obj
 0001:000729e0       ?doWarmStartSupport@?$EPASupportMapPairRelativeImpl@VConvexHullNoScaleV@Gu@physx@@V123@@Gu@physx@@UBEXHHAAT__m128@@00@Z 100739e0 f i GuEPAPenetrationWrapper.obj
 0001:00072a90       ?doWarmStartSupport@?$EPASupportMapPairRelativeImpl@VConvexHullNoScaleV@Gu@physx@@VConvexHullV@23@@Gu@physx@@UBEXHHAAT__m128@@00@Z 10073a90 f i GuEPAPenetrationWrapper.obj
 0001:00072b40       ?doWarmStartSupport@?$EPASupportMapPairRelativeImpl@VConvexHullV@Gu@physx@@V123@@Gu@physx@@UBEXHHAAT__m128@@00@Z 10073b40 f i GuEPAPenetrationWrapper.obj
 0001:00072bf0       ?doWarmStartSupport@?$EPASupportMapPairRelativeImpl@VConvexHullV@Gu@physx@@VConvexHullNoScaleV@23@@Gu@physx@@UBEXHHAAT__m128@@00@Z 10073bf0 f i GuEPAPenetrationWrapper.obj
 0001:00072ca0       ?getDir@?$EPASupportMapPairLocalImpl@VCapsuleV@Gu@physx@@VBoxV@23@@Gu@physx@@UBE?AT__m128@@XZ 10073ca0 f i GuEPAPenetrationWrapper.obj
 0001:00072d20       ?getDir@?$EPASupportMapPairLocalImpl@VCapsuleV@Gu@physx@@VConvexHullV@23@@Gu@physx@@UBE?AT__m128@@XZ 10073d20 f i GuEPAPenetrationWrapper.obj
 0001:00072da0       ?getDir@?$EPASupportMapPairLocalImpl@VTriangleV@Gu@physx@@VBoxV@23@@Gu@physx@@UBE?AT__m128@@XZ 10073da0 f i GuEPAPenetrationWrapper.obj
 0001:00072e20       ?getDir@?$EPASupportMapPairLocalImpl@VTriangleV@Gu@physx@@VConvexHullV@23@@Gu@physx@@UBE?AT__m128@@XZ 10073e20 f i GuEPAPenetrationWrapper.obj
 0001:00072ea0       ?getDir@?$EPASupportMapPairRelativeImpl@VBoxV@Gu@physx@@V123@@Gu@physx@@UBE?AT__m128@@XZ 10073ea0 f i GuEPAPenetrationWrapper.obj
 0001:00072ed0       ?getDir@?$EPASupportMapPairRelativeImpl@VBoxV@Gu@physx@@VConvexHullV@23@@Gu@physx@@UBE?AT__m128@@XZ 10073ed0 f i GuEPAPenetrationWrapper.obj
 0001:00072f00       ?getDir@?$EPASupportMapPairRelativeImpl@VConvexHullNoScaleV@Gu@physx@@V123@@Gu@physx@@UBE?AT__m128@@XZ 10073f00 f i GuEPAPenetrationWrapper.obj
 0001:00072f30       ?getDir@?$EPASupportMapPairRelativeImpl@VConvexHullNoScaleV@Gu@physx@@VConvexHullV@23@@Gu@physx@@UBE?AT__m128@@XZ 10073f30 f i GuEPAPenetrationWrapper.obj
 0001:00072f60       ?getDir@?$EPASupportMapPairRelativeImpl@VConvexHullV@Gu@physx@@V123@@Gu@physx@@UBE?AT__m128@@XZ 10073f60 f i GuEPAPenetrationWrapper.obj
 0001:00072f90       ?getDir@?$EPASupportMapPairRelativeImpl@VConvexHullV@Gu@physx@@VConvexHullNoScaleV@23@@Gu@physx@@UBE?AT__m128@@XZ 10073f90 f i GuEPAPenetrationWrapper.obj
 0001:00072fc0       ?rotateInv@PsMatTransformV@aos@shdfnd@physx@@QBE?AT__m128@@ABT5@@Z 10073fc0 f i GuEPAPenetrationWrapper.obj
 0001:00073020       ?supportLocal@BoxV@Gu@physx@@QBE?AT__m128@@ABT4@@Z 10074020 f i GuEPAPenetrationWrapper.obj
 0001:000730c0       ?supportLocal@CapsuleV@Gu@physx@@QBE?AT__m128@@ABT4@@Z 100740c0 f i GuEPAPenetrationWrapper.obj
 0001:00073180       ?supportLocal@ConvexHullNoScaleV@Gu@physx@@QBE?AT__m128@@ABT4@@Z 10074180 f i GuEPAPenetrationWrapper.obj
 0001:00073200       ?supportLocal@ConvexHullV@Gu@physx@@QBE?AT__m128@@ABT4@@Z 10074200 f i GuEPAPenetrationWrapper.obj
 0001:000732c0       ?supportLocal@TriangleV@Gu@physx@@QBE?AT__m128@@ABT4@@Z 100742c0 f i GuEPAPenetrationWrapper.obj
 0001:000734a0       ?supportPoint@BoxV@Gu@physx@@QBE?AT__m128@@H@Z 100744a0 f i GuEPAPenetrationWrapper.obj
 0001:00073530       ?supportPoint@CapsuleV@Gu@physx@@QBE?AT__m128@@H@Z 10074530 f i GuEPAPenetrationWrapper.obj
 0001:00073570       ?supportPoint@ConvexHullNoScaleV@Gu@physx@@QBE?AT__m128@@H@Z 10074570 f i GuEPAPenetrationWrapper.obj
 0001:000735d0       ?supportPoint@ConvexHullV@Gu@physx@@QBE?AT__m128@@H@Z 100745d0 f i GuEPAPenetrationWrapper.obj
 0001:00073650       ?supportPoint@TriangleV@Gu@physx@@QBE?AT__m128@@H@Z 10074650 f i GuEPAPenetrationWrapper.obj
 0001:00073680       ?supportRelative@BoxV@Gu@physx@@QBE?AT__m128@@ABT4@ABVPsMatTransformV@aos@shdfnd@3@@Z 10074680 f i GuEPAPenetrationWrapper.obj
 0001:000736f0       ?supportRelative@ConvexHullNoScaleV@Gu@physx@@QBE?AT__m128@@ABT4@ABVPsMatTransformV@aos@shdfnd@3@@Z 100746f0 f i GuEPAPenetrationWrapper.obj
 0001:00073760       ?supportRelative@ConvexHullV@Gu@physx@@QBE?AT__m128@@ABT4@ABVPsMatTransformV@aos@shdfnd@3@@Z 10074760 f i GuEPAPenetrationWrapper.obj
 0001:000737d0       ?supportVertexIndex@ConvexHullV@Gu@physx@@QBEIABT__m128@@@Z 100747d0 f i GuEPAPenetrationWrapper.obj
 0001:00073820       ?transform@PsMatTransformV@aos@shdfnd@physx@@QBE?AT__m128@@ABT5@@Z 10074820 f i GuEPAPenetrationWrapper.obj
 0001:000738a0       ?gjkRelativeFallback@Gu@physx@@YAIABVConvexV@12@0PAVSupportMap@12@1ABT__m128@@AAT5@333@Z 100748a0 f   GuGJKFallBack.obj
 0001:00073e50       ?doSupportMappingPair@Gu@physx@@YA?AT__m128@@ABVConvexV@12@0PAVSupportMap@12@1T3@PAT3@33IAAUSimplexStack@12@@Z 10074e50 f   GuGJKFallBack.obj
 0001:000744c0       ?GJKCPairDoSimplexTesselation@Gu@physx@@YA?AT__m128@@PIAT3@00ABT3@11AAIAAT3@3@Z 100754c0 f i GuGJKFallBack.obj
 0001:000746a0       ?V3Abs@aos@shdfnd@physx@@YA?AT__m128@@T4@@Z 100756a0 f i GuGJKFallBack.obj
 0001:00074700       ?V3Max@aos@shdfnd@physx@@YA?AT__m128@@T4@0@Z 10075700 f i GuGJKFallBack.obj
 0001:00074750       ?Vec3V_From_FloatV@aos@shdfnd@physx@@YA?AT__m128@@T4@@Z 10075750 f i GuGJKFallBack.obj
 0001:000747b0       ?Vec4V_From_FloatV@aos@shdfnd@physx@@YA?AT__m128@@T4@@Z 100757b0 f i GuGJKFallBack.obj
 0001:000747f0       ?pushSimplex@SimplexStack@Gu@physx@@QAEXPAT__m128@@00I@Z 100757f0 f i GuGJKFallBack.obj
 0001:00074950       ?GJKLocalPenetration@Gu@physx@@YAIABVCapsuleV@12@ABVBoxV@12@ABT__m128@@AAT5@333PIAE4AAE_N@Z 10075950 f   GuGJKPenetrationWrapper.obj
 0001:00074990       ?GJKLocalPenetration@Gu@physx@@YAIABVCapsuleV@12@ABVShrunkBoxV@12@ABT__m128@@AAT5@333PIAE4AAE_N@Z 10075990 f   GuGJKPenetrationWrapper.obj
 0001:000749d0       ?GJKLocalPenetration@Gu@physx@@YAIABVCapsuleV@12@ABVConvexHullV@12@ABT__m128@@AAT5@333PIAE4AAE_N@Z 100759d0 f   GuGJKPenetrationWrapper.obj
 0001:00074a10       ?GJKLocalPenetration@Gu@physx@@YAIABVCapsuleV@12@ABVConvexHullNoScaleV@12@ABT__m128@@AAT5@333PIAE4AAE_N@Z 10075a10 f   GuGJKPenetrationWrapper.obj
 0001:00074a50       ?GJKLocalPenetration@Gu@physx@@YAIABVCapsuleV@12@ABVShrunkConvexHullV@12@ABT__m128@@AAT5@333PIAE4AAE_N@Z 10075a50 f   GuGJKPenetrationWrapper.obj
 0001:00074a90       ?GJKLocalPenetration@Gu@physx@@YAIABVCapsuleV@12@ABVShrunkConvexHullNoScaleV@12@ABT__m128@@AAT5@333PIAE4AAE_N@Z 10075a90 f   GuGJKPenetrationWrapper.obj
 0001:00074ad0       ?GJKLocalPenetration@Gu@physx@@YAIABVTriangleV@12@ABVBoxV@12@ABT__m128@@AAT5@333PIAE4AAE_N@Z 10075ad0 f   GuGJKPenetrationWrapper.obj
 0001:00074b10       ?GJKLocalPenetration@Gu@physx@@YAIABVTriangleV@12@ABVConvexHullV@12@ABT__m128@@AAT5@333PIAE4AAE_N@Z 10075b10 f   GuGJKPenetrationWrapper.obj
 0001:00074b50       ?GJKLocalPenetration@Gu@physx@@YAIABVTriangleV@12@ABVConvexHullNoScaleV@12@ABT__m128@@AAT5@333PIAE4AAE_N@Z 10075b50 f   GuGJKPenetrationWrapper.obj
 0001:00074b90       ?GJKLocalPenetration@Gu@physx@@YAIABVTriangleV@12@0ABT__m128@@AAT4@222PIAE3AAE_N@Z 10075b90 f   GuGJKPenetrationWrapper.obj
 0001:00074bd0       ?GJKRelativePenetration@Gu@physx@@YAIABVBoxV@12@0ABVPsMatTransformV@aos@shdfnd@2@ABT__m128@@AAT7@333PIAE4AAE@Z 10075bd0 f   GuGJKPenetrationWrapper.obj
 0001:00074c10       ?GJKRelativePenetration@Gu@physx@@YAIABVBoxV@12@ABVConvexHullV@12@ABVPsMatTransformV@aos@shdfnd@2@ABT__m128@@AAT8@444PIAE5AAE@Z 10075c10 f   GuGJKPenetrationWrapper.obj
 0001:00074c50       ?GJKRelativePenetration@Gu@physx@@YAIABVShrunkBoxV@12@0ABVPsMatTransformV@aos@shdfnd@2@ABT__m128@@AAT7@333PIAE4AAE@Z 10075c50 f   GuGJKPenetrationWrapper.obj
 0001:00074c90       ?GJKRelativePenetration@Gu@physx@@YAIABVShrunkBoxV@12@ABVShrunkConvexHullV@12@ABVPsMatTransformV@aos@shdfnd@2@ABT__m128@@AAT8@444PIAE5AAE@Z 10075c90 f   GuGJKPenetrationWrapper.obj
 0001:00074cd0       ?GJKRelativePenetration@Gu@physx@@YAIABVShrunkBoxV@12@ABVShrunkConvexHullNoScaleV@12@ABVPsMatTransformV@aos@shdfnd@2@ABT__m128@@AAT8@444PIAE5AAE@Z 10075cd0 f   GuGJKPenetrationWrapper.obj
 0001:00074d10       ?GJKRelativePenetration@Gu@physx@@YAIABVConvexHullV@12@0ABVPsMatTransformV@aos@shdfnd@2@ABT__m128@@AAT7@333PIAE4AAE@Z 10075d10 f   GuGJKPenetrationWrapper.obj
 0001:00074d50       ?GJKRelativePenetration@Gu@physx@@YAIABVShrunkConvexHullV@12@0ABVPsMatTransformV@aos@shdfnd@2@ABT__m128@@AAT7@333PIAE4AAE@Z 10075d50 f   GuGJKPenetrationWrapper.obj
 0001:00074d90       ?GJKRelativePenetration@Gu@physx@@YAIABVShrunkConvexHullNoScaleV@12@0ABVPsMatTransformV@aos@shdfnd@2@ABT__m128@@AAT7@333PIAE4AAE@Z 10075d90 f   GuGJKPenetrationWrapper.obj
 0001:00074dd0       ?GJKRelativePenetration@Gu@physx@@YAIABVShrunkConvexHullNoScaleV@12@ABVShrunkConvexHullV@12@ABVPsMatTransformV@aos@shdfnd@2@ABT__m128@@AAT8@444PIAE5AAE@Z 10075dd0 f   GuGJKPenetrationWrapper.obj
 0001:00074e10       ?GJKRelativePenetration@Gu@physx@@YAIABVShrunkConvexHullV@12@ABVShrunkConvexHullNoScaleV@12@ABVPsMatTransformV@aos@shdfnd@2@ABT__m128@@AAT8@444PIAE5AAE@Z 10075e10 f   GuGJKPenetrationWrapper.obj
 0001:00074e50       ?GJKRelativePenetration@Gu@physx@@YAIABVTriangleV@12@ABVBoxV@12@ABVPsMatTransformV@aos@shdfnd@2@ABT__m128@@AAT8@444@Z 10075e50 f   GuGJKPenetrationWrapper.obj
 0001:00074e90       ?GJKRelativePenetration@Gu@physx@@YAIABVTriangleV@12@ABVCapsuleV@12@ABVPsMatTransformV@aos@shdfnd@2@ABT__m128@@AAT8@444@Z 10075e90 f   GuGJKPenetrationWrapper.obj
 0001:00074ed0       ?GJKRelativePenetration@Gu@physx@@YAIABVTriangleV@12@ABVConvexHullV@12@ABVPsMatTransformV@aos@shdfnd@2@ABT__m128@@AAT8@444@Z 10075ed0 f   GuGJKPenetrationWrapper.obj
 0001:00074f10       ?GJKRelativePenetration@Gu@physx@@YAIABVCapsuleV@12@0ABVPsMatTransformV@aos@shdfnd@2@ABT__m128@@AAT7@333@Z 10075f10 f   GuGJKPenetrationWrapper.obj
 0001:00074f50       ?GJKRelativePenetration@Gu@physx@@YAIABVCapsuleV@12@ABVBoxV@12@ABVPsMatTransformV@aos@shdfnd@2@ABT__m128@@AAT8@444@Z 10075f50 f   GuGJKPenetrationWrapper.obj
 0001:00074f90       ?GJKRelativePenetration@Gu@physx@@YAIABVCapsuleV@12@ABVConvexHullV@12@ABVPsMatTransformV@aos@shdfnd@2@ABT__m128@@AAT8@444@Z 10075f90 f   GuGJKPenetrationWrapper.obj
 0001:00074fd0       ?GJKRelativePenetration@Gu@physx@@YAIABVBoxV@12@0ABVPsMatTransformV@aos@shdfnd@2@ABT__m128@@AAT7@333@Z 10075fd0 f   GuGJKPenetrationWrapper.obj
 0001:00075010       ?GJKRelativePenetration@Gu@physx@@YAIABVBoxV@12@ABVConvexHullV@12@ABVPsMatTransformV@aos@shdfnd@2@ABT__m128@@AAT8@444@Z 10076010 f   GuGJKPenetrationWrapper.obj
 0001:00075050       ?GJKRelativePenetration@Gu@physx@@YAIABVConvexHullV@12@0ABVPsMatTransformV@aos@shdfnd@2@ABT__m128@@AAT7@333@Z 10076050 f   GuGJKPenetrationWrapper.obj
 0001:00075090       ?GJKRelativePenetration@Gu@physx@@YAIABVShrunkConvexHullV@12@0ABVPsMatTransformV@aos@shdfnd@2@ABT__m128@@AAT7@333@Z 10076090 f   GuGJKPenetrationWrapper.obj
 0001:000752b0       ??$gjkLocalPenetration@VCapsuleV@Gu@physx@@VBoxV@23@@Gu@physx@@YAIABVCapsuleV@01@ABVBoxV@01@ABT__m128@@AAT4@333PIAE4AAE_N@Z 100762b0 f i GuGJKPenetrationWrapper.obj
 0001:000765b0       ??$gjkLocalPenetration@VCapsuleV@Gu@physx@@VConvexHullNoScaleV@23@@Gu@physx@@YAIABVCapsuleV@01@ABVConvexHullNoScaleV@01@ABT__m128@@AAT4@333PIAE4AAE_N@Z 100775b0 f i GuGJKPenetrationWrapper.obj
 0001:000778b0       ??$gjkLocalPenetration@VCapsuleV@Gu@physx@@VConvexHullV@23@@Gu@physx@@YAIABVCapsuleV@01@ABVConvexHullV@01@ABT__m128@@AAT4@333PIAE4AAE_N@Z 100788b0 f i GuGJKPenetrationWrapper.obj
 0001:00078bb0       ??$gjkLocalPenetration@VCapsuleV@Gu@physx@@VShrunkBoxV@23@@Gu@physx@@YAIABVCapsuleV@01@ABVShrunkBoxV@01@ABT__m128@@AAT4@333PIAE4AAE_N@Z 10079bb0 f i GuGJKPenetrationWrapper.obj
 0001:00079eb0       ??$gjkLocalPenetration@VCapsuleV@Gu@physx@@VShrunkConvexHullNoScaleV@23@@Gu@physx@@YAIABVCapsuleV@01@ABVShrunkConvexHullNoScaleV@01@ABT__m128@@AAT4@333PIAE4AAE_N@Z 1007aeb0 f i GuGJKPenetrationWrapper.obj
 0001:0007b1b0       ??$gjkLocalPenetration@VCapsuleV@Gu@physx@@VShrunkConvexHullV@23@@Gu@physx@@YAIABVCapsuleV@01@ABVShrunkConvexHullV@01@ABT__m128@@AAT4@333PIAE4AAE_N@Z 1007c1b0 f i GuGJKPenetrationWrapper.obj
 0001:0007c4b0       ??$gjkLocalPenetration@VTriangleV@Gu@physx@@V123@@Gu@physx@@YAIABVTriangleV@01@0ABT__m128@@AAT3@222PIAE3AAE_N@Z 1007d4b0 f i GuGJKPenetrationWrapper.obj
 0001:0007d7b0       ??$gjkLocalPenetration@VTriangleV@Gu@physx@@VBoxV@23@@Gu@physx@@YAIABVTriangleV@01@ABVBoxV@01@ABT__m128@@AAT4@333PIAE4AAE_N@Z 1007e7b0 f i GuGJKPenetrationWrapper.obj
 0001:0007eab0       ??$gjkLocalPenetration@VTriangleV@Gu@physx@@VConvexHullNoScaleV@23@@Gu@physx@@YAIABVTriangleV@01@ABVConvexHullNoScaleV@01@ABT__m128@@AAT4@333PIAE4AAE_N@Z 1007fab0 f i GuGJKPenetrationWrapper.obj
 0001:0007fdb0       ??$gjkLocalPenetration@VTriangleV@Gu@physx@@VConvexHullV@23@@Gu@physx@@YAIABVTriangleV@01@ABVConvexHullV@01@ABT__m128@@AAT4@333PIAE4AAE_N@Z 10080db0 f i GuGJKPenetrationWrapper.obj
 0001:000810b0       ??$gjkRelativePenetration@VBoxV@Gu@physx@@V123@@Gu@physx@@YAIABVBoxV@01@0ABVPsMatTransformV@aos@shdfnd@1@ABT__m128@@AAT6@333PIAE4AAE@Z 100820b0 f i GuGJKPenetrationWrapper.obj
 0001:00081f90       ??$gjkRelativePenetration@VBoxV@Gu@physx@@VConvexHullV@23@@Gu@physx@@YAIABVBoxV@01@ABVConvexHullV@01@ABVPsMatTransformV@aos@shdfnd@1@ABT__m128@@AAT7@444PIAE5AAE@Z 10082f90 f i GuGJKPenetrationWrapper.obj
 0001:00082e70       ??$gjkRelativePenetration@VCapsuleV@Gu@physx@@V123@@Gu@physx@@YAIABVCapsuleV@01@0ABVPsMatTransformV@aos@shdfnd@1@ABT__m128@@AAT6@333PIAE4AAE@Z 10083e70 f i GuGJKPenetrationWrapper.obj
 0001:00083d50       ??$gjkRelativePenetration@VCapsuleV@Gu@physx@@VBoxV@23@@Gu@physx@@YAIABVCapsuleV@01@ABVBoxV@01@ABVPsMatTransformV@aos@shdfnd@1@ABT__m128@@AAT7@444PIAE5AAE@Z 10084d50 f i GuGJKPenetrationWrapper.obj
 0001:00084c30       ??$gjkRelativePenetration@VCapsuleV@Gu@physx@@VConvexHullV@23@@Gu@physx@@YAIABVCapsuleV@01@ABVConvexHullV@01@ABVPsMatTransformV@aos@shdfnd@1@ABT__m128@@AAT7@444PIAE5AAE@Z 10085c30 f i GuGJKPenetrationWrapper.obj
 0001:00085b10       ??$gjkRelativePenetration@VConvexHullV@Gu@physx@@V123@@Gu@physx@@YAIABVConvexHullV@01@0ABVPsMatTransformV@aos@shdfnd@1@ABT__m128@@AAT6@333PIAE4AAE@Z 10086b10 f i GuGJKPenetrationWrapper.obj
 0001:000869f0       ??$gjkRelativePenetration@VShrunkBoxV@Gu@physx@@V123@@Gu@physx@@YAIABVShrunkBoxV@01@0ABVPsMatTransformV@aos@shdfnd@1@ABT__m128@@AAT6@333PIAE4AAE@Z 100879f0 f i GuGJKPenetrationWrapper.obj
 0001:000878d0       ??$gjkRelativePenetration@VShrunkBoxV@Gu@physx@@VShrunkConvexHullNoScaleV@23@@Gu@physx@@YAIABVShrunkBoxV@01@ABVShrunkConvexHullNoScaleV@01@ABVPsMatTransformV@aos@shdfnd@1@ABT__m128@@AAT7@444PIAE5AAE@Z 100888d0 f i GuGJKPenetrationWrapper.obj
 0001:000887b0       ??$gjkRelativePenetration@VShrunkBoxV@Gu@physx@@VShrunkConvexHullV@23@@Gu@physx@@YAIABVShrunkBoxV@01@ABVShrunkConvexHullV@01@ABVPsMatTransformV@aos@shdfnd@1@ABT__m128@@AAT7@444PIAE5AAE@Z 100897b0 f i GuGJKPenetrationWrapper.obj
 0001:00089690       ??$gjkRelativePenetration@VShrunkConvexHullNoScaleV@Gu@physx@@V123@@Gu@physx@@YAIABVShrunkConvexHullNoScaleV@01@0ABVPsMatTransformV@aos@shdfnd@1@ABT__m128@@AAT6@333PIAE4AAE@Z 1008a690 f i GuGJKPenetrationWrapper.obj
 0001:0008a570       ??$gjkRelativePenetration@VShrunkConvexHullNoScaleV@Gu@physx@@VShrunkConvexHullV@23@@Gu@physx@@YAIABVShrunkConvexHullNoScaleV@01@ABVShrunkConvexHullV@01@ABVPsMatTransformV@aos@shdfnd@1@ABT__m128@@AAT7@444PIAE5AAE@Z 1008b570 f i GuGJKPenetrationWrapper.obj
 0001:0008b450       ??$gjkRelativePenetration@VShrunkConvexHullV@Gu@physx@@V123@@Gu@physx@@YAIABVShrunkConvexHullV@01@0ABVPsMatTransformV@aos@shdfnd@1@ABT__m128@@AAT6@333PIAE4AAE@Z 1008c450 f i GuGJKPenetrationWrapper.obj
 0001:0008c330       ??$gjkRelativePenetration@VShrunkConvexHullV@Gu@physx@@VShrunkConvexHullNoScaleV@23@@Gu@physx@@YAIABVShrunkConvexHullV@01@ABVShrunkConvexHullNoScaleV@01@ABVPsMatTransformV@aos@shdfnd@1@ABT__m128@@AAT7@444PIAE5AAE@Z 1008d330 f i GuGJKPenetrationWrapper.obj
 0001:0008d210       ??$gjkRelativePenetration@VTriangleV@Gu@physx@@VBoxV@23@@Gu@physx@@YAIABVTriangleV@01@ABVBoxV@01@ABVPsMatTransformV@aos@shdfnd@1@ABT__m128@@AAT7@444PIAE5AAE@Z 1008e210 f i GuGJKPenetrationWrapper.obj
 0001:0008e0f0       ??$gjkRelativePenetration@VTriangleV@Gu@physx@@VCapsuleV@23@@Gu@physx@@YAIABVTriangleV@01@ABVCapsuleV@01@ABVPsMatTransformV@aos@shdfnd@1@ABT__m128@@AAT7@444PIAE5AAE@Z 1008f0f0 f i GuGJKPenetrationWrapper.obj
 0001:0008efd0       ??$gjkRelativePenetration@VTriangleV@Gu@physx@@VConvexHullV@23@@Gu@physx@@YAIABVTriangleV@01@ABVConvexHullV@01@ABVPsMatTransformV@aos@shdfnd@1@ABT__m128@@AAT7@444PIAE5AAE@Z 1008ffd0 f i GuGJKPenetrationWrapper.obj
 0001:0008feb0       ?BGetBitMask@aos@shdfnd@physx@@YAIT__m128@@@Z 10090eb0 f i GuGJKPenetrationWrapper.obj
 0001:0008fef0       ?BOr@aos@shdfnd@physx@@YA?AT__m128@@T4@0@Z 10090ef0 f i GuGJKPenetrationWrapper.obj
 0001:0008ff40       ?FSqrt@aos@shdfnd@physx@@YA?AT__m128@@T4@@Z 10090f40 f i GuGJKPenetrationWrapper.obj
 0001:0008ff80       ?GJKCPairDoSimplex@Gu@physx@@YA?AT__m128@@PIAT3@00PIAH1ABT3@AAI@Z 10090f80 f i GuGJKPenetrationWrapper.obj
 0001:000900e0       ?I4Load@aos@shdfnd@physx@@YA?AT__m128@@H@Z 100910e0 f i GuGJKPenetrationWrapper.obj
 0001:00090120       ?PxI32_From_VecI32V@aos@shdfnd@physx@@YAXABT__m128@@PAH@Z 10091120 f i GuGJKPenetrationWrapper.obj
 0001:00090140       ?V3Length@aos@shdfnd@physx@@YA?AT__m128@@T4@@Z 10091140 f i GuGJKPenetrationWrapper.obj
 0001:000901a0       ?VecI32V_And@aos@shdfnd@physx@@YA?AT__m128@@ABT4@0@Z 100911a0 f i GuGJKPenetrationWrapper.obj
 0001:000901f0       ?VecI32V_From_BoolV@aos@shdfnd@physx@@YA?AT__m128@@ABT4@@Z 100911f0 f i GuGJKPenetrationWrapper.obj
 0001:00090200       ?VecI32V_One@aos@shdfnd@physx@@YA?AT__m128@@XZ 10091200 f i GuGJKPenetrationWrapper.obj
 0001:00090240       ?VecI32V_Sel@aos@shdfnd@physx@@YA?AT__m128@@T4@ABT4@1@Z 10091240 f i GuGJKPenetrationWrapper.obj
 0001:000902b0       ?VecI32V_Two@aos@shdfnd@physx@@YA?AT__m128@@XZ 100912b0 f i GuGJKPenetrationWrapper.obj
 0001:000902f0       ?VecI32V_Zero@aos@shdfnd@physx@@YA?AT__m128@@XZ 100912f0 f i GuGJKPenetrationWrapper.obj
 0001:00090330       ?assignWarmStartValue@Gu@physx@@YAXPIAE0AAEPIAH2I@Z 10091330 f i GuGJKPenetrationWrapper.obj
 0001:00090410       ?closestPtPointTriangle@Gu@physx@@YA?AT__m128@@PIAT3@PAT3@1PIAH2AAI@Z 10091410 f i GuGJKPenetrationWrapper.obj
 0001:00090840       ?getClosestPoint@Gu@physx@@YAXPIBT__m128@@00ABT3@AAT3@2I@Z 10091840 f i GuGJKPenetrationWrapper.obj
 0001:00090c70       ?getFacesByVertices8@ConvexHullData@Gu@physx@@QBEPBEXZ 10091c70 f i GuGJKPenetrationWrapper.obj
 0001:00090cd0       ?getIndex@BoxV@Gu@physx@@QBEXT__m128@@AAH@Z 10091cd0 f i GuGJKPenetrationWrapper.obj
 0001:00090d20       ?getIndex@CapsuleV@Gu@physx@@QBEXT__m128@@AAH@Z 10091d20 f i GuGJKPenetrationWrapper.obj
 0001:00090dc0       ?getMarginDif@ConvexV@Gu@physx@@QBE?AT__m128@@XZ 10091dc0 f i GuGJKPenetrationWrapper.obj
 0001:00090df0       ?intersectPlanes@Gu@physx@@YA?AT__m128@@ABT3@00000@Z 10091df0 f i GuGJKPenetrationWrapper.obj
 0001:00090f20       ?planeShift@ShrunkConvexHullNoScaleV@Gu@physx@@QBE?AT__m128@@IABT4@@Z 10091f20 f i GuGJKPenetrationWrapper.obj
 0001:00091250       ?planeShift@ShrunkConvexHullV@Gu@physx@@QBE?AT__m128@@IABT4@@Z 10092250 f i GuGJKPenetrationWrapper.obj
 0001:00091640       ?supportLocal@BoxV@Gu@physx@@QBE?AT__m128@@ABT4@AAT4@AAH@Z 10092640 f i GuGJKPenetrationWrapper.obj
 0001:00091720       ?supportLocal@CapsuleV@Gu@physx@@QBE?AT__m128@@ABT4@AAH@Z 10092720 f i GuGJKPenetrationWrapper.obj
 0001:00091810       ?supportLocal@CapsuleV@Gu@physx@@QBE?AT__m128@@ABT4@AAT4@AAH@Z 10092810 f i GuGJKPenetrationWrapper.obj
 0001:00091880       ?supportLocal@ConvexHullNoScaleV@Gu@physx@@QBE?AT__m128@@ABT4@AAT4@AAH@Z 10092880 f i GuGJKPenetrationWrapper.obj
 0001:00091920       ?supportLocal@ConvexHullV@Gu@physx@@QBE?AT__m128@@ABT4@AAT4@AAH@Z 10092920 f i GuGJKPenetrationWrapper.obj
 0001:00091a00       ?supportLocal@ShrunkBoxV@Gu@physx@@QBE?AT__m128@@ABT4@AAT4@AAH@Z 10092a00 f i GuGJKPenetrationWrapper.obj
 0001:00091b20       ?supportLocal@ShrunkConvexHullNoScaleV@Gu@physx@@QBE?AT__m128@@ABT4@AAT4@AAH@Z 10092b20 f i GuGJKPenetrationWrapper.obj
 0001:00091bb0       ?supportLocal@ShrunkConvexHullV@Gu@physx@@QBE?AT__m128@@ABT4@AAT4@AAH@Z 10092bb0 f i GuGJKPenetrationWrapper.obj
 0001:00091c60       ?supportLocal@TriangleV@Gu@physx@@QBE?AT__m128@@ABT4@AAH@Z 10092c60 f i GuGJKPenetrationWrapper.obj
 0001:00091f20       ?supportLocal@TriangleV@Gu@physx@@QBE?AT__m128@@ABT4@AAT4@AAH@Z 10092f20 f i GuGJKPenetrationWrapper.obj
 0001:00091f90       ?supportPoint@ShrunkBoxV@Gu@physx@@QBE?AT__m128@@H@Z 10092f90 f i GuGJKPenetrationWrapper.obj
 0001:00092050       ?supportPoint@ShrunkConvexHullNoScaleV@Gu@physx@@QBE?AT__m128@@H@Z 10093050 f i GuGJKPenetrationWrapper.obj
 0001:00092080       ?supportPoint@ShrunkConvexHullV@Gu@physx@@QBE?AT__m128@@H@Z 10093080 f i GuGJKPenetrationWrapper.obj
 0001:000920b0       ?supportRelative@BoxV@Gu@physx@@QBE?AT__m128@@ABT4@ABVPsMatTransformV@aos@shdfnd@3@AAT4@AAH@Z 100930b0 f i GuGJKPenetrationWrapper.obj
 0001:000921d0       ?supportRelative@CapsuleV@Gu@physx@@QBE?AT__m128@@ABT4@ABVPsMatTransformV@aos@shdfnd@3@AAH@Z 100931d0 f i GuGJKPenetrationWrapper.obj
 0001:00092250       ?supportRelative@CapsuleV@Gu@physx@@QBE?AT__m128@@ABT4@ABVPsMatTransformV@aos@shdfnd@3@AAT4@AAH@Z 10093250 f i GuGJKPenetrationWrapper.obj
 0001:000922c0       ?supportRelative@ConvexHullV@Gu@physx@@QBE?AT__m128@@ABT4@ABVPsMatTransformV@aos@shdfnd@3@AAT4@AAH@Z 100932c0 f i GuGJKPenetrationWrapper.obj
 0001:00092360       ?supportRelative@ShrunkBoxV@Gu@physx@@QBE?AT__m128@@ABT4@ABVPsMatTransformV@aos@shdfnd@3@AAT4@AAH@Z 10093360 f i GuGJKPenetrationWrapper.obj
 0001:000924c0       ?supportRelative@ShrunkConvexHullNoScaleV@Gu@physx@@QBE?AT__m128@@ABT4@ABVPsMatTransformV@aos@shdfnd@3@AAT4@AAH@Z 100934c0 f i GuGJKPenetrationWrapper.obj
 0001:00092560       ?supportRelative@ShrunkConvexHullV@Gu@physx@@QBE?AT__m128@@ABT4@ABVPsMatTransformV@aos@shdfnd@3@AAT4@AAH@Z 10093560 f i GuGJKPenetrationWrapper.obj
 0001:00092600       ?supportRelative@TriangleV@Gu@physx@@QBE?AT__m128@@ABT4@ABVPsMatTransformV@aos@shdfnd@3@AAT4@AAH@Z 10093600 f i GuGJKPenetrationWrapper.obj
 0001:00092690       ?to8@shdfnd@physx@@YAEH@Z  10093690 f i GuGJKPenetrationWrapper.obj
 0001:00092730       ?closestPtPointTetrahedron@Gu@physx@@YA?AT__m128@@PIAT3@00AAI@Z 10093730 f   GuGJKSimplex.obj
 0001:00092b40       ?closestPtPointTetrahedron@Gu@physx@@YA?AT__m128@@PIAT3@00PIAH1AAI@Z 10093b40 f   GuGJKSimplex.obj
 0001:00093930       ?BGetW@aos@shdfnd@physx@@YA?AT__m128@@T4@@Z 10094930 f i GuGJKSimplex.obj
 0001:00093980       ?BGetX@aos@shdfnd@physx@@YA?AT__m128@@T4@@Z 10094980 f i GuGJKSimplex.obj
 0001:000939d0       ?BGetY@aos@shdfnd@physx@@YA?AT__m128@@T4@@Z 100949d0 f i GuGJKSimplex.obj
 0001:00093a20       ?BGetZ@aos@shdfnd@physx@@YA?AT__m128@@T4@@Z 10094a20 f i GuGJKSimplex.obj
 0001:00093a70       ?PointOutsideOfPlane4@Gu@physx@@YA?AT__m128@@ABT3@000@Z 10094a70 f i GuGJKSimplex.obj
 0001:00093e90       ?V4Merge@aos@shdfnd@physx@@YA?AT__m128@@ABT4@000@Z 10094e90 f i GuGJKSimplex.obj
 0001:00093f20       ?closestPtPointSegmentTesselation@Gu@physx@@YA?AT__m128@@ABT3@00000AAIAAT3@2@Z 10094f20 f   GuGJKSimplexTesselation.obj
 0001:00094210       ?closestPtPointTetrahedronTesselation@Gu@physx@@YA?AT__m128@@PIAT3@00AAIAAT3@2@Z 10095210 f   GuGJKSimplexTesselation.obj
 0001:00094cf0       ?closestPtPointTriangleTesselation@Gu@physx@@YA?AT__m128@@PIAT3@00PIAIAAIAAT3@3@Z 10095cf0 f   GuGJKSimplexTesselation.obj
 0001:00097040       ?BAllTrue3_R@internalWindowsSimd@aos@shdfnd@physx@@YAIT__m128@@@Z 10098040 f i GuGJKSimplexTesselation.obj
 0001:000970a0       ?V3AllEq@aos@shdfnd@physx@@YAIT__m128@@0@Z 100980a0 f i GuGJKSimplexTesselation.obj
 0001:00097100       ?V4IsEq@aos@shdfnd@physx@@YA?AT__m128@@T4@0@Z 10098100 f i GuGJKSimplexTesselation.obj
 0001:00097150       ?closestPtPointSegment@Gu@physx@@YA?AT__m128@@ABT3@00000AAIAAT3@2@Z 10098150 f i GuGJKSimplexTesselation.obj
 0001:000974a0       ?closestPtPointSegment@Gu@physx@@YA?AT__m128@@ABT3@0@Z 100984a0 f i GuGJKSimplexTesselation.obj
 0001:000976a0       ?GJKRelative@Gu@physx@@YAIABVCapsuleV@12@ABVConvexHullV@12@ABVPsMatTransformV@aos@shdfnd@2@AAT__m128@@333@Z 100986a0 f   GuGJKWrapper.obj
 0001:000976d0       ?GJKRelative@Gu@physx@@YAIABVCapsuleV@12@ABVBoxV@12@ABVPsMatTransformV@aos@shdfnd@2@AAT__m128@@333@Z 100986d0 f   GuGJKWrapper.obj
 0001:00097700       ?GJKRelative@Gu@physx@@YAIABVBoxV@12@0ABVPsMatTransformV@aos@shdfnd@2@AAT__m128@@222@Z 10098700 f   GuGJKWrapper.obj
 0001:00097730       ?GJKRelative@Gu@physx@@YAIABVBoxV@12@ABVConvexHullV@12@ABVPsMatTransformV@aos@shdfnd@2@AAT__m128@@333@Z 10098730 f   GuGJKWrapper.obj
 0001:00097760       ?GJKRelative@Gu@physx@@YAIABVConvexHullV@12@0ABVPsMatTransformV@aos@shdfnd@2@AAT__m128@@222@Z 10098760 f   GuGJKWrapper.obj
 0001:00097790       ?GJKRelative@Gu@physx@@YAIABVTriangleV@12@ABVBoxV@12@ABVPsMatTransformV@aos@shdfnd@2@AAT__m128@@333@Z 10098790 f   GuGJKWrapper.obj
 0001:000977c0       ?GJKRelative@Gu@physx@@YAIABVTriangleV@12@ABVConvexHullV@12@ABVPsMatTransformV@aos@shdfnd@2@AAT__m128@@333@Z 100987c0 f   GuGJKWrapper.obj
 0001:000977f0       ?GJKLocal@Gu@physx@@YAIABVCapsuleV@12@ABVConvexHullV@12@AAT__m128@@222@Z 100987f0 f   GuGJKWrapper.obj
 0001:00097820       ?GJKLocal@Gu@physx@@YAIABVTriangleV@12@ABVBoxV@12@AAT__m128@@222@Z 10098820 f   GuGJKWrapper.obj
 0001:00097850       ?GJKLocal@Gu@physx@@YAIABVTriangleV@12@ABVConvexHullV@12@AAT__m128@@222@Z 10098850 f   GuGJKWrapper.obj
 0001:00097880       ?GJKRelativeTesselation@Gu@physx@@YAIABVBoxV@12@ABVConvexHullV@12@ABVPsMatTransformV@aos@shdfnd@2@ABT__m128@@AAT8@444@Z 10098880 f   GuGJKWrapper.obj
 0001:000978b0       ?GJKRelativeTesselation@Gu@physx@@YAIABVConvexHullV@12@0ABVPsMatTransformV@aos@shdfnd@2@ABT__m128@@AAT7@333@Z 100988b0 f   GuGJKWrapper.obj
 0001:000978e0       ?GJKLocalRayCast@Gu@physx@@YA_NAAVTriangleV@12@AAVCapsuleV@12@ABT__m128@@22AAT5@33M_N@Z 100988e0 f   GuGJKWrapper.obj
 0001:00097920       ?GJKLocalRayCast@Gu@physx@@YA_NAAVTriangleV@12@AAVBoxV@12@ABT__m128@@22AAT5@33M_N@Z 10098920 f   GuGJKWrapper.obj
 0001:00097960       ?GJKLocalRayCast@Gu@physx@@YA_NAAVTriangleV@12@AAVConvexHullV@12@ABT__m128@@22AAT5@33M_N@Z 10098960 f   GuGJKWrapper.obj
 0001:000979a0       ?GJKLocalRayCast@Gu@physx@@YA_NAAVCapsuleV@12@AAVBoxV@12@ABT__m128@@22AAT5@33M_N@Z 100989a0 f   GuGJKWrapper.obj
 0001:000979e0       ?GJKLocalRayCast@Gu@physx@@YA_NAAVCapsuleV@12@AAVConvexHullV@12@ABT__m128@@22AAT5@33M_N@Z 100989e0 f   GuGJKWrapper.obj
 0001:00097a20       ?GJKRelativeRayCast@Gu@physx@@YA_NAAVTriangleV@12@AAVBoxV@12@ABVPsMatTransformV@aos@shdfnd@2@ABT__m128@@33AAT8@44M_N@Z 10098a20 f   GuGJKWrapper.obj
 0001:00097a70       ?GJKRelativeRayCast@Gu@physx@@YA_NAAVTriangleV@12@AAVCapsuleV@12@ABVPsMatTransformV@aos@shdfnd@2@ABT__m128@@33AAT8@44M_N@Z 10098a70 f   GuGJKWrapper.obj
 0001:00097ac0       ?GJKRelativeRayCast@Gu@physx@@YA_NAAVTriangleV@12@AAVConvexHullV@12@ABVPsMatTransformV@aos@shdfnd@2@ABT__m128@@33AAT8@44M_N@Z 10098ac0 f   GuGJKWrapper.obj
 0001:00097b10       ?GJKRelativeRayCast@Gu@physx@@YA_NAAVCapsuleV@12@0ABVPsMatTransformV@aos@shdfnd@2@ABT__m128@@22AAT7@33M_N@Z 10098b10 f   GuGJKWrapper.obj
 0001:00097b60       ?GJKRelativeRayCast@Gu@physx@@YA_NAAVCapsuleV@12@AAVBoxV@12@ABVPsMatTransformV@aos@shdfnd@2@ABT__m128@@33AAT8@44M_N@Z 10098b60 f   GuGJKWrapper.obj
 0001:00097bb0       ?GJKRelativeRayCast@Gu@physx@@YA_NAAVCapsuleV@12@AAVConvexHullV@12@ABVPsMatTransformV@aos@shdfnd@2@ABT__m128@@33AAT8@44M_N@Z 10098bb0 f   GuGJKWrapper.obj
 0001:00097c00       ?GJKRelativeRayCast@Gu@physx@@YA_NAAVBoxV@12@0ABVPsMatTransformV@aos@shdfnd@2@ABT__m128@@22AAT7@33M_N@Z 10098c00 f   GuGJKWrapper.obj
 0001:00097c50       ?GJKRelativeRayCast@Gu@physx@@YA_NAAVBoxV@12@AAVConvexHullV@12@ABVPsMatTransformV@aos@shdfnd@2@ABT__m128@@33AAT8@44M_N@Z 10098c50 f   GuGJKWrapper.obj
 0001:00097ca0       ?GJKRelativeRayCast@Gu@physx@@YA_NAAVConvexHullV@12@0ABVPsMatTransformV@aos@shdfnd@2@ABT__m128@@22AAT7@33M_N@Z 10098ca0 f   GuGJKWrapper.obj
 0001:00097e80       ??$PX_UNUSED@T__m128@@@@YAXABT__m128@@@Z 10098e80 f i GuGJKWrapper.obj
 0001:00097e90       ??$_gjkLocalRayCast@VCapsuleV@Gu@physx@@VBoxV@23@@Gu@physx@@YA_NAAVCapsuleV@01@AAVBoxV@01@ABT__m128@@22AAT4@33M@Z 10098e90 f i GuGJKWrapper.obj
 0001:00098d90       ??$_gjkLocalRayCast@VCapsuleV@Gu@physx@@VConvexHullV@23@@Gu@physx@@YA_NAAVCapsuleV@01@AAVConvexHullV@01@ABT__m128@@22AAT4@33M@Z 10099d90 f i GuGJKWrapper.obj
 0001:00099c90       ??$_gjkLocalRayCast@VTriangleV@Gu@physx@@VBoxV@23@@Gu@physx@@YA_NAAVTriangleV@01@AAVBoxV@01@ABT__m128@@22AAT4@33M@Z 1009ac90 f i GuGJKWrapper.obj
 0001:0009ab90       ??$_gjkLocalRayCast@VTriangleV@Gu@physx@@VCapsuleV@23@@Gu@physx@@YA_NAAVTriangleV@01@AAVCapsuleV@01@ABT__m128@@22AAT4@33M@Z 1009bb90 f i GuGJKWrapper.obj
 0001:0009ba90       ??$_gjkLocalRayCast@VTriangleV@Gu@physx@@VConvexHullV@23@@Gu@physx@@YA_NAAVTriangleV@01@AAVConvexHullV@01@ABT__m128@@22AAT4@33M@Z 1009ca90 f i GuGJKWrapper.obj
 0001:0009c990       ??$_gjkRelativeRayCast@VBoxV@Gu@physx@@V123@@Gu@physx@@YA_NAAVBoxV@01@0ABVPsMatTransformV@aos@shdfnd@1@ABT__m128@@22AAT6@33M@Z 1009d990 f i GuGJKWrapper.obj
 0001:0009d850       ??$_gjkRelativeRayCast@VBoxV@Gu@physx@@VConvexHullV@23@@Gu@physx@@YA_NAAVBoxV@01@AAVConvexHullV@01@ABVPsMatTransformV@aos@shdfnd@1@ABT__m128@@33AAT7@44M@Z 1009e850 f i GuGJKWrapper.obj
 0001:0009e710       ??$_gjkRelativeRayCast@VCapsuleV@Gu@physx@@V123@@Gu@physx@@YA_NAAVCapsuleV@01@0ABVPsMatTransformV@aos@shdfnd@1@ABT__m128@@22AAT6@33M@Z 1009f710 f i GuGJKWrapper.obj
 0001:0009f5d0       ??$_gjkRelativeRayCast@VCapsuleV@Gu@physx@@VBoxV@23@@Gu@physx@@YA_NAAVCapsuleV@01@AAVBoxV@01@ABVPsMatTransformV@aos@shdfnd@1@ABT__m128@@33AAT7@44M@Z 100a05d0 f i GuGJKWrapper.obj
 0001:000a0490       ??$_gjkRelativeRayCast@VCapsuleV@Gu@physx@@VConvexHullV@23@@Gu@physx@@YA_NAAVCapsuleV@01@AAVConvexHullV@01@ABVPsMatTransformV@aos@shdfnd@1@ABT__m128@@33AAT7@44M@Z 100a1490 f i GuGJKWrapper.obj
 0001:000a1350       ??$_gjkRelativeRayCast@VConvexHullV@Gu@physx@@V123@@Gu@physx@@YA_NAAVConvexHullV@01@0ABVPsMatTransformV@aos@shdfnd@1@ABT__m128@@22AAT6@33M@Z 100a2350 f i GuGJKWrapper.obj
 0001:000a2210       ??$_gjkRelativeRayCast@VTriangleV@Gu@physx@@VBoxV@23@@Gu@physx@@YA_NAAVTriangleV@01@AAVBoxV@01@ABVPsMatTransformV@aos@shdfnd@1@ABT__m128@@33AAT7@44M@Z 100a3210 f i GuGJKWrapper.obj
 0001:000a30d0       ??$_gjkRelativeRayCast@VTriangleV@Gu@physx@@VCapsuleV@23@@Gu@physx@@YA_NAAVTriangleV@01@AAVCapsuleV@01@ABVPsMatTransformV@aos@shdfnd@1@ABT__m128@@33AAT7@44M@Z 100a40d0 f i GuGJKWrapper.obj
 0001:000a3f90       ??$_gjkRelativeRayCast@VTriangleV@Gu@physx@@VConvexHullV@23@@Gu@physx@@YA_NAAVTriangleV@01@AAVConvexHullV@01@ABVPsMatTransformV@aos@shdfnd@1@ABT__m128@@33AAT7@44M@Z 100a4f90 f i GuGJKWrapper.obj
 0001:000a4e50       ??$gjkLocal@VCapsuleV@Gu@physx@@VConvexHullV@23@@Gu@physx@@YAIABVCapsuleV@01@ABVConvexHullV@01@AAT__m128@@222@Z 100a5e50 f i GuGJKWrapper.obj
 0001:000a5580       ??$gjkLocal@VTriangleV@Gu@physx@@VBoxV@23@@Gu@physx@@YAIABVTriangleV@01@ABVBoxV@01@AAT__m128@@222@Z 100a6580 f i GuGJKWrapper.obj
 0001:000a5cb0       ??$gjkLocal@VTriangleV@Gu@physx@@VConvexHullV@23@@Gu@physx@@YAIABVTriangleV@01@ABVConvexHullV@01@AAT__m128@@222@Z 100a6cb0 f i GuGJKWrapper.obj
 0001:000a63e0       ??$gjkLocalPenetration@VTriangleV@Gu@physx@@VCapsuleV@23@@Gu@physx@@YAIABVTriangleV@01@ABVCapsuleV@01@ABT__m128@@AAT4@333PIAE4AAE_N@Z 100a73e0 f i GuGJKWrapper.obj
 0001:000a76e0       ??$gjkLocalPenetration@VTriangleV@Gu@physx@@VShrunkBoxV@23@@Gu@physx@@YAIABVTriangleV@01@ABVShrunkBoxV@01@ABT__m128@@AAT4@333PIAE4AAE_N@Z 100a86e0 f i GuGJKWrapper.obj
 0001:000a89e0       ??$gjkLocalPenetration@VTriangleV@Gu@physx@@VShrunkConvexHullV@23@@Gu@physx@@YAIABVTriangleV@01@ABVShrunkConvexHullV@01@ABT__m128@@AAT4@333PIAE4AAE_N@Z 100a99e0 f i GuGJKWrapper.obj
 0001:000a9ce0       ??$gjkLocalRayCast@VCapsuleV@Gu@physx@@VBoxV@23@V123@VShrunkBoxV@23@@Gu@physx@@YA_NAAVCapsuleV@01@AAVBoxV@01@ABT__m128@@22AAT4@33M_N@Z 100aace0 f i GuGJKWrapper.obj
 0001:000a9fa0       ??$gjkLocalRayCast@VCapsuleV@Gu@physx@@VConvexHullV@23@V123@VShrunkConvexHullV@23@@Gu@physx@@YA_NAAVCapsuleV@01@AAVConvexHullV@01@ABT__m128@@22AAT4@33M_N@Z 100aafa0 f i GuGJKWrapper.obj
 0001:000aa260       ??$gjkLocalRayCast@VTriangleV@Gu@physx@@VBoxV@23@V123@VShrunkBoxV@23@@Gu@physx@@YA_NAAVTriangleV@01@AAVBoxV@01@ABT__m128@@22AAT4@33M_N@Z 100ab260 f i GuGJKWrapper.obj
 0001:000aa520       ??$gjkLocalRayCast@VTriangleV@Gu@physx@@VCapsuleV@23@V123@V423@@Gu@physx@@YA_NAAVTriangleV@01@AAVCapsuleV@01@ABT__m128@@22AAT4@33M_N@Z 100ab520 f i GuGJKWrapper.obj
 0001:000aa7e0       ??$gjkLocalRayCast@VTriangleV@Gu@physx@@VConvexHullV@23@V123@VShrunkConvexHullV@23@@Gu@physx@@YA_NAAVTriangleV@01@AAVConvexHullV@01@ABT__m128@@22AAT4@33M_N@Z 100ab7e0 f i GuGJKWrapper.obj
 0001:000aaaa0       ??$gjkRelative@VBoxV@Gu@physx@@V123@@Gu@physx@@YAIABVBoxV@01@0ABVPsMatTransformV@aos@shdfnd@1@AAT__m128@@222@Z 100abaa0 f i GuGJKWrapper.obj
 0001:000ab190       ??$gjkRelative@VBoxV@Gu@physx@@VConvexHullV@23@@Gu@physx@@YAIABVBoxV@01@ABVConvexHullV@01@ABVPsMatTransformV@aos@shdfnd@1@AAT__m128@@333@Z 100ac190 f i GuGJKWrapper.obj
 0001:000ab880       ??$gjkRelative@VCapsuleV@Gu@physx@@VBoxV@23@@Gu@physx@@YAIABVCapsuleV@01@ABVBoxV@01@ABVPsMatTransformV@aos@shdfnd@1@AAT__m128@@333@Z 100ac880 f i GuGJKWrapper.obj
 0001:000abf70       ??$gjkRelative@VCapsuleV@Gu@physx@@VConvexHullV@23@@Gu@physx@@YAIABVCapsuleV@01@ABVConvexHullV@01@ABVPsMatTransformV@aos@shdfnd@1@AAT__m128@@333@Z 100acf70 f i GuGJKWrapper.obj
 0001:000ac660       ??$gjkRelative@VConvexHullV@Gu@physx@@V123@@Gu@physx@@YAIABVConvexHullV@01@0ABVPsMatTransformV@aos@shdfnd@1@AAT__m128@@222@Z 100ad660 f i GuGJKWrapper.obj
 0001:000acd50       ??$gjkRelative@VTriangleV@Gu@physx@@VBoxV@23@@Gu@physx@@YAIABVTriangleV@01@ABVBoxV@01@ABVPsMatTransformV@aos@shdfnd@1@AAT__m128@@333@Z 100add50 f i GuGJKWrapper.obj
 0001:000ad440       ??$gjkRelative@VTriangleV@Gu@physx@@VConvexHullV@23@@Gu@physx@@YAIABVTriangleV@01@ABVConvexHullV@01@ABVPsMatTransformV@aos@shdfnd@1@AAT__m128@@333@Z 100ae440 f i GuGJKWrapper.obj
 0001:000adb30       ??$gjkRelativePenetration@VCapsuleV@Gu@physx@@VShrunkBoxV@23@@Gu@physx@@YAIABVCapsuleV@01@ABVShrunkBoxV@01@ABVPsMatTransformV@aos@shdfnd@1@ABT__m128@@AAT7@444PIAE5AAE@Z 100aeb30 f i GuGJKWrapper.obj
 0001:000aea10       ??$gjkRelativePenetration@VCapsuleV@Gu@physx@@VShrunkConvexHullV@23@@Gu@physx@@YAIABVCapsuleV@01@ABVShrunkConvexHullV@01@ABVPsMatTransformV@aos@shdfnd@1@ABT__m128@@AAT7@444PIAE5AAE@Z 100afa10 f i GuGJKWrapper.obj
 0001:000af8f0       ??$gjkRelativePenetration@VTriangleV@Gu@physx@@VShrunkBoxV@23@@Gu@physx@@YAIABVTriangleV@01@ABVShrunkBoxV@01@ABVPsMatTransformV@aos@shdfnd@1@ABT__m128@@AAT7@444PIAE5AAE@Z 100b08f0 f i GuGJKWrapper.obj
 0001:000b07d0       ??$gjkRelativePenetration@VTriangleV@Gu@physx@@VShrunkConvexHullV@23@@Gu@physx@@YAIABVTriangleV@01@ABVShrunkConvexHullV@01@ABVPsMatTransformV@aos@shdfnd@1@ABT__m128@@AAT7@444PIAE5AAE@Z 100b17d0 f i GuGJKWrapper.obj
 0001:000b16b0       ??$gjkRelativeRayCast@VBoxV@Gu@physx@@V123@VShrunkBoxV@23@V423@@Gu@physx@@YA_NAAVBoxV@01@0ABVPsMatTransformV@aos@shdfnd@1@ABT__m128@@22AAT6@33M_N@Z 100b26b0 f i GuGJKWrapper.obj
 0001:000b1970       ??$gjkRelativeRayCast@VBoxV@Gu@physx@@VConvexHullV@23@VShrunkBoxV@23@VShrunkConvexHullV@23@@Gu@physx@@YA_NAAVBoxV@01@AAVConvexHullV@01@ABVPsMatTransformV@aos@shdfnd@1@ABT__m128@@33AAT7@44M_N@Z 100b2970 f i GuGJKWrapper.obj
 0001:000b1c30       ??$gjkRelativeRayCast@VCapsuleV@Gu@physx@@V123@V123@V123@@Gu@physx@@YA_NAAVCapsuleV@01@0ABVPsMatTransformV@aos@shdfnd@1@ABT__m128@@22AAT6@33M_N@Z 100b2c30 f i GuGJKWrapper.obj
 0001:000b1ef0       ??$gjkRelativeRayCast@VCapsuleV@Gu@physx@@VBoxV@23@V123@VShrunkBoxV@23@@Gu@physx@@YA_NAAVCapsuleV@01@AAVBoxV@01@ABVPsMatTransformV@aos@shdfnd@1@ABT__m128@@33AAT7@44M_N@Z 100b2ef0 f i GuGJKWrapper.obj
 0001:000b21b0       ??$gjkRelativeRayCast@VCapsuleV@Gu@physx@@VConvexHullV@23@V123@VShrunkConvexHullV@23@@Gu@physx@@YA_NAAVCapsuleV@01@AAVConvexHullV@01@ABVPsMatTransformV@aos@shdfnd@1@ABT__m128@@33AAT7@44M_N@Z 100b31b0 f i GuGJKWrapper.obj
 0001:000b2470       ??$gjkRelativeRayCast@VConvexHullV@Gu@physx@@V123@VShrunkConvexHullV@23@V423@@Gu@physx@@YA_NAAVConvexHullV@01@0ABVPsMatTransformV@aos@shdfnd@1@ABT__m128@@22AAT6@33M_N@Z 100b3470 f i GuGJKWrapper.obj
 0001:000b2730       ??$gjkRelativeRayCast@VTriangleV@Gu@physx@@VBoxV@23@V123@VShrunkBoxV@23@@Gu@physx@@YA_NAAVTriangleV@01@AAVBoxV@01@ABVPsMatTransformV@aos@shdfnd@1@ABT__m128@@33AAT7@44M_N@Z 100b3730 f i GuGJKWrapper.obj
 0001:000b29f0       ??$gjkRelativeRayCast@VTriangleV@Gu@physx@@VCapsuleV@23@V123@V423@@Gu@physx@@YA_NAAVTriangleV@01@AAVCapsuleV@01@ABVPsMatTransformV@aos@shdfnd@1@ABT__m128@@33AAT7@44M_N@Z 100b39f0 f i GuGJKWrapper.obj
 0001:000b2cb0       ??$gjkRelativeRayCast@VTriangleV@Gu@physx@@VConvexHullV@23@V123@VShrunkConvexHullV@23@@Gu@physx@@YA_NAAVTriangleV@01@AAVConvexHullV@01@ABVPsMatTransformV@aos@shdfnd@1@ABT__m128@@33AAT7@44M_N@Z 100b3cb0 f i GuGJKWrapper.obj
 0001:000b2f70       ??$gjkRelativeTesselation@VBoxV@Gu@physx@@VConvexHullV@23@@Gu@physx@@YAIABVBoxV@01@ABVConvexHullV@01@ABVPsMatTransformV@aos@shdfnd@1@ABT__m128@@AAT7@444@Z 100b3f70 f i GuGJKWrapper.obj
 0001:000b30d0       ??$gjkRelativeTesselation@VConvexHullV@Gu@physx@@V123@@Gu@physx@@YAIABVConvexHullV@01@0ABVPsMatTransformV@aos@shdfnd@1@ABT__m128@@AAT6@333@Z 100b40d0 f i GuGJKWrapper.obj
 0001:000b3230       ??0?$EPASupportMapPairLocalImpl@VTriangleV@Gu@physx@@VCapsuleV@23@@Gu@physx@@QAE@ABVTriangleV@12@ABVCapsuleV@12@@Z 100b4230 f i GuGJKWrapper.obj
 0001:000b3270       ??0?$EPASupportMapPairRelativeImpl@VCapsuleV@Gu@physx@@V123@@Gu@physx@@QAE@ABVCapsuleV@12@0ABVPsMatTransformV@aos@shdfnd@2@@Z 100b4270 f i GuGJKWrapper.obj
 0001:000b32c0       ??0?$EPASupportMapPairRelativeImpl@VCapsuleV@Gu@physx@@VBoxV@23@@Gu@physx@@QAE@ABVCapsuleV@12@ABVBoxV@12@ABVPsMatTransformV@aos@shdfnd@2@@Z 100b42c0 f i GuGJKWrapper.obj
 0001:000b3310       ??0?$EPASupportMapPairRelativeImpl@VCapsuleV@Gu@physx@@VConvexHullV@23@@Gu@physx@@QAE@ABVCapsuleV@12@ABVConvexHullV@12@ABVPsMatTransformV@aos@shdfnd@2@@Z 100b4310 f i GuGJKWrapper.obj
 0001:000b3360       ??0?$EPASupportMapPairRelativeImpl@VTriangleV@Gu@physx@@VBoxV@23@@Gu@physx@@QAE@ABVTriangleV@12@ABVBoxV@12@ABVPsMatTransformV@aos@shdfnd@2@@Z 100b4360 f i GuGJKWrapper.obj
 0001:000b33b0       ??0?$EPASupportMapPairRelativeImpl@VTriangleV@Gu@physx@@VCapsuleV@23@@Gu@physx@@QAE@ABVTriangleV@12@ABVCapsuleV@12@ABVPsMatTransformV@aos@shdfnd@2@@Z 100b43b0 f i GuGJKWrapper.obj
 0001:000b3400       ??0?$EPASupportMapPairRelativeImpl@VTriangleV@Gu@physx@@VConvexHullV@23@@Gu@physx@@QAE@ABVTriangleV@12@ABVConvexHullV@12@ABVPsMatTransformV@aos@shdfnd@2@@Z 100b4400 f i GuGJKWrapper.obj
 0001:000b3450       ??0?$SupportMapLocalImpl@VConvexHullV@Gu@physx@@@Gu@physx@@QAE@ABVConvexHullV@12@@Z 100b4450 f i GuGJKWrapper.obj
 0001:000b3490       ??0?$SupportMapRelativeImpl@VBoxV@Gu@physx@@@Gu@physx@@QAE@ABVBoxV@12@ABVPsMatTransformV@aos@shdfnd@2@@Z 100b4490 f i GuGJKWrapper.obj
 0001:000b34d0       ??0?$SupportMapRelativeImpl@VConvexHullV@Gu@physx@@@Gu@physx@@QAE@ABVConvexHullV@12@ABVPsMatTransformV@aos@shdfnd@2@@Z 100b44d0 f i GuGJKWrapper.obj
 0001:000b3510       ??0SIMDGuard@shdfnd@physx@@QAE@XZ 100b4510 f i GuGJKWrapper.obj
 0001:000b3540       ??0SupportMap@Gu@physx@@QAE@XZ 100b4540 f i GuGJKWrapper.obj
 0001:000b3560       ??1?$EPASupportMapPairLocalImpl@VTriangleV@Gu@physx@@VCapsuleV@23@@Gu@physx@@UAE@XZ 100b4560 f i GuGJKWrapper.obj
 0001:000b3580       ??1?$EPASupportMapPairRelativeImpl@VCapsuleV@Gu@physx@@V123@@Gu@physx@@UAE@XZ 100b4580 f i GuGJKWrapper.obj
 0001:000b35a0       ??1?$EPASupportMapPairRelativeImpl@VCapsuleV@Gu@physx@@VBoxV@23@@Gu@physx@@UAE@XZ 100b45a0 f i GuGJKWrapper.obj
 0001:000b35c0       ??1?$EPASupportMapPairRelativeImpl@VCapsuleV@Gu@physx@@VConvexHullV@23@@Gu@physx@@UAE@XZ 100b45c0 f i GuGJKWrapper.obj
 0001:000b35e0       ??1?$EPASupportMapPairRelativeImpl@VTriangleV@Gu@physx@@VBoxV@23@@Gu@physx@@UAE@XZ 100b45e0 f i GuGJKWrapper.obj
 0001:000b3600       ??1?$EPASupportMapPairRelativeImpl@VTriangleV@Gu@physx@@VCapsuleV@23@@Gu@physx@@UAE@XZ 100b4600 f i GuGJKWrapper.obj
 0001:000b3620       ??1?$EPASupportMapPairRelativeImpl@VTriangleV@Gu@physx@@VConvexHullV@23@@Gu@physx@@UAE@XZ 100b4620 f i GuGJKWrapper.obj
 0001:000b3640       ??1?$SupportMapLocalImpl@VConvexHullV@Gu@physx@@@Gu@physx@@UAE@XZ 100b4640 f i GuGJKWrapper.obj
 0001:000b3660       ??1?$SupportMapRelativeImpl@VBoxV@Gu@physx@@@Gu@physx@@UAE@XZ 100b4660 f i GuGJKWrapper.obj
 0001:000b3680       ??1?$SupportMapRelativeImpl@VConvexHullV@Gu@physx@@@Gu@physx@@UAE@XZ 100b4680 f i GuGJKWrapper.obj
 0001:000b36a0       ??1SIMDGuard@shdfnd@physx@@QAE@XZ 100b46a0 f i GuGJKWrapper.obj
 0001:000b36d0       ??1SupportMap@Gu@physx@@UAE@XZ 100b46d0 f i GuGJKWrapper.obj
 0001:000b36f0       ??_E?$EPASupportMapPairLocalImpl@VTriangleV@Gu@physx@@VCapsuleV@23@@Gu@physx@@UAEPAXI@Z 100b46f0 f i GuGJKWrapper.obj
 0001:000b36f0       ??_G?$EPASupportMapPairLocalImpl@VTriangleV@Gu@physx@@VCapsuleV@23@@Gu@physx@@UAEPAXI@Z 100b46f0 f i GuGJKWrapper.obj
 0001:000b3730       ??_G?$EPASupportMapPairRelativeImpl@VCapsuleV@Gu@physx@@V123@@Gu@physx@@UAEPAXI@Z 100b4730 f i GuGJKWrapper.obj
 0001:000b3730       ??_E?$EPASupportMapPairRelativeImpl@VCapsuleV@Gu@physx@@V123@@Gu@physx@@UAEPAXI@Z 100b4730 f i GuGJKWrapper.obj
 0001:000b3770       ??_E?$EPASupportMapPairRelativeImpl@VCapsuleV@Gu@physx@@VBoxV@23@@Gu@physx@@UAEPAXI@Z 100b4770 f i GuGJKWrapper.obj
 0001:000b3770       ??_G?$EPASupportMapPairRelativeImpl@VCapsuleV@Gu@physx@@VBoxV@23@@Gu@physx@@UAEPAXI@Z 100b4770 f i GuGJKWrapper.obj
 0001:000b37b0       ??_E?$EPASupportMapPairRelativeImpl@VCapsuleV@Gu@physx@@VConvexHullV@23@@Gu@physx@@UAEPAXI@Z 100b47b0 f i GuGJKWrapper.obj
 0001:000b37b0       ??_G?$EPASupportMapPairRelativeImpl@VCapsuleV@Gu@physx@@VConvexHullV@23@@Gu@physx@@UAEPAXI@Z 100b47b0 f i GuGJKWrapper.obj
 0001:000b37f0       ??_E?$EPASupportMapPairRelativeImpl@VTriangleV@Gu@physx@@VBoxV@23@@Gu@physx@@UAEPAXI@Z 100b47f0 f i GuGJKWrapper.obj
 0001:000b37f0       ??_G?$EPASupportMapPairRelativeImpl@VTriangleV@Gu@physx@@VBoxV@23@@Gu@physx@@UAEPAXI@Z 100b47f0 f i GuGJKWrapper.obj
 0001:000b3830       ??_G?$EPASupportMapPairRelativeImpl@VTriangleV@Gu@physx@@VCapsuleV@23@@Gu@physx@@UAEPAXI@Z 100b4830 f i GuGJKWrapper.obj
 0001:000b3830       ??_E?$EPASupportMapPairRelativeImpl@VTriangleV@Gu@physx@@VCapsuleV@23@@Gu@physx@@UAEPAXI@Z 100b4830 f i GuGJKWrapper.obj
 0001:000b3870       ??_G?$EPASupportMapPairRelativeImpl@VTriangleV@Gu@physx@@VConvexHullV@23@@Gu@physx@@UAEPAXI@Z 100b4870 f i GuGJKWrapper.obj
 0001:000b3870       ??_E?$EPASupportMapPairRelativeImpl@VTriangleV@Gu@physx@@VConvexHullV@23@@Gu@physx@@UAEPAXI@Z 100b4870 f i GuGJKWrapper.obj
 0001:000b38b0       ??_E?$SupportMapLocalImpl@VConvexHullV@Gu@physx@@@Gu@physx@@UAEPAXI@Z 100b48b0 f i GuGJKWrapper.obj
 0001:000b38b0       ??_G?$SupportMapLocalImpl@VConvexHullV@Gu@physx@@@Gu@physx@@UAEPAXI@Z 100b48b0 f i GuGJKWrapper.obj
 0001:000b38f0       ??_E?$SupportMapRelativeImpl@VBoxV@Gu@physx@@@Gu@physx@@UAEPAXI@Z 100b48f0 f i GuGJKWrapper.obj
 0001:000b38f0       ??_G?$SupportMapRelativeImpl@VBoxV@Gu@physx@@@Gu@physx@@UAEPAXI@Z 100b48f0 f i GuGJKWrapper.obj
 0001:000b3930       ??_E?$SupportMapRelativeImpl@VConvexHullV@Gu@physx@@@Gu@physx@@UAEPAXI@Z 100b4930 f i GuGJKWrapper.obj
 0001:000b3930       ??_G?$SupportMapRelativeImpl@VConvexHullV@Gu@physx@@@Gu@physx@@UAEPAXI@Z 100b4930 f i GuGJKWrapper.obj
 0001:000b3970       ??_GSupportMap@Gu@physx@@UAEPAXI@Z 100b4970 f i GuGJKWrapper.obj
 0001:000b3970       ??_ESupportMap@Gu@physx@@UAEPAXI@Z 100b4970 f i GuGJKWrapper.obj
 0001:000b39b0       ?FAllEq@aos@shdfnd@physx@@YAIT__m128@@0@Z 100b49b0 f i GuGJKWrapper.obj
 0001:000b3a00       ?doSupport@?$EPASupportMapPairLocalImpl@VTriangleV@Gu@physx@@VCapsuleV@23@@Gu@physx@@UBEXABT__m128@@AAT4@11@Z 100b4a00 f i GuGJKWrapper.obj
 0001:000b3ab0       ?doSupport@?$EPASupportMapPairRelativeImpl@VCapsuleV@Gu@physx@@V123@@Gu@physx@@UBEXABT__m128@@AAT4@11@Z 100b4ab0 f i GuGJKWrapper.obj
 0001:000b3b70       ?doSupport@?$EPASupportMapPairRelativeImpl@VCapsuleV@Gu@physx@@VBoxV@23@@Gu@physx@@UBEXABT__m128@@AAT4@11@Z 100b4b70 f i GuGJKWrapper.obj
 0001:000b3c30       ?doSupport@?$EPASupportMapPairRelativeImpl@VCapsuleV@Gu@physx@@VConvexHullV@23@@Gu@physx@@UBEXABT__m128@@AAT4@11@Z 100b4c30 f i GuGJKWrapper.obj
 0001:000b3cf0       ?doSupport@?$EPASupportMapPairRelativeImpl@VTriangleV@Gu@physx@@VBoxV@23@@Gu@physx@@UBEXABT__m128@@AAT4@11@Z 100b4cf0 f i GuGJKWrapper.obj
 0001:000b3db0       ?doSupport@?$EPASupportMapPairRelativeImpl@VTriangleV@Gu@physx@@VCapsuleV@23@@Gu@physx@@UBEXABT__m128@@AAT4@11@Z 100b4db0 f i GuGJKWrapper.obj
 0001:000b3e70       ?doSupport@?$EPASupportMapPairRelativeImpl@VTriangleV@Gu@physx@@VConvexHullV@23@@Gu@physx@@UBEXABT__m128@@AAT4@11@Z 100b4e70 f i GuGJKWrapper.obj
 0001:000b3f30       ?doSupport@?$SupportMapLocalImpl@VConvexHullV@Gu@physx@@@Gu@physx@@UBE?AT__m128@@ABT4@@Z 100b4f30 f i GuGJKWrapper.obj
 0001:000b3f60       ?doSupport@?$SupportMapRelativeImpl@VBoxV@Gu@physx@@@Gu@physx@@UBE?AT__m128@@ABT4@@Z 100b4f60 f i GuGJKWrapper.obj
 0001:000b3fa0       ?doSupport@?$SupportMapRelativeImpl@VConvexHullV@Gu@physx@@@Gu@physx@@UBE?AT__m128@@ABT4@@Z 100b4fa0 f i GuGJKWrapper.obj
 0001:000b3fe0       ?doSupportSweep@?$SupportMapLocalImpl@VConvexHullV@Gu@physx@@@Gu@physx@@UBE?AT__m128@@ABT4@@Z 100b4fe0 f i GuGJKWrapper.obj
 0001:000b4010       ?doSupportSweep@?$SupportMapRelativeImpl@VBoxV@Gu@physx@@@Gu@physx@@UBE?AT__m128@@ABT4@@Z 100b5010 f i GuGJKWrapper.obj
 0001:000b4050       ?doSupportSweep@?$SupportMapRelativeImpl@VConvexHullV@Gu@physx@@@Gu@physx@@UBE?AT__m128@@ABT4@@Z 100b5050 f i GuGJKWrapper.obj
 0001:000b4090       ?doWarmStartSupport@?$EPASupportMapPairLocalImpl@VTriangleV@Gu@physx@@VCapsuleV@23@@Gu@physx@@UBEXHHAAT__m128@@00@Z 100b5090 f i GuGJKWrapper.obj
 0001:000b4130       ?doWarmStartSupport@?$EPASupportMapPairRelativeImpl@VCapsuleV@Gu@physx@@V123@@Gu@physx@@UBEXHHAAT__m128@@00@Z 100b5130 f i GuGJKWrapper.obj
 0001:000b41e0       ?doWarmStartSupport@?$EPASupportMapPairRelativeImpl@VCapsuleV@Gu@physx@@VBoxV@23@@Gu@physx@@UBEXHHAAT__m128@@00@Z 100b51e0 f i GuGJKWrapper.obj
 0001:000b4290       ?doWarmStartSupport@?$EPASupportMapPairRelativeImpl@VCapsuleV@Gu@physx@@VConvexHullV@23@@Gu@physx@@UBEXHHAAT__m128@@00@Z 100b5290 f i GuGJKWrapper.obj
 0001:000b4340       ?doWarmStartSupport@?$EPASupportMapPairRelativeImpl@VTriangleV@Gu@physx@@VBoxV@23@@Gu@physx@@UBEXHHAAT__m128@@00@Z 100b5340 f i GuGJKWrapper.obj
 0001:000b43f0       ?doWarmStartSupport@?$EPASupportMapPairRelativeImpl@VTriangleV@Gu@physx@@VCapsuleV@23@@Gu@physx@@UBEXHHAAT__m128@@00@Z 100b53f0 f i GuGJKWrapper.obj
 0001:000b44a0       ?doWarmStartSupport@?$EPASupportMapPairRelativeImpl@VTriangleV@Gu@physx@@VConvexHullV@23@@Gu@physx@@UBEXHHAAT__m128@@00@Z 100b54a0 f i GuGJKWrapper.obj
 0001:000b4550       ?doWarmStartSupport@?$SupportMapLocalImpl@VConvexHullV@Gu@physx@@@Gu@physx@@UBEXHAAT__m128@@@Z 100b5550 f i GuGJKWrapper.obj
 0001:000b45b0       ?doWarmStartSupport@?$SupportMapRelativeImpl@VBoxV@Gu@physx@@@Gu@physx@@UBEXHAAT__m128@@@Z 100b55b0 f i GuGJKWrapper.obj
 0001:000b4620       ?doWarmStartSupport@?$SupportMapRelativeImpl@VConvexHullV@Gu@physx@@@Gu@physx@@UBEXHAAT__m128@@@Z 100b5620 f i GuGJKWrapper.obj
 0001:000b4690       ?getDir@?$EPASupportMapPairLocalImpl@VTriangleV@Gu@physx@@VCapsuleV@23@@Gu@physx@@UBE?AT__m128@@XZ 100b5690 f i GuGJKWrapper.obj
 0001:000b4710       ?getDir@?$EPASupportMapPairRelativeImpl@VCapsuleV@Gu@physx@@V123@@Gu@physx@@UBE?AT__m128@@XZ 100b5710 f i GuGJKWrapper.obj
 0001:000b4740       ?getDir@?$EPASupportMapPairRelativeImpl@VCapsuleV@Gu@physx@@VBoxV@23@@Gu@physx@@UBE?AT__m128@@XZ 100b5740 f i GuGJKWrapper.obj
 0001:000b4770       ?getDir@?$EPASupportMapPairRelativeImpl@VCapsuleV@Gu@physx@@VConvexHullV@23@@Gu@physx@@UBE?AT__m128@@XZ 100b5770 f i GuGJKWrapper.obj
 0001:000b47a0       ?getDir@?$EPASupportMapPairRelativeImpl@VTriangleV@Gu@physx@@VBoxV@23@@Gu@physx@@UBE?AT__m128@@XZ 100b57a0 f i GuGJKWrapper.obj
 0001:000b47d0       ?getDir@?$EPASupportMapPairRelativeImpl@VTriangleV@Gu@physx@@VCapsuleV@23@@Gu@physx@@UBE?AT__m128@@XZ 100b57d0 f i GuGJKWrapper.obj
 0001:000b4800       ?getDir@?$EPASupportMapPairRelativeImpl@VTriangleV@Gu@physx@@VConvexHullV@23@@Gu@physx@@UBE?AT__m128@@XZ 100b5800 f i GuGJKWrapper.obj
 0001:000b4830       ?getSweepContactEps@Gu@physx@@YA?AT__m128@@ABT3@0@Z 100b5830 f i GuGJKWrapper.obj
 0001:000b48d0       ?getSweepMargin@CapsuleV@Gu@physx@@QBE?AT__m128@@XZ 100b58d0 f i GuGJKWrapper.obj
 0001:000b4920       ?getSweepMargin@ConvexV@Gu@physx@@QBE?AT__m128@@XZ 100b5920 f i GuGJKWrapper.obj
 0001:000b4950       ?getSweepMargin@TriangleV@Gu@physx@@QBE?AT__m128@@XZ 100b5950 f i GuGJKWrapper.obj
 0001:000b49a0       ?supportRelative@CapsuleV@Gu@physx@@QBE?AT__m128@@ABT4@ABVPsMatTransformV@aos@shdfnd@3@@Z 100b59a0 f i GuGJKWrapper.obj
 0001:000b4a10       ?supportRelative@TriangleV@Gu@physx@@QBE?AT__m128@@ABT4@ABVPsMatTransformV@aos@shdfnd@3@@Z 100b5a10 f i GuGJKWrapper.obj
 0001:000b4a80       ?supportSweepLocal@BoxV@Gu@physx@@QBE?AT__m128@@ABT4@@Z 100b5a80 f i GuGJKWrapper.obj
 0001:000b4ab0       ?supportSweepLocal@CapsuleV@Gu@physx@@QBE?AT__m128@@ABT4@@Z 100b5ab0 f i GuGJKWrapper.obj
 0001:000b4ae0       ?supportSweepLocal@ConvexHullV@Gu@physx@@QBE?AT__m128@@ABT4@@Z 100b5ae0 f i GuGJKWrapper.obj
 0001:000b4b10       ?supportSweepLocal@TriangleV@Gu@physx@@QBE?AT__m128@@ABT4@@Z 100b5b10 f i GuGJKWrapper.obj
 0001:000b4b40       ?supportSweepRelative@BoxV@Gu@physx@@QBE?AT__m128@@ABT4@ABVPsMatTransformV@aos@shdfnd@3@@Z 100b5b40 f i GuGJKWrapper.obj
 0001:000b4b70       ?supportSweepRelative@CapsuleV@Gu@physx@@QBE?AT__m128@@ABT4@ABVPsMatTransformV@aos@shdfnd@3@@Z 100b5b70 f i GuGJKWrapper.obj
 0001:000b4ba0       ?supportSweepRelative@ConvexHullV@Gu@physx@@QBE?AT__m128@@ABT4@ABVPsMatTransformV@aos@shdfnd@3@@Z 100b5ba0 f i GuGJKWrapper.obj
 0001:000b4bd0       ?supportSweepRelative@TriangleV@Gu@physx@@QBE?AT__m128@@ABT4@ABVPsMatTransformV@aos@shdfnd@3@@Z 100b5bd0 f i GuGJKWrapper.obj
 0001:000b4c00       ?create@BoxV@Gu@physx@@QAEXABVCapsuleV@23@@Z 100b5c00 f   GuVecBox.obj
 0001:000b4d40       ?isInside@BoxV@Gu@physx@@QBEIABV123@@Z 100b5d40 f   GuVecBox.obj
 0001:000b5120       ??0BoxV@Gu@physx@@QAE@ABT__m128@@0ABUMat33V@aos@shdfnd@2@0@Z 100b6120 f i GuVecBox.obj
 0001:000b5180       ??0ConvexV@Gu@physx@@QAE@IABT__m128@@0@Z 100b6180 f i GuVecBox.obj
 0001:000b5260       ??0Mat33V@aos@shdfnd@physx@@QAE@ABT__m128@@00@Z 100b6260 f i GuVecBox.obj
 0001:000b52b0       ??0Mat34V@aos@shdfnd@physx@@QAE@ABT__m128@@000@Z 100b62b0 f i GuVecBox.obj
 0001:000b5310       ?BAllTrue3@aos@shdfnd@physx@@YA?AT__m128@@T4@@Z 100b6310 f i GuVecBox.obj
 0001:000b53b0       ?BAnyTrue3@aos@shdfnd@physx@@YA?AT__m128@@T4@@Z 100b63b0 f i GuVecBox.obj
 0001:000b5450       ?BFTTT@aos@shdfnd@physx@@YA?AT__m128@@XZ 100b6450 f i GuVecBox.obj
 0001:000b54a0       ?FMulAdd@aos@shdfnd@physx@@YA?AT__m128@@T4@00@Z 100b64a0 f i GuVecBox.obj
 0001:000b5500       ?M33Abs@aos@shdfnd@physx@@YA?AUMat33V@123@ABU4123@@Z 100b6500 f i GuVecBox.obj
 0001:000b5580       ?M33Identity@aos@shdfnd@physx@@YA?AUMat33V@123@XZ 100b6580 f i GuVecBox.obj
 0001:000b55f0       ?M33MulM33@aos@shdfnd@physx@@YA?AUMat33V@123@ABU4123@0@Z 100b65f0 f i GuVecBox.obj
 0001:000b5690       ?M33Trnsps@aos@shdfnd@physx@@YA?AUMat33V@123@ABU4123@@Z 100b6690 f i GuVecBox.obj
 0001:000b5720       ?M34MulV3@aos@shdfnd@physx@@YA?AT__m128@@ABUMat34V@123@T4@@Z 100b6720 f i GuVecBox.obj
 0001:000b58b0       ?V3IsGrtrOrEq@aos@shdfnd@physx@@YA?AT__m128@@T4@0@Z 100b68b0 f i GuVecBox.obj
 0001:000b5900       ?V3Merge@aos@shdfnd@physx@@YA?AT__m128@@ABT4@00@Z 100b6900 f i GuVecBox.obj
 0001:000b59a0       ?V3SetX@aos@shdfnd@physx@@YA?AT__m128@@T4@0@Z 100b69a0 f i GuVecBox.obj
 0001:000b5a00       ?V3UnitY@aos@shdfnd@physx@@YA?AT__m128@@XZ 100b6a00 f i GuVecBox.obj
 0001:000b5a70       ?V3UnitZ@aos@shdfnd@physx@@YA?AT__m128@@XZ 100b6a70 f i GuVecBox.obj
 0001:000b5ae0       ?Vec3V_From_FloatV_WUndefined@aos@shdfnd@physx@@YA?AT__m128@@T4@@Z 100b6ae0 f i GuVecBox.obj
 0001:000b5b40       ?Vec3V_From_Vec4V_WUndefined@aos@shdfnd@physx@@YA?AT__m128@@T4@@Z 100b6b40 f i GuVecBox.obj
 0001:000b5b80       ?computeBasis2@@YAXABT__m128@@AAT1@1@Z 100b6b80 f i GuVecBox.obj
 0001:000b5e90       ?computeDirection@CapsuleV@Gu@physx@@QBE?AT__m128@@XZ 100b6e90 f i GuVecBox.obj
 0001:000b5ef0       ?rotate@BoxV@Gu@physx@@QBEXABUMat34V@aos@shdfnd@3@AAV123@@Z 100b6ef0 f i GuVecBox.obj
 0001:000b5fc0       ?intersectOBBOBB@Gu@physx@@YA_NABVPxVec3@2@0ABVPxMat33@2@001_N@Z 100b6fc0 f   GuIntersectionBoxBox.obj
 0001:000b7370       ?intersectEdgeEdge@Gu@physx@@YA_NABVPxVec3@2@0000AAMAAV32@@Z 100b8370 f   GuIntersectionEdgeEdge.obj
 0001:000b7740       ?rayAABBIntersect@Gu@physx@@YA_NABVPxVec3@2@000AAV32@@Z 100b8740 f   GuIntersectionRayBox.obj
 0001:000b7a50       ?rayAABBIntersect2@Gu@physx@@YAIABVPxVec3@2@000AAV32@AAM@Z 100b8a50 f   GuIntersectionRayBox.obj
 0001:000b7d80       ?intersectRayAABB@Gu@physx@@YAHABVPxVec3@2@000AAM1@Z 100b8d80 f   GuIntersectionRayBox.obj
 0001:000b7f90       ?intersectRayAABB@Gu@physx@@YAHABVPxVec3@2@0000AAM1@Z 100b8f90 f   GuIntersectionRayBox.obj
 0001:000b82b0       ?intersectRayAABB2@Gu@physx@@YA_NABVPxVec3@2@000MAAM1@Z 100b92b0 f   GuIntersectionRayBox.obj
 0001:000b8730       ?intersectRayAABB@Gu@physx@@YAHABT__m128@@000AAT3@1@Z 100b9730 f   GuIntersectionRayBox.obj
 0001:000b8d80       ?intersectRayAABB@Gu@physx@@YAHABT__m128@@0000AAT3@1@Z 100b9d80 f   GuIntersectionRayBox.obj
 0001:000b93b0       ?intersectRayAABB2@Gu@physx@@YA_NABT__m128@@0000AAT3@1@Z 100ba3b0 f   GuIntersectionRayBox.obj
 0001:000b9ea0       ?FStore@aos@shdfnd@physx@@YAMT__m128@@@Z 100baea0 f i GuIntersectionRayBox.obj
 0001:000b9ee0       ?V3Min@aos@shdfnd@physx@@YA?AT__m128@@T4@0@Z 100baee0 f i GuIntersectionRayBox.obj
 0001:000b9f30       ?V3One@aos@shdfnd@physx@@YA?AT__m128@@XZ 100baf30 f i GuIntersectionRayBox.obj
 0001:000b9f80       ?V3Recip@aos@shdfnd@physx@@YA?AT__m128@@T4@@Z 100baf80 f i GuIntersectionRayBox.obj
 0001:000ba030       ?V3Sign@aos@shdfnd@physx@@YA?AT__m128@@T4@@Z 100bb030 f i GuIntersectionRayBox.obj
 0001:000ba0f0       ?V4LoadA@aos@shdfnd@physx@@YA?AT__m128@@QBM@Z 100bb0f0 f i GuIntersectionRayBox.obj
 0001:000ba130       ?recip@intrinsics@physx@@YAMM@Z 100bb130 f i GuIntersectionRayBox.obj
 0001:000ba160       ?intersectRayCapsule@Gu@physx@@YAIABVPxVec3@2@0ABVCapsule@12@QAM@Z 100bb160 f   GuIntersectionRayCapsule.obj
 0001:000bae70       ?computeDirection@Segment@Gu@physx@@QBEXAAVPxVec3@3@@Z 100bbe70 f i GuIntersectionRayCapsule.obj
 0001:000baeb0       ?intersectRaySphereBasic@Gu@physx@@YA_NABVPxVec3@2@0M0MAAMPAV32@@Z 100bbeb0 f   GuIntersectionRaySphere.obj
 0001:000baff0       ?intersectRaySphere@Gu@physx@@YA_NABVPxVec3@2@0M0MAAMPAV32@@Z 100bbff0 f   GuIntersectionRaySphere.obj
 0001:000bb1d0       ?intersectRayTriangleCulling@Gu@physx@@YA_NABVPxVec3@2@0000AAM11M@Z 100bc1d0 f   GuIntersectionRayTriangle.obj
 0001:000bb340       ?intersectRayTriangleNoCulling@Gu@physx@@YA_NABVPxVec3@2@0000AAM11M@Z 100bc340 f   GuIntersectionRayTriangle.obj
 0001:000bb570       ??0OBBTriangleTest@Gu@physx@@QAE@ABVBox@12@@Z 100bc570 f   GuIntersectionTriangleBox.obj
 0001:000bb690       ?obbTriTest@OBBTriangleTest@Gu@physx@@QBEHABVPxVec3@3@00@Z 100bc690 f   GuIntersectionTriangleBox.obj
 0001:000bc600       ?intersectTriangleBox@Gu@physx@@YAHABVPxVec3@2@0000@Z 100bd600 f   GuIntersectionTriangleBox.obj
 0001:000bd0f0       ?intersectTriangleBox@Gu@physx@@YA_NABT__m128@@0000@Z 100be0f0 f   GuIntersectionTriangleBox.obj
 0001:000beec0       ?BTFTT@aos@shdfnd@physx@@YA?AT__m128@@XZ 100bfec0 f i GuIntersectionTriangleBox.obj
 0001:000bef10       ?FOutOfBounds@aos@shdfnd@physx@@YAIT__m128@@00@Z 100bff10 f i GuIntersectionTriangleBox.obj
 0001:000beff0       ?FOutOfBounds@aos@shdfnd@physx@@YAIT__m128@@0@Z 100bfff0 f i GuIntersectionTriangleBox.obj
 0001:000bf050       ?M33MulV3AddV3@aos@shdfnd@physx@@YA?AT__m128@@ABUMat33V@123@T4@1@Z 100c0050 f i GuIntersectionTriangleBox.obj
 0001:000bf170       ?V3MulAdd@aos@shdfnd@physx@@YA?AT__m128@@T4@00@Z 100c0170 f i GuIntersectionTriangleBox.obj
 0001:000bf1e0       ?V3Perm_0Z_Zero_1X@aos@shdfnd@physx@@YA?AT__m128@@T4@0@Z 100c01e0 f i GuIntersectionTriangleBox.obj
 0001:000bf230       ?V3Perm_1Y_0X_Zero@aos@shdfnd@physx@@YA?AT__m128@@T4@0@Z 100c0230 f i GuIntersectionTriangleBox.obj
 0001:000bf300       ?V3Perm_Zero_1Z_0Y@aos@shdfnd@physx@@YA?AT__m128@@T4@0@Z 100c0300 f i GuIntersectionTriangleBox.obj
 0001:000bf350       ?V3SetY@aos@shdfnd@physx@@YA?AT__m128@@T4@0@Z 100c0350 f i GuIntersectionTriangleBox.obj
 0001:000bf3b0       ??0RTreeMidphase@Gu@physx@@QAE@XZ 100c03b0 f   GuHybridModel.obj
 0001:000bf3e0       ??1RTreeMidphase@Gu@physx@@QAE@XZ 100c03e0 f   GuHybridModel.obj
 0001:000bf400       ?exportExtraData@RTreeMidphase@Gu@physx@@QAEXAAVPxSerializationContext@3@@Z 100c0400 f   GuHybridModel.obj
 0001:000bf420       ?importExtraData@RTreeMidphase@Gu@physx@@QAEXAAVPxDeserializationContext@3@@Z 100c0420 f   GuHybridModel.obj
 0001:000bf460       ?exportExtraData@InternalTriangleMesh@physx@@QAEXAAVPxSerializationContext@2@@Z 100c0460 f   GuInternalTriangleMesh.obj
 0001:000bf600       ?importExtraData@InternalTriangleMesh@physx@@QAEXAAVPxDeserializationContext@2@@Z 100c0600 f   GuInternalTriangleMesh.obj
 0001:000bf730       ??0InternalTriangleMesh@physx@@QAE@XZ 100c0730 f   GuInternalTriangleMesh.obj
 0001:000bf830       ??1InternalTriangleMesh@physx@@QAE@XZ 100c0830 f   GuInternalTriangleMesh.obj
 0001:000bf860       ?release@InternalTriangleMesh@physx@@QAEXXZ 100c0860 f   GuInternalTriangleMesh.obj
 0001:000bf9b0       ?allocateVertices@InternalTriangleMesh@physx@@QAEPAVPxVec3@2@I@Z 100c09b0 f   GuInternalTriangleMesh.obj
 0001:000bfa50       ?allocateTriangles@InternalTriangleMesh@physx@@QAEPAXI_N@Z 100c0a50 f   GuInternalTriangleMesh.obj
 0001:000bfb70       ?allocateMaterials@InternalTriangleMesh@physx@@QAEPAGXZ 100c0b70 f   GuInternalTriangleMesh.obj
 0001:000bfc20       ?allocateFaceRemap@InternalTriangleMesh@physx@@QAEPAIXZ 100c0c20 f   GuInternalTriangleMesh.obj
 0001:000bfcd0       ?allocateAdjacencies@InternalTriangleMesh@physx@@QAEPAIXZ 100c0cd0 f   GuInternalTriangleMesh.obj
 0001:000bfdb0       ?loadRTree@InternalTriangleMesh@physx@@QAE_NAAVPxInputStream@2@I@Z 100c0db0 f   GuInternalTriangleMesh.obj
 0001:000bfe80       ?setupMeshInterface@InternalTriangleMesh@physx@@QAEXXZ 100c0e80 f   GuInternalTriangleMesh.obj
 0001:000c0190       ??$?_UG@@YAPAXIV?$ReflectionAllocator@G@shdfnd@physx@@PBDH@Z 100c1190 f i GuInternalTriangleMesh.obj
 0001:000c01b0       ??$?_UI@@YAPAXIV?$ReflectionAllocator@I@shdfnd@physx@@PBDH@Z 100c11b0 f i GuInternalTriangleMesh.obj
 0001:000c01d0       ??$readExtraData@G$0BA@@PxDeserializationContext@physx@@QAEPAGI@Z 100c11d0 f i GuInternalTriangleMesh.obj
 0001:000c0200       ??$readExtraData@G@PxDeserializationContext@physx@@QAEPAGI@Z 100c1200 f i GuInternalTriangleMesh.obj
 0001:000c0240       ??$readExtraData@I$0BA@@PxDeserializationContext@physx@@QAEPAII@Z 100c1240 f i GuInternalTriangleMesh.obj
 0001:000c0270       ??$readExtraData@I@PxDeserializationContext@physx@@QAEPAII@Z 100c1270 f i GuInternalTriangleMesh.obj
 0001:000c02b0       ??$readExtraData@VPxVec3@physx@@$0BA@@PxDeserializationContext@physx@@QAEPAVPxVec3@1@I@Z 100c12b0 f i GuInternalTriangleMesh.obj
 0001:000c02e0       ??$readExtraData@VPxVec3@physx@@@PxDeserializationContext@physx@@QAEPAVPxVec3@1@I@Z 100c12e0 f i GuInternalTriangleMesh.obj
 0001:000c0320       ??0?$ReflectionAllocator@G@shdfnd@physx@@QAE@PBD@Z 100c1320 f i GuInternalTriangleMesh.obj
 0001:000c0340       ??0?$ReflectionAllocator@I@shdfnd@physx@@QAE@PBD@Z 100c1340 f i GuInternalTriangleMesh.obj
 0001:000c0360       ??0InternalTriangleMeshData@Gu@physx@@QAE@XZ 100c1360 f i GuInternalTriangleMesh.obj
 0001:000c0390       ??1InternalTriangleMeshData@Gu@physx@@QAE@XZ 100c1390 f i GuInternalTriangleMesh.obj
 0001:000c03b0       ?allocate@?$ReflectionAllocator@G@shdfnd@physx@@QAEPAXIPBDH@Z 100c13b0 f i GuInternalTriangleMesh.obj
 0001:000c0410       ?allocate@?$ReflectionAllocator@I@shdfnd@physx@@QAEPAXIPBDH@Z 100c1410 f i GuInternalTriangleMesh.obj
 0001:000c0470       ?getName@?$ReflectionAllocator@G@shdfnd@physx@@CAPBDXZ 100c1470 f i GuInternalTriangleMesh.obj
 0001:000c04c0       ?getName@?$ReflectionAllocator@I@shdfnd@physx@@CAPBDXZ 100c14c0 f i GuInternalTriangleMesh.obj
 0001:000c0510       ??0MeshInterface@Gu@physx@@QAE@XZ 100c1510 f   GuMeshInterface.obj
 0001:000c0550       ??1MeshInterface@Gu@physx@@QAE@XZ 100c1550 f   GuMeshInterface.obj
 0001:000c0560       ?SetPointers@MeshInterface@Gu@physx@@QAE_NPBX_NPBVPxVec3@3@@Z 100c1560 f   GuMeshInterface.obj
 0001:000c05c0       ?IsValid@MeshInterface@Gu@physx@@QBE_NXZ 100c15c0 f   GuMeshInterface.obj
 0001:000c0600       ?CheckTopology@MeshInterface@Gu@physx@@QBEIXZ 100c1600 f   GuMeshInterface.obj
 0001:000c0700       ?getTriangle@PxMeshQuery@physx@@SAXABVPxTriangleMeshGeometry@2@ABVPxTransform@2@IAAVPxTriangle@2@PAI3@Z 100c1700 f   GuMeshQuery.obj
 0001:000c07c0       ?getTriangle@PxMeshQuery@physx@@SAXABVPxHeightFieldGeometry@2@ABVPxTransform@2@IAAVPxTriangle@2@PAI3@Z 100c17c0 f   GuMeshQuery.obj
 0001:000c0800       ?findOverlapTriangleMesh@PxMeshQuery@physx@@SAIABVPxGeometry@2@ABVPxTransform@2@ABVPxTriangleMeshGeometry@2@1PAIIIAA_N@Z 100c1800 f   GuMeshQuery.obj
 0001:000c0a00       ?findOverlapHeightField@PxMeshQuery@physx@@SAIABVPxGeometry@2@ABVPxTransform@2@ABVPxHeightFieldGeometry@2@1PAIIIAA_N@Z 100c1a00 f   GuMeshQuery.obj
 0001:000c0c60       ?sweep@PxMeshQuery@physx@@SA_NABVPxVec3@2@MABVPxGeometry@2@ABVPxTransform@2@IPBVPxTriangle@2@AAUPxSweepHit@2@V?$PxFlags@W4Enum@PxHitFlag@physx@@G@2@PBIM_N@Z 100c1c60 f   GuMeshQuery.obj
 0001:000c13d0       ??0PxBoxGeometry@physx@@QAE@XZ 100c23d0 f i GuMeshQuery.obj
 0001:000c1420       ??0PxCapsuleGeometry@physx@@QAE@MM@Z 100c2420 f i GuMeshQuery.obj
 0001:000c1490       ??4PxBoxGeometry@physx@@QAEAAV01@ABV01@@Z 100c2490 f i GuMeshQuery.obj
 0001:000c14d0       ??Dphysx@@YA?AVMatrix34@Cm@0@ABVPxTransform@0@ABVPxMeshScale@0@@Z 100c24d0 f i GuMeshQuery.obj
 0001:000c1530       ??_EHfTrianglesEntityReport2@?A0x6f1dce09@@UAEPAXI@Z 100c2530 f i GuMeshQuery.obj
 0001:000c1530       ??_GHfTrianglesEntityReport2@?A0x6f1dce09@@UAEPAXI@Z 100c2530 f i GuMeshQuery.obj
 0001:000c1600       ?buildFrom@physx@@YAXAAVBox@Gu@1@ABVPxVec3@1@1ABVPxQuat@1@@Z 100c2600 f i GuMeshQuery.obj
 0001:000c1650       ?centerExtents@PxBounds3@physx@@SA?AV12@ABVPxVec3@2@0@Z 100c2650 f i GuMeshQuery.obj
 0001:000c16a0       ?computeWorldTriangle@TriangleMesh@Gu@physx@@QBEXAAVPxTriangle@3@IABVMatrix34@Cm@3@PIAI2@Z 100c26a0 f i GuMeshQuery.obj
 0001:000c1940       ?getCapsule@Gu@physx@@YAXAAVCapsule@12@ABVPxCapsuleGeometry@2@ABVPxTransform@2@@Z 100c2940 f i GuMeshQuery.obj
 0001:000c1970       ?getCollisionModel@TriangleMesh@Gu@physx@@QBEABVRTreeMidphase@23@XZ 100c2970 f i GuMeshQuery.obj
 0001:000c1990       ?getTrianglesFast@TriangleMesh@Gu@physx@@QBEPBXXZ 100c2990 f i GuMeshQuery.obj
 0001:000c19b0       ?getVerticesFast@TriangleMesh@Gu@physx@@QBEPBVPxVec3@3@XZ 100c29b0 f i GuMeshQuery.obj
 0001:000c19d0       ?isUnit@PxQuat@physx@@QBE_NXZ 100c29d0 f i GuMeshQuery.obj
 0001:000c1a60       ?isValid@PxTransform@physx@@QBE_NXZ 100c2a60 f i GuMeshQuery.obj
 0001:000c1cd0       ?poseExtent@PxBounds3@physx@@SA?AV12@ABVPxTransform@2@ABVPxVec3@2@@Z 100c2cd0 f i GuMeshQuery.obj
 0001:000c1d10       ?collideOBB@MeshRayCollider@Gu@physx@@SAXABVBox@23@_NABURTreeMidphaseData@23@AAU?$MeshHitCallback@UPxRaycastHit@physx@@@23@1@Z 100c2d10 f   GuMidphase.obj
 0001:000c1f50       ??$collide@$00$00@MeshRayCollider@Gu@physx@@SAXABVPxVec3@2@0M_NABURTreeMidphaseData@12@AAU?$MeshHitCallback@UPxRaycastHit@physx@@@12@PBV32@@Z 100c2f50 f i GuMidphase.obj
 0001:000c2210       ??$collide@$00$0A@@MeshRayCollider@Gu@physx@@SAXABVPxVec3@2@0M_NABURTreeMidphaseData@12@AAU?$MeshHitCallback@UPxRaycastHit@physx@@@12@PBV32@@Z 100c3210 f i GuMidphase.obj
 0001:000c24d0       ??$collide@$0A@$00@MeshRayCollider@Gu@physx@@SAXABVPxVec3@2@0M_NABURTreeMidphaseData@12@AAU?$MeshHitCallback@UPxRaycastHit@physx@@@12@PBV32@@Z 100c34d0 f i GuMidphase.obj
 0001:000c2780       ??$collide@$0A@$0A@@MeshRayCollider@Gu@physx@@SAXABVPxVec3@2@0M_NABURTreeMidphaseData@12@AAU?$MeshHitCallback@UPxRaycastHit@physx@@@12@PBV32@@Z 100c3780 f i GuMidphase.obj
 0001:000c2a30       ??$memFetchAsync@I@Cm@physx@@YAPAIIIAAUMemFetchSmallBuffer@01@@Z 100c3a30 f i GuMidphase.obj
 0001:000c2a40       ??0?$PxFlags@W4Enum@PxHitFlag@physx@@G@physx@@QAE@G@Z 100c3a40 f i GuMidphase.obj
 0001:000c2a60       ??0?$RayRTreeCallback@$00$00@@QAE@ABURTreeMidphaseData@Gu@physx@@AAU?$MeshHitCallback@UPxRaycastHit@physx@@@23@IPAI2ABVPxVec3@3@3M_NPBV53@@Z 100c3a60 f i GuMidphase.obj
 0001:000c2c90       ??0?$RayRTreeCallback@$00$0A@@@QAE@ABURTreeMidphaseData@Gu@physx@@AAU?$MeshHitCallback@UPxRaycastHit@physx@@@23@IPAI2ABVPxVec3@3@3M_NPBV53@@Z 100c3c90 f i GuMidphase.obj
 0001:000c2ec0       ??0?$RayRTreeCallback@$0A@$00@@QAE@ABURTreeMidphaseData@Gu@physx@@AAU?$MeshHitCallback@UPxRaycastHit@physx@@@23@IPAI2ABVPxVec3@3@3M_NPBV53@@Z 100c3ec0 f i GuMidphase.obj
 0001:000c30f0       ??0?$RayRTreeCallback@$0A@$0A@@@QAE@ABURTreeMidphaseData@Gu@physx@@AAU?$MeshHitCallback@UPxRaycastHit@physx@@@23@IPAI2ABVPxVec3@3@3M_NPBV53@@Z 100c40f0 f i GuMidphase.obj
 0001:000c3320       ??0Callback@RTree@Gu@physx@@QAE@XZ 100c4320 f i GuMidphase.obj
 0001:000c3340       ??0CallbackRaycast@RTree@Gu@physx@@QAE@XZ 100c4340 f i GuMidphase.obj
 0001:000c3360       ??0PxActorShape@physx@@QAE@XZ 100c4360 f i GuMidphase.obj
 0001:000c3390       ??0PxLocationHit@physx@@QAE@XZ 100c4390 f i GuMidphase.obj
 0001:000c3410       ??0PxQueryHit@physx@@QAE@XZ 100c4410 f i GuMidphase.obj
 0001:000c3440       ??0PxRaycastHit@physx@@QAE@XZ 100c4440 f i GuMidphase.obj
 0001:000c3480       ??0SimpleRayTriOverlap@@QAE@ABVPxVec3@physx@@0_NM@Z 100c4480 f i GuMidphase.obj
 0001:000c34e0       ??1?$RayRTreeCallback@$00$00@@UAE@XZ 100c44e0 f i GuMidphase.obj
 0001:000c35f0       ??1?$RayRTreeCallback@$00$0A@@@UAE@XZ 100c45f0 f i GuMidphase.obj
 0001:000c3700       ??1?$RayRTreeCallback@$0A@$00@@UAE@XZ 100c4700 f i GuMidphase.obj
 0001:000c3810       ??1?$RayRTreeCallback@$0A@$0A@@@UAE@XZ 100c4810 f i GuMidphase.obj
 0001:000c3920       ??1Callback@RTree@Gu@physx@@UAE@XZ 100c4920 f i GuMidphase.obj
 0001:000c3940       ??1CallbackRaycast@RTree@Gu@physx@@UAE@XZ 100c4940 f i GuMidphase.obj
 0001:000c3960       ??4PxLocationHit@physx@@QAEAAU01@ABU01@@Z 100c4960 f i GuMidphase.obj
 0001:000c39f0       ??4PxRaycastHit@physx@@QAEAAU01@ABU01@@Z 100c49f0 f i GuMidphase.obj
 0001:000c3a6f       ??_E?$RayRTreeCallback@$00$00@@W3AEPAXI@Z 100c4a6f f i GuMidphase.obj
 0001:000c3a79       ??_E?$RayRTreeCallback@$00$0A@@@W3AEPAXI@Z 100c4a79 f i GuMidphase.obj
 0001:000c3a83       ??_E?$RayRTreeCallback@$0A@$00@@W3AEPAXI@Z 100c4a83 f i GuMidphase.obj
 0001:000c3a8d       ??_E?$RayRTreeCallback@$0A@$0A@@@W3AEPAXI@Z 100c4a8d f i GuMidphase.obj
 0001:000c3aa0       ??_G?$RayRTreeCallback@$00$00@@UAEPAXI@Z 100c4aa0 f i GuMidphase.obj
 0001:000c3aa0       ??_E?$RayRTreeCallback@$00$00@@UAEPAXI@Z 100c4aa0 f i GuMidphase.obj
 0001:000c3ae0       ??_G?$RayRTreeCallback@$00$0A@@@UAEPAXI@Z 100c4ae0 f i GuMidphase.obj
 0001:000c3ae0       ??_E?$RayRTreeCallback@$00$0A@@@UAEPAXI@Z 100c4ae0 f i GuMidphase.obj
 0001:000c3b20       ??_G?$RayRTreeCallback@$0A@$00@@UAEPAXI@Z 100c4b20 f i GuMidphase.obj
 0001:000c3b20       ??_E?$RayRTreeCallback@$0A@$00@@UAEPAXI@Z 100c4b20 f i GuMidphase.obj
 0001:000c3b60       ??_E?$RayRTreeCallback@$0A@$0A@@@UAEPAXI@Z 100c4b60 f i GuMidphase.obj
 0001:000c3b60       ??_G?$RayRTreeCallback@$0A@$0A@@@UAEPAXI@Z 100c4b60 f i GuMidphase.obj
 0001:000c3ba0       ??_ECallback@RTree@Gu@physx@@UAEPAXI@Z 100c4ba0 f i GuMidphase.obj
 0001:000c3ba0       ??_GCallback@RTree@Gu@physx@@UAEPAXI@Z 100c4ba0 f i GuMidphase.obj
 0001:000c3be0       ??_ECallbackRaycast@RTree@Gu@physx@@UAEPAXI@Z 100c4be0 f i GuMidphase.obj
 0001:000c3be0       ??_GCallbackRaycast@RTree@Gu@physx@@UAEPAXI@Z 100c4be0 f i GuMidphase.obj
 0001:000c3c20       ?GetNbTriangles@LeafTriangles@Gu@physx@@QBEIXZ 100c4c20 f i GuMidphase.obj
 0001:000c3c40       ?GetTriangleIndex@LeafTriangles@Gu@physx@@QBEIXZ 100c4c40 f i GuMidphase.obj
 0001:000c3c60       ?LeafGetNbTriangles@Gu@physx@@YAII@Z 100c4c60 f i GuMidphase.obj
 0001:000c3c80       ?LeafGetTriangleIndex@Gu@physx@@YAII@Z 100c4c80 f i GuMidphase.obj
 0001:000c3c90       ?getVertIndices@?$RayRTreeCallback@$00$00@@QAEXIAAI00@Z 100c4c90 f i GuMidphase.obj
 0001:000c3d70       ?getVertIndices@?$RayRTreeCallback@$00$0A@@@QAEXIAAI00@Z 100c4d70 f i GuMidphase.obj
 0001:000c3e50       ?getVertIndices@?$RayRTreeCallback@$0A@$00@@QAEXIAAI00@Z 100c4e50 f i GuMidphase.obj
 0001:000c3f30       ?getVertIndices@?$RayRTreeCallback@$0A@$0A@@@QAEXIAAI00@Z 100c4f30 f i GuMidphase.obj
 0001:000c4010       ?inAnyMode@?$MeshHitCallback@UPxRaycastHit@physx@@@Gu@physx@@QBE_NXZ 100c5010 f i GuMidphase.obj
 0001:000c4050       ?inClosestMode@?$MeshHitCallback@UPxRaycastHit@physx@@@Gu@physx@@QBE_NXZ 100c5050 f i GuMidphase.obj
 0001:000c4090       ?overlap@SimpleRayTriOverlap@@QBEHABVPxVec3@physx@@00AAUPxRaycastHit@3@@Z 100c5090 f i GuMidphase.obj
 0001:000c44a0       ?processResults@?$RayRTreeCallback@$00$00@@UAE_NIPAI@Z 100c54a0 f i GuMidphase.obj
 0001:000c44d0       ?processResults@?$RayRTreeCallback@$00$00@@UAE_NIPAIAAM@Z 100c54d0 f i GuMidphase.obj
 0001:000c4c00       ?processResults@?$RayRTreeCallback@$00$0A@@@UAE_NIPAI@Z 100c5c00 f i GuMidphase.obj
 0001:000c4c30       ?processResults@?$RayRTreeCallback@$00$0A@@@UAE_NIPAIAAM@Z 100c5c30 f i GuMidphase.obj
 0001:000c5350       ?processResults@?$RayRTreeCallback@$0A@$00@@UAE_NIPAI@Z 100c6350 f i GuMidphase.obj
 0001:000c5380       ?processResults@?$RayRTreeCallback@$0A@$00@@UAE_NIPAIAAM@Z 100c6380 f i GuMidphase.obj
 0001:000c5aa0       ?processResults@?$RayRTreeCallback@$0A@$0A@@@UAE_NIPAI@Z 100c6aa0 f i GuMidphase.obj
 0001:000c5ad0       ?processResults@?$RayRTreeCallback@$0A@$0A@@@UAE_NIPAIAAM@Z 100c6ad0 f i GuMidphase.obj
 0001:000c61f0       ?profile@Callback@RTree@Gu@physx@@UAEXXZ 100c71f0 f i GuMidphase.obj
 0001:000c6200       ?findOverlapSphereMesh@Gu@physx@@YAIABVSphere@12@ABVRTreeMidphase@12@ABVPxTransform@2@ABVPxMeshScale@2@PIAIIIAA_N@Z 100c7200 f   GuOverlapTestsMesh.obj
 0001:000c6250       ?findOverlapCapsuleMesh@Gu@physx@@YAIABVCapsule@12@ABVRTreeMidphase@12@ABVPxTransform@2@ABVPxMeshScale@2@PIAIIIAA_N@Z 100c7250 f   GuOverlapTestsMesh.obj
 0001:000c62a0       ?findOverlapOBBMesh@Gu@physx@@YAIABVBox@12@ABVRTreeMidphase@12@ABVPxTransform@2@ABVPxMeshScale@2@PIAIIIAA_N@Z 100c72a0 f   GuOverlapTestsMesh.obj
 0001:000c6300       ?checkOverlapOBB_triangleGeom@Gu@physx@@YA_NABVPxGeometry@2@ABVPxTransform@2@ABVBox@12@@Z 100c7300 f   GuOverlapTestsMesh.obj
 0001:000c64b0       ?checkOverlapSphere_triangleGeom@@YA_NABVPxGeometry@physx@@ABVPxTransform@2@ABVSphere@Gu@2@@Z 100c74b0 f   GuOverlapTestsMesh.obj
 0001:000c6540       ?checkOverlapCapsule_triangleGeom@@YA_NABVPxGeometry@physx@@ABVPxTransform@2@ABVCapsule@Gu@2@@Z 100c7540 f   GuOverlapTestsMesh.obj
 0001:000c65d0       ?GeomOverlapCallback_SphereMesh@@YA_NABVPxGeometry@physx@@ABVPxTransform@2@01PAUTriggerCache@Gu@2@@Z 100c75d0 f   GuOverlapTestsMesh.obj
 0001:000c66e0       ?GeomOverlapCallback_CapsuleMesh@@YA_NABVPxGeometry@physx@@ABVPxTransform@2@01PAUTriggerCache@Gu@2@@Z 100c76e0 f   GuOverlapTestsMesh.obj
 0001:000c67f0       ?GeomOverlapCallback_BoxMesh@@YA_NABVPxGeometry@physx@@ABVPxTransform@2@01PAUTriggerCache@Gu@2@@Z 100c77f0 f   GuOverlapTestsMesh.obj
 0001:000c6900       ?GeomOverlapCallback_ConvexMesh@@YA_NABVPxGeometry@physx@@ABVPxTransform@2@01PAUTriggerCache@Gu@2@@Z 100c7900 f   GuOverlapTestsMesh.obj
 0001:000ca100       ??$PX_UNUSED@PAUTriggerCache@Gu@physx@@@@YAXABQAUTriggerCache@Gu@physx@@@Z 100cb100 f i GuOverlapTestsMesh.obj
 0001:000ca110       ??0?$IntersectAnyVsMeshCallback@$00$00@@QAE@ABVRTreeMidphase@Gu@physx@@ABVPxMat33@3@PAULimitedResults@@@Z 100cb110 f i GuOverlapTestsMesh.obj
 0001:000ca190       ??0?$IntersectAnyVsMeshCallback@$00$0A@@@QAE@ABVRTreeMidphase@Gu@physx@@ABVPxMat33@3@PAULimitedResults@@@Z 100cb190 f i GuOverlapTestsMesh.obj
 0001:000ca210       ??0?$IntersectAnyVsMeshCallback@$01$00@@QAE@ABVRTreeMidphase@Gu@physx@@ABVPxMat33@3@PAULimitedResults@@@Z 100cb210 f i GuOverlapTestsMesh.obj
 0001:000ca290       ??0?$IntersectAnyVsMeshCallback@$01$0A@@@QAE@ABVRTreeMidphase@Gu@physx@@ABVPxMat33@3@PAULimitedResults@@@Z 100cb290 f i GuOverlapTestsMesh.obj
 0001:000ca310       ??0?$IntersectAnyVsMeshCallback@$0A@$00@@QAE@ABVRTreeMidphase@Gu@physx@@ABVPxMat33@3@PAULimitedResults@@@Z 100cb310 f i GuOverlapTestsMesh.obj
 0001:000ca390       ??0?$IntersectAnyVsMeshCallback@$0A@$0A@@@QAE@ABVRTreeMidphase@Gu@physx@@ABVPxMat33@3@PAULimitedResults@@@Z 100cb390 f i GuOverlapTestsMesh.obj
 0001:000ca410       ??0ConvexHullV@Gu@physx@@QAE@PBUConvexHullData@12@ABT__m128@@11@Z 100cb410 f i GuOverlapTestsMesh.obj
 0001:000ca5f0       ??0ConvexHullV@Gu@physx@@QAE@XZ 100cb5f0 f i GuOverlapTestsMesh.obj
 0001:000ca630       ??0ConvexVsMeshOverlapCallback@@QAE@ABVConvexMesh@Gu@physx@@ABVPxMeshScale@3@ABVFastVertex2ShapeScaling@Cm@3@ABVPxTransform@3@3_NABVBox@23@@Z 100cb630 f i GuOverlapTestsMesh.obj
 0001:000caa70       ??0LimitedResults@@QAE@PAIII@Z 100cba70 f i GuOverlapTestsMesh.obj
 0001:000caab0       ??0PsMatTransformV@aos@shdfnd@physx@@QAE@ABT__m128@@ABUMat33V@123@@Z 100cbab0 f i GuOverlapTestsMesh.obj
 0001:000cab00       ??0PsMatTransformV@aos@shdfnd@physx@@QAE@ABVPsTransformV@123@@Z 100cbb00 f i GuOverlapTestsMesh.obj
 0001:000cab80       ??0PsMatTransformV@aos@shdfnd@physx@@QAE@XZ 100cbb80 f i GuOverlapTestsMesh.obj
 0001:000cac00       ??0PsTransformV@aos@shdfnd@physx@@QAE@ABVPxTransform@3@@Z 100cbc00 f i GuOverlapTestsMesh.obj
 0001:000cacc0       ??1?$IntersectAnyVsMeshCallback@$00$00@@UAE@XZ 100cbcc0 f i GuOverlapTestsMesh.obj
 0001:000cacf0       ??1?$IntersectAnyVsMeshCallback@$00$0A@@@UAE@XZ 100cbcf0 f i GuOverlapTestsMesh.obj
 0001:000cad20       ??1?$IntersectAnyVsMeshCallback@$01$00@@UAE@XZ 100cbd20 f i GuOverlapTestsMesh.obj
 0001:000cad50       ??1?$IntersectAnyVsMeshCallback@$01$0A@@@UAE@XZ 100cbd50 f i GuOverlapTestsMesh.obj
 0001:000cad80       ??1?$IntersectAnyVsMeshCallback@$0A@$00@@UAE@XZ 100cbd80 f i GuOverlapTestsMesh.obj
 0001:000cadb0       ??1?$IntersectAnyVsMeshCallback@$0A@$0A@@@UAE@XZ 100cbdb0 f i GuOverlapTestsMesh.obj
 0001:000cade0       ??1ConvexHullV@Gu@physx@@QAE@XZ 100cbde0 f i GuOverlapTestsMesh.obj
 0001:000cae00       ??1ConvexVsMeshOverlapCallback@@UAE@XZ 100cbe00 f i GuOverlapTestsMesh.obj
 0001:000cae30       ??DMatrix34@Cm@physx@@QBE?AV012@ABV012@@Z 100cbe30 f i GuOverlapTestsMesh.obj
 0001:000caed0       ??_E?$IntersectAnyVsMeshCallback@$00$00@@UAEPAXI@Z 100cbed0 f i GuOverlapTestsMesh.obj
 0001:000caed0       ??_G?$IntersectAnyVsMeshCallback@$00$00@@UAEPAXI@Z 100cbed0 f i GuOverlapTestsMesh.obj
 0001:000caf10       ??_G?$IntersectAnyVsMeshCallback@$00$0A@@@UAEPAXI@Z 100cbf10 f i GuOverlapTestsMesh.obj
 0001:000caf10       ??_E?$IntersectAnyVsMeshCallback@$00$0A@@@UAEPAXI@Z 100cbf10 f i GuOverlapTestsMesh.obj
 0001:000caf50       ??_G?$IntersectAnyVsMeshCallback@$01$00@@UAEPAXI@Z 100cbf50 f i GuOverlapTestsMesh.obj
 0001:000caf50       ??_E?$IntersectAnyVsMeshCallback@$01$00@@UAEPAXI@Z 100cbf50 f i GuOverlapTestsMesh.obj
 0001:000caf90       ??_E?$IntersectAnyVsMeshCallback@$01$0A@@@UAEPAXI@Z 100cbf90 f i GuOverlapTestsMesh.obj
 0001:000caf90       ??_G?$IntersectAnyVsMeshCallback@$01$0A@@@UAEPAXI@Z 100cbf90 f i GuOverlapTestsMesh.obj
 0001:000cafd0       ??_E?$IntersectAnyVsMeshCallback@$0A@$00@@UAEPAXI@Z 100cbfd0 f i GuOverlapTestsMesh.obj
 0001:000cafd0       ??_G?$IntersectAnyVsMeshCallback@$0A@$00@@UAEPAXI@Z 100cbfd0 f i GuOverlapTestsMesh.obj
 0001:000cb010       ??_G?$IntersectAnyVsMeshCallback@$0A@$0A@@@UAEPAXI@Z 100cc010 f i GuOverlapTestsMesh.obj
 0001:000cb010       ??_E?$IntersectAnyVsMeshCallback@$0A@$0A@@@UAEPAXI@Z 100cc010 f i GuOverlapTestsMesh.obj
 0001:000cb050       ??_EConvexVsMeshOverlapCallback@@UAEPAXI@Z 100cc050 f i GuOverlapTestsMesh.obj
 0001:000cb050       ??_GConvexVsMeshOverlapCallback@@UAEPAXI@Z 100cc050 f i GuOverlapTestsMesh.obj
 0001:000cb090       ?CalculateConvexMargin@Gu@physx@@YAXPBUConvexHullData@12@AAT__m128@@1ABT4@@Z 100cc090 f i GuOverlapTestsMesh.obj
 0001:000cb1d0       ?CalculateConvexTolerance@Gu@physx@@YA?AT__m128@@PBUConvexHullData@12@ABT3@@Z 100cc1d0 f i GuOverlapTestsMesh.obj
 0001:000cb2b0       ?ConstructSkewMatrix@Gu@physx@@YAXABT__m128@@0AAUMat33V@aos@shdfnd@2@1@Z 100cc2b0 f i GuOverlapTestsMesh.obj
 0001:000cb520       ?QuatGetMat33V@aos@shdfnd@physx@@YA?AUMat33V@123@ABT__m128@@@Z 100cc520 f i GuOverlapTestsMesh.obj
 0001:000cba40       ?QuatVLoadU@aos@shdfnd@physx@@YA?AT__m128@@PBM@Z 100cca40 f i GuOverlapTestsMesh.obj
 0001:000cba90       ?QuatVLoadXYZW@aos@shdfnd@physx@@YA?AT__m128@@MMMM@Z 100cca90 f i GuOverlapTestsMesh.obj
 0001:000cbae0       ?V3LoadU@aos@shdfnd@physx@@YA?AT__m128@@PBM@Z 100ccae0 f i GuOverlapTestsMesh.obj
 0001:000cbb60       ?V4LoadU@aos@shdfnd@physx@@YA?AT__m128@@QBM@Z 100ccb60 f i GuOverlapTestsMesh.obj
 0001:000cbba0       ?Vec4VLoadXYZW@aos@shdfnd@physx@@YA?AT__m128@@ABM000@Z 100ccba0 f i GuOverlapTestsMesh.obj
 0001:000cbc00       ?abs@PxVec3@physx@@QBE?AV12@XZ 100ccc00 f i GuOverlapTestsMesh.obj
 0001:000cbc70       ?add@LimitedResults@@QAE_NI@Z 100ccc70 f i GuOverlapTestsMesh.obj
 0001:000cbcf0       ?computeSweptAABBAroundOBB@Gu@physx@@YAXABVBox@12@AAVPxVec3@2@11AAM@Z 100cccf0 f i GuOverlapTestsMesh.obj
 0001:000cbe80       ?getInverse@PxTransform@physx@@QBE?AV12@XZ 100cce80 f i GuOverlapTestsMesh.obj
 0001:000cbf30       ?largestAxis@shdfnd@physx@@YAIABVPxVec3@2@AAI1@Z 100ccf30 f i GuOverlapTestsMesh.obj
 0001:000cbff0       ?processHit@?$IntersectAnyVsMeshCallback@$00$00@@UAE_NABUPxRaycastHit@physx@@ABVPxVec3@3@11AAMPBI@Z 100ccff0 f i GuOverlapTestsMesh.obj
 0001:000cc580       ?processHit@?$IntersectAnyVsMeshCallback@$00$0A@@@UAE_NABUPxRaycastHit@physx@@ABVPxVec3@3@11AAMPBI@Z 100cd580 f i GuOverlapTestsMesh.obj
 0001:000ccaf0       ?processHit@?$IntersectAnyVsMeshCallback@$01$00@@UAE_NABUPxRaycastHit@physx@@ABVPxVec3@3@11AAMPBI@Z 100cdaf0 f i GuOverlapTestsMesh.obj
 0001:000cd030       ?processHit@?$IntersectAnyVsMeshCallback@$01$0A@@@UAE_NABUPxRaycastHit@physx@@ABVPxVec3@3@11AAMPBI@Z 100ce030 f i GuOverlapTestsMesh.obj
 0001:000cd560       ?processHit@?$IntersectAnyVsMeshCallback@$0A@$00@@UAE_NABUPxRaycastHit@physx@@ABVPxVec3@3@11AAMPBI@Z 100ce560 f i GuOverlapTestsMesh.obj
 0001:000cdaf0       ?processHit@?$IntersectAnyVsMeshCallback@$0A@$0A@@@UAE_NABUPxRaycastHit@physx@@ABVPxVec3@3@11AAMPBI@Z 100ceaf0 f i GuOverlapTestsMesh.obj
 0001:000ce060       ?processHit@ConvexVsMeshOverlapCallback@@UAE_NABUPxRaycastHit@physx@@ABVPxVec3@3@11AAMPBI@Z 100cf060 f i GuOverlapTestsMesh.obj
 0001:000ce460       ?reset@LimitedResults@@QAEXXZ 100cf460 f i GuOverlapTestsMesh.obj
 0001:000ce490       ?transformBoxOrthonormal@physx@@YA?AVBox@Gu@1@ABV231@ABVPxTransform@1@@Z 100cf490 f i GuOverlapTestsMesh.obj
 0001:000ce570       ??0RTree@Gu@physx@@QAE@ABW4PxEMPTY@2@@Z 100cf570 f   GuRTree.obj
 0001:000ce5c0       ?exportExtraData@RTree@Gu@physx@@QAEXAAVPxSerializationContext@3@@Z 100cf5c0 f   GuRTree.obj
 0001:000ce600       ?importExtraData@RTree@Gu@physx@@QAEXAAVPxDeserializationContext@3@@Z 100cf600 f   GuRTree.obj
 0001:000ce630       ??0RTree@Gu@physx@@QAE@XZ  100cf630 f   GuRTree.obj
 0001:000ce6e0       ?release@RTree@Gu@physx@@QAEXXZ 100cf6e0 f   GuRTree.obj
 0001:000ce730       ?save@RTree@Gu@physx@@QBE_NAAVPxOutputStream@3@@Z 100cf730 f   GuRTree.obj
 0001:000ce9a0       ?load@RTree@Gu@physx@@QAE_NAAVPxInputStream@3@I@Z 100cf9a0 f   GuRTree.obj
 0001:000cece0       ?validate@RTree@Gu@physx@@QAEXXZ 100cfce0 f   GuRTree.obj
 0001:000ced50       ?computeBottomLevelCount@RTree@Gu@physx@@QBEII@Z 100cfd50 f   GuRTree.obj
 0001:000cef10       ?validateRecursive@RTree@Gu@physx@@IAEXIURTreeNodeQ@23@PAURTreePage@23@@Z 100cff10 f   GuRTree.obj
 0001:000cf690       ??$PX_UNUSED@URTreeNodeQ@Gu@physx@@@@YAXABURTreeNodeQ@Gu@physx@@@Z 100d0690 f i GuRTree.obj
 0001:000cf6a0       ??$readExtraData@URTreePage@Gu@physx@@@PxDeserializationContext@physx@@QAEPAURTreePage@Gu@1@I@Z 100d06a0 f i GuRTree.obj
 0001:000cf6e0       ??0?$AlignedAllocator@$0IA@VAllocator@shdfnd@physx@@@shdfnd@physx@@QAE@ABVAllocator@12@@Z 100d06e0 f i GuRTree.obj
 0001:000cf700       ?WriteDwordBuffer@physx@@YAXPBII_NAAVPxOutputStream@1@@Z 100d0700 f i GuRTree.obj
 0001:000cf730       ?allocate@?$AlignedAllocator@$0IA@VAllocator@shdfnd@physx@@@shdfnd@physx@@QAEPAXIPBDH@Z 100d0730 f i GuRTree.obj
 0001:000cf7b0       ?computeBounds@RTreePage@Gu@physx@@QAEXAAURTreeNodeQ@23@@Z 100d07b0 f i GuRTree.obj
 0001:000cfa00       ?deallocate@?$AlignedAllocator@$0IA@VAllocator@shdfnd@physx@@@shdfnd@physx@@QAEXPAX@Z 100d0a00 f i GuRTree.obj
 0001:000cfa50       ?getNode@RTreePage@Gu@physx@@QBEXIAAURTreeNodeQ@23@@Z 100d0a50 f i GuRTree.obj
 0001:000cfb40       ?isLeaf@RTreeNodeQ@Gu@physx@@QBEIXZ 100d0b40 f i GuRTree.obj
 0001:000cfb60       ?littleEndian@shdfnd@physx@@YADXZ 100d0b60 f i GuRTree.obj
 0001:000cfb80       ?nodeCount@RTreePage@Gu@physx@@QBEIXZ 100d0b80 f i GuRTree.obj
 0001:000cfbe0       ?traverseAABB@RTree@Gu@physx@@QBEXABVPxVec3@3@0IPAIPAUCallback@123@@Z 100d0be0 f   GuRTreeQueries.obj
 0001:000d0360       ?traverseOBB@RTree@Gu@physx@@QBEXABVBox@23@IPAIPAUCallback@123@@Z 100d1360 f   GuRTreeQueries.obj
 0001:000d2970       ??$PX_UNUSED@PAI@@YAXABQAI@Z 100d3970 f i GuRTreeQueries.obj
 0001:000d2980       ??$V4SplatElement@$00@aos@shdfnd@physx@@YA?AT__m128@@T3@@Z 100d3980 f i GuRTreeQueries.obj
 0001:000d29e0       ??$V4SplatElement@$01@aos@shdfnd@physx@@YA?AT__m128@@T3@@Z 100d39e0 f i GuRTreeQueries.obj
 0001:000d2a40       ??$V4SplatElement@$0A@@aos@shdfnd@physx@@YA?AT__m128@@T3@@Z 100d3a40 f i GuRTreeQueries.obj
 0001:000d2aa0       ??$traverseRay@$00@RTree@Gu@physx@@QBEXABVPxVec3@2@0IPAIPAUCallbackRaycast@012@PBV32@M@Z 100d3aa0 f i GuRTreeQueries.obj
 0001:000d3aa0       ??$traverseRay@$0A@@RTree@Gu@physx@@QBEXABVPxVec3@2@0IPAIPAUCallbackRaycast@012@PBV32@M@Z 100d4aa0 f i GuRTreeQueries.obj
 0001:000d4aa0       ?U4Load@aos@shdfnd@physx@@YA?AT__m128@@I@Z 100d5aa0 f i GuRTreeQueries.obj
 0001:000d4ae0       ?U4StoreA@aos@shdfnd@physx@@YAXT__m128@@PAI@Z 100d5ae0 f i GuRTreeQueries.obj
 0001:000d4b20       ?V4Andc@aos@shdfnd@physx@@YA?AT__m128@@T4@0@Z 100d5b20 f i GuRTreeQueries.obj
 0001:000d4b90       ?V4IsGrtrV32u@aos@shdfnd@physx@@YA?AT__m128@@T4@0@Z 100d5b90 f i GuRTreeQueries.obj
 0001:000d4be0       ?V4NegMulSub@aos@shdfnd@physx@@YA?AT__m128@@T4@00@Z 100d5be0 f i GuRTreeQueries.obj
 0001:000d4c50       ?V4RecipFast@aos@shdfnd@physx@@YA?AT__m128@@T4@@Z 100d5c50 f i GuRTreeQueries.obj
 0001:000d4c90       ?V4U32Andc@aos@shdfnd@physx@@YA?AT__m128@@T4@0@Z 100d5c90 f i GuRTreeQueries.obj
 0001:000d4d10       ?V4U32StoreAligned@aos@shdfnd@physx@@YAXT__m128@@PAT4@@Z 100d5d10 f i GuRTreeQueries.obj
 0001:000d4d50       ?V4U32and@aos@shdfnd@physx@@YA?AT__m128@@T4@0@Z 100d5d50 f i GuRTreeQueries.obj
 0001:000d4dd0       ?V4U32or@aos@shdfnd@physx@@YA?AT__m128@@T4@0@Z 100d5dd0 f i GuRTreeQueries.obj
 0001:000d4e50       ?Vec4V_From_PxVec3_WUndefined@aos@shdfnd@physx@@YA?AT__m128@@ABVPxVec3@3@@Z 100d5e50 f i GuRTreeQueries.obj
 0001:000d4eb0       ?Vec4V_ReinterpretFrom_VecU32V@aos@shdfnd@physx@@YA?AT__m128@@T4@@Z 100d5eb0 f i GuRTreeQueries.obj
 0001:000d4ef0       ?VecU32VLoadXYZW@aos@shdfnd@physx@@YA?AT__m128@@IIII@Z 100d5ef0 f i GuRTreeQueries.obj
 0001:000d4f70       ?VecU32V_From_BoolV@aos@shdfnd@physx@@YA?AT__m128@@ABT4@@Z 100d5f70 f i GuRTreeQueries.obj
 0001:000d4f80       ?VecU32V_ReinterpretFrom_Vec4V@aos@shdfnd@physx@@YA?AT__m128@@T4@@Z 100d5f80 f i GuRTreeQueries.obj
 0001:000d4fc0       ?isLeaf@RTreePage@Gu@physx@@QBEII@Z 100d5fc0 f i GuRTreeQueries.obj
 0001:000d5500       ?sweepCapsule_MeshGeom@@YA_NABVPxGeometry@physx@@ABVPxTransform@2@ABVCapsule@Gu@2@ABVPxVec3@2@MAAUPxSweepHit@2@V?$PxFlags@W4Enum@PxHitFlag@physx@@G@2@M@Z 100d6500 f   GuSweepsMesh.obj
 0001:000d5a20       ?sweepBox_MeshGeom@@YA_NABVPxGeometry@physx@@ABVPxTransform@2@ABVBox@Gu@2@ABVPxVec3@2@MAAUPxSweepHit@2@V?$PxFlags@W4Enum@PxHitFlag@physx@@G@2@M@Z 100d6a20 f   GuSweepsMesh.obj
 0001:000d6440       ?sweepConvex_MeshGeom@@YA_NABVPxGeometry@physx@@ABVPxTransform@2@ABVPxConvexMeshGeometry@2@1ABVPxVec3@2@MAAUPxSweepHit@2@V?$PxFlags@W4Enum@PxHitFlag@physx@@G@2@M@Z 100d7440 f   GuSweepsMesh.obj
 0001:000d6fe0       ??0?$PxFlags@W4Enum@PxMeshGeometryFlag@physx@@E@physx@@QAE@ABV01@@Z 100d7fe0 f i GuSweepsMesh.obj
 0001:000d7000       ??0BoxV@Gu@physx@@QAE@ABT__m128@@0@Z 100d8000 f i GuSweepsMesh.obj
 0001:000d7070       ??0CapsuleV@Gu@physx@@QAE@XZ 100d8070 f i GuSweepsMesh.obj
 0001:000d70d0       ??0ConvexVsMeshSweepCallback@@QAE@ABUConvexHullData@Gu@physx@@ABVPxMeshScale@3@ABVFastVertex2ShapeScaling@Cm@3@ABVPxTransform@3@3ABVPxVec3@3@MV?$PxFlags@W4Enum@PxHitFlag@physx@@G@3@_NM6@Z 100d80d0 f i GuSweepsMesh.obj
 0001:000d7500       ??0Matrix34Padded@@QAE@ABVMatrix34@Cm@physx@@@Z 100d8500 f i GuSweepsMesh.obj
 0001:000d7530       ??0PsTransformV@aos@shdfnd@physx@@QAE@ABT__m128@@0@Z 100d8530 f i GuSweepsMesh.obj
 0001:000d75c0       ??0PxMeshScale@physx@@QAE@ABVPxVec3@1@ABVPxQuat@1@@Z 100d85c0 f i GuSweepsMesh.obj
 0001:000d7660       ??0PxSweepHit@physx@@QAE@XZ 100d8660 f i GuSweepsMesh.obj
 0001:000d7680       ??0SweepBoxMeshHitCallback@@QAE@W4Enum@CallbackMode@Gu@physx@@ABVMatrix34Padded@@MM_NABVBox@34@ABVPxVec3@4@44ABV?$PxFlags@W4Enum@PxHitFlag@physx@@G@4@M@Z 100d8680 f i GuSweepsMesh.obj
 0001:000d7930       ??0SweepCapsuleCallback@@QAE@AAUPxSweepHit@physx@@ABVMatrix34@Cm@2@MM_NABVCapsule@Gu@2@ABVPxVec3@2@ABV?$PxFlags@W4Enum@PxHitFlag@physx@@G@2@@Z 100d8930 f i GuSweepsMesh.obj
 0001:000d7a40       ??1CapsuleV@Gu@physx@@QAE@XZ 100d8a40 f i GuSweepsMesh.obj
 0001:000d7a60       ??1ConvexVsMeshSweepCallback@@UAE@XZ 100d8a60 f i GuSweepsMesh.obj
 0001:000d7a90       ??1Matrix34Padded@@QAE@XZ  100d8a90 f i GuSweepsMesh.obj
 0001:000d7aa0       ??1SweepBoxMeshHitCallback@@UAE@XZ 100d8aa0 f i GuSweepsMesh.obj
 0001:000d7ad0       ??1SweepCapsuleCallback@@UAE@XZ 100d8ad0 f i GuSweepsMesh.obj
 0001:000d7af0       ??4PxSweepHit@physx@@QAEAAU01@ABU01@@Z 100d8af0 f i GuSweepsMesh.obj
 0001:000d7b30       ??B?$PxFlags@W4Enum@PxMeshGeometryFlag@physx@@E@physx@@QBE_NXZ 100d8b30 f i GuSweepsMesh.obj
 0001:000d7b60       ??I?$PxFlags@W4Enum@PxMeshGeometryFlag@physx@@E@physx@@QBE?AV01@W4Enum@PxMeshGeometryFlag@1@@Z 100d8b60 f i GuSweepsMesh.obj
 0001:000d7bb0       ??_GConvexVsMeshSweepCallback@@UAEPAXI@Z 100d8bb0 f i GuSweepsMesh.obj
 0001:000d7bb0       ??_EConvexVsMeshSweepCallback@@UAEPAXI@Z 100d8bb0 f i GuSweepsMesh.obj
 0001:000d7bf0       ??_GSweepBoxMeshHitCallback@@UAEPAXI@Z 100d8bf0 f i GuSweepsMesh.obj
 0001:000d7bf0       ??_ESweepBoxMeshHitCallback@@UAEPAXI@Z 100d8bf0 f i GuSweepsMesh.obj
 0001:000d7c30       ??_ESweepCapsuleCallback@@UAEPAXI@Z 100d8c30 f i GuSweepsMesh.obj
 0001:000d7c30       ??_GSweepCapsuleCallback@@UAEPAXI@Z 100d8c30 f i GuSweepsMesh.obj
 0001:000d7c70       ?QuatConjugate@aos@shdfnd@physx@@YA?AT__m128@@T4@@Z 100d8c70 f i GuSweepsMesh.obj
 0001:000d7ce0       ?QuatIdentity@aos@shdfnd@physx@@YA?AT__m128@@XZ 100d8ce0 f i GuSweepsMesh.obj
 0001:000d7d40       ?QuatLength@aos@shdfnd@physx@@YA?AT__m128@@T4@@Z 100d8d40 f i GuSweepsMesh.obj
 0001:000d7d90       ?QuatMul@aos@shdfnd@physx@@YA?AT__m128@@T4@0@Z 100d8d90 f i GuSweepsMesh.obj
 0001:000d7fc0       ?QuatRotateInv@aos@shdfnd@physx@@YA?AT__m128@@T4@0@Z 100d8fc0 f i GuSweepsMesh.obj
 0001:000d81a0       ?QuatTransform@aos@shdfnd@physx@@YA?AT__m128@@T4@00@Z 100d91a0 f i GuSweepsMesh.obj
 0001:000d83b0       ?V4Dot@aos@shdfnd@physx@@YA?AT__m128@@T4@0@Z 100d93b0 f i GuSweepsMesh.obj
 0001:000d84b0       ?V4Length@aos@shdfnd@physx@@YA?AT__m128@@T4@@Z 100d94b0 f i GuSweepsMesh.obj
 0001:000d8510       ?V4Scale@aos@shdfnd@physx@@YA?AT__m128@@T4@0@Z 100d9510 f i GuSweepsMesh.obj
 0001:000d8560       ?V4ScaleAdd@aos@shdfnd@physx@@YA?AT__m128@@T4@00@Z 100d9560 f i GuSweepsMesh.obj
 0001:000d85d0       ?V4StoreA@aos@shdfnd@physx@@YAXT__m128@@PAM@Z 100d95d0 f i GuSweepsMesh.obj
 0001:000d8610       ?finalize@SweepCapsuleCallback@@QAE_NAAUPxSweepHit@physx@@ABVCapsule@Gu@3@ABVPxTriangleMeshGeometry@3@ABVPxTransform@3@_NM@Z 100d9610 f i GuSweepsMesh.obj
 0001:000d88b0       ?getHull@ConvexMesh@Gu@physx@@QAEAAUConvexHullData@23@XZ 100d98b0 f i GuSweepsMesh.obj
 0001:000d88d0       ?getInverse@PxMeshScale@physx@@QBE?AV12@XZ 100d98d0 f i GuSweepsMesh.obj
 0001:000d8960       ?initialize@CapsuleV@Gu@physx@@QAEXABT__m128@@00@Z 100d9960 f i GuSweepsMesh.obj
 0001:000d8a30       ?initialize@ConvexHullV@Gu@physx@@QAEXPBUConvexHullData@23@ABT__m128@@11@Z 100d9a30 f i GuSweepsMesh.obj
 0001:000d8b70       ?isFinite@PsTransformV@aos@shdfnd@physx@@QBE_NXZ 100d9b70 f i GuSweepsMesh.obj
 0001:000d8bb0       ?isFiniteQuatV@aos@shdfnd@physx@@YA_NT__m128@@@Z 100d9bb0 f i GuSweepsMesh.obj
 0001:000d8bf0       ?isFiniteVec3V@aos@shdfnd@physx@@YA_NT__m128@@@Z 100d9bf0 f i GuSweepsMesh.obj
 0001:000d8cd0       ?isFiniteVec4V@aos@shdfnd@physx@@YA_NT__m128@@@Z 100d9cd0 f i GuSweepsMesh.obj
 0001:000d8de0       ?isSane@PsTransformV@aos@shdfnd@physx@@QBE_NXZ 100d9de0 f i GuSweepsMesh.obj
 0001:000d8e20       ?isSaneQuatV@aos@shdfnd@physx@@YA_NT__m128@@@Z 100d9e20 f i GuSweepsMesh.obj
 0001:000d8f50       ?isSet@?$PxFlags@W4Enum@PxHitFlag@physx@@G@physx@@QBE_NW4Enum@PxHitFlag@2@@Z 100d9f50 f i GuSweepsMesh.obj
 0001:000d8fa0       ?normalizeSafe@PxVec3@physx@@QAEMXZ 100d9fa0 f i GuSweepsMesh.obj
 0001:000d9000       ?processHit@ConvexVsMeshSweepCallback@@UAE_NABUPxRaycastHit@physx@@ABVPxVec3@3@11AAMPBI@Z 100da000 f i GuSweepsMesh.obj
 0001:000d91b0       ?processHit@SweepBoxMeshHitCallback@@UAE_NABUPxRaycastHit@physx@@ABVPxVec3@3@11AAMPBI@Z 100da1b0 f i GuSweepsMesh.obj
 0001:000d9920       ?processHit@SweepCapsuleCallback@@UAE_NABUPxRaycastHit@physx@@ABVPxVec3@3@11AAMPBI@Z 100da920 f i GuSweepsMesh.obj
 0001:000d9d20       ?rotate@PsTransformV@aos@shdfnd@physx@@QBE?AT__m128@@ABT5@@Z 100dad20 f i GuSweepsMesh.obj
 0001:000d9dd0       ?rotateInv@PsTransformV@aos@shdfnd@physx@@QBE?AT__m128@@ABT5@@Z 100dadd0 f i GuSweepsMesh.obj
 0001:000d9e80       ?rotateInv@PxTransform@physx@@QBE?AVPxVec3@2@ABV32@@Z 100dae80 f i GuSweepsMesh.obj
 0001:000d9f00       ?transform@PsTransformV@aos@shdfnd@physx@@QBE?AT__m128@@ABT5@@Z 100daf00 f i GuSweepsMesh.obj
 0001:000d9fc0       ?transformBounds@FastVertex2ShapeScaling@Cm@physx@@QBE?AVPxBounds3@3@ABV43@@Z 100dafc0 f i GuSweepsMesh.obj
 0001:000da050       ?transformInv@PsTransformV@aos@shdfnd@physx@@QBE?AV1234@ABV1234@@Z 100db050 f i GuSweepsMesh.obj
 0001:000da1c0       ?onRefCountZero@TriangleMesh@Gu@physx@@UAEXXZ 100db1c0 f   GuTriangleMesh.obj
 0001:000da240       ?exportExtraData@TriangleMesh@Gu@physx@@UAEXAAVPxSerializationContext@3@@Z 100db240 f   GuTriangleMesh.obj
 0001:000da260       ?importExtraData@TriangleMesh@Gu@physx@@QAEXAAVPxDeserializationContext@3@@Z 100db260 f   GuTriangleMesh.obj
 0001:000da280       ?createObject@TriangleMesh@Gu@physx@@SAPAV123@AAPAEAAVPxDeserializationContext@3@@Z 100db280 f   GuTriangleMesh.obj
 0001:000da300       ??0TriangleMesh@Gu@physx@@QAE@XZ 100db300 f   GuTriangleMesh.obj
 0001:000da370       ?load@TriangleMesh@Gu@physx@@QAE_NAAVPxInputStream@3@@Z 100db370 f   GuTriangleMesh.obj
 0001:000daa30       ?setupMeshInterface@TriangleMesh@Gu@physx@@QAEXXZ 100dba30 f   GuTriangleMesh.obj
 0001:000daa60       ?checkMeshIndicesSize@TriangleMesh@Gu@physx@@QAEXXZ 100dba60 f   GuTriangleMesh.obj
 0001:000dab70       ?release@TriangleMesh@Gu@physx@@UAEXXZ 100dbb70 f   GuTriangleMesh.obj
 0001:000dabc0       ?getReferenceCount@TriangleMesh@Gu@physx@@UBEIXZ 100dbbc0 f   GuTriangleMesh.obj
 0001:000dabe0       ??1TriangleMesh@Gu@physx@@UAE@XZ 100dbbe0 f   GuTriangleMesh.obj
 0001:000dac30       ?debugVisualize@TriangleMesh@Gu@physx@@QBEXAAVRenderOutput@Cm@3@ABVMatrix34@53@ABVPxMeshScale@3@ABVPxBounds3@3@_KMI@Z 100dbc30 f   GuTriangleMesh.obj
 0001:000dc300       ??$?_UE@@YAPAXIV?$ReflectionAllocator@E@shdfnd@physx@@PBDH@Z 100dd300 f i GuTriangleMesh.obj
 0001:000dc320       ??$deletePxBase@VTriangleMesh@Gu@physx@@@Cm@physx@@YAXPAVTriangleMesh@Gu@1@@Z 100dd320 f i GuTriangleMesh.obj
 0001:000dc3b0       ??0?$ReflectionAllocator@E@shdfnd@physx@@QAE@PBD@Z 100dd3b0 f i GuTriangleMesh.obj
 0001:000dc3d0       ??0PxTransform@physx@@QAE@XZ 100dd3d0 f i GuTriangleMesh.obj
 0001:000dc400       ??0PxTriangleMesh@physx@@IAE@GV?$PxFlags@W4Enum@PxBaseFlag@physx@@G@1@@Z 100dd400 f i GuTriangleMesh.obj
 0001:000dc440       ??4PxDebugLine@physx@@QAEAAU01@$$QAU01@@Z 100dd440 f i GuTriangleMesh.obj
 0001:000dc4a0       ?allocate@?$ReflectionAllocator@E@shdfnd@physx@@QAEPAXIPBDH@Z 100dd4a0 f i GuTriangleMesh.obj
 0001:000dc500       ?empty@PxBounds3@physx@@SA?AV12@XZ 100dd500 f i GuTriangleMesh.obj
 0001:000dc560       ?flip@physx@@YAXAAI@Z      100dd560 f i GuTriangleMesh.obj
 0001:000dc610       ?getName@?$ReflectionAllocator@E@shdfnd@physx@@CAPBDXZ 100dd610 f i GuTriangleMesh.obj
 0001:000dc660       ?isZero@PxVec3@physx@@QBE_NXZ 100dd660 f i GuTriangleMesh.obj
 0001:000dc6e0       ?resolveReferences@TriangleMesh@Gu@physx@@QAEXAAVPxDeserializationContext@3@@Z 100dd6e0 f i GuTriangleMesh.obj
 0001:000dc6f0       ?exportExtraData@HeightField@Gu@physx@@UAEXAAVPxSerializationContext@3@@Z 100dd6f0 f   GuHeightField.obj
 0001:000dc740       ?importExtraData@HeightField@Gu@physx@@QAEXAAVPxDeserializationContext@3@@Z 100dd740 f   GuHeightField.obj
 0001:000dc770       ?createObject@HeightField@Gu@physx@@SAPAV123@AAPAEAAVPxDeserializationContext@3@@Z 100dd770 f   GuHeightField.obj
 0001:000dc7e0       ??0HeightField@Gu@physx@@QAE@PAVGuMeshFactory@2@@Z 100dd7e0 f   GuHeightField.obj
 0001:000dc8c0       ?release@HeightField@Gu@physx@@UAEXXZ 100dd8c0 f   GuHeightField.obj
 0001:000dc910       ?saveCells@HeightField@Gu@physx@@UBEIPAXI@Z 100dd910 f   GuHeightField.obj
 0001:000dc960       ?modifySamples@HeightField@Gu@physx@@UAE_NHHABVPxHeightFieldDesc@3@_N@Z 100dd960 f   GuHeightField.obj
 0001:000dcc40       ?getReferenceCount@HeightField@Gu@physx@@UBEIXZ 100ddc40 f   GuHeightField.obj
 0001:000dcc60       ?onRefCountZero@HeightField@Gu@physx@@UAEXXZ 100ddc60 f   GuHeightField.obj
 0001:000dcd10       ?loadFromDesc@HeightField@Gu@physx@@QAE_NABVPxHeightFieldDesc@3@_N@Z 100ddd10 f   GuHeightField.obj
 0001:000dd160       ?load@HeightField@Gu@physx@@QAE_NAAVPxInputStream@3@@Z 100de160 f   GuHeightField.obj
 0001:000dd4c0       ?computeCellCoordinates@HeightField@Gu@physx@@QBEIMMAAM0@Z 100de4c0 f   GuHeightField.obj
 0001:000dd770       ?isSolidVertex@HeightField@Gu@physx@@QBE_NIIIGAA_N@Z 100de770 f   GuHeightField.obj
 0001:000dd900       ?isCollisionVertexPreca@HeightField@Gu@physx@@QBE_NIIIG@Z 100de900 f   GuHeightField.obj
 0001:000dda50       ?parseTrianglesForCollisionVertices@HeightField@Gu@physx@@QAEXG@Z 100dea50 f   GuHeightField.obj
 0001:000ddd20       ?computeExtreme@HeightField@Gu@physx@@QBEMIIII@Z 100ded20 f   GuHeightField.obj
 0001:000dde50       ?releaseMemory@HeightField@Gu@physx@@QAEX_N@Z 100dee50 f   GuHeightField.obj
 0001:000ddee0       ??1HeightField@Gu@physx@@UAE@XZ 100deee0 f   GuHeightField.obj
 0001:000ddf20       ?getVertexEdgeIndices@physx@@YAIABVHeightField@Gu@1@IIIQAUEdgeData@1@@Z 100def20 f   GuHeightField.obj
 0001:000de320       ?getEdgeTriangleIndices@physx@@YAIABVHeightField@Gu@1@ABUEdgeData@1@PIAI@Z 100df320 f   GuHeightField.obj
 0001:000ded60       ??$PxMax@H@physx@@YAHHH@Z  100dfd60 f i GuHeightField.obj
 0001:000ded90       ??$PxMin@H@physx@@YAHHH@Z  100dfd90 f i GuHeightField.obj
 0001:000dedc0       ??$deletePxBase@VHeightField@Gu@physx@@@Cm@physx@@YAXPAVHeightField@Gu@1@@Z 100dfdc0 f i GuHeightField.obj
 0001:000dee50       ??$readExtraData@UPxHeightFieldSample@physx@@$0BA@@PxDeserializationContext@physx@@QAEPAUPxHeightFieldSample@1@I@Z 100dfe50 f i GuHeightField.obj
 0001:000dee80       ??$readExtraData@UPxHeightFieldSample@physx@@@PxDeserializationContext@physx@@QAEPAUPxHeightFieldSample@1@I@Z 100dfe80 f i GuHeightField.obj
 0001:000deec0       ??0?$AlignedAllocator@$0BA@VAllocator@shdfnd@physx@@@shdfnd@physx@@QAE@ABVAllocator@12@@Z 100dfec0 f i GuHeightField.obj
 0001:000deee0       ??0?$BitMapBase@VAllocator@shdfnd@physx@@@Cm@physx@@QAE@XZ 100dfee0 f i GuHeightField.obj
 0001:000def20       ??0?$PxFlags@W4Enum@PxHeightFieldFlag@physx@@G@physx@@QAE@G@Z 100dff20 f i GuHeightField.obj
 0001:000def40       ??0HeightField@Gu@physx@@QAE@V?$PxFlags@W4Enum@PxBaseFlag@physx@@G@2@@Z 100dff40 f i GuHeightField.obj
 0001:000defc0       ??0PxHeightField@physx@@IAE@GV?$PxFlags@W4Enum@PxBaseFlag@physx@@G@1@@Z 100dffc0 f i GuHeightField.obj
 0001:000df000       ??0PxHeightField@physx@@IAE@V?$PxFlags@W4Enum@PxBaseFlag@physx@@G@1@@Z 100e0000 f i GuHeightField.obj
 0001:000df040       ??1?$BitMapBase@VAllocator@shdfnd@physx@@@Cm@physx@@QAE@XZ 100e0040 f i GuHeightField.obj
 0001:000df080       ??9?$PxFlags@W4Enum@PxHeightFieldFlag@physx@@G@physx@@QBE_NABV01@@Z 100e0080 f i GuHeightField.obj
 0001:000df0c0       ??_EHeightField@Gu@physx@@UAEPAXI@Z 100e00c0 f i GuHeightField.obj
 0001:000df194       ??_EHeightField@Gu@physx@@W7AEPAXI@Z 100e0194 f i GuHeightField.obj
 0001:000df1a0       ?anyHole@@YAIIG@Z          100e01a0 f i GuHeightField.obj
 0001:000df210       ?clear@?$BitMapBase@VAllocator@shdfnd@physx@@@Cm@physx@@QAEXI@Z 100e0210 f i GuHeightField.obj
 0001:000df260       ?clearBit@?$PxBitAndDataT@E$0IA@@physx@@QAEXXZ 100e0260 f i GuHeightField.obj
 0001:000df290       ?deallocate@?$AlignedAllocator@$0BA@VAllocator@shdfnd@physx@@@shdfnd@physx@@QAEXPAX@Z 100e0290 f i GuHeightField.obj
 0001:000df2e0       ?extendUninitialized@?$BitMapBase@VAllocator@shdfnd@physx@@@Cm@physx@@IAEXI@Z 100e02e0 f i GuHeightField.obj
 0001:000df380       ?flip@physx@@YAXAAF@Z      100e0380 f i GuHeightField.obj
 0001:000df3f0       ?getMaterialIndex01@HeightField@Gu@physx@@QBEII@Z 100e03f0 f i GuHeightField.obj
 0001:000df450       ?getMaxHeight@HeightField@Gu@physx@@QBEMXZ 100e0450 f i GuHeightField.obj
 0001:000df470       ?getMinHeight@HeightField@Gu@physx@@QBEMXZ 100e0470 f i GuHeightField.obj
 0001:000df490       ?getThicknessFast@HeightField@Gu@physx@@QBEMXZ 100e0490 f i GuHeightField.obj
 0001:000df4b0       ?getWordCount@?$BitMapBase@VAllocator@shdfnd@physx@@@Cm@physx@@QBEIXZ 100e04b0 f i GuHeightField.obj
 0001:000df4d0       ?isConvexVertex@HeightField@Gu@physx@@QBE_NIII@Z 100e04d0 f i GuHeightField.obj
 0001:000df740       ?isInUserMemory@?$BitMapBase@VAllocator@shdfnd@physx@@@Cm@physx@@QBEIXZ 100e0740 f i GuHeightField.obj
 0001:000df760       ?isValid@PxHeightFieldDesc@physx@@QBE_NXZ 100e0760 f i GuHeightField.obj
 0001:000df840       ?requires@HeightField@Gu@physx@@UAEXAAVPxProcessPxBaseCallback@3@@Z 100e0840 f i GuHeightField.obj
 0001:000df850       ?resolveReferences@HeightField@Gu@physx@@QAEXAAVPxDeserializationContext@3@@Z 100e0850 f i GuHeightField.obj
 0001:000df860       ?set@?$BitMapBase@VAllocator@shdfnd@physx@@@Cm@physx@@QAEXI@Z 100e0860 f i GuHeightField.obj
 0001:000df900       ?setBit@?$PxBitAndDataT@E$0IA@@physx@@QAEXXZ 100e0900 f i GuHeightField.obj
 0001:000df930       ?test@?$BitMapBase@VAllocator@shdfnd@physx@@@Cm@physx@@QBEHI@Z 100e0930 f i GuHeightField.obj
 0001:000dfa10       ?computeLocalBounds@HeightFieldUtil@Gu@physx@@QBEXAAVPxBounds3@3@@Z 100e0a10 f   GuHeightFieldUtil.obj
 0001:000dfb20       ?isCollisionEdge@HeightFieldUtil@Gu@physx@@QBE_NI@Z 100e0b20 f   GuHeightFieldUtil.obj
 0001:000dfc40       ?isCollisionEdge@HeightFieldUtil@Gu@physx@@QBE_NIIPIBIIII@Z 100e0c40 f   GuHeightFieldUtil.obj
 0001:000dfd60       ?isBoundaryEdge@HeightFieldUtil@Gu@physx@@QBE_NI@Z 100e0d60 f   GuHeightFieldUtil.obj
 0001:000dfe60       ?getFaceIndexAtShapePoint@HeightFieldUtil@Gu@physx@@QBEIMM@Z 100e0e60 f   GuHeightFieldUtil.obj
 0001:000dff00       ?getFaceIndexAtShapePointNoTest@HeightFieldUtil@Gu@physx@@QBEIMM@Z 100e0f00 f   GuHeightFieldUtil.obj
 0001:000dffd0       ?getFaceIndexAtShapePointNoTest2@HeightFieldUtil@Gu@physx@@QBEIIMM@Z 100e0fd0 f   GuHeightFieldUtil.obj
 0001:000e0030       ?getFaceIndexAtTriangleIndex@HeightFieldUtil@Gu@physx@@QBEII@Z 100e1030 f   GuHeightFieldUtil.obj
 0001:000e0070       ?getSmoothNormalAtShapePoint@HeightFieldUtil@Gu@physx@@QBE?AVPxVec3@3@MM@Z 100e1070 f   GuHeightFieldUtil.obj
 0001:000e0460       ?getVertexNormal@HeightFieldUtil@Gu@physx@@QBE?AVPxVec3@3@III@Z 100e1460 f   GuHeightFieldUtil.obj
 0001:000e0690       ?getVertexFaceIndex@HeightFieldUtil@Gu@physx@@QBEIIII@Z 100e1690 f   GuHeightFieldUtil.obj
 0001:000e07d0       ?getEdge@HeightFieldUtil@Gu@physx@@QBEXIIIIAAVPxVec3@3@0@Z 100e17d0 f   GuHeightFieldUtil.obj
 0001:000e0de0       ?getEdgeFaceIndex@HeightFieldUtil@Gu@physx@@QBEII@Z 100e1de0 f   GuHeightFieldUtil.obj
 0001:000e0ea0       ?getEdgeFaceIndex@HeightFieldUtil@Gu@physx@@QBEIIIII@Z 100e1ea0 f   GuHeightFieldUtil.obj
 0001:000e0f70       ?getEdgeFaceIndex@HeightFieldUtil@Gu@physx@@QBEIIIPIBI@Z 100e1f70 f   GuHeightFieldUtil.obj
 0001:000e1030       ?findClosestPointsOnCell@HeightFieldUtil@Gu@physx@@QBEIIIVPxVec3@3@PIAV43@PIAI_N33@Z 100e2030 f   GuHeightFieldUtil.obj
 0001:000e1a00       ?findProjectionOnTriangle@HeightFieldUtil@Gu@physx@@QBE_NIIIABVPxVec3@3@AAV43@@Z 100e2a00 f   GuHeightFieldUtil.obj
 0001:000e20b0       ?findClosestPointOnEdge@HeightFieldUtil@Gu@physx@@QBEMIIIIABVPxVec3@3@AAV43@@Z 100e30b0 f   GuHeightFieldUtil.obj
 0001:000e2920       ?getTriangle@HeightFieldUtil@Gu@physx@@QBEIABVPxTransform@3@AAVPxTriangle@3@PAI2I_N3@Z 100e3920 f   GuHeightFieldUtil.obj
 0001:000e2d80       ?overlapAABBTriangles@HeightFieldUtil@Gu@physx@@QBE_NABVPxTransform@3@ABVPxBounds3@3@IPAV?$EntityReport@I@23@@Z 100e3d80 f   GuHeightFieldUtil.obj
 0001:000e40e0       ??$PxClamp@H@physx@@YAHHHH@Z 100e50e0 f i GuHeightFieldUtil.obj
 0001:000e4160       ??B?$PxFlags@W4Enum@PxHeightFieldFlag@physx@@G@physx@@QBEIXZ 100e5160 f i GuHeightFieldUtil.obj
 0001:000e4180       ?ceil@shdfnd@physx@@YAMM@Z 100e5180 f i GuHeightFieldUtil.obj
 0001:000e41a0       ?floatFloor@shdfnd@physx@@YAMM@Z 100e51a0 f i GuHeightFieldUtil.obj
 0001:000e41c0       ?floor@shdfnd@physx@@YAMM@Z 100e51c0 f i GuHeightFieldUtil.obj
 0001:000e41e0       ?getEdgeTriangleIndices@HeightField@Gu@physx@@QBEIIQAI@Z 100e51e0 f i GuHeightFieldUtil.obj
 0001:000e43e0       ?getEdgeTriangleIndices@HeightField@Gu@physx@@QBEIIQAIIII@Z 100e53e0 f i GuHeightFieldUtil.obj
 0001:000e45a0       ?getFlagsFast@HeightField@Gu@physx@@QBEIXZ 100e55a0 f i GuHeightFieldUtil.obj
 0001:000e45c0       ?getMaxColumn@HeightField@Gu@physx@@QBEIM@Z 100e55c0 f i GuHeightFieldUtil.obj
 0001:000e4610       ?getMaxRow@HeightField@Gu@physx@@QBEIM@Z 100e5610 f i GuHeightFieldUtil.obj
 0001:000e4660       ?getMinColumn@HeightField@Gu@physx@@QBEIM@Z 100e5660 f i GuHeightFieldUtil.obj
 0001:000e46b0       ?getMinRow@HeightField@Gu@physx@@QBEIM@Z 100e56b0 f i GuHeightFieldUtil.obj
 0001:000e4700       ?getTriangleAdjacencyIndices@HeightField@Gu@physx@@QBEXIIIIAAI00@Z 100e5700 f i GuHeightFieldUtil.obj
 0001:000e4980       ?getTriangleIndex2@HeightField@Gu@physx@@QBEIIMM@Z 100e5980 f i GuHeightFieldUtil.obj
 0001:000e4a10       ?getTriangleIndex@HeightField@Gu@physx@@QBEIMM@Z 100e5a10 f i GuHeightFieldUtil.obj
 0001:000e4a80       ?getVertex@HeightField@Gu@physx@@QBE?AVPxVec3@3@I@Z 100e5a80 f i GuHeightFieldUtil.obj
 0001:000e4b40       ?isConvexEdge@HeightField@Gu@physx@@QBE_NI@Z 100e5b40 f i GuHeightFieldUtil.obj
 0001:000e4bb0       ?isConvexEdge@HeightField@Gu@physx@@QBE_NIIII@Z 100e5bb0 f i GuHeightFieldUtil.obj
 0001:000e5080       ?isValidTriangle@HeightField@Gu@physx@@QBE_NI@Z 100e6080 f i GuHeightFieldUtil.obj
 0001:000e50f0       ?intersectHeightFieldSphere@Gu@physx@@YA_NABVHeightFieldUtil@12@ABVSphere@12@@Z 100e60f0 f   GuOverlapTestsHF.obj
 0001:000e5390       ?intersectHeightFieldCapsule@Gu@physx@@YA_NABVHeightFieldUtil@12@ABVCapsule@12@@Z 100e6390 f   GuOverlapTestsHF.obj
 0001:000e59f0       ?intersectHeightFieldBox@Gu@physx@@YA_NABVHeightFieldUtil@12@ABVBox@12@@Z 100e69f0 f   GuOverlapTestsHF.obj
 0001:000e6100       ?intersectHeightFieldConvex@Gu@physx@@YA_NABVHeightFieldUtil@12@ABVPxTransform@2@ABVConvexMesh@12@1ABVPxMeshScale@2@@Z 100e7100 f   GuOverlapTestsHF.obj
 0001:000e6ab0       ?checkOverlapSphere_heightFieldGeom@Gu@physx@@YA_NABVPxGeometry@2@ABVPxTransform@2@ABVSphere@12@@Z 100e7ab0 f   GuOverlapTestsHF.obj
 0001:000e6b70       ?checkOverlapOBB_heightFieldGeom@Gu@physx@@YA_NABVPxGeometry@2@ABVPxTransform@2@ABVBox@12@@Z 100e7b70 f   GuOverlapTestsHF.obj
 0001:000e6c60       ?checkOverlapCapsule_heightFieldGeom@Gu@physx@@YA_NABVPxGeometry@2@ABVPxTransform@2@ABVCapsule@12@@Z 100e7c60 f   GuOverlapTestsHF.obj
 0001:000e6de0       ?GeomOverlapCallback_SphereHeightfield@@YA_NABVPxGeometry@physx@@ABVPxTransform@2@01PAUTriggerCache@Gu@2@@Z 100e7de0 f   GuOverlapTestsHF.obj
 0001:000e6ee0       ?GeomOverlapCallback_PlaneHeightfield@@YA_NABVPxGeometry@physx@@ABVPxTransform@2@01PAUTriggerCache@Gu@2@@Z 100e7ee0 f   GuOverlapTestsHF.obj
 0001:000e6fe0       ?GeomOverlapCallback_CapsuleHeightfield@@YA_NABVPxGeometry@physx@@ABVPxTransform@2@01PAUTriggerCache@Gu@2@@Z 100e7fe0 f   GuOverlapTestsHF.obj
 0001:000e70e0       ?GeomOverlapCallback_BoxHeightfield@@YA_NABVPxGeometry@physx@@ABVPxTransform@2@01PAUTriggerCache@Gu@2@@Z 100e80e0 f   GuOverlapTestsHF.obj
 0001:000e71f0       ?GeomOverlapCallback_ConvexHeightfield@@YA_NABVPxGeometry@physx@@ABVPxTransform@2@01PAUTriggerCache@Gu@2@@Z 100e81f0 f   GuOverlapTestsHF.obj
 0001:000e7b40       ??$PX_UNUSED@PAV?$Array@IVNamedAllocator@shdfnd@physx@@@shdfnd@physx@@@@YAXABQAV?$Array@IVNamedAllocator@shdfnd@physx@@@shdfnd@physx@@@Z 100e8b40 f i GuOverlapTestsHF.obj
 0001:000e7b50       ??$PX_UNUSED@VPxGeometry@physx@@@@YAXABVPxGeometry@physx@@@Z 100e8b50 f i GuOverlapTestsHF.obj
 0001:000e7b60       ??$PX_UNUSED@VPxTransform@physx@@@@YAXABVPxTransform@physx@@@Z 100e8b60 f i GuOverlapTestsHF.obj
 0001:000e7b70       ??$traceSegment@UTriggerTraceSegmentCallback@Gu@physx@@$0A@$0A@$0A@@HeightFieldUtil@Gu@physx@@QBEXABVPxVec3@2@0PAUTriggerTraceSegmentCallback@12@PBV32@@Z 100e8b70 f i GuOverlapTestsHF.obj
 0001:000e9d30       ??0?$OverlapTraceSegment@UTriggerTraceSegmentCallback@Gu@physx@@@HeightFieldUtil@Gu@physx@@QAE@ABV123@ABVHeightField@23@@Z 100ead30 f i GuOverlapTestsHF.obj
 0001:000e9d90       ??0EdgeCache@Gu@physx@@QAE@XZ 100ead90 f i GuOverlapTestsHF.obj
 0001:000e9dc0       ??0Matrix34@Cm@physx@@QAE@ABVPxMat33@2@@Z 100eadc0 f i GuOverlapTestsHF.obj
 0001:000e9e30       ??0TriggerTraceSegmentCallback@Gu@physx@@QAE@XZ 100eae30 f i GuOverlapTestsHF.obj
 0001:000e9e50       ?V4AllGrtr@aos@shdfnd@physx@@YAIT__m128@@0@Z 100eae50 f i GuOverlapTestsHF.obj
 0001:000e9eb0       ?addIndex@?$OverlapTraceSegment@UTriggerTraceSegmentCallback@Gu@physx@@@HeightFieldUtil@Gu@physx@@QAE_NI@Z 100eaeb0 f i GuOverlapTestsHF.obj
 0001:000e9f20       ?computeRectangleDifference@?$OverlapTraceSegment@UTriggerTraceSegmentCallback@Gu@physx@@@HeightFieldUtil@Gu@physx@@QAEXABUOverlapRectangle@1234@0AAUOverlapLine@1234@@Z 100eaf20 f i GuOverlapTestsHF.obj
 0001:000ea010       ?distanceSegmentSegmentSquared@Gu@physx@@YAMABVSegment@12@0PAM1@Z 100eb010 f i GuOverlapTestsHF.obj
 0001:000ea060       ?faceHit@TriggerTraceSegmentCallback@Gu@physx@@QAE_NABVHeightFieldUtil@23@ABVPxVec3@3@I@Z 100eb060 f i GuOverlapTestsHF.obj
 0001:000ea080       ?getInverse@PsTransformV@aos@shdfnd@physx@@QBE?AV1234@XZ 100eb080 f i GuOverlapTestsHF.obj
 0001:000ea160       ?hash@EdgeCache@Gu@physx@@QBEII@Z 100eb160 f i GuOverlapTestsHF.obj
 0001:000ea190       ?init@?$OverlapTraceSegment@UTriggerTraceSegmentCallback@Gu@physx@@@HeightFieldUtil@Gu@physx@@QAE_NHHHHHPAUTriggerTraceSegmentCallback@34@PAV?$Array@IVNamedAllocator@shdfnd@physx@@@shdfnd@4@@Z 100eb190 f i GuOverlapTestsHF.obj
 0001:000ea2b0       ?initialized@?$OverlapTraceSegment@UTriggerTraceSegmentCallback@Gu@physx@@@HeightFieldUtil@Gu@physx@@QBE_NXZ 100eb2b0 f i GuOverlapTestsHF.obj
 0001:000ea2d0       ?intersectRayTriangle@Gu@physx@@YA_NABVPxVec3@2@0000AAM11_NM@Z 100eb2d0 f i GuOverlapTestsHF.obj
 0001:000ea380       ?invalidate@OverlapRectangle@?$OverlapTraceSegment@UTriggerTraceSegmentCallback@Gu@physx@@@HeightFieldUtil@Gu@physx@@QAEXXZ 100eb380 f i GuOverlapTestsHF.obj
 0001:000ea3c0       ?isDeltaHeightInsideExtent@HeightField@Gu@physx@@QBE_NMM@Z 100eb3c0 f i GuOverlapTestsHF.obj
 0001:000ea460       ?isDeltaHeightOppositeExtent@HeightField@Gu@physx@@QBE_NM@Z 100eb460 f i GuOverlapTestsHF.obj
 0001:000ea4d0       ?isInCache@EdgeCache@Gu@physx@@QAE_NEE@Z 100eb4d0 f i GuOverlapTestsHF.obj
 0001:000ea590       ?onEvent@TriggerTraceSegmentCallback@Gu@physx@@QAE_NIPAI@Z 100eb590 f i GuOverlapTestsHF.obj
 0001:000ea5b0       ?prepare@?$OverlapTraceSegment@UTriggerTraceSegmentCallback@Gu@physx@@@HeightFieldUtil@Gu@physx@@QAEXABVPxVec3@4@00AAM1@Z 100eb5b0 f i GuOverlapTestsHF.obj
 0001:000ea940       ?reportOverlaps@?$OverlapTraceSegment@UTriggerTraceSegmentCallback@Gu@physx@@@HeightFieldUtil@Gu@physx@@QAE_NXZ 100eb940 f i GuOverlapTestsHF.obj
 0001:000ea9a0       ?step@?$OverlapTraceSegment@UTriggerTraceSegmentCallback@Gu@physx@@@HeightFieldUtil@Gu@physx@@QAE_NHH@Z 100eb9a0 f i GuOverlapTestsHF.obj
 0001:000eaa80       ?testVertexIndex@?$OverlapTraceSegment@UTriggerTraceSegmentCallback@Gu@physx@@@HeightFieldUtil@Gu@physx@@QAE_NI@Z 100eba80 f i GuOverlapTestsHF.obj
 0001:000eac20       ?underFaceHit@TriggerTraceSegmentCallback@Gu@physx@@QAE_NABVHeightFieldUtil@23@ABVPxVec3@3@1MMMI@Z 100ebc20 f i GuOverlapTestsHF.obj
 0001:000eac40       ?visitCells@?$OverlapTraceSegment@UTriggerTraceSegmentCallback@Gu@physx@@@HeightFieldUtil@Gu@physx@@QAE_NABUOverlapLine@1234@@Z 100ebc40 f i GuOverlapTestsHF.obj
 0001:000eae10       ?visitCells@?$OverlapTraceSegment@UTriggerTraceSegmentCallback@Gu@physx@@@HeightFieldUtil@Gu@physx@@QAE_NABUOverlapRectangle@1234@@Z 100ebe10 f i GuOverlapTestsHF.obj
 0001:000eb270       ?sweepCapsule_HeightFieldGeom@@YA_NABVPxGeometry@physx@@ABVPxTransform@2@ABVCapsule@Gu@2@ABVPxVec3@2@MAAUPxSweepHit@2@V?$PxFlags@W4Enum@PxHitFlag@physx@@G@2@M@Z 100ec270 f   GuSweepsHF.obj
 0001:000eb6f0       ?sweepConvex_HeightFieldGeom@@YA_NABVPxGeometry@physx@@ABVPxTransform@2@ABVPxConvexMeshGeometry@2@1ABVPxVec3@2@MAAUPxSweepHit@2@V?$PxFlags@W4Enum@PxHitFlag@physx@@G@2@M@Z 100ec6f0 f   GuSweepsHF.obj
 0001:000ebbf0       ?sweepBox_HeightFieldGeom@@YA_NABVPxGeometry@physx@@ABVPxTransform@2@ABVBox@Gu@2@ABVPxVec3@2@MAAUPxSweepHit@2@V?$PxFlags@W4Enum@PxHitFlag@physx@@G@2@M@Z 100ecbf0 f   GuSweepsHF.obj
 0001:000ec5e0       ??$PX_UNUSED@V?$PxFlags@W4Enum@PxHitFlag@physx@@G@physx@@@@YAXABV?$PxFlags@W4Enum@PxHitFlag@physx@@G@physx@@@Z 100ed5e0 f i GuSweepsHF.obj
 0001:000ec5f0       ??$traceSegment@UBoxTraceSegmentReport@@$0A@$0A@$00@HeightFieldUtil@Gu@physx@@QBEXABVPxVec3@2@0PAUBoxTraceSegmentReport@@PBV32@@Z 100ed5f0 f i GuSweepsHF.obj
 0001:000ee7d0       ??$traceSegment@UCapsuleTraceSegmentReport@@$0A@$0A@$00@HeightFieldUtil@Gu@physx@@QBEXABVPxVec3@2@0PAUCapsuleTraceSegmentReport@@PBV32@@Z 100ef7d0 f i GuSweepsHF.obj
 0001:000f09b0       ??$traceSegment@VConvexVsHeightfieldSweep@@$0A@$0A@$00@HeightFieldUtil@Gu@physx@@QBEXABVPxVec3@2@0PAVConvexVsHeightfieldSweep@@PBV32@@Z 100f19b0 f i GuSweepsHF.obj
 0001:000f2b90       ??0?$OverlapTraceSegment@UBoxTraceSegmentReport@@@HeightFieldUtil@Gu@physx@@QAE@ABV123@ABVHeightField@23@@Z 100f3b90 f i GuSweepsHF.obj
 0001:000f2bf0       ??0?$OverlapTraceSegment@UCapsuleTraceSegmentReport@@@HeightFieldUtil@Gu@physx@@QAE@ABV123@ABVHeightField@23@@Z 100f3bf0 f i GuSweepsHF.obj
 0001:000f2c50       ??0?$OverlapTraceSegment@VConvexVsHeightfieldSweep@@@HeightFieldUtil@Gu@physx@@QAE@ABV123@ABVHeightField@23@@Z 100f3c50 f i GuSweepsHF.obj
 0001:000f2cb0       ??0BoxTraceSegmentReport@@QAE@XZ 100f3cb0 f i GuSweepsHF.obj
 0001:000f2cf0       ??0CapsuleTraceSegmentReport@@QAE@XZ 100f3cf0 f i GuSweepsHF.obj
 0001:000f2d30       ??0ConvexVsHeightfieldSweep@@QAE@AAVHeightFieldUtil@Gu@physx@@ABUConvexHullData@23@ABVPxMeshScale@3@ABVPxTransform@3@3ABVPxVec3@3@MV?$PxFlags@W4Enum@PxHitFlag@physx@@G@3@M_N_N@Z 100f3d30 f i GuSweepsHF.obj
 0001:000f3150       ??1BoxTraceSegmentReport@@UAE@XZ 100f4150 f i GuSweepsHF.obj
 0001:000f3170       ??1CapsuleTraceSegmentReport@@UAE@XZ 100f4170 f i GuSweepsHF.obj
 0001:000f3190       ??1ConvexVsHeightfieldSweep@@UAE@XZ 100f4190 f i GuSweepsHF.obj
 0001:000f31c0       ??4PxTransform@physx@@QAEAAV01@$$QAV01@@Z 100f41c0 f i GuSweepsHF.obj
 0001:000f3200       ??_GBoxTraceSegmentReport@@UAEPAXI@Z 100f4200 f i GuSweepsHF.obj
 0001:000f3200       ??_EBoxTraceSegmentReport@@UAEPAXI@Z 100f4200 f i GuSweepsHF.obj
 0001:000f3240       ??_ECapsuleTraceSegmentReport@@UAEPAXI@Z 100f4240 f i GuSweepsHF.obj
 0001:000f3240       ??_GCapsuleTraceSegmentReport@@UAEPAXI@Z 100f4240 f i GuSweepsHF.obj
 0001:000f3280       ??_EConvexVsHeightfieldSweep@@UAEPAXI@Z 100f4280 f i GuSweepsHF.obj
 0001:000f3280       ??_GConvexVsHeightfieldSweep@@UAEPAXI@Z 100f4280 f i GuSweepsHF.obj
 0001:000f32c0       ?QuatVLoadA@aos@shdfnd@physx@@YA?AT__m128@@PBM@Z 100f42c0 f i GuSweepsHF.obj
 0001:000f3310       ?V3LoadA@aos@shdfnd@physx@@YA?AT__m128@@PBM@Z 100f4310 f i GuSweepsHF.obj
 0001:000f3360       ?addIndex@?$OverlapTraceSegment@UBoxTraceSegmentReport@@@HeightFieldUtil@Gu@physx@@QAE_NI@Z 100f4360 f i GuSweepsHF.obj
 0001:000f33d0       ?addIndex@?$OverlapTraceSegment@UCapsuleTraceSegmentReport@@@HeightFieldUtil@Gu@physx@@QAE_NI@Z 100f43d0 f i GuSweepsHF.obj
 0001:000f3440       ?addIndex@?$OverlapTraceSegment@VConvexVsHeightfieldSweep@@@HeightFieldUtil@Gu@physx@@QAE_NI@Z 100f4440 f i GuSweepsHF.obj
 0001:000f34b0       ?computeRectangleDifference@?$OverlapTraceSegment@UBoxTraceSegmentReport@@@HeightFieldUtil@Gu@physx@@QAEXABUOverlapRectangle@1234@0AAUOverlapLine@1234@@Z 100f44b0 f i GuSweepsHF.obj
 0001:000f35a0       ?computeRectangleDifference@?$OverlapTraceSegment@UCapsuleTraceSegmentReport@@@HeightFieldUtil@Gu@physx@@QAEXABUOverlapRectangle@1234@0AAUOverlapLine@1234@@Z 100f45a0 f i GuSweepsHF.obj
 0001:000f3690       ?computeRectangleDifference@?$OverlapTraceSegment@VConvexVsHeightfieldSweep@@@HeightFieldUtil@Gu@physx@@QAEXABUOverlapRectangle@1234@0AAUOverlapLine@1234@@Z 100f4690 f i GuSweepsHF.obj
 0001:000f3780       ?faceHit@BoxTraceSegmentReport@@QAE_NABVHeightFieldUtil@Gu@physx@@ABVPxVec3@4@I@Z 100f4780 f i GuSweepsHF.obj
 0001:000f37a0       ?faceHit@CapsuleTraceSegmentReport@@QAE_NABVHeightFieldUtil@Gu@physx@@ABVPxVec3@4@I@Z 100f47a0 f i GuSweepsHF.obj
 0001:000f37c0       ?faceHit@ConvexVsHeightfieldSweep@@QAE_NABVHeightFieldUtil@Gu@physx@@ABVPxVec3@4@I@Z 100f47c0 f i GuSweepsHF.obj
 0001:000f37e0       ?init@?$OverlapTraceSegment@UBoxTraceSegmentReport@@@HeightFieldUtil@Gu@physx@@QAE_NHHHHHPAUBoxTraceSegmentReport@@PAV?$Array@IVNamedAllocator@shdfnd@physx@@@shdfnd@4@@Z 100f47e0 f i GuSweepsHF.obj
 0001:000f3900       ?init@?$OverlapTraceSegment@UCapsuleTraceSegmentReport@@@HeightFieldUtil@Gu@physx@@QAE_NHHHHHPAUCapsuleTraceSegmentReport@@PAV?$Array@IVNamedAllocator@shdfnd@physx@@@shdfnd@4@@Z 100f4900 f i GuSweepsHF.obj
 0001:000f3a20       ?init@?$OverlapTraceSegment@VConvexVsHeightfieldSweep@@@HeightFieldUtil@Gu@physx@@QAE_NHHHHHPAVConvexVsHeightfieldSweep@@PAV?$Array@IVNamedAllocator@shdfnd@physx@@@shdfnd@4@@Z 100f4a20 f i GuSweepsHF.obj
 0001:000f3b40       ?initialized@?$OverlapTraceSegment@UBoxTraceSegmentReport@@@HeightFieldUtil@Gu@physx@@QBE_NXZ 100f4b40 f i GuSweepsHF.obj
 0001:000f3b60       ?initialized@?$OverlapTraceSegment@UCapsuleTraceSegmentReport@@@HeightFieldUtil@Gu@physx@@QBE_NXZ 100f4b60 f i GuSweepsHF.obj
 0001:000f3b80       ?initialized@?$OverlapTraceSegment@VConvexVsHeightfieldSweep@@@HeightFieldUtil@Gu@physx@@QBE_NXZ 100f4b80 f i GuSweepsHF.obj
 0001:000f3ba0       ?invalidate@OverlapRectangle@?$OverlapTraceSegment@UBoxTraceSegmentReport@@@HeightFieldUtil@Gu@physx@@QAEXXZ 100f4ba0 f i GuSweepsHF.obj
 0001:000f3be0       ?invalidate@OverlapRectangle@?$OverlapTraceSegment@UCapsuleTraceSegmentReport@@@HeightFieldUtil@Gu@physx@@QAEXXZ 100f4be0 f i GuSweepsHF.obj
 0001:000f3c20       ?invalidate@OverlapRectangle@?$OverlapTraceSegment@VConvexVsHeightfieldSweep@@@HeightFieldUtil@Gu@physx@@QAEXXZ 100f4c20 f i GuSweepsHF.obj
 0001:000f3c60       ?onEvent@BoxTraceSegmentReport@@UAE_NIPAI@Z 100f4c60 f i GuSweepsHF.obj
 0001:000f41a0       ?onEvent@CapsuleTraceSegmentReport@@UAE_NIPAI@Z 100f51a0 f i GuSweepsHF.obj
 0001:000f43a0       ?onEvent@ConvexVsHeightfieldSweep@@UAE_NIPAI@Z 100f53a0 f i GuSweepsHF.obj
 0001:000f4590       ?prepare@?$OverlapTraceSegment@UBoxTraceSegmentReport@@@HeightFieldUtil@Gu@physx@@QAEXABVPxVec3@4@00AAM1@Z 100f5590 f i GuSweepsHF.obj
 0001:000f4920       ?prepare@?$OverlapTraceSegment@UCapsuleTraceSegmentReport@@@HeightFieldUtil@Gu@physx@@QAEXABVPxVec3@4@00AAM1@Z 100f5920 f i GuSweepsHF.obj
 0001:000f4cb0       ?prepare@?$OverlapTraceSegment@VConvexVsHeightfieldSweep@@@HeightFieldUtil@Gu@physx@@QAEXABVPxVec3@4@00AAM1@Z 100f5cb0 f i GuSweepsHF.obj
 0001:000f5040       ?reportOverlaps@?$OverlapTraceSegment@UBoxTraceSegmentReport@@@HeightFieldUtil@Gu@physx@@QAE_NXZ 100f6040 f i GuSweepsHF.obj
 0001:000f50a0       ?reportOverlaps@?$OverlapTraceSegment@UCapsuleTraceSegmentReport@@@HeightFieldUtil@Gu@physx@@QAE_NXZ 100f60a0 f i GuSweepsHF.obj
 0001:000f5100       ?reportOverlaps@?$OverlapTraceSegment@VConvexVsHeightfieldSweep@@@HeightFieldUtil@Gu@physx@@QAE_NXZ 100f6100 f i GuSweepsHF.obj
 0001:000f5160       ?step@?$OverlapTraceSegment@UBoxTraceSegmentReport@@@HeightFieldUtil@Gu@physx@@QAE_NHH@Z 100f6160 f i GuSweepsHF.obj
 0001:000f5240       ?step@?$OverlapTraceSegment@UCapsuleTraceSegmentReport@@@HeightFieldUtil@Gu@physx@@QAE_NHH@Z 100f6240 f i GuSweepsHF.obj
 0001:000f5320       ?step@?$OverlapTraceSegment@VConvexVsHeightfieldSweep@@@HeightFieldUtil@Gu@physx@@QAE_NHH@Z 100f6320 f i GuSweepsHF.obj
 0001:000f5400       ?testVertexIndex@?$OverlapTraceSegment@UBoxTraceSegmentReport@@@HeightFieldUtil@Gu@physx@@QAE_NI@Z 100f6400 f i GuSweepsHF.obj
 0001:000f55a0       ?testVertexIndex@?$OverlapTraceSegment@UCapsuleTraceSegmentReport@@@HeightFieldUtil@Gu@physx@@QAE_NI@Z 100f65a0 f i GuSweepsHF.obj
 0001:000f5740       ?testVertexIndex@?$OverlapTraceSegment@VConvexVsHeightfieldSweep@@@HeightFieldUtil@Gu@physx@@QAE_NI@Z 100f6740 f i GuSweepsHF.obj
 0001:000f58e0       ?underFaceHit@BoxTraceSegmentReport@@QAE_NABVHeightFieldUtil@Gu@physx@@ABVPxVec3@4@1MMMI@Z 100f68e0 f i GuSweepsHF.obj
 0001:000f5900       ?underFaceHit@CapsuleTraceSegmentReport@@QAE_NABVHeightFieldUtil@Gu@physx@@ABVPxVec3@4@1MMMI@Z 100f6900 f i GuSweepsHF.obj
 0001:000f5920       ?underFaceHit@ConvexVsHeightfieldSweep@@QAE_NABVHeightFieldUtil@Gu@physx@@ABVPxVec3@4@1MMMI@Z 100f6920 f i GuSweepsHF.obj
 0001:000f5940       ?visitCells@?$OverlapTraceSegment@UBoxTraceSegmentReport@@@HeightFieldUtil@Gu@physx@@QAE_NABUOverlapLine@1234@@Z 100f6940 f i GuSweepsHF.obj
 0001:000f5b10       ?visitCells@?$OverlapTraceSegment@UBoxTraceSegmentReport@@@HeightFieldUtil@Gu@physx@@QAE_NABUOverlapRectangle@1234@@Z 100f6b10 f i GuSweepsHF.obj
 0001:000f5c10       ?visitCells@?$OverlapTraceSegment@UCapsuleTraceSegmentReport@@@HeightFieldUtil@Gu@physx@@QAE_NABUOverlapLine@1234@@Z 100f6c10 f i GuSweepsHF.obj
 0001:000f5de0       ?visitCells@?$OverlapTraceSegment@UCapsuleTraceSegmentReport@@@HeightFieldUtil@Gu@physx@@QAE_NABUOverlapRectangle@1234@@Z 100f6de0 f i GuSweepsHF.obj
 0001:000f5ee0       ?visitCells@?$OverlapTraceSegment@VConvexVsHeightfieldSweep@@@HeightFieldUtil@Gu@physx@@QAE_NABUOverlapLine@1234@@Z 100f6ee0 f i GuSweepsHF.obj
 0001:000f60b0       ?visitCells@?$OverlapTraceSegment@VConvexVsHeightfieldSweep@@@HeightFieldUtil@Gu@physx@@QAE_NABUOverlapRectangle@1234@@Z 100f70b0 f i GuSweepsHF.obj
 0001:000f61b0       ?pcmContactBoxBox@Gu@physx@@YA_NABVGeometryUnion@12@0ABVPxTransform@2@1ABMAAUCache@12@AAVContactBuffer@12@@Z 100f71b0 f   GuPCMContactBoxBox.obj
 0001:000fc0b0       ??0ShrunkBoxV@Gu@physx@@QAE@ABT__m128@@0@Z 100fd0b0 f i GuPCMContactBoxBox.obj
 0001:000fc190       ??1ShrunkBoxV@Gu@physx@@QAE@XZ 100fd190 f i GuPCMContactBoxBox.obj
 0001:000fc1b0       ?BTTFT@aos@shdfnd@physx@@YA?AT__m128@@XZ 100fd1b0 f i GuPCMContactBoxBox.obj
 0001:000fc200       ?CalculatePCMBoxMargin@Gu@physx@@YA?AT__m128@@ABT3@@Z 100fd200 f i GuPCMContactBoxBox.obj
 0001:000fc290       ?QuatDot@aos@shdfnd@physx@@YA?AT__m128@@T4@0@Z 100fd290 f i GuPCMContactBoxBox.obj
 0001:000fc2e0       ?V3ExtractMax@aos@shdfnd@physx@@YA?AT__m128@@T4@@Z 100fd2e0 f i GuPCMContactBoxBox.obj
 0001:000fc390       ?V3RecipFast@aos@shdfnd@physx@@YA?AT__m128@@T4@@Z 100fd390 f i GuPCMContactBoxBox.obj
 0001:000fc420       ?V3SetZ@aos@shdfnd@physx@@YA?AT__m128@@T4@0@Z 100fd420 f i GuPCMContactBoxBox.obj
 0001:000fc480       ?V4ExtractMax@aos@shdfnd@physx@@YA?AT__m128@@T4@@Z 100fd480 f i GuPCMContactBoxBox.obj
 0001:000fc540       ?contains@Gu@physx@@YA_NPAT__m128@@IABT3@11@Z 100fd540 f i GuPCMContactBoxBox.obj
 0001:000fca90       ?getCol0@PsMatTransformV@aos@shdfnd@physx@@QBE?AT__m128@@XZ 100fda90 f i GuPCMContactBoxBox.obj
 0001:000fcac0       ?getCol1@PsMatTransformV@aos@shdfnd@physx@@QBE?AT__m128@@XZ 100fdac0 f i GuPCMContactBoxBox.obj
 0001:000fcaf0       ?getCol2@PsMatTransformV@aos@shdfnd@physx@@QBE?AT__m128@@XZ 100fdaf0 f i GuPCMContactBoxBox.obj
 0001:000fcb20       ?getManifold@Cache@Gu@physx@@QAEAAVPersistentContactManifold@23@XZ 100fdb20 f i GuPCMContactBoxBox.obj
 0001:000fcb80       ?getNumContacts@PersistentContactManifold@Gu@physx@@QBEIXZ 100fdb80 f i GuPCMContactBoxBox.obj
 0001:000fcba0       ?getWorldNormal@PersistentContactManifold@Gu@physx@@QAE?AT__m128@@ABVPsTransformV@aos@shdfnd@3@@Z 100fdba0 f i GuPCMContactBoxBox.obj
 0001:000fcd50       ?invalidate_BoxConvex@PersistentContactManifold@Gu@physx@@QAEIABVPsTransformV@aos@shdfnd@3@ABT__m128@@@Z 100fdd50 f i GuPCMContactBoxBox.obj
 0001:000fcf50       ?loadTransformA@aos@shdfnd@physx@@YA?AVPsTransformV@123@ABVPxTransform@3@@Z 100fdf50 f i GuPCMContactBoxBox.obj
 0001:000fcfd0       ?maxTransformPositionDelta@PersistentContactManifold@Gu@physx@@QAE?AT__m128@@ABT4@@Z 100fdfd0 f i GuPCMContactBoxBox.obj
 0001:000fd070       ?refreshContactPoints@PersistentContactManifold@Gu@physx@@QAEXABVPsMatTransformV@aos@shdfnd@3@ABT__m128@@1@Z 100fe070 f i GuPCMContactBoxBox.obj
 0001:000fd2f0       ?removeContactPoint@PersistentContactManifold@Gu@physx@@QAEXI@Z 100fe2f0 f i GuPCMContactBoxBox.obj
 0001:000fd350       ?rotate@PsMatTransformV@aos@shdfnd@physx@@QBE?AT__m128@@ABT5@@Z 100fe350 f i GuPCMContactBoxBox.obj
 0001:000fd3b0       ?setRelativeTransform@PersistentContactManifold@Gu@physx@@QAEXABVPsTransformV@aos@shdfnd@3@@Z 100fe3b0 f i GuPCMContactBoxBox.obj
 0001:000fd3e0       ?transformInv@PsMatTransformV@aos@shdfnd@physx@@QBE?AT__m128@@ABT5@@Z 100fe3e0 f i GuPCMContactBoxBox.obj
 0001:000fd460       ?transformInv@PsMatTransformV@aos@shdfnd@physx@@QBE?AV1234@ABV1234@@Z 100fe460 f i GuPCMContactBoxBox.obj
 0001:000fd520       ?pcmContactBoxConvex@Gu@physx@@YA_NABVGeometryUnion@12@0ABVPxTransform@2@1ABMAAUCache@12@AAVContactBuffer@12@@Z 100fe520 f   GuPCMContactBoxConvex.obj
 0001:000fe5b0       ??0?$SupportLocalImpl@VBoxV@Gu@physx@@@Gu@physx@@QAE@ABVBoxV@12@ABVPsTransformV@aos@shdfnd@2@ABUMat33V@562@2_N@Z 100ff5b0 f i GuPCMContactBoxConvex.obj
 0001:000fe600       ??0?$SupportLocalImpl@VConvexHullNoScaleV@Gu@physx@@@Gu@physx@@QAE@ABVConvexHullNoScaleV@12@ABVPsTransformV@aos@shdfnd@2@ABUMat33V@562@2_N@Z 100ff600 f i GuPCMContactBoxConvex.obj
 0001:000fe650       ??0?$SupportLocalImpl@VConvexHullV@Gu@physx@@@Gu@physx@@QAE@ABVConvexHullV@12@ABVPsTransformV@aos@shdfnd@2@ABUMat33V@562@2_N@Z 100ff650 f i GuPCMContactBoxConvex.obj
 0001:000fe6a0       ??0ShrunkConvexHullV@Gu@physx@@QAE@PBUConvexHullData@12@ABT__m128@@11@Z 100ff6a0 f i GuPCMContactBoxConvex.obj
 0001:000fe6e0       ??0SupportLocal@Gu@physx@@QAE@ABVPsTransformV@aos@shdfnd@2@ABUMat33V@452@1_N@Z 100ff6e0 f i GuPCMContactBoxConvex.obj
 0001:000fe730       ??1?$SupportLocalImpl@VBoxV@Gu@physx@@@Gu@physx@@UAE@XZ 100ff730 f i GuPCMContactBoxConvex.obj
 0001:000fe750       ??1?$SupportLocalImpl@VConvexHullNoScaleV@Gu@physx@@@Gu@physx@@UAE@XZ 100ff750 f i GuPCMContactBoxConvex.obj
 0001:000fe770       ??1?$SupportLocalImpl@VConvexHullV@Gu@physx@@@Gu@physx@@UAE@XZ 100ff770 f i GuPCMContactBoxConvex.obj
 0001:000fe790       ??1ShrunkConvexHullV@Gu@physx@@QAE@XZ 100ff790 f i GuPCMContactBoxConvex.obj
 0001:000fe7b0       ??1SupportLocal@Gu@physx@@UAE@XZ 100ff7b0 f i GuPCMContactBoxConvex.obj
 0001:000fe7d0       ??_E?$SupportLocalImpl@VBoxV@Gu@physx@@@Gu@physx@@UAEPAXI@Z 100ff7d0 f i GuPCMContactBoxConvex.obj
 0001:000fe7d0       ??_G?$SupportLocalImpl@VBoxV@Gu@physx@@@Gu@physx@@UAEPAXI@Z 100ff7d0 f i GuPCMContactBoxConvex.obj
 0001:000fe810       ??_G?$SupportLocalImpl@VConvexHullNoScaleV@Gu@physx@@@Gu@physx@@UAEPAXI@Z 100ff810 f i GuPCMContactBoxConvex.obj
 0001:000fe810       ??_E?$SupportLocalImpl@VConvexHullNoScaleV@Gu@physx@@@Gu@physx@@UAEPAXI@Z 100ff810 f i GuPCMContactBoxConvex.obj
 0001:000fe850       ??_E?$SupportLocalImpl@VConvexHullV@Gu@physx@@@Gu@physx@@UAEPAXI@Z 100ff850 f i GuPCMContactBoxConvex.obj
 0001:000fe850       ??_G?$SupportLocalImpl@VConvexHullV@Gu@physx@@@Gu@physx@@UAEPAXI@Z 100ff850 f i GuPCMContactBoxConvex.obj
 0001:000fe890       ??_ESupportLocal@Gu@physx@@UAEPAXI@Z 100ff890 f i GuPCMContactBoxConvex.obj
 0001:000fe890       ??_GSupportLocal@Gu@physx@@UAEPAXI@Z 100ff890 f i GuPCMContactBoxConvex.obj
 0001:000fe8d0       ?BruteForceSearchMinMax@ConvexHullNoScaleV@Gu@physx@@QBEXABT__m128@@AAT4@1@Z 100ff8d0 f i GuPCMContactBoxConvex.obj
 0001:000fea70       ?BruteForceSearchMinMax@ConvexHullV@Gu@physx@@QBEXABT__m128@@AAT4@1@Z 100ffa70 f i GuPCMContactBoxConvex.obj
 0001:000fec50       ?CalculatePCMConvexMargin@Gu@physx@@YA?AT__m128@@PBUConvexHullData@12@ABT3@@Z 100ffc50 f i GuPCMContactBoxConvex.obj
 0001:000fed10       ?doSupport@?$SupportLocalImpl@VBoxV@Gu@physx@@@Gu@physx@@UBE?AT__m128@@ABT4@@Z 100ffd10 f i GuPCMContactBoxConvex.obj
 0001:000fed40       ?doSupport@?$SupportLocalImpl@VBoxV@Gu@physx@@@Gu@physx@@UBEXABT__m128@@AAT4@1@Z 100ffd40 f i GuPCMContactBoxConvex.obj
 0001:000fed70       ?doSupport@?$SupportLocalImpl@VConvexHullNoScaleV@Gu@physx@@@Gu@physx@@UBE?AT__m128@@ABT4@@Z 100ffd70 f i GuPCMContactBoxConvex.obj
 0001:000feda0       ?doSupport@?$SupportLocalImpl@VConvexHullNoScaleV@Gu@physx@@@Gu@physx@@UBEXABT__m128@@AAT4@1@Z 100ffda0 f i GuPCMContactBoxConvex.obj
 0001:000fedd0       ?doSupport@?$SupportLocalImpl@VConvexHullV@Gu@physx@@@Gu@physx@@UBE?AT__m128@@ABT4@@Z 100ffdd0 f i GuPCMContactBoxConvex.obj
 0001:000fee00       ?doSupport@?$SupportLocalImpl@VConvexHullV@Gu@physx@@@Gu@physx@@UBEXABT__m128@@AAT4@1@Z 100ffe00 f i GuPCMContactBoxConvex.obj
 0001:000fee30       ?populateVerts@?$SupportLocalImpl@VBoxV@Gu@physx@@@Gu@physx@@UBEXPBEIPBVPxVec3@3@PAT__m128@@@Z 100ffe30 f i GuPCMContactBoxConvex.obj
 0001:000fee70       ?populateVerts@?$SupportLocalImpl@VConvexHullNoScaleV@Gu@physx@@@Gu@physx@@UBEXPBEIPBVPxVec3@3@PAT__m128@@@Z 100ffe70 f i GuPCMContactBoxConvex.obj
 0001:000feeb0       ?populateVerts@?$SupportLocalImpl@VConvexHullV@Gu@physx@@@Gu@physx@@UBEXPBEIPBVPxVec3@3@PAT__m128@@@Z 100ffeb0 f i GuPCMContactBoxConvex.obj
 0001:000feef0       ?populateVerts@BoxV@Gu@physx@@QBEXPBEIPBVPxVec3@3@PAT__m128@@@Z 100ffef0 f i GuPCMContactBoxConvex.obj
 0001:000fef80       ?populateVerts@ConvexHullNoScaleV@Gu@physx@@QBEXPBEIPBVPxVec3@3@PAT__m128@@@Z 100fff80 f i GuPCMContactBoxConvex.obj
 0001:000ff010       ?populateVerts@ConvexHullV@Gu@physx@@QBEXPBEIPBVPxVec3@3@PAT__m128@@@Z 10100010 f i GuPCMContactBoxConvex.obj
 0001:000ff0c0       ?supportLocal@BoxV@Gu@physx@@QBEXABT__m128@@AAT4@1@Z 101000c0 f i GuPCMContactBoxConvex.obj
 0001:000ff1a0       ?supportLocal@ConvexHullNoScaleV@Gu@physx@@QBEXABT__m128@@AAT4@1@Z 101001a0 f i GuPCMContactBoxConvex.obj
 0001:000ff1d0       ?supportLocal@ConvexHullV@Gu@physx@@QBEXABT__m128@@AAT4@1@Z 101001d0 f i GuPCMContactBoxConvex.obj
 0001:000ff200       ?supportVertexMinMax@ConvexHullNoScaleV@Gu@physx@@QBEXABT__m128@@AAT4@1@Z 10100200 f i GuPCMContactBoxConvex.obj
 0001:000ff340       ?supportVertexMinMax@ConvexHullV@Gu@physx@@QBEXABT__m128@@AAT4@1@Z 10100340 f i GuPCMContactBoxConvex.obj
 0001:000ff500       ?pcmContactCapsuleBox@Gu@physx@@YA_NABVGeometryUnion@12@0ABVPxTransform@2@1ABMAAUCache@12@AAVContactBuffer@12@@Z 10100500 f   GuPCMContactCapsuleBox.obj
 0001:001001e0       ??0CapsuleV@Gu@physx@@QAE@ABT__m128@@00@Z 101011e0 f i GuPCMContactCapsuleBox.obj
 0001:001002d0       ?invalidate_SphereCapsule@PersistentContactManifold@Gu@physx@@QAEIABVPsTransformV@aos@shdfnd@3@ABT__m128@@@Z 101012d0 f i GuPCMContactCapsuleBox.obj
 0001:001004d0       ?setMargin@ConvexV@Gu@physx@@QAEXABT__m128@@@Z 101014d0 f i GuPCMContactCapsuleBox.obj
 0001:001004f0       ?transformInv@PsTransformV@aos@shdfnd@physx@@QBE?AT__m128@@ABT5@@Z 101014f0 f i GuPCMContactCapsuleBox.obj
 0001:001005c0       ?pcmContactCapsuleConvex@Gu@physx@@YA_NABVGeometryUnion@12@0ABVPxTransform@2@1ABMAAUCache@12@AAVContactBuffer@12@@Z 101015c0 f   GuPCMContactCapsuleConvex.obj
 0001:001013f0       ?CalculateCapsuleMinMargin@Gu@physx@@YA?AT__m128@@ABT3@@Z 101023f0 f i GuPCMContactCapsuleConvex.obj
 0001:00101460       ?pcmContactCapsuleHeightField@Gu@physx@@YA_NABVGeometryUnion@12@0ABVPxTransform@2@1ABMAAUCache@12@AAVContactBuffer@12@@Z 10102460 f   GuPCMContactCapsuleHeightField.obj
 0001:00101980       ??$PX_UNUSED@PAVMeshPersistentContact@Gu@physx@@@@YAXABQAVMeshPersistentContact@Gu@physx@@@Z 10102980 f i GuPCMContactCapsuleHeightField.obj
 0001:00101990       ??$processTriangleCache@$0BA@@PCMCapsuleVsHeightfieldContactGenerationCallback@physx@@QAEXAAU?$TriangleCache@$0BA@@Gu@1@@Z 10102990 f i GuPCMContactCapsuleHeightField.obj
 0001:001019c0       ??$processTriangleCache@$0BA@VPCMCapsuleVsMeshContactGeneration@Gu@physx@@@PCMMeshContactGeneration@Gu@physx@@QAE_NAAU?$TriangleCache@$0BA@@12@@Z 101029c0 f i GuPCMContactCapsuleHeightField.obj
 0001:00101a90       ??0?$PCMHeightfieldContactGenerationCallback@UPCMCapsuleVsHeightfieldContactGenerationCallback@physx@@@Gu@physx@@QAE@ABVHeightFieldUtil@12@ABVPxTransform@2@@Z 10102a90 f i GuPCMContactCapsuleHeightField.obj
 0001:00101ad0       ??0?$TriangleCache@$0BA@@Gu@physx@@QAE@XZ 10102ad0 f i GuPCMContactCapsuleHeightField.obj
 0001:00101b10       ??0PCMCapsuleVsHeightfieldContactGenerationCallback@physx@@QAE@ABVCapsuleV@Gu@1@ABT__m128@@1ABVPsTransformV@aos@shdfnd@1@2ABVPxTransform@1@AAVMultiplePersistentContactManifold@31@AAVContactBuffer@31@AAVHeightFieldUtil@31@@Z 10102b10 f i GuPCMContactCapsuleHeightField.obj
 0001:00101b80       ??0PCMCapsuleVsMeshContactGeneration@Gu@physx@@QAE@ABVCapsuleV@12@ABT__m128@@1ABVPsTransformV@aos@shdfnd@2@2AAVMultiplePersistentContactManifold@12@AAVContactBuffer@12@@Z 10102b80 f i GuPCMContactCapsuleHeightField.obj
 0001:00101c50       ??0PCMContactPatch@Gu@physx@@QAE@XZ 10102c50 f i GuPCMContactCapsuleHeightField.obj
 0001:00101cc0       ??0PCMMeshContactGeneration@Gu@physx@@QAE@ABT__m128@@0ABVPsTransformV@aos@shdfnd@2@1AAVMultiplePersistentContactManifold@12@AAVContactBuffer@12@@Z 10102cc0 f i GuPCMContactCapsuleHeightField.obj
 0001:00101eb0       ??1?$PCMHeightfieldContactGenerationCallback@UPCMCapsuleVsHeightfieldContactGenerationCallback@physx@@@Gu@physx@@UAE@XZ 10102eb0 f i GuPCMContactCapsuleHeightField.obj
 0001:00101ed0       ??1PCMCapsuleVsHeightfieldContactGenerationCallback@physx@@UAE@XZ 10102ed0 f i GuPCMContactCapsuleHeightField.obj
 0001:00101ef0       ??_G?$PCMHeightfieldContactGenerationCallback@UPCMCapsuleVsHeightfieldContactGenerationCallback@physx@@@Gu@physx@@UAEPAXI@Z 10102ef0 f i GuPCMContactCapsuleHeightField.obj
 0001:00101ef0       ??_E?$PCMHeightfieldContactGenerationCallback@UPCMCapsuleVsHeightfieldContactGenerationCallback@physx@@@Gu@physx@@UAEPAXI@Z 10102ef0 f i GuPCMContactCapsuleHeightField.obj
 0001:00101f30       ??_EPCMCapsuleVsHeightfieldContactGenerationCallback@physx@@UAEPAXI@Z 10102f30 f i GuPCMContactCapsuleHeightField.obj
 0001:00101f30       ??_GPCMCapsuleVsHeightfieldContactGenerationCallback@physx@@UAEPAXI@Z 10102f30 f i GuPCMContactCapsuleHeightField.obj
 0001:00101f70       ?addTriangle@?$TriangleCache@$0BA@@Gu@physx@@QAEXPBVPxVec3@3@PBIIE@Z 10102f70 f i GuPCMContactCapsuleHeightField.obj
 0001:00102100       ?getMultipleManifold@Cache@Gu@physx@@QAEAAVMultiplePersistentContactManifold@23@XZ 10103100 f i GuPCMContactCapsuleHeightField.obj
 0001:00102170       ?invalidate@MultiplePersistentContactManifold@Gu@physx@@QAEIABVPsTransformV@aos@shdfnd@3@ABT__m128@@1@Z 10103170 f i GuPCMContactCapsuleHeightField.obj
 0001:001022d0       ?isEmpty@SinglePersistentContactManifold@Gu@physx@@QAE_NXZ 101032d0 f i GuPCMContactCapsuleHeightField.obj
 0001:00102310       ?maxTransformPositionDelta@MultiplePersistentContactManifold@Gu@physx@@QAE?AT__m128@@ABT4@@Z 10103310 f i GuPCMContactCapsuleHeightField.obj
 0001:001023b0       ?onEvent@?$PCMHeightfieldContactGenerationCallback@UPCMCapsuleVsHeightfieldContactGenerationCallback@physx@@@Gu@physx@@UAE_NIPAI@Z 101033b0 f i GuPCMContactCapsuleHeightField.obj
 0001:00102860       ?prioritizeContactPatches@PCMMeshContactGeneration@Gu@physx@@QAEXXZ 10103860 f i GuPCMContactCapsuleHeightField.obj
 0001:001029f0       ?processContacts@PCMMeshContactGeneration@Gu@physx@@QAEXE_N@Z 101039f0 f i GuPCMContactCapsuleHeightField.obj
 0001:00102b80       ?reduceManifoldContactsInDifferentPatches@MultiplePersistentContactManifold@Gu@physx@@QAEIPAPAUPCMContactPatch@23@IPAVMeshPersistentContact@23@IABT__m128@@@Z 10103b80 f i GuPCMContactCapsuleHeightField.obj
 0001:00102d60       ?refineContactPatchConnective@MultiplePersistentContactManifold@Gu@physx@@QAEXPAPAUPCMContactPatch@23@IPAVMeshPersistentContact@23@ABT__m128@@@Z 10103d60 f i GuPCMContactCapsuleHeightField.obj
 0001:00102ee0       ?refreshManifold@MultiplePersistentContactManifold@Gu@physx@@QAEXABVPsMatTransformV@aos@shdfnd@3@ABT__m128@@1@Z 10103ee0 f i GuPCMContactCapsuleHeightField.obj
 0001:00103120       ?setRelativeTransform@MultiplePersistentContactManifold@Gu@physx@@QAEXABVPsTransformV@aos@shdfnd@3@@Z 10104120 f i GuPCMContactCapsuleHeightField.obj
 0001:00103150       ?pcmContactCapsuleMesh@Gu@physx@@YA_NABVGeometryUnion@12@0ABVPxTransform@2@1ABMAAUCache@12@AAVContactBuffer@12@@Z 10104150 f   GuPCMContactCapsuleMesh.obj
 0001:00103780       ??$processTriangleCache@$0BA@@PCMCapsuleVsMeshContactGenerationCallback@physx@@QAEXAAU?$TriangleCache@$0BA@@Gu@1@@Z 10104780 f i GuPCMContactCapsuleMesh.obj
 0001:001037b0       ??0?$PCMMeshContactGenerationCallback@UPCMCapsuleVsMeshContactGenerationCallback@physx@@@Gu@physx@@QAE@ABVFastVertex2ShapeScaling@Cm@2@PBE_N@Z 101047b0 f i GuPCMContactCapsuleMesh.obj
 0001:00103810       ??0PCMCapsuleVsMeshContactGenerationCallback@physx@@QAE@ABVCapsuleV@Gu@1@ABT__m128@@1ABVPsTransformV@aos@shdfnd@1@2AAVMultiplePersistentContactManifold@31@AAVContactBuffer@31@PBEABVFastVertex2ShapeScaling@Cm@1@_N@Z 10104810 f i GuPCMContactCapsuleMesh.obj
 0001:00103880       ??1?$PCMMeshContactGenerationCallback@UPCMCapsuleVsMeshContactGenerationCallback@physx@@@Gu@physx@@UAE@XZ 10104880 f i GuPCMContactCapsuleMesh.obj
 0001:001038a0       ??1PCMCapsuleVsMeshContactGenerationCallback@physx@@UAE@XZ 101048a0 f i GuPCMContactCapsuleMesh.obj
 0001:001038c0       ??_G?$PCMMeshContactGenerationCallback@UPCMCapsuleVsMeshContactGenerationCallback@physx@@@Gu@physx@@UAEPAXI@Z 101048c0 f i GuPCMContactCapsuleMesh.obj
 0001:001038c0       ??_E?$PCMMeshContactGenerationCallback@UPCMCapsuleVsMeshContactGenerationCallback@physx@@@Gu@physx@@UAEPAXI@Z 101048c0 f i GuPCMContactCapsuleMesh.obj
 0001:00103900       ??_GPCMCapsuleVsMeshContactGenerationCallback@physx@@UAEPAXI@Z 10104900 f i GuPCMContactCapsuleMesh.obj
 0001:00103900       ??_EPCMCapsuleVsMeshContactGenerationCallback@physx@@UAEPAXI@Z 10104900 f i GuPCMContactCapsuleMesh.obj
 0001:00103940       ?doTest@PCMCapsuleVsMeshContactGenerationCallback@physx@@QAE_NABVPxVec3@2@00@Z 10104940 f i GuPCMContactCapsuleMesh.obj
 0001:00103960       ?flushCache@?$PCMMeshContactGenerationCallback@UPCMCapsuleVsMeshContactGenerationCallback@physx@@@Gu@physx@@QAEXXZ 10104960 f i GuPCMContactCapsuleMesh.obj
 0001:001039b0       ?isEmpty@?$TriangleCache@$0BA@@Gu@physx@@QBE_NXZ 101049b0 f i GuPCMContactCapsuleMesh.obj
 0001:001039f0       ?isFull@?$TriangleCache@$0BA@@Gu@physx@@QBE_NXZ 101049f0 f i GuPCMContactCapsuleMesh.obj
 0001:00103a30       ?processHit@?$PCMMeshContactGenerationCallback@UPCMCapsuleVsMeshContactGenerationCallback@physx@@@Gu@physx@@UAE_NABUPxRaycastHit@3@ABVPxVec3@3@11AAMPBI@Z 10104a30 f i GuPCMContactCapsuleMesh.obj
 0001:00103c10       ?reset@?$TriangleCache@$0BA@@Gu@physx@@QAEXXZ 10104c10 f i GuPCMContactCapsuleMesh.obj
 0001:00103c30       ?generateLastContacts@PCMConvexVsMeshContactGeneration@Gu@physx@@QAEXXZ 10104c30 f   GuPCMContactConvexCommon.obj
 0001:00103e30       ?addContactsToPatch@PCMConvexVsMeshContactGeneration@Gu@physx@@QAEXABT__m128@@II@Z 10104e30 f   GuPCMContactConvexCommon.obj
 0001:00104160       ?processTriangle@PCMConvexVsMeshContactGeneration@Gu@physx@@QAE_NPBVPxVec3@3@IEPBI@Z 10105160 f   GuPCMContactConvexCommon.obj
 0001:00104580       ?processTriangle@PCMConvexVsMeshContactGeneration@Gu@physx@@SA_NABUPolygonalData@23@PAVSupportLocal@23@PBVPxVec3@3@IEABT__m128@@_NABVPsTransformV@aos@shdfnd@3@ABVPsMatTransformV@9shdfnd@3@PAVMeshPersistentContact@23@AAI@Z 10105580 f   GuPCMContactConvexCommon.obj
 0001:00104820       ?processTriangle@PCMSphereVsMeshContactGeneration@Gu@physx@@QAE_NPBVPxVec3@3@IEPBI@Z 10105820 f   GuPCMContactConvexCommon.obj
 0001:00104ef0       ?generateEEContacts@PCMCapsuleVsMeshContactGeneration@Gu@physx@@QAEXABT__m128@@000I000PAVMeshPersistentContact@23@AAI@Z 10105ef0 f   GuPCMContactConvexCommon.obj
 0001:00104f90       ?generateEE@PCMCapsuleVsMeshContactGeneration@Gu@physx@@QAEXABT__m128@@000I00PAVMeshPersistentContact@23@AAI@Z 10105f90 f   GuPCMContactConvexCommon.obj
 0001:00105470       ?generateContacts@PCMCapsuleVsMeshContactGeneration@Gu@physx@@SA_NABT__m128@@0000I000PAVMeshPersistentContact@23@AAI@Z 10106470 f   GuPCMContactConvexCommon.obj
 0001:00105c80       ?generateEEContactsMTD@PCMCapsuleVsMeshContactGeneration@Gu@physx@@SAXABT__m128@@000I000PAVMeshPersistentContact@23@AAI@Z 10106c80 f   GuPCMContactConvexCommon.obj
 0001:00105d10       ?generateEEMTD@PCMCapsuleVsMeshContactGeneration@Gu@physx@@SAXABT__m128@@000I00PAVMeshPersistentContact@23@AAI@Z 10106d10 f   GuPCMContactConvexCommon.obj
 0001:00106140       ?processTriangle@PCMCapsuleVsMeshContactGeneration@Gu@physx@@QAE_NPBVPxVec3@3@IEPBI@Z 10107140 f   GuPCMContactConvexCommon.obj
 0001:00106920       ?processTriangle@PCMCapsuleVsMeshContactGeneration@Gu@physx@@SA_NABVTriangleV@23@IABVCapsuleV@23@ABT__m128@@EPAVMeshPersistentContact@23@AAI@Z 10107920 f   GuPCMContactConvexCommon.obj
 0001:001078e0       ?pcmDistanceSegmentTriangleSquared@Gu@physx@@YA?AT__m128@@ABT3@0000AAT3@11@Z 101088e0 f   GuPCMContactConvexCommon.obj
 0001:00109d30       ??$PX_UNUSED@PBI@@YAXABQBI@Z 1010ad30 f i GuPCMContactConvexCommon.obj
 0001:00109d40       ??0?$SupportLocalImpl@VTriangleV@Gu@physx@@@Gu@physx@@QAE@ABVTriangleV@12@ABVPsTransformV@aos@shdfnd@2@ABUMat33V@562@2_N@Z 1010ad40 f i GuPCMContactConvexCommon.obj
 0001:00109d90       ??0TriangleV@Gu@physx@@QAE@PBVPxVec3@2@@Z 1010ad90 f i GuPCMContactConvexCommon.obj
 0001:00109f70       ??1?$SupportLocalImpl@VTriangleV@Gu@physx@@@Gu@physx@@UAE@XZ 1010af70 f i GuPCMContactConvexCommon.obj
 0001:00109f90       ??_E?$SupportLocalImpl@VTriangleV@Gu@physx@@@Gu@physx@@UAEPAXI@Z 1010af90 f i GuPCMContactConvexCommon.obj
 0001:00109f90       ??_G?$SupportLocalImpl@VTriangleV@Gu@physx@@@Gu@physx@@UAEPAXI@Z 1010af90 f i GuPCMContactConvexCommon.obj
 0001:00109fd0       ?FNegMulSub@aos@shdfnd@physx@@YA?AT__m128@@T4@00@Z 1010afd0 f i GuPCMContactConvexCommon.obj
 0001:0010a030       ?V4Perm_XZXZ@aos@shdfnd@physx@@YA?AT__m128@@T4@@Z 1010b030 f i GuPCMContactConvexCommon.obj
 0001:0010a080       ?V4Perm_YWYW@aos@shdfnd@physx@@YA?AT__m128@@T4@@Z 1010b080 f i GuPCMContactConvexCommon.obj
 0001:0010a0d0       ?V4Perm_YXWZ@aos@shdfnd@physx@@YA?AT__m128@@T4@@Z 1010b0d0 f i GuPCMContactConvexCommon.obj
 0001:0010a120       ?addManifoldPointToPatch@PCMMeshContactGeneration@Gu@physx@@QAEXABT__m128@@0I@Z 1010b120 f i GuPCMContactConvexCommon.obj
 0001:0010a4b0       ?doSupport@?$SupportLocalImpl@VTriangleV@Gu@physx@@@Gu@physx@@UBE?AT__m128@@ABT4@@Z 1010b4b0 f i GuPCMContactConvexCommon.obj
 0001:0010a4e0       ?doSupport@?$SupportLocalImpl@VTriangleV@Gu@physx@@@Gu@physx@@UBEXABT__m128@@AAT4@1@Z 1010b4e0 f i GuPCMContactConvexCommon.obj
 0001:0010a510       ?get@?$CacheMap@UCachedEdge@Gu@physx@@$0IA@@Gu@physx@@QBEPBUCachedEdge@23@ABU423@@Z 1010b510 f i GuPCMContactConvexCommon.obj
 0001:0010a5b0       ?isValidTriangleBarycentricCoord2@Gu@physx@@YA?AT__m128@@ABT3@@Z 1010b5b0 f i GuPCMContactConvexCommon.obj
 0001:0010a7a0       ?normal@TriangleV@Gu@physx@@QBE?AT__m128@@XZ 1010b7a0 f i GuPCMContactConvexCommon.obj
 0001:0010a890       ?pcmDistanceSegmentSegmentSquared4@Gu@physx@@YA?AT__m128@@ABT3@000000000AAT3@1@Z 1010b890 f i GuPCMContactConvexCommon.obj
 0001:0010b750       ?populateVerts@?$SupportLocalImpl@VTriangleV@Gu@physx@@@Gu@physx@@UBEXPBEIPBVPxVec3@3@PAT__m128@@@Z 1010c750 f i GuPCMContactConvexCommon.obj
 0001:0010b790       ?populateVerts@TriangleV@Gu@physx@@QBEXPBEIPBVPxVec3@3@PAT__m128@@@Z 1010c790 f i GuPCMContactConvexCommon.obj
 0001:0010b820       ?supportLocal@TriangleV@Gu@physx@@QBEXABT__m128@@AAT4@1@Z 1010c820 f i GuPCMContactConvexCommon.obj
 0001:0010b9a0       ?pcmContactConvexConvex@Gu@physx@@YA_NABVGeometryUnion@12@0ABVPxTransform@2@1ABMAAUCache@12@AAVContactBuffer@12@@Z 1010c9a0 f   GuPCMContactConvexConvex.obj
 0001:0010cd00       ?pcmContactBoxHeightField@Gu@physx@@YA_NABVGeometryUnion@12@0ABVPxTransform@2@1ABMAAUCache@12@AAVContactBuffer@12@@Z 1010dd00 f   GuPCMContactConvexHeightField.obj
 0001:0010cf10       ?pcmContactConvexHeightField@Gu@physx@@YA_NABVGeometryUnion@12@0ABVPxTransform@2@1ABMAAUCache@12@AAVContactBuffer@12@@Z 1010df10 f   GuPCMContactConvexHeightField.obj
 0001:0010d1d0       ?PCMContactConvexHeightfield@Gu@physx@@YA_NABUPolygonalData@12@PAVSupportLocal@12@ABT__m128@@ABVPxBounds3@2@ABVPxHeightFieldGeometry@2@ABVPxTransform@2@5MAAVContactBuffer@12@ABVFastVertex2ShapeScaling@Cm@2@_NAAVMultiplePersistentContactManifold@12@@Z 1010e1d0 f   GuPCMContactConvexHeightField.obj
 0001:0010d760       ??$processTriangleCache@$0BA@@PCMConvexVsHeightfieldContactGenerationCallback@physx@@QAEXAAU?$TriangleCache@$0BA@@Gu@1@@Z 1010e760 f i GuPCMContactConvexHeightField.obj
 0001:0010d790       ??$processTriangleCache@$0BA@VPCMConvexVsMeshContactGeneration@Gu@physx@@@PCMMeshContactGeneration@Gu@physx@@QAE_NAAU?$TriangleCache@$0BA@@12@@Z 1010e790 f i GuPCMContactConvexHeightField.obj
 0001:0010d860       ??0?$PCMHeightfieldContactGenerationCallback@UPCMConvexVsHeightfieldContactGenerationCallback@physx@@@Gu@physx@@QAE@ABVHeightFieldUtil@12@ABVPxTransform@2@@Z 1010e860 f i GuPCMContactConvexHeightField.obj
 0001:0010d8a0       ??0?$SupportLocalShrunkImpl@VBoxV@Gu@physx@@VShrunkBoxV@23@@Gu@physx@@QAE@ABVBoxV@12@ABVPsTransformV@aos@shdfnd@2@ABUMat33V@562@2_N@Z 1010e8a0 f i GuPCMContactConvexHeightField.obj
 0001:0010d900       ??0?$SupportLocalShrunkImpl@VConvexHullNoScaleV@Gu@physx@@VShrunkConvexHullNoScaleV@23@@Gu@physx@@QAE@ABVConvexHullNoScaleV@12@ABVPsTransformV@aos@shdfnd@2@ABUMat33V@562@2_N@Z 1010e900 f i GuPCMContactConvexHeightField.obj
 0001:0010d960       ??0?$SupportLocalShrunkImpl@VConvexHullV@Gu@physx@@VShrunkConvexHullV@23@@Gu@physx@@QAE@ABVConvexHullV@12@ABVPsTransformV@aos@shdfnd@2@ABUMat33V@562@2_N@Z 1010e960 f i GuPCMContactConvexHeightField.obj
 0001:0010d9c0       ??0PCMConvexVsHeightfieldContactGenerationCallback@physx@@QAE@ABT__m128@@0ABUPolygonalData@Gu@1@PAVSupportLocal@41@ABVFastVertex2ShapeScaling@Cm@1@_NABVPsTransformV@aos@shdfnd@1@5ABVPxTransform@1@AAVMultiplePersistentContactManifold@41@AAVContactBuffer@41@AAVHeightFieldUtil@41@AAVContainer@41@@Z 1010e9c0 f i GuPCMContactConvexHeightField.obj
 0001:0010da40       ??0PCMConvexVsMeshContactGeneration@Gu@physx@@QAE@ABT__m128@@0ABVPsTransformV@aos@shdfnd@2@1AAVMultiplePersistentContactManifold@12@AAVContactBuffer@12@ABUPolygonalData@12@PAVSupportLocal@12@AAVContainer@12@ABVFastVertex2ShapeScaling@Cm@2@_N@Z 1010ea40 f i GuPCMContactConvexHeightField.obj
 0001:0010db50       ??1?$PCMHeightfieldContactGenerationCallback@UPCMConvexVsHeightfieldContactGenerationCallback@physx@@@Gu@physx@@UAE@XZ 1010eb50 f i GuPCMContactConvexHeightField.obj
 0001:0010db70       ??1?$SupportLocalShrunkImpl@VBoxV@Gu@physx@@VShrunkBoxV@23@@Gu@physx@@UAE@XZ 1010eb70 f i GuPCMContactConvexHeightField.obj
 0001:0010db90       ??1?$SupportLocalShrunkImpl@VConvexHullNoScaleV@Gu@physx@@VShrunkConvexHullNoScaleV@23@@Gu@physx@@UAE@XZ 1010eb90 f i GuPCMContactConvexHeightField.obj
 0001:0010dbb0       ??1?$SupportLocalShrunkImpl@VConvexHullV@Gu@physx@@VShrunkConvexHullV@23@@Gu@physx@@UAE@XZ 1010ebb0 f i GuPCMContactConvexHeightField.obj
 0001:0010dbd0       ??1PCMConvexVsHeightfieldContactGenerationCallback@physx@@UAE@XZ 1010ebd0 f i GuPCMContactConvexHeightField.obj
 0001:0010dbf0       ??_E?$PCMHeightfieldContactGenerationCallback@UPCMConvexVsHeightfieldContactGenerationCallback@physx@@@Gu@physx@@UAEPAXI@Z 1010ebf0 f i GuPCMContactConvexHeightField.obj
 0001:0010dbf0       ??_G?$PCMHeightfieldContactGenerationCallback@UPCMConvexVsHeightfieldContactGenerationCallback@physx@@@Gu@physx@@UAEPAXI@Z 1010ebf0 f i GuPCMContactConvexHeightField.obj
 0001:0010dc30       ??_G?$SupportLocalShrunkImpl@VBoxV@Gu@physx@@VShrunkBoxV@23@@Gu@physx@@UAEPAXI@Z 1010ec30 f i GuPCMContactConvexHeightField.obj
 0001:0010dc30       ??_E?$SupportLocalShrunkImpl@VBoxV@Gu@physx@@VShrunkBoxV@23@@Gu@physx@@UAEPAXI@Z 1010ec30 f i GuPCMContactConvexHeightField.obj
 0001:0010dc70       ??_G?$SupportLocalShrunkImpl@VConvexHullNoScaleV@Gu@physx@@VShrunkConvexHullNoScaleV@23@@Gu@physx@@UAEPAXI@Z 1010ec70 f i GuPCMContactConvexHeightField.obj
 0001:0010dc70       ??_E?$SupportLocalShrunkImpl@VConvexHullNoScaleV@Gu@physx@@VShrunkConvexHullNoScaleV@23@@Gu@physx@@UAEPAXI@Z 1010ec70 f i GuPCMContactConvexHeightField.obj
 0001:0010dcb0       ??_E?$SupportLocalShrunkImpl@VConvexHullV@Gu@physx@@VShrunkConvexHullV@23@@Gu@physx@@UAEPAXI@Z 1010ecb0 f i GuPCMContactConvexHeightField.obj
 0001:0010dcb0       ??_G?$SupportLocalShrunkImpl@VConvexHullV@Gu@physx@@VShrunkConvexHullV@23@@Gu@physx@@UAEPAXI@Z 1010ecb0 f i GuPCMContactConvexHeightField.obj
 0001:0010dcf0       ??_GPCMConvexVsHeightfieldContactGenerationCallback@physx@@UAEPAXI@Z 1010ecf0 f i GuPCMContactConvexHeightField.obj
 0001:0010dcf0       ??_EPCMConvexVsHeightfieldContactGenerationCallback@physx@@UAEPAXI@Z 1010ecf0 f i GuPCMContactConvexHeightField.obj
 0001:0010dd30       ?doSupport@?$SupportLocalShrunkImpl@VBoxV@Gu@physx@@VShrunkBoxV@23@@Gu@physx@@UBE?AT__m128@@ABT4@@Z 1010ed30 f i GuPCMContactConvexHeightField.obj
 0001:0010dd60       ?doSupport@?$SupportLocalShrunkImpl@VBoxV@Gu@physx@@VShrunkBoxV@23@@Gu@physx@@UBEXABT__m128@@AAT4@1@Z 1010ed60 f i GuPCMContactConvexHeightField.obj
 0001:0010dd90       ?doSupport@?$SupportLocalShrunkImpl@VConvexHullNoScaleV@Gu@physx@@VShrunkConvexHullNoScaleV@23@@Gu@physx@@UBE?AT__m128@@ABT4@@Z 1010ed90 f i GuPCMContactConvexHeightField.obj
 0001:0010ddc0       ?doSupport@?$SupportLocalShrunkImpl@VConvexHullNoScaleV@Gu@physx@@VShrunkConvexHullNoScaleV@23@@Gu@physx@@UBEXABT__m128@@AAT4@1@Z 1010edc0 f i GuPCMContactConvexHeightField.obj
 0001:0010ddf0       ?doSupport@?$SupportLocalShrunkImpl@VConvexHullV@Gu@physx@@VShrunkConvexHullV@23@@Gu@physx@@UBE?AT__m128@@ABT4@@Z 1010edf0 f i GuPCMContactConvexHeightField.obj
 0001:0010de20       ?doSupport@?$SupportLocalShrunkImpl@VConvexHullV@Gu@physx@@VShrunkConvexHullV@23@@Gu@physx@@UBEXABT__m128@@AAT4@1@Z 1010ee20 f i GuPCMContactConvexHeightField.obj
 0001:0010de50       ?invalidate@MultiplePersistentContactManifold@Gu@physx@@QAEIABVPsTransformV@aos@shdfnd@3@ABT__m128@@@Z 1010ee50 f i GuPCMContactConvexHeightField.obj
 0001:0010dec0       ?onEvent@?$PCMHeightfieldContactGenerationCallback@UPCMConvexVsHeightfieldContactGenerationCallback@physx@@@Gu@physx@@UAE_NIPAI@Z 1010eec0 f i GuPCMContactConvexHeightField.obj
 0001:0010e370       ?populateVerts@?$SupportLocalShrunkImpl@VBoxV@Gu@physx@@VShrunkBoxV@23@@Gu@physx@@UBEXPBEIPBVPxVec3@3@PAT__m128@@@Z 1010f370 f i GuPCMContactConvexHeightField.obj
 0001:0010e3b0       ?populateVerts@?$SupportLocalShrunkImpl@VConvexHullNoScaleV@Gu@physx@@VShrunkConvexHullNoScaleV@23@@Gu@physx@@UBEXPBEIPBVPxVec3@3@PAT__m128@@@Z 1010f3b0 f i GuPCMContactConvexHeightField.obj
 0001:0010e3f0       ?populateVerts@?$SupportLocalShrunkImpl@VConvexHullV@Gu@physx@@VShrunkConvexHullV@23@@Gu@physx@@UBEXPBEIPBVPxVec3@3@PAT__m128@@@Z 1010f3f0 f i GuPCMContactConvexHeightField.obj
 0001:0010e430       ?pcmContactBoxMesh@Gu@physx@@YA_NABVGeometryUnion@12@0ABVPxTransform@2@1ABMAAUCache@12@AAVContactBuffer@12@@Z 1010f430 f   GuPCMContactConvexMesh.obj
 0001:0010e610       ?pcmContactConvexMesh@Gu@physx@@YA_NABVGeometryUnion@12@0ABVPxTransform@2@1ABMAAUCache@12@AAVContactBuffer@12@@Z 1010f610 f   GuPCMContactConvexMesh.obj
 0001:0010e8d0       ?PCMContactConvexMesh@Gu@physx@@YA_NABUPolygonalData@12@PAVSupportLocal@12@ABT__m128@@ABVPxBounds3@2@ABUPxTriangleMeshGeometryLL@2@ABVPxTransform@2@5MAAVContactBuffer@12@ABVFastVertex2ShapeScaling@Cm@2@7_N8AAVMultiplePersistentContactManifold@12@@Z 1010f8d0 f   GuPCMContactConvexMesh.obj
 0001:0010ef00       ??$processTriangleCache@$0BA@@PCMConvexVsMeshContactGenerationCallback@physx@@QAEXAAU?$TriangleCache@$0BA@@Gu@1@@Z 1010ff00 f i GuPCMContactConvexMesh.obj
 0001:0010ef30       ??0?$PCMMeshContactGenerationCallback@UPCMConvexVsMeshContactGenerationCallback@physx@@@Gu@physx@@QAE@ABVFastVertex2ShapeScaling@Cm@2@PBE_N@Z 1010ff30 f i GuPCMContactConvexMesh.obj
 0001:0010ef90       ??0PCMConvexVsMeshContactGenerationCallback@physx@@QAE@ABT__m128@@0ABVPsTransformV@aos@shdfnd@1@1AAVMultiplePersistentContactManifold@Gu@1@AAVContactBuffer@71@ABUPolygonalData@71@PAVSupportLocal@71@AAVContainer@71@ABVFastVertex2ShapeScaling@Cm@1@_N7PBE8ABVBox@71@@Z 1010ff90 f i GuPCMContactConvexMesh.obj
 0001:0010f030       ??1?$PCMMeshContactGenerationCallback@UPCMConvexVsMeshContactGenerationCallback@physx@@@Gu@physx@@UAE@XZ 10110030 f i GuPCMContactConvexMesh.obj
 0001:0010f050       ??1PCMConvexVsMeshContactGenerationCallback@physx@@UAE@XZ 10110050 f i GuPCMContactConvexMesh.obj
 0001:0010f070       ??_E?$PCMMeshContactGenerationCallback@UPCMConvexVsMeshContactGenerationCallback@physx@@@Gu@physx@@UAEPAXI@Z 10110070 f i GuPCMContactConvexMesh.obj
 0001:0010f070       ??_G?$PCMMeshContactGenerationCallback@UPCMConvexVsMeshContactGenerationCallback@physx@@@Gu@physx@@UAEPAXI@Z 10110070 f i GuPCMContactConvexMesh.obj
 0001:0010f0b0       ??_EPCMConvexVsMeshContactGenerationCallback@physx@@UAEPAXI@Z 101100b0 f i GuPCMContactConvexMesh.obj
 0001:0010f0b0       ??_GPCMConvexVsMeshContactGenerationCallback@physx@@UAEPAXI@Z 101100b0 f i GuPCMContactConvexMesh.obj
 0001:0010f0f0       ?doTest@PCMConvexVsMeshContactGenerationCallback@physx@@QAEHABVPxVec3@2@00@Z 101100f0 f i GuPCMContactConvexMesh.obj
 0001:0010f120       ?flushCache@?$PCMMeshContactGenerationCallback@UPCMConvexVsMeshContactGenerationCallback@physx@@@Gu@physx@@QAEXXZ 10110120 f i GuPCMContactConvexMesh.obj
 0001:0010f170       ?processHit@?$PCMMeshContactGenerationCallback@UPCMConvexVsMeshContactGenerationCallback@physx@@@Gu@physx@@UAE_NABUPxRaycastHit@3@ABVPxVec3@3@11AAMPBI@Z 10110170 f i GuPCMContactConvexMesh.obj
 0001:0010f350       ?generateFullContactManifold@Gu@physx@@YA_NAAUPolygonalData@12@0PAVSupportLocal@12@1PAVPersistentContact@12@AAIABT__m128@@4_N@Z 10110350 f   GuPCMContactGenBoxConvex.obj
 0001:0010f820       ?computeMTD@Gu@physx@@YA_NAAUPolygonalData@12@0PAVSupportLocal@12@1AAT__m128@@2@Z 10110820 f   GuPCMContactGenBoxConvex.obj
 0001:0010fa50       ?buildPartialHull@Gu@physx@@YAXABUPolygonalData@12@PAVSupportLocal@12@AAVSeparatingAxes@12@ABT__m128@@3@Z 10110a50 f   GuPCMContactGenBoxConvex.obj
 0001:00110ce0       ?generatedContacts@Gu@physx@@YAXAAUPolygonalData@12@0ABUHullPolygonData@12@1PAVSupportLocal@12@2ABVPsMatTransformV@aos@shdfnd@2@PAVPersistentContact@12@AAIABT__m128@@@Z 10111ce0 f   GuPCMContactGenBoxConvex.obj
 0001:001126b0       ??$PX_UNUSED@UPolygonalData@Gu@physx@@@@YAXABUPolygonalData@Gu@physx@@@Z 101136b0 f i GuPCMContactGenBoxConvex.obj
 0001:001126c0       ?getPolygonIndex@Gu@physx@@YAHABUPolygonalData@12@PAVSupportLocal@12@ABT__m128@@@Z 101136c0 f i GuPCMContactGenBoxConvex.obj
 0001:00112cc0       ?signed2DTriArea@Gu@physx@@YA?AT__m128@@ABT3@00@Z 10113cc0 f i GuPCMContactGenBoxConvex.obj
 0001:00112e00       ?generateFullContactManifold@Gu@physx@@YA_NABVCapsuleV@12@AAUPolygonalData@12@PAVSupportLocal@12@ABVPsMatTransformV@aos@shdfnd@2@PAVPersistentContact@12@AAIABT__m128@@AAT__m128@@_N@Z 10113e00 f   GuPCMContactGenSphereCapsule.obj
 0001:00112f00       ?generateCapsuleBoxFullContactManifold@Gu@physx@@YA_NABVCapsuleV@12@AAUPolygonalData@12@PAVSupportLocal@12@ABVPsMatTransformV@aos@shdfnd@2@PAVPersistentContact@12@AAIABT__m128@@AAT__m128@@_N@Z 10113f00 f   GuPCMContactGenSphereCapsule.obj
 0001:00113000       ?computeMTD@Gu@physx@@YA_NABVCapsuleV@12@AAUPolygonalData@12@PAVSupportLocal@12@AAT__m128@@3@Z 10114000 f   GuPCMContactGenSphereCapsule.obj
 0001:00113090       ?generateSphereFullContactManifold@Gu@physx@@YA_NABVCapsuleV@12@AAUPolygonalData@12@PAVSupportLocal@12@PAVPersistentContact@12@AAIABT__m128@@AAT7@_N@Z 10114090 f   GuPCMContactGenSphereCapsule.obj
 0001:001136b0       ?generatedCapsuleBoxFaceContacts@Gu@physx@@YAXABVCapsuleV@12@AAUPolygonalData@12@ABUHullPolygonData@12@PAVSupportLocal@12@ABVPsMatTransformV@aos@shdfnd@2@PAVPersistentContact@12@AAIABT__m128@@7@Z 101146b0 f   GuPCMContactGenSphereCapsule.obj
 0001:00114440       ?generatedContactsEEContacts@Gu@physx@@YAXABVCapsuleV@12@AAUPolygonalData@12@ABUHullPolygonData@12@PAVSupportLocal@12@ABVPsMatTransformV@aos@shdfnd@2@PAVPersistentContact@12@AAIABT__m128@@7@Z 10115440 f   GuPCMContactGenSphereCapsule.obj
 0001:00114b20       ?BAndNot@aos@shdfnd@physx@@YA?AT__m128@@T4@0@Z 10115b20 f i GuPCMContactGenSphereCapsule.obj
 0001:00114b70       ?intersectSegmentPolyhedron@Gu@physx@@YA_NABT__m128@@0ABUPolygonalData@12@AAT3@2@Z 10115b70 f i GuPCMContactGenSphereCapsule.obj
 0001:00114f20       ?testPolyDataAxis@Gu@physx@@YA_NABVCapsuleV@12@ABUPolygonalData@12@PAVSupportLocal@12@ABT__m128@@AAT6@4@Z 10115f20 f i GuPCMContactGenSphereCapsule.obj
 0001:00115400       ?pcmContactPlaneBox@Gu@physx@@YA_NABVGeometryUnion@12@0ABVPxTransform@2@1ABMAAUCache@12@AAVContactBuffer@12@@Z 10116400 f   GuPCMContactPlaneBox.obj
 0001:00116700       ?QuatGetBasisVector0@aos@shdfnd@physx@@YA?AT__m128@@T4@@Z 10117700 f i GuPCMContactPlaneBox.obj
 0001:00116950       ?invalidate_PrimitivesPlane@PersistentContactManifold@Gu@physx@@QAEIABVPsTransformV@aos@shdfnd@3@ABT__m128@@1@Z 10117950 f i GuPCMContactPlaneBox.obj
 0001:00116ab0       ?pcmContactPlaneCapsule@Gu@physx@@YA_NABVGeometryUnion@12@0ABVPxTransform@2@1ABMAAUCache@12@AAVContactBuffer@12@@Z 10117ab0 f   GuPCMContactPlaneCapsule.obj
 0001:001171b0       ?pcmContactPlaneConvex@Gu@physx@@YA_NABVGeometryUnion@12@0ABVPxTransform@2@1ABMAAUCache@12@AAVContactBuffer@12@@Z 101181b0 f   GuPCMContactPlaneConvex.obj
 0001:001177d0       ?ConstructVertex2ShapeMatrix@Gu@physx@@YA?AUMat33V@aos@shdfnd@2@ABT__m128@@0@Z 101187d0 f i GuPCMContactPlaneConvex.obj
 0001:001178f0       ?pcmContactSphereConvex@Gu@physx@@YA_NABVGeometryUnion@12@0ABVPxTransform@2@1ABMAAUCache@12@AAVContactBuffer@12@@Z 101188f0 f   GuPCMContactSphereConvex.obj
 0001:00118900       ??0?$EPASupportMapPairLocalImpl@VCapsuleV@Gu@physx@@VConvexHullNoScaleV@23@@Gu@physx@@QAE@ABVCapsuleV@12@ABVConvexHullNoScaleV@12@@Z 10119900 f i GuPCMContactSphereConvex.obj
 0001:00118940       ??0CapsuleV@Gu@physx@@QAE@ABT__m128@@0@Z 10119940 f i GuPCMContactSphereConvex.obj
 0001:00118a00       ??1?$EPASupportMapPairLocalImpl@VCapsuleV@Gu@physx@@VConvexHullNoScaleV@23@@Gu@physx@@UAE@XZ 10119a00 f i GuPCMContactSphereConvex.obj
 0001:00118a20       ??_E?$EPASupportMapPairLocalImpl@VCapsuleV@Gu@physx@@VConvexHullNoScaleV@23@@Gu@physx@@UAEPAXI@Z 10119a20 f i GuPCMContactSphereConvex.obj
 0001:00118a20       ??_G?$EPASupportMapPairLocalImpl@VCapsuleV@Gu@physx@@VConvexHullNoScaleV@23@@Gu@physx@@UAEPAXI@Z 10119a20 f i GuPCMContactSphereConvex.obj
 0001:00118a60       ?doSupport@?$EPASupportMapPairLocalImpl@VCapsuleV@Gu@physx@@VConvexHullNoScaleV@23@@Gu@physx@@UBEXABT__m128@@AAT4@11@Z 10119a60 f i GuPCMContactSphereConvex.obj
 0001:00118b10       ?doWarmStartSupport@?$EPASupportMapPairLocalImpl@VCapsuleV@Gu@physx@@VConvexHullNoScaleV@23@@Gu@physx@@UBEXHHAAT__m128@@00@Z 10119b10 f i GuPCMContactSphereConvex.obj
 0001:00118bb0       ?getContactPoint@PersistentContactManifold@Gu@physx@@QAEAAVPersistentContact@23@I@Z 10119bb0 f i GuPCMContactSphereConvex.obj
 0001:00118c20       ?getDir@?$EPASupportMapPairLocalImpl@VCapsuleV@Gu@physx@@VConvexHullNoScaleV@23@@Gu@physx@@UBE?AT__m128@@XZ 10119c20 f i GuPCMContactSphereConvex.obj
 0001:00118ca0       ?pcmContactSphereHeightField@Gu@physx@@YA_NABVGeometryUnion@12@0ABVPxTransform@2@1ABMAAUCache@12@AAVContactBuffer@12@@Z 10119ca0 f   GuPCMContactSphereHeightField.obj
 0001:001191a0       ??$processTriangleCache@$0BA@@PCMSphereVsHeightfieldContactGenerationCallback@physx@@QAEXAAU?$TriangleCache@$0BA@@Gu@1@@Z 1011a1a0 f i GuPCMContactSphereHeightField.obj
 0001:001191d0       ??$processTriangleCache@$0BA@VPCMSphereVsMeshContactGeneration@Gu@physx@@@PCMMeshContactGeneration@Gu@physx@@QAE_NAAU?$TriangleCache@$0BA@@12@@Z 1011a1d0 f i GuPCMContactSphereHeightField.obj
 0001:001192a0       ??0?$PCMHeightfieldContactGenerationCallback@UPCMSphereVsHeightfieldContactGenerationCallback@physx@@@Gu@physx@@QAE@ABVHeightFieldUtil@12@ABVPxTransform@2@@Z 1011a2a0 f i GuPCMContactSphereHeightField.obj
 0001:001192e0       ??0PCMSphereVsHeightfieldContactGenerationCallback@physx@@QAE@ABT__m128@@000ABVPsTransformV@aos@shdfnd@1@1ABVPxTransform@1@AAVMultiplePersistentContactManifold@Gu@1@AAVContactBuffer@81@AAVHeightFieldUtil@81@@Z 1011a2e0 f i GuPCMContactSphereHeightField.obj
 0001:00119350       ??0PCMSphereVsMeshContactGeneration@Gu@physx@@QAE@ABT__m128@@000ABVPsTransformV@aos@shdfnd@2@1AAVMultiplePersistentContactManifold@12@AAVContactBuffer@12@@Z 1011a350 f i GuPCMContactSphereHeightField.obj
 0001:00119420       ??1?$PCMHeightfieldContactGenerationCallback@UPCMSphereVsHeightfieldContactGenerationCallback@physx@@@Gu@physx@@UAE@XZ 1011a420 f i GuPCMContactSphereHeightField.obj
 0001:00119440       ??1PCMSphereVsHeightfieldContactGenerationCallback@physx@@UAE@XZ 1011a440 f i GuPCMContactSphereHeightField.obj
 0001:00119460       ??_E?$PCMHeightfieldContactGenerationCallback@UPCMSphereVsHeightfieldContactGenerationCallback@physx@@@Gu@physx@@UAEPAXI@Z 1011a460 f i GuPCMContactSphereHeightField.obj
 0001:00119460       ??_G?$PCMHeightfieldContactGenerationCallback@UPCMSphereVsHeightfieldContactGenerationCallback@physx@@@Gu@physx@@UAEPAXI@Z 1011a460 f i GuPCMContactSphereHeightField.obj
 0001:001194a0       ??_GPCMSphereVsHeightfieldContactGenerationCallback@physx@@UAEPAXI@Z 1011a4a0 f i GuPCMContactSphereHeightField.obj
 0001:001194a0       ??_EPCMSphereVsHeightfieldContactGenerationCallback@physx@@UAEPAXI@Z 1011a4a0 f i GuPCMContactSphereHeightField.obj
 0001:001194e0       ?onEvent@?$PCMHeightfieldContactGenerationCallback@UPCMSphereVsHeightfieldContactGenerationCallback@physx@@@Gu@physx@@UAE_NIPAI@Z 1011a4e0 f i GuPCMContactSphereHeightField.obj
 0001:00119990       ?pcmContactSphereMesh@Gu@physx@@YA_NABVGeometryUnion@12@0ABVPxTransform@2@1ABMAAUCache@12@AAVContactBuffer@12@@Z 1011a990 f   GuPCMContactSphereMesh.obj
 0001:00119f30       ??$processTriangleCache@$0BA@@PCMSphereVsMeshContactGenerationCallback@physx@@QAEXAAU?$TriangleCache@$0BA@@Gu@1@@Z 1011af30 f i GuPCMContactSphereMesh.obj
 0001:00119f60       ??0?$PCMMeshContactGenerationCallback@UPCMSphereVsMeshContactGenerationCallback@physx@@@Gu@physx@@QAE@ABVFastVertex2ShapeScaling@Cm@2@PBE_N@Z 1011af60 f i GuPCMContactSphereMesh.obj
 0001:00119fc0       ??0PCMSphereVsMeshContactGenerationCallback@physx@@QAE@ABT__m128@@000ABVPsTransformV@aos@shdfnd@1@1AAVMultiplePersistentContactManifold@Gu@1@AAVContactBuffer@71@PBEABVFastVertex2ShapeScaling@Cm@1@_N@Z 1011afc0 f i GuPCMContactSphereMesh.obj
 0001:0011a040       ??1?$PCMMeshContactGenerationCallback@UPCMSphereVsMeshContactGenerationCallback@physx@@@Gu@physx@@UAE@XZ 1011b040 f i GuPCMContactSphereMesh.obj
 0001:0011a060       ??1PCMSphereVsMeshContactGenerationCallback@physx@@UAE@XZ 1011b060 f i GuPCMContactSphereMesh.obj
 0001:0011a080       ??_G?$PCMMeshContactGenerationCallback@UPCMSphereVsMeshContactGenerationCallback@physx@@@Gu@physx@@UAEPAXI@Z 1011b080 f i GuPCMContactSphereMesh.obj
 0001:0011a080       ??_E?$PCMMeshContactGenerationCallback@UPCMSphereVsMeshContactGenerationCallback@physx@@@Gu@physx@@UAEPAXI@Z 1011b080 f i GuPCMContactSphereMesh.obj
 0001:0011a0c0       ??_GPCMSphereVsMeshContactGenerationCallback@physx@@UAEPAXI@Z 1011b0c0 f i GuPCMContactSphereMesh.obj
 0001:0011a0c0       ??_EPCMSphereVsMeshContactGenerationCallback@physx@@UAEPAXI@Z 1011b0c0 f i GuPCMContactSphereMesh.obj
 0001:0011a100       ?doTest@PCMSphereVsMeshContactGenerationCallback@physx@@QAE_NABVPxVec3@2@00@Z 1011b100 f i GuPCMContactSphereMesh.obj
 0001:0011a120       ?flushCache@?$PCMMeshContactGenerationCallback@UPCMSphereVsMeshContactGenerationCallback@physx@@@Gu@physx@@QAEXXZ 1011b120 f i GuPCMContactSphereMesh.obj
 0001:0011a170       ?processHit@?$PCMMeshContactGenerationCallback@UPCMSphereVsMeshContactGenerationCallback@physx@@@Gu@physx@@UAE_NABUPxRaycastHit@3@ABVPxVec3@3@11AAMPBI@Z 1011b170 f i GuPCMContactSphereMesh.obj
 0001:0011a350       ??0PCMPolygonalBox@Gu@physx@@QAE@ABVPxVec3@2@@Z 1011b350 f   GuPCMShapeConvex.obj
 0001:0011ab30       ?getPolygonalData@PCMPolygonalBox@Gu@physx@@QBEXPIAUPolygonalData@23@@Z 1011bb30 f   GuPCMShapeConvex.obj
 0001:0011ac10       ?getPCMConvexData@Gu@physx@@YAXABVConvexHullV@12@_NAAUPolygonalData@12@@Z 1011bc10 f   GuPCMShapeConvex.obj
 0001:0011aca0       ?getPCMConvexData@Gu@physx@@YA_NABVGeometryUnion@12@AAVFastVertex2ShapeScaling@Cm@2@AAVPxBounds3@2@AAUPolygonalData@12@@Z 1011bca0 f   GuPCMShapeConvex.obj
 0001:0011b240       ?generateTriangleFullContactManifold@PCMConvexVsMeshContactGeneration@Gu@physx@@QAE_NAAVTriangleV@23@IPBIEABUPolygonalData@23@PAV?$SupportLocalImpl@VTriangleV@Gu@physx@@@23@PAVSupportLocal@23@PAVMeshPersistentContact@23@AAIABT__m128@@AAT9@@Z 1011c240 f   GuPCMTriangleContactGen.obj
 0001:0011b6e0       ?generatePolyDataContactManifold@PCMConvexVsMeshContactGeneration@Gu@physx@@QAE_NAAVTriangleV@23@IIEPAVMeshPersistentContact@23@AAIABT__m128@@AAT6@@Z 1011c6e0 f   GuPCMTriangleContactGen.obj
 0001:0011b7c0       ?generateTriangleFullContactManifold@PCMConvexVsMeshContactGeneration@Gu@physx@@SA_NAAVTriangleV@23@IEABUPolygonalData@23@PAV?$SupportLocalImpl@VTriangleV@Gu@physx@@@23@PAVSupportLocal@23@PAVMeshPersistentContact@23@AAIABT__m128@@AAT9@@Z 1011c7c0 f   GuPCMTriangleContactGen.obj
 0001:0011fa50       ??$PX_UNUSED@E@@YAXABE@Z   10120a50 f i GuPCMTriangleContactGen.obj
 0001:0011fa60       ??$PX_UNUSED@PAV?$SupportLocalImpl@VTriangleV@Gu@physx@@@Gu@physx@@@@YAXABQAV?$SupportLocalImpl@VTriangleV@Gu@physx@@@Gu@physx@@@Z 10120a60 f i GuPCMTriangleContactGen.obj
 0001:0011fa70       ??$PX_UNUSED@VTriangleV@Gu@physx@@@@YAXABVTriangleV@Gu@physx@@@Z 10120a70 f i GuPCMTriangleContactGen.obj
 0001:0011fa80       ?FRsqrtFast@aos@shdfnd@physx@@YA?AT__m128@@T4@@Z 10120a80 f i GuPCMTriangleContactGen.obj
 0001:0011fac0       ?V3AllGrtr@aos@shdfnd@physx@@YAIT__m128@@0@Z 10120ac0 f i GuPCMTriangleContactGen.obj
 0001:0011fb20       ?V3LengthSq@aos@shdfnd@physx@@YA?AT__m128@@T4@@Z 10120b20 f i GuPCMTriangleContactGen.obj
 0001:0011fb70       ?doSupportFast@?$SupportLocalImpl@VTriangleV@Gu@physx@@@Gu@physx@@QBEXABT__m128@@AAT4@1@Z 10120b70 f i GuPCMTriangleContactGen.obj
 0001:0011fba0       ?findRotationMatrixFromZAxis@Gu@physx@@YA?AUMat33V@aos@shdfnd@2@ABT__m128@@@Z 10120ba0 f   GuPersistentContactManifold.obj
 0001:001203c0       ?replaceManifoldPoint@PersistentContactManifold@Gu@physx@@QAE_NABT__m128@@000@Z 101213c0 f   GuPersistentContactManifold.obj
 0001:001204d0       ?addManifoldPoint@PersistentContactManifold@Gu@physx@@QAEIABT__m128@@000@Z 101214d0 f   GuPersistentContactManifold.obj
 0001:001205a0       ?addManifoldPoint2@PersistentContactManifold@Gu@physx@@QAEIABT__m128@@000@Z 101215a0 f   GuPersistentContactManifold.obj
 0001:001206b0       ?addBatchManifoldContactsCluster@PersistentContactManifold@Gu@physx@@QAEXPBVPersistentContact@23@I@Z 101216b0 f   GuPersistentContactManifold.obj
 0001:00120760       ?addBatchManifoldContacts2@PersistentContactManifold@Gu@physx@@QAEXPBVPersistentContact@23@I@Z 10121760 f   GuPersistentContactManifold.obj
 0001:00120810       ?addBatchManifoldContacts@PersistentContactManifold@Gu@physx@@QAEXPBVPersistentContact@23@I@Z 10121810 f   GuPersistentContactManifold.obj
 0001:001208c0       ?reduceBatchContactsCluster@PersistentContactManifold@Gu@physx@@QAEXPBVPersistentContact@23@I@Z 101218c0 f   GuPersistentContactManifold.obj
 0001:00121030       ?reduceBatchContacts2@PersistentContactManifold@Gu@physx@@QAEXPBVPersistentContact@23@I@Z 10122030 f   GuPersistentContactManifold.obj
 0001:00121400       ?reduceBatchContacts@PersistentContactManifold@Gu@physx@@QAEXPBVPersistentContact@23@I@Z 10122400 f   GuPersistentContactManifold.obj
 0001:00121920       ?reduceContactsForPCM@PersistentContactManifold@Gu@physx@@QAEIABT__m128@@00@Z 10122920 f   GuPersistentContactManifold.obj
 0001:00121f20       ?reduceContactSegment@PersistentContactManifold@Gu@physx@@QAEIABT__m128@@00@Z 10122f20 f   GuPersistentContactManifold.obj
 0001:001220b0       ?addManifoldContactsToContactBuffer@PersistentContactManifold@Gu@physx@@QAEXAAVContactBuffer@23@ABT__m128@@ABVPsMatTransformV@aos@shdfnd@3@@Z 101230b0 f   GuPersistentContactManifold.obj
 0001:00122200       ?addManifoldContactsToContactBuffer@PersistentContactManifold@Gu@physx@@QAEXAAVContactBuffer@23@ABT__m128@@ABVPsTransformV@aos@shdfnd@3@@Z 10123200 f   GuPersistentContactManifold.obj
 0001:00122350       ?addManifoldContactsToContactBuffer@PersistentContactManifold@Gu@physx@@QAEXAAVContactBuffer@23@ABT__m128@@ABVPsTransformV@aos@shdfnd@3@1@Z 10123350 f   GuPersistentContactManifold.obj
 0001:001225b0       ?drawManifold@PersistentContactManifold@Gu@physx@@QAEXAAVRenderOutput@Cm@3@ABVPsTransformV@aos@shdfnd@3@1@Z 101235b0 f   GuPersistentContactManifold.obj
 0001:00122650       ?drawManifold@PersistentContactManifold@Gu@physx@@QAEXAAVRenderOutput@Cm@3@ABVPsTransformV@aos@shdfnd@3@1ABT__m128@@@Z 10123650 f   GuPersistentContactManifold.obj
 0001:001226f0       ?drawManifold@PersistentContactManifold@Gu@physx@@QAEXABVPersistentContact@23@AAVRenderOutput@Cm@3@ABVPsTransformV@aos@shdfnd@3@2@Z 101236f0 f   GuPersistentContactManifold.obj
 0001:00122730       ?drawPoint@PersistentContactManifold@Gu@physx@@SAXAAVRenderOutput@Cm@3@ABT__m128@@MI@Z 10123730 f   GuPersistentContactManifold.obj
 0001:001228d0       ?drawLine@PersistentContactManifold@Gu@physx@@SAXAAVRenderOutput@Cm@3@ABT__m128@@1I@Z 101238d0 f   GuPersistentContactManifold.obj
 0001:001229f0       ?drawTriangle@PersistentContactManifold@Gu@physx@@SAXAAVRenderOutput@Cm@3@ABT__m128@@11I@Z 101239f0 f   GuPersistentContactManifold.obj
 0001:00122ac0       ?drawPolygon@PersistentContactManifold@Gu@physx@@SAXAAVRenderOutput@Cm@3@ABVPsTransformV@aos@shdfnd@3@PAT__m128@@II@Z 10123ac0 f   GuPersistentContactManifold.obj
 0001:00122b70       ?drawPolygon@PersistentContactManifold@Gu@physx@@SAXAAVRenderOutput@Cm@3@ABVPsMatTransformV@aos@shdfnd@3@PAT__m128@@II@Z 10123b70 f   GuPersistentContactManifold.obj
 0001:00122c20       ?reduceBatchContactsConvex@SinglePersistentContactManifold@Gu@physx@@QAE?AT__m128@@PBVMeshPersistentContact@23@IAAUPCMContactPatch@23@@Z 10123c20 f   GuPersistentContactManifold.obj
 0001:00123670       ?reduceBatchContactsSphere@SinglePersistentContactManifold@Gu@physx@@QAE?AT__m128@@PBVMeshPersistentContact@23@IAAUPCMContactPatch@23@@Z 10124670 f   GuPersistentContactManifold.obj
 0001:001237a0       ?reduceBatchContactsCapsule@SinglePersistentContactManifold@Gu@physx@@QAE?AT__m128@@PBVMeshPersistentContact@23@IAAUPCMContactPatch@23@@Z 101247a0 f   GuPersistentContactManifold.obj
 0001:00123b90       ?addBatchManifoldContactsConvex@SinglePersistentContactManifold@Gu@physx@@QAE?AT__m128@@PBVMeshPersistentContact@23@IAAUPCMContactPatch@23@ABT4@@Z 10124b90 f   GuPersistentContactManifold.obj
 0001:00123c90       ?addBatchManifoldContactsSphere@SinglePersistentContactManifold@Gu@physx@@QAE?AT__m128@@PBVMeshPersistentContact@23@IAAUPCMContactPatch@23@ABT4@@Z 10124c90 f   GuPersistentContactManifold.obj
 0001:00123d00       ?addBatchManifoldContactsCapsule@SinglePersistentContactManifold@Gu@physx@@QAE?AT__m128@@PBVMeshPersistentContact@23@IAAUPCMContactPatch@23@ABT4@@Z 10124d00 f   GuPersistentContactManifold.obj
 0001:00123e00       ?reduceContacts@SinglePersistentContactManifold@Gu@physx@@SAIPAVMeshPersistentContact@23@I@Z 10124e00 f   GuPersistentContactManifold.obj
 0001:00124370       ?refreshContactPoints@SinglePersistentContactManifold@Gu@physx@@QAE?AT__m128@@ABVPsMatTransformV@aos@shdfnd@3@ABT4@1@Z 10125370 f   GuPersistentContactManifold.obj
 0001:001245c0       ?drawManifold@SinglePersistentContactManifold@Gu@physx@@QAEXAAVRenderOutput@Cm@3@ABVPsTransformV@aos@shdfnd@3@1@Z 101255c0 f   GuPersistentContactManifold.obj
 0001:00124660       ?addManifoldContactPoints@MultiplePersistentContactManifold@Gu@physx@@QAEXPAVMeshPersistentContact@23@IPAPAUPCMContactPatch@23@IABT__m128@@2E@Z 10125660 f   GuPersistentContactManifold.obj
 0001:00124c10       ?addManifoldContactsToContactBuffer@MultiplePersistentContactManifold@Gu@physx@@QAE_NAAVContactBuffer@23@ABVPsTransformV@aos@shdfnd@3@@Z 10125c10 f   GuPersistentContactManifold.obj
 0001:00124e80       ?addManifoldContactsToContactBuffer@MultiplePersistentContactManifold@Gu@physx@@QAE_NAAVContactBuffer@23@ABVPsTransformV@aos@shdfnd@3@1ABT__m128@@@Z 10125e80 f   GuPersistentContactManifold.obj
 0001:00125120       ?drawManifold@MultiplePersistentContactManifold@Gu@physx@@QAEXAAVRenderOutput@Cm@3@ABVPsTransformV@aos@shdfnd@3@1@Z 10126120 f   GuPersistentContactManifold.obj
 0001:00125180       ?drawLine@MultiplePersistentContactManifold@Gu@physx@@SAXAAVRenderOutput@Cm@3@ABT__m128@@1I@Z 10126180 f   GuPersistentContactManifold.obj
 0001:00125220       ?drawLine@MultiplePersistentContactManifold@Gu@physx@@SAXAAVRenderOutput@Cm@3@VPxVec3@3@1I@Z 10126220 f   GuPersistentContactManifold.obj
 0001:00125280       ?drawPoint@MultiplePersistentContactManifold@Gu@physx@@SAXAAVRenderOutput@Cm@3@ABT__m128@@MI@Z 10126280 f   GuPersistentContactManifold.obj
 0001:00125420       ?drawPolygon@MultiplePersistentContactManifold@Gu@physx@@SAXAAVRenderOutput@Cm@3@ABVPsTransformV@aos@shdfnd@3@PAT__m128@@II@Z 10126420 f   GuPersistentContactManifold.obj
 0001:00128900       ??0MeshPersistentContact@Gu@physx@@QAE@XZ 10129900 f i GuPersistentContactManifold.obj
 0001:00128920       ??0PersistentContact@Gu@physx@@QAE@XZ 10129920 f i GuPersistentContactManifold.obj
 0001:00128940       ?createIdentity@PxMat44@physx@@SA?AV12@XZ 10129940 f i GuPersistentContactManifold.obj
 0001:00128960       ?getContactPoint@SinglePersistentContactManifold@Gu@physx@@QAEAAVMeshPersistentContact@23@I@Z 10129960 f i GuPersistentContactManifold.obj
 0001:001289d0       ?getEmptyManifold@MultiplePersistentContactManifold@Gu@physx@@QAEPAVSinglePersistentContactManifold@23@XZ 101299d0 f i GuPersistentContactManifold.obj
 0001:00128a20       ?getLocalNormal@SinglePersistentContactManifold@Gu@physx@@QAE?AT__m128@@XZ 10129a20 f i GuPersistentContactManifold.obj
 0001:00128af0       ?getManifold@MultiplePersistentContactManifold@Gu@physx@@QAEPAVSinglePersistentContactManifold@23@I@Z 10129af0 f i GuPersistentContactManifold.obj
 0001:00128b70       ?getNumContacts@SinglePersistentContactManifold@Gu@physx@@QBEIXZ 10129b70 f i GuPersistentContactManifold.obj
 0001:00128b90       ?getWorldNormal@SinglePersistentContactManifold@Gu@physx@@QAE?AT__m128@@ABVPsTransformV@aos@shdfnd@3@@Z 10129b90 f i GuPersistentContactManifold.obj
 0001:00128c80       ?removeContactPoint@SinglePersistentContactManifold@Gu@physx@@QAEXI@Z 10129c80 f i GuPersistentContactManifold.obj
 0001:00128ce0       ?computeOBBPoints@Gu@physx@@YAXPIAVPxVec3@2@ABV32@1111@Z 10129ce0 f   GuBox.obj
 0001:00128ee0       ?create@Box@Gu@physx@@QAEXABVCapsule@23@@Z 10129ee0 f   GuBox.obj
 0001:00128fa0       ?getBoxEdges@Gu@physx@@YAPBEXZ 10129fa0 f   GuBox.obj
 0001:001292e0       ?closestAxis@shdfnd@physx@@YAIABVPxVec3@2@@Z 1012a2e0 f i GuBox.obj
 0001:001293e0       ?CompleteBoxPruning@Gu@physx@@YA_NPBVPxBounds3@2@IAAV?$Array@IVNamedAllocator@shdfnd@physx@@@shdfnd@2@ABVAxes@12@@Z 1012a3e0 f   GuBoxPruning.obj
 0001:00129630       ?BipartiteBoxPruning@Gu@physx@@YA_NPBVPxBounds3@2@I0IAAV?$Array@IVNamedAllocator@shdfnd@physx@@@shdfnd@2@ABVAxes@12@@Z 1012a630 f   GuBoxPruning.obj
 0001:00129bb0       ?GetNbHits@RadixSort@Gu@physx@@QBEIXZ 1012abb0 f i GuBoxPruning.obj
 0001:00129bd0       ?GetNbTotalCalls@RadixSort@Gu@physx@@QBEIXZ 1012abd0 f i GuBoxPruning.obj
 0001:00129bf0       ?GetRanks@RadixSort@Gu@physx@@QBEPBIXZ 1012abf0 f i GuBoxPruning.obj
 0001:00129c10       ?GetRecyclable@RadixSort@Gu@physx@@QBEPAIXZ 1012ac10 f i GuBoxPruning.obj
 0001:00129c30       ?allocate@?$Array@IVNamedAllocator@shdfnd@physx@@@shdfnd@physx@@IAEPAII@Z 1012ac30 f i GuBoxPruning.obj
 0001:00129cb0       ?capacity@?$Array@IVNamedAllocator@shdfnd@physx@@@shdfnd@physx@@QBEIXZ 1012acb0 f i GuBoxPruning.obj
 0001:00129cd0       ?capacityIncrement@?$Array@IVNamedAllocator@shdfnd@physx@@@shdfnd@physx@@IBEIXZ 1012acd0 f i GuBoxPruning.obj
 0001:00129d10       ?clear@?$Array@IVNamedAllocator@shdfnd@physx@@@shdfnd@physx@@QAEXXZ 1012ad10 f i GuBoxPruning.obj
 0001:00129d50       ?copy@?$Array@IVNamedAllocator@shdfnd@physx@@@shdfnd@physx@@KAXPAI0PBI@Z 1012ad50 f i GuBoxPruning.obj
 0001:00129dc0       ?deallocate@?$Array@IVNamedAllocator@shdfnd@physx@@@shdfnd@physx@@IAEXPAX@Z 1012adc0 f i GuBoxPruning.obj
 0001:00129de0       ?destroy@?$Array@IVNamedAllocator@shdfnd@physx@@@shdfnd@physx@@KAXPAI0@Z 1012ade0 f i GuBoxPruning.obj
 0001:00129e00       ?growAndPushBack@?$Array@IVNamedAllocator@shdfnd@physx@@@shdfnd@physx@@IAEAAIABI@Z 1012ae00 f i GuBoxPruning.obj
 0001:00129f90       ?intersects@PxBounds3@physx@@QBE_NABV12@@Z 1012af90 f i GuBoxPruning.obj
 0001:0012a0a0       ?isInUserMemory@?$Array@IVNamedAllocator@shdfnd@physx@@@shdfnd@physx@@QBEIXZ 1012b0a0 f i GuBoxPruning.obj
 0001:0012a0c0       ?pushBack@?$Array@IVNamedAllocator@shdfnd@physx@@@shdfnd@physx@@QAEAAIABI@Z 1012b0c0 f i GuBoxPruning.obj
 0001:0012a170       ?computeBoxAroundCapsule@Gu@physx@@YAXABVCapsule@12@AAVBox@12@@Z 1012b170 f   GuCapsule.obj
 0001:0012a290       ?computeBasis@shdfnd@physx@@YAXABVPxVec3@2@0AAV32@11@Z 1012b290 f i GuCapsule.obj
 0001:0012a2f0       ?computeBasis@shdfnd@physx@@YAXABVPxVec3@2@AAV32@1@Z 1012b2f0 f i GuCapsule.obj
 0001:0012a440       ?sweepCCTBoxTriangles@Gu@physx@@YA_NIPBVPxTriangle@2@_NABVPxBoxGeometry@2@ABVPxTransform@2@ABVPxVec3@2@MAAV62@5AAMAAIPBIMV?$PxFlags@W4Enum@PxHitFlag@physx@@G@2@@Z 1012b440 f   GuCCTSweepTests.obj
 0001:0012a510       ?sweepCCTCapsule_BoxGeom@@YA_NABVPxGeometry@physx@@ABVPxTransform@2@ABVCapsule@Gu@2@ABVPxVec3@2@MAAUPxSweepHit@2@V?$PxFlags@W4Enum@PxHitFlag@physx@@G@2@M@Z 1012b510 f   GuCCTSweepTests.obj
 0001:0012a8f0       ?sweepCCTBox_SphereGeom@@YA_NABVPxGeometry@physx@@ABVPxTransform@2@ABVBox@Gu@2@ABVPxVec3@2@MAAUPxSweepHit@2@V?$PxFlags@W4Enum@PxHitFlag@physx@@G@2@M@Z 1012b8f0 f   GuCCTSweepTests.obj
 0001:0012ab00       ?sweepCCTBox_CapsuleGeom@@YA_NABVPxGeometry@physx@@ABVPxTransform@2@ABVBox@Gu@2@ABVPxVec3@2@MAAUPxSweepHit@2@V?$PxFlags@W4Enum@PxHitFlag@physx@@G@2@M@Z 1012bb00 f   GuCCTSweepTests.obj
 0001:0012ad90       ?sweepCCTBox_BoxGeom@@YA_NABVPxGeometry@physx@@ABVPxTransform@2@ABVBox@Gu@2@ABVPxVec3@2@MAAUPxSweepHit@2@V?$PxFlags@W4Enum@PxHitFlag@physx@@G@2@M@Z 1012bd90 f   GuCCTSweepTests.obj
 0001:0012b660       ?sweepCCTBox_HeightFieldGeom@@YA_NABVPxGeometry@physx@@ABVPxTransform@2@ABVBox@Gu@2@ABVPxVec3@2@MAAUPxSweepHit@2@V?$PxFlags@W4Enum@PxHitFlag@physx@@G@2@M@Z 1012c660 f   GuCCTSweepTests.obj
 0001:0012bd40       ??0Capsule@Gu@physx@@QAE@ABV012@@Z 1012cd40 f i GuCCTSweepTests.obj
 0001:0012be00       ??4?$PxFlags@W4Enum@PxHitFlag@physx@@G@physx@@QAEAAV01@W4Enum@PxHitFlag@1@@Z 1012ce00 f i GuCCTSweepTests.obj
 0001:0012be20       ??I?$PxFlags@W4Enum@PxHitFlag@physx@@G@physx@@QBE?AV01@ABV01@@Z 1012ce20 f i GuCCTSweepTests.obj
 0001:0012be70       ??_ELocalReport@?1??sweepCCTBox_HeightFieldGeom@@YA_NABVPxGeometry@physx@@ABVPxTransform@3@ABVBox@Gu@3@ABVPxVec3@3@MAAUPxSweepHit@3@V?$PxFlags@W4Enum@PxHitFlag@physx@@G@3@M@Z@UAEPAXI@Z 1012ce70 f i GuCCTSweepTests.obj
 0001:0012be70       ??_GLocalReport@?1??sweepCCTBox_HeightFieldGeom@@YA_NABVPxGeometry@physx@@ABVPxTransform@3@ABVBox@Gu@3@ABVPxVec3@3@MAAUPxSweepHit@3@V?$PxFlags@W4Enum@PxHitFlag@physx@@G@3@M@Z@UAEPAXI@Z 1012ce70 f i GuCCTSweepTests.obj
 0001:0012beb0       ?distanceSegmentBoxSquared@Gu@physx@@YAMABVSegment@12@ABVBox@12@PAMPAVPxVec3@2@@Z 1012ceb0 f i GuCCTSweepTests.obj
 0001:0012c030       ??0Container@Gu@physx@@QAE@XZ 1012d030 f   GuContainer.obj
 0001:0012c070       ??0Container@Gu@physx@@QAE@ABV012@@Z 1012d070 f   GuContainer.obj
 0001:0012c0c0       ??0Container@Gu@physx@@QAE@IM@Z 1012d0c0 f   GuContainer.obj
 0001:0012c110       ??1Container@Gu@physx@@QAE@XZ 1012d110 f   GuContainer.obj
 0001:0012c130       ?Contains@Container@Gu@physx@@QBE_NIPAI@Z 1012d130 f   GuContainer.obj
 0001:0012c190       ?Delete@Container@Gu@physx@@QAE_NI@Z 1012d190 f   GuContainer.obj
 0001:0012c1f0       ?DeleteKeepingOrder@Container@Gu@physx@@QAE_NI@Z 1012d1f0 f   GuContainer.obj
 0001:0012c280       ??4Container@Gu@physx@@QAEXABV012@@Z 1012d280 f   GuContainer.obj
 0001:0012c370       ?InitSharedBuffers@Container@Gu@physx@@QAEXIPAI_N@Z 1012d370 f   GuContainerMemoryMgmt.obj
 0001:0012c410       ?Empty@Container@Gu@physx@@QAEAAV123@XZ 1012d410 f   GuContainerMemoryMgmt.obj
 0001:0012c470       ?SetSize@Container@Gu@physx@@QAE_NI@Z 1012d470 f   GuContainerMemoryMgmt.obj
 0001:0012c4e0       ?Refit@Container@Gu@physx@@QAE_NXZ 1012d4e0 f   GuContainerMemoryMgmt.obj
 0001:0012c5e0       ?Resize@Container@Gu@physx@@AAE_NI@Z 1012d5e0 f   GuContainerMemoryMgmt.obj
 0001:0012c880       ?convertToPxMat44@Debug@Gu@physx@@SA?AVPxMat44@3@ABVMatrix34@Cm@3@@Z 1012d880 f   GuDebug.obj
 0001:0012c9c0       ?convertToPxMat44@Debug@Gu@physx@@SA?AVPxMat44@3@ABVPxTransform@3@@Z 1012d9c0 f   GuDebug.obj
 0001:0012c9f0       ?visualize@Debug@Gu@physx@@SAXABVPxBoxGeometry@3@AAVRenderOutput@Cm@3@ABVMatrix34@63@ABVPxBounds3@3@_KMI@Z 1012d9f0 f   GuDebug.obj
 0001:0012cab0       ?visualize@Debug@Gu@physx@@SAXABVPxSphereGeometry@3@AAVRenderOutput@Cm@3@ABVMatrix34@63@ABVPxBounds3@3@_KMI@Z 1012dab0 f   GuDebug.obj
 0001:0012cca0       ?visualize@Debug@Gu@physx@@SAXABVPxPlaneGeometry@3@AAVRenderOutput@Cm@3@ABVMatrix34@63@ABVPxBounds3@3@_KMI@Z 1012dca0 f   GuDebug.obj
 0001:0012cdb0       ?visualize@Debug@Gu@physx@@SAXABVPxCapsuleGeometry@3@AAVRenderOutput@Cm@3@ABVMatrix34@63@ABVPxBounds3@3@_KMI@Z 1012ddb0 f   GuDebug.obj
 0001:0012cf00       ?visualize@Debug@Gu@physx@@SAXABVPxConvexMeshGeometry@3@AAVRenderOutput@Cm@3@ABVMatrix34@63@ABVPxBounds3@3@_KMI@Z 1012df00 f   GuDebug.obj
 0001:0012cf40       ?visualize@Debug@Gu@physx@@SAXABVPxTriangleMeshGeometry@3@AAVRenderOutput@Cm@3@ABVMatrix34@63@ABVPxBounds3@3@_KMI@Z 1012df40 f   GuDebug.obj
 0001:0012cf80       ?visualize@Debug@Gu@physx@@SAXABVPxHeightFieldGeometry@3@AAVRenderOutput@Cm@3@ABVMatrix34@63@ABVPxBounds3@3@_KMI@Z 1012df80 f   GuDebug.obj
 0001:0012d880       ??0DebugBox@Cm@physx@@QAE@ABVPxVec3@2@_N@Z 1012e880 f i GuDebug.obj
 0001:0012d8d0       ??0PxBoxGeometry@physx@@QAE@VPxVec3@1@@Z 1012e8d0 f i GuDebug.obj
 0001:0012d910       ??0PxTransform@physx@@QAE@ABVPxVec3@1@@Z 1012e910 f i GuDebug.obj
 0001:0012d950       ?sweep@PxGeometryQuery@physx@@SA_NABVPxVec3@2@MABVPxGeometry@2@ABVPxTransform@2@12AAUPxSweepHit@2@V?$PxFlags@W4Enum@PxHitFlag@physx@@G@2@M@Z 1012e950 f   GuGeometryQuery.obj
 0001:0012df40       ?overlap@PxGeometryQuery@physx@@SA_NABVPxGeometry@2@ABVPxTransform@2@01@Z 1012ef40 f   GuGeometryQuery.obj
 0001:0012e120       ?raycast@PxGeometryQuery@physx@@SAIABVPxVec3@2@0ABVPxGeometry@2@ABVPxTransform@2@MV?$PxFlags@W4Enum@PxHitFlag@physx@@G@2@IPIAUPxRaycastHit@2@_N@Z 1012f120 f   GuGeometryQuery.obj
 0001:0012e3f0       ?computePenetration@PxGeometryQuery@physx@@SA_NAAVPxVec3@2@AAMABVPxGeometry@2@ABVPxTransform@2@23@Z 1012f3f0 f   GuGeometryQuery.obj
 0001:0012e610       ?pointDistance@PxGeometryQuery@physx@@SAMABVPxVec3@2@ABVPxGeometry@2@ABVPxTransform@2@PAV32@@Z 1012f610 f   GuGeometryQuery.obj
 0001:0012ea40       ?getWorldBounds@PxGeometryQuery@physx@@SA?AVPxBounds3@2@ABVPxGeometry@2@ABVPxTransform@2@M@Z 1012fa40 f   GuGeometryQuery.obj
 0001:0012f000       ?distancePointBoxSquared@Gu@physx@@YAMABVPxVec3@2@ABVBox@12@PAV32@@Z 10130000 f i GuGeometryQuery.obj
 0001:0012f030       ?set@GeometryUnion@Gu@physx@@QAEXABVPxGeometry@3@@Z 10130030 f   GuGeometryUnion.obj
 0001:0012f270       ??$checkType@UPxConvexMeshGeometryLL@physx@@@physx@@YAXABVGeometryUnion@Gu@0@@Z 10130270 f i GuGeometryUnion.obj
 0001:0012f2e0       ??$checkType@UPxHeightFieldGeometryLL@physx@@@physx@@YAXABVGeometryUnion@Gu@0@@Z 101302e0 f i GuGeometryUnion.obj
 0001:0012f350       ??$checkType@UPxTriangleMeshGeometryLL@physx@@@physx@@YAXABVGeometryUnion@Gu@0@@Z 10130350 f i GuGeometryUnion.obj
 0001:0012f3c0       ??$get@UPxConvexMeshGeometryLL@physx@@@GeometryUnion@Gu@physx@@QAEAAUPxConvexMeshGeometryLL@2@XZ 101303c0 f i GuGeometryUnion.obj
 0001:0012f3e0       ??$get@UPxHeightFieldGeometryLL@physx@@@GeometryUnion@Gu@physx@@QAEAAUPxHeightFieldGeometryLL@2@XZ 101303e0 f i GuGeometryUnion.obj
 0001:0012f400       ??$get@UPxTriangleMeshGeometryLL@physx@@@GeometryUnion@Gu@physx@@QAEAAUPxTriangleMeshGeometryLL@2@XZ 10130400 f i GuGeometryUnion.obj
 0001:0012f420       ??4?$PxFlags@W4Enum@PxMeshGeometryFlag@physx@@E@physx@@QAEAAV01@ABV01@@Z 10130420 f i GuGeometryUnion.obj
 0001:0012f440       ??4PxConvexMeshGeometry@physx@@QAEAAV01@ABV01@@Z 10130440 f i GuGeometryUnion.obj
 0001:0012f490       ??4PxHeightFieldGeometry@physx@@QAEAAV01@ABV01@@Z 10130490 f i GuGeometryUnion.obj
 0001:0012f530       ??4PxMeshScale@physx@@QAEAAV01@ABV01@@Z 10130530 f i GuGeometryUnion.obj
 0001:0012f570       ??4PxTriangleMeshGeometry@physx@@QAEAAV01@ABV01@@Z 10130570 f i GuGeometryUnion.obj
 0001:0012f5f0       ?getConvexMesh@Gu@physx@@YAAAVConvexMesh@12@PAVPxConvexMesh@2@@Z 101305f0 f i GuGeometryUnion.obj
 0001:0012f610       ?getHeightField@Gu@physx@@YAAAVHeightField@12@PAVPxHeightField@2@@Z 10130610 f i GuGeometryUnion.obj
 0001:0012f630       ?getTriangleMesh@Gu@physx@@YAAAVTriangleMesh@12@PAVPxTriangleMesh@2@@Z 10130630 f i GuGeometryUnion.obj
 0001:0012f6a0       ?computeBoxPoints@Gu@physx@@YAXABVPxBounds3@2@PIAVPxVec3@2@@Z 101306a0 f   GuGeomUtilsInternal.obj
 0001:0012f900       ?computeBoundsAroundVertices@Gu@physx@@YAXAAVPxBounds3@2@IPIBVPxVec3@2@@Z 10130900 f   GuGeomUtilsInternal.obj
 0001:0012f950       ?getPlane@Gu@physx@@YA?AVPxPlane@2@ABVPxTransform@2@@Z 10130950 f   GuGeomUtilsInternal.obj
 0001:0012f9a0       ?getCapsuleTransform@Gu@physx@@YA?AVPxTransform@2@ABVCapsule@12@AAM@Z 101309a0 f   GuGeomUtilsInternal.obj
 0001:0012faa0       ?computeSweptBox@Gu@physx@@YAXAAVBox@12@ABVPxVec3@2@1ABVPxMat33@2@1M@Z 10130aa0 f   GuGeomUtilsInternal.obj
 0001:00130020       ??0PxTransform@physx@@QAE@$$QAV01@@Z 10131020 f i GuGeomUtilsInternal.obj
 0001:00130060       ?getOrigin@Segment@Gu@physx@@QBEABVPxVec3@3@XZ 10131060 f i GuGeomUtilsInternal.obj
 0001:00130080       ?include@PxBounds3@physx@@QAEXABVPxVec3@2@@Z 10131080 f i GuGeomUtilsInternal.obj
 0001:00130130       ?maximum@PxVec3@physx@@QBE?AV12@ABV12@@Z 10131130 f i GuGeomUtilsInternal.obj
 0001:001301e0       ?minimum@PxVec3@physx@@QBE?AV12@ABV12@@Z 101311e0 f i GuGeomUtilsInternal.obj
 0001:00130290       ??1GuMeshFactory@physx@@MAE@XZ 10131290 f   GuMeshFactory.obj
 0001:001302e0       ?release@GuMeshFactory@physx@@QAEXXZ 101312e0 f   GuMeshFactory.obj
 0001:00130480       ?addTriangleMesh@GuMeshFactory@physx@@QAEXPAVTriangleMesh@Gu@2@_N@Z 10131480 f   GuMeshFactory.obj
 0001:001304c0       ?createTriangleMesh@GuMeshFactory@physx@@QAEPAVPxTriangleMesh@2@AAVPxInputStream@2@@Z 101314c0 f   GuMeshFactory.obj
 0001:00130580       ?removeTriangleMesh@GuMeshFactory@physx@@QAE_NAAVPxTriangleMesh@2@@Z 10131580 f   GuMeshFactory.obj
 0001:001305d0       ?getNbTriangleMeshes@GuMeshFactory@physx@@QBEIXZ 101315d0 f   GuMeshFactory.obj
 0001:00130610       ?getTriangleMeshes@GuMeshFactory@physx@@QBEIPAPAVPxTriangleMesh@2@II@Z 10131610 f   GuMeshFactory.obj
 0001:001306c0       ?addConvexMesh@GuMeshFactory@physx@@QAEXPAVConvexMesh@Gu@2@_N@Z 101316c0 f   GuMeshFactory.obj
 0001:00130700       ?createConvexMesh@GuMeshFactory@physx@@QAEPAVPxConvexMesh@2@AAVPxInputStream@2@@Z 10131700 f   GuMeshFactory.obj
 0001:001307c0       ?removeConvexMesh@GuMeshFactory@physx@@QAE_NAAVPxConvexMesh@2@@Z 101317c0 f   GuMeshFactory.obj
 0001:00130810       ?getNbConvexMeshes@GuMeshFactory@physx@@QBEIXZ 10131810 f   GuMeshFactory.obj
 0001:00130850       ?getConvexMeshes@GuMeshFactory@physx@@QBEIPAPAVPxConvexMesh@2@II@Z 10131850 f   GuMeshFactory.obj
 0001:00130900       ?addHeightField@GuMeshFactory@physx@@QAEXPAVHeightField@Gu@2@_N@Z 10131900 f   GuMeshFactory.obj
 0001:00130940       ?createHeightField@GuMeshFactory@physx@@QAEPAVPxHeightField@2@ABVPxHeightFieldDesc@2@@Z 10131940 f   GuMeshFactory.obj
 0001:00130a00       ?createHeightField@GuMeshFactory@physx@@QAEPAVPxHeightField@2@AAVPxInputStream@2@@Z 10131a00 f   GuMeshFactory.obj
 0001:00130ab0       ?removeHeightField@GuMeshFactory@physx@@QAE_NAAVPxHeightField@2@@Z 10131ab0 f   GuMeshFactory.obj
 0001:00130b00       ?getNbHeightFields@GuMeshFactory@physx@@QBEIXZ 10131b00 f   GuMeshFactory.obj
 0001:00130b40       ?getHeightFields@GuMeshFactory@physx@@QBEIPAPAVPxHeightField@2@II@Z 10131b40 f   GuMeshFactory.obj
 0001:00130bf0       ?addFactoryListener@GuMeshFactory@physx@@QAEXAAVGuMeshFactoryListener@2@@Z 10131bf0 f   GuMeshFactory.obj
 0001:00130c30       ?removeFactoryListener@GuMeshFactory@physx@@QAEXAAVGuMeshFactoryListener@2@@Z 10131c30 f   GuMeshFactory.obj
 0001:00130cc0       ?notifyFactoryListener@GuMeshFactory@physx@@QAEXPBVPxBase@2@G_N@Z 10131cc0 f   GuMeshFactory.obj
 0001:00131100       ??0?$ReflectionAllocator@VConvexMesh@Gu@physx@@@shdfnd@physx@@QAE@PBD@Z 10132100 f i GuMeshFactory.obj
 0001:00131120       ??0?$ReflectionAllocator@VHeightField@Gu@physx@@@shdfnd@physx@@QAE@PBD@Z 10132120 f i GuMeshFactory.obj
 0001:00131140       ??0?$ReflectionAllocator@VTriangleMesh@Gu@physx@@@shdfnd@physx@@QAE@PBD@Z 10132140 f i GuMeshFactory.obj
 0001:00131160       ??1?$Array@PAVGuMeshFactoryListener@physx@@VNamedAllocator@shdfnd@2@@shdfnd@physx@@QAE@XZ 10132160 f i GuMeshFactory.obj
 0001:001311d0       ??1?$CoalescedHashSet@PAVConvexMesh@Gu@physx@@U?$Hash@PAVConvexMesh@Gu@physx@@@shdfnd@3@VAllocator@53@@shdfnd@physx@@QAE@XZ 101321d0 f i GuMeshFactory.obj
 0001:001311f0       ??1?$CoalescedHashSet@PAVHeightField@Gu@physx@@U?$Hash@PAVHeightField@Gu@physx@@@shdfnd@3@VAllocator@53@@shdfnd@physx@@QAE@XZ 101321f0 f i GuMeshFactory.obj
 0001:00131210       ??1?$CoalescedHashSet@PAVTriangleMesh@Gu@physx@@U?$Hash@PAVTriangleMesh@Gu@physx@@@shdfnd@3@VAllocator@53@@shdfnd@physx@@QAE@XZ 10132210 f i GuMeshFactory.obj
 0001:00131230       ??1?$HashBase@PAVConvexMesh@Gu@physx@@PAV123@U?$Hash@PAVConvexMesh@Gu@physx@@@shdfnd@3@UGetKey@?$HashSetBase@PAVConvexMesh@Gu@physx@@U?$Hash@PAVConvexMesh@Gu@physx@@@shdfnd@3@VAllocator@53@$00@internal@53@VAllocator@53@$00@internal@shdfnd@physx@@QAE@XZ 10132230 f i GuMeshFactory.obj
 0001:00131270       ??1?$HashBase@PAVHeightField@Gu@physx@@PAV123@U?$Hash@PAVHeightField@Gu@physx@@@shdfnd@3@UGetKey@?$HashSetBase@PAVHeightField@Gu@physx@@U?$Hash@PAVHeightField@Gu@physx@@@shdfnd@3@VAllocator@53@$00@internal@53@VAllocator@53@$00@internal@shdfnd@physx@@QAE@XZ 10132270 f i GuMeshFactory.obj
 0001:001312b0       ??1?$HashBase@PAVTriangleMesh@Gu@physx@@PAV123@U?$Hash@PAVTriangleMesh@Gu@physx@@@shdfnd@3@UGetKey@?$HashSetBase@PAVTriangleMesh@Gu@physx@@U?$Hash@PAVTriangleMesh@Gu@physx@@@shdfnd@3@VAllocator@53@$00@internal@53@VAllocator@53@$00@internal@shdfnd@physx@@QAE@XZ 101322b0 f i GuMeshFactory.obj
 0001:001312f0       ??1?$HashSetBase@PAVConvexMesh@Gu@physx@@U?$Hash@PAVConvexMesh@Gu@physx@@@shdfnd@3@VAllocator@53@$00@internal@shdfnd@physx@@QAE@XZ 101322f0 f i GuMeshFactory.obj
 0001:00131310       ??1?$HashSetBase@PAVHeightField@Gu@physx@@U?$Hash@PAVHeightField@Gu@physx@@@shdfnd@3@VAllocator@53@$00@internal@shdfnd@physx@@QAE@XZ 10132310 f i GuMeshFactory.obj
 0001:00131330       ??1?$HashSetBase@PAVTriangleMesh@Gu@physx@@U?$Hash@PAVTriangleMesh@Gu@physx@@@shdfnd@3@VAllocator@53@$00@internal@shdfnd@physx@@QAE@XZ 10132330 f i GuMeshFactory.obj
 0001:00131350       ??A?$Array@PAVGuMeshFactoryListener@physx@@VNamedAllocator@shdfnd@2@@shdfnd@physx@@QAEAAPAVGuMeshFactoryListener@2@I@Z 10132350 f i GuMeshFactory.obj
 0001:001313c0       ??R?$Hash@PAVConvexMesh@Gu@physx@@@shdfnd@physx@@QBE_NABQAVConvexMesh@Gu@2@0@Z 101323c0 f i GuMeshFactory.obj
 0001:00131400       ??R?$Hash@PAVHeightField@Gu@physx@@@shdfnd@physx@@QBE_NABQAVHeightField@Gu@2@0@Z 10132400 f i GuMeshFactory.obj
 0001:00131440       ??R?$Hash@PAVTriangleMesh@Gu@physx@@@shdfnd@physx@@QBE_NABQAVTriangleMesh@Gu@2@0@Z 10132440 f i GuMeshFactory.obj
 0001:00131480       ?allocate@?$Array@PAVGuMeshFactoryListener@physx@@VNamedAllocator@shdfnd@2@@shdfnd@physx@@IAEPAPAVGuMeshFactoryListener@3@I@Z 10132480 f i GuMeshFactory.obj
 0001:00131500       ?allocate@?$ReflectionAllocator@VConvexMesh@Gu@physx@@@shdfnd@physx@@QAEPAXIPBDH@Z 10132500 f i GuMeshFactory.obj
 0001:00131560       ?allocate@?$ReflectionAllocator@VHeightField@Gu@physx@@@shdfnd@physx@@QAEPAXIPBDH@Z 10132560 f i GuMeshFactory.obj
 0001:001315c0       ?allocate@?$ReflectionAllocator@VTriangleMesh@Gu@physx@@@shdfnd@physx@@QAEPAXIPBDH@Z 101325c0 f i GuMeshFactory.obj
 0001:00131620       ?capacity@?$Array@PAVGuMeshFactoryListener@physx@@VNamedAllocator@shdfnd@2@@shdfnd@physx@@QBEIXZ 10132620 f i GuMeshFactory.obj
 0001:00131640       ?capacityIncrement@?$Array@PAVGuMeshFactoryListener@physx@@VNamedAllocator@shdfnd@2@@shdfnd@physx@@IBEIXZ 10132640 f i GuMeshFactory.obj
 0001:00131680       ?copy@?$Array@PAVGuMeshFactoryListener@physx@@VNamedAllocator@shdfnd@2@@shdfnd@physx@@KAXPAPAVGuMeshFactoryListener@3@0PBQAV43@@Z 10132680 f i GuMeshFactory.obj
 0001:001316f0       ?create@?$HashBase@PAVConvexMesh@Gu@physx@@PAV123@U?$Hash@PAVConvexMesh@Gu@physx@@@shdfnd@3@UGetKey@?$HashSetBase@PAVConvexMesh@Gu@physx@@U?$Hash@PAVConvexMesh@Gu@physx@@@shdfnd@3@VAllocator@53@$00@internal@53@VAllocator@53@$00@internal@shdfnd@physx@@QAEPAPAVConvexMesh@Gu@4@ABQAV564@AA_N@Z 101326f0 f i GuMeshFactory.obj
 0001:00131890       ?create@?$HashBase@PAVHeightField@Gu@physx@@PAV123@U?$Hash@PAVHeightField@Gu@physx@@@shdfnd@3@UGetKey@?$HashSetBase@PAVHeightField@Gu@physx@@U?$Hash@PAVHeightField@Gu@physx@@@shdfnd@3@VAllocator@53@$00@internal@53@VAllocator@53@$00@internal@shdfnd@physx@@QAEPAPAVHeightField@Gu@4@ABQAV564@AA_N@Z 10132890 f i GuMeshFactory.obj
 0001:00131a30       ?create@?$HashBase@PAVTriangleMesh@Gu@physx@@PAV123@U?$Hash@PAVTriangleMesh@Gu@physx@@@shdfnd@3@UGetKey@?$HashSetBase@PAVTriangleMesh@Gu@physx@@U?$Hash@PAVTriangleMesh@Gu@physx@@@shdfnd@3@VAllocator@53@$00@internal@53@VAllocator@53@$00@internal@shdfnd@physx@@QAEPAPAVTriangleMesh@Gu@4@ABQAV564@AA_N@Z 10132a30 f i GuMeshFactory.obj
 0001:00131bd0       ?deallocate@?$Array@PAVGuMeshFactoryListener@physx@@VNamedAllocator@shdfnd@2@@shdfnd@physx@@IAEXPAX@Z 10132bd0 f i GuMeshFactory.obj
 0001:00131bf0       ?destroy@?$Array@PAVGuMeshFactoryListener@physx@@VNamedAllocator@shdfnd@2@@shdfnd@physx@@KAXPAPAVGuMeshFactoryListener@3@0@Z 10132bf0 f i GuMeshFactory.obj
 0001:00131c10       ?destroy@?$HashBase@PAVConvexMesh@Gu@physx@@PAV123@U?$Hash@PAVConvexMesh@Gu@physx@@@shdfnd@3@UGetKey@?$HashSetBase@PAVConvexMesh@Gu@physx@@U?$Hash@PAVConvexMesh@Gu@physx@@@shdfnd@3@VAllocator@53@$00@internal@53@VAllocator@53@$00@internal@shdfnd@physx@@AAEXXZ 10132c10 f i GuMeshFactory.obj
 0001:00131c80       ?destroy@?$HashBase@PAVHeightField@Gu@physx@@PAV123@U?$Hash@PAVHeightField@Gu@physx@@@shdfnd@3@UGetKey@?$HashSetBase@PAVHeightField@Gu@physx@@U?$Hash@PAVHeightField@Gu@physx@@@shdfnd@3@VAllocator@53@$00@internal@53@VAllocator@53@$00@internal@shdfnd@physx@@AAEXXZ 10132c80 f i GuMeshFactory.obj
 0001:00131cf0       ?destroy@?$HashBase@PAVTriangleMesh@Gu@physx@@PAV123@U?$Hash@PAVTriangleMesh@Gu@physx@@@shdfnd@3@UGetKey@?$HashSetBase@PAVTriangleMesh@Gu@physx@@U?$Hash@PAVTriangleMesh@Gu@physx@@@shdfnd@3@VAllocator@53@$00@internal@53@VAllocator@53@$00@internal@shdfnd@physx@@AAEXXZ 10132cf0 f i GuMeshFactory.obj
 0001:00131d60       ?erase@?$HashBase@PAVConvexMesh@Gu@physx@@PAV123@U?$Hash@PAVConvexMesh@Gu@physx@@@shdfnd@3@UGetKey@?$HashSetBase@PAVConvexMesh@Gu@physx@@U?$Hash@PAVConvexMesh@Gu@physx@@@shdfnd@3@VAllocator@53@$00@internal@53@VAllocator@53@$00@internal@shdfnd@physx@@QAE_NABQAVConvexMesh@Gu@4@@Z 10132d60 f i GuMeshFactory.obj
 0001:00131ea0       ?erase@?$HashBase@PAVHeightField@Gu@physx@@PAV123@U?$Hash@PAVHeightField@Gu@physx@@@shdfnd@3@UGetKey@?$HashSetBase@PAVHeightField@Gu@physx@@U?$Hash@PAVHeightField@Gu@physx@@@shdfnd@3@VAllocator@53@$00@internal@53@VAllocator@53@$00@internal@shdfnd@physx@@QAE_NABQAVHeightField@Gu@4@@Z 10132ea0 f i GuMeshFactory.obj
 0001:00131fe0       ?erase@?$HashBase@PAVTriangleMesh@Gu@physx@@PAV123@U?$Hash@PAVTriangleMesh@Gu@physx@@@shdfnd@3@UGetKey@?$HashSetBase@PAVTriangleMesh@Gu@physx@@U?$Hash@PAVTriangleMesh@Gu@physx@@@shdfnd@3@VAllocator@53@$00@internal@53@VAllocator@53@$00@internal@shdfnd@physx@@QAE_NABQAVTriangleMesh@Gu@4@@Z 10132fe0 f i GuMeshFactory.obj
 0001:00132120       ?erase@?$HashSetBase@PAVConvexMesh@Gu@physx@@U?$Hash@PAVConvexMesh@Gu@physx@@@shdfnd@3@VAllocator@53@$00@internal@shdfnd@physx@@QAE_NABQAVConvexMesh@Gu@4@@Z 10133120 f i GuMeshFactory.obj
 0001:00132140       ?erase@?$HashSetBase@PAVHeightField@Gu@physx@@U?$Hash@PAVHeightField@Gu@physx@@@shdfnd@3@VAllocator@53@$00@internal@shdfnd@physx@@QAE_NABQAVHeightField@Gu@4@@Z 10133140 f i GuMeshFactory.obj
 0001:00132160       ?erase@?$HashSetBase@PAVTriangleMesh@Gu@physx@@U?$Hash@PAVTriangleMesh@Gu@physx@@@shdfnd@3@VAllocator@53@$00@internal@shdfnd@physx@@QAE_NABQAVTriangleMesh@Gu@4@@Z 10133160 f i GuMeshFactory.obj
 0001:00132180       ?freeListAdd@?$HashBase@PAVConvexMesh@Gu@physx@@PAV123@U?$Hash@PAVConvexMesh@Gu@physx@@@shdfnd@3@UGetKey@?$HashSetBase@PAVConvexMesh@Gu@physx@@U?$Hash@PAVConvexMesh@Gu@physx@@@shdfnd@3@VAllocator@53@$00@internal@53@VAllocator@53@$00@internal@shdfnd@physx@@AAEXI@Z 10133180 f i GuMeshFactory.obj
 0001:00132230       ?freeListAdd@?$HashBase@PAVHeightField@Gu@physx@@PAV123@U?$Hash@PAVHeightField@Gu@physx@@@shdfnd@3@UGetKey@?$HashSetBase@PAVHeightField@Gu@physx@@U?$Hash@PAVHeightField@Gu@physx@@@shdfnd@3@VAllocator@53@$00@internal@53@VAllocator@53@$00@internal@shdfnd@physx@@AAEXI@Z 10133230 f i GuMeshFactory.obj
 0001:001322e0       ?freeListAdd@?$HashBase@PAVTriangleMesh@Gu@physx@@PAV123@U?$Hash@PAVTriangleMesh@Gu@physx@@@shdfnd@3@UGetKey@?$HashSetBase@PAVTriangleMesh@Gu@physx@@U?$Hash@PAVTriangleMesh@Gu@physx@@@shdfnd@3@VAllocator@53@$00@internal@53@VAllocator@53@$00@internal@shdfnd@physx@@AAEXI@Z 101332e0 f i GuMeshFactory.obj
 0001:00132390       ?freeListEmpty@?$HashBase@PAVConvexMesh@Gu@physx@@PAV123@U?$Hash@PAVConvexMesh@Gu@physx@@@shdfnd@3@UGetKey@?$HashSetBase@PAVConvexMesh@Gu@physx@@U?$Hash@PAVConvexMesh@Gu@physx@@@shdfnd@3@VAllocator@53@$00@internal@53@VAllocator@53@$00@internal@shdfnd@physx@@ABE_NXZ 10133390 f i GuMeshFactory.obj
 0001:00132400       ?freeListEmpty@?$HashBase@PAVHeightField@Gu@physx@@PAV123@U?$Hash@PAVHeightField@Gu@physx@@@shdfnd@3@UGetKey@?$HashSetBase@PAVHeightField@Gu@physx@@U?$Hash@PAVHeightField@Gu@physx@@@shdfnd@3@VAllocator@53@$00@internal@53@VAllocator@53@$00@internal@shdfnd@physx@@ABE_NXZ 10133400 f i GuMeshFactory.obj
 0001:00132470       ?freeListEmpty@?$HashBase@PAVTriangleMesh@Gu@physx@@PAV123@U?$Hash@PAVTriangleMesh@Gu@physx@@@shdfnd@3@UGetKey@?$HashSetBase@PAVTriangleMesh@Gu@physx@@U?$Hash@PAVTriangleMesh@Gu@physx@@@shdfnd@3@VAllocator@53@$00@internal@53@VAllocator@53@$00@internal@shdfnd@physx@@ABE_NXZ 10133470 f i GuMeshFactory.obj
 0001:001324e0       ?freeListGetNext@?$HashBase@PAVConvexMesh@Gu@physx@@PAV123@U?$Hash@PAVConvexMesh@Gu@physx@@@shdfnd@3@UGetKey@?$HashSetBase@PAVConvexMesh@Gu@physx@@U?$Hash@PAVConvexMesh@Gu@physx@@@shdfnd@3@VAllocator@53@$00@internal@53@VAllocator@53@$00@internal@shdfnd@physx@@AAEIXZ 101334e0 f i GuMeshFactory.obj
 0001:00132600       ?freeListGetNext@?$HashBase@PAVHeightField@Gu@physx@@PAV123@U?$Hash@PAVHeightField@Gu@physx@@@shdfnd@3@UGetKey@?$HashSetBase@PAVHeightField@Gu@physx@@U?$Hash@PAVHeightField@Gu@physx@@@shdfnd@3@VAllocator@53@$00@internal@53@VAllocator@53@$00@internal@shdfnd@physx@@AAEIXZ 10133600 f i GuMeshFactory.obj
 0001:00132720       ?freeListGetNext@?$HashBase@PAVTriangleMesh@Gu@physx@@PAV123@U?$Hash@PAVTriangleMesh@Gu@physx@@@shdfnd@3@UGetKey@?$HashSetBase@PAVTriangleMesh@Gu@physx@@U?$Hash@PAVTriangleMesh@Gu@physx@@@shdfnd@3@VAllocator@53@$00@internal@53@VAllocator@53@$00@internal@shdfnd@physx@@AAEIXZ 10133720 f i GuMeshFactory.obj
 0001:00132840       ?getEntries@?$CoalescedHashSet@PAVConvexMesh@Gu@physx@@U?$Hash@PAVConvexMesh@Gu@physx@@@shdfnd@3@VAllocator@53@@shdfnd@physx@@QBEPBQAVConvexMesh@Gu@3@XZ 10133840 f i GuMeshFactory.obj
 0001:00132860       ?getEntries@?$CoalescedHashSet@PAVHeightField@Gu@physx@@U?$Hash@PAVHeightField@Gu@physx@@@shdfnd@3@VAllocator@53@@shdfnd@physx@@QBEPBQAVHeightField@Gu@3@XZ 10133860 f i GuMeshFactory.obj
 0001:00132880       ?getEntries@?$CoalescedHashSet@PAVTriangleMesh@Gu@physx@@U?$Hash@PAVTriangleMesh@Gu@physx@@@shdfnd@3@VAllocator@53@@shdfnd@physx@@QBEPBQAVTriangleMesh@Gu@3@XZ 10133880 f i GuMeshFactory.obj
 0001:001328a0       ?getEntries@?$HashBase@PAVConvexMesh@Gu@physx@@PAV123@U?$Hash@PAVConvexMesh@Gu@physx@@@shdfnd@3@UGetKey@?$HashSetBase@PAVConvexMesh@Gu@physx@@U?$Hash@PAVConvexMesh@Gu@physx@@@shdfnd@3@VAllocator@53@$00@internal@53@VAllocator@53@$00@internal@shdfnd@physx@@QBEPBQAVConvexMesh@Gu@4@XZ 101338a0 f i GuMeshFactory.obj
 0001:001328c0       ?getEntries@?$HashBase@PAVHeightField@Gu@physx@@PAV123@U?$Hash@PAVHeightField@Gu@physx@@@shdfnd@3@UGetKey@?$HashSetBase@PAVHeightField@Gu@physx@@U?$Hash@PAVHeightField@Gu@physx@@@shdfnd@3@VAllocator@53@$00@internal@53@VAllocator@53@$00@internal@shdfnd@physx@@QBEPBQAVHeightField@Gu@4@XZ 101338c0 f i GuMeshFactory.obj
 0001:001328e0       ?getEntries@?$HashBase@PAVTriangleMesh@Gu@physx@@PAV123@U?$Hash@PAVTriangleMesh@Gu@physx@@@shdfnd@3@UGetKey@?$HashSetBase@PAVTriangleMesh@Gu@physx@@U?$Hash@PAVTriangleMesh@Gu@physx@@@shdfnd@3@VAllocator@53@$00@internal@53@VAllocator@53@$00@internal@shdfnd@physx@@QBEPBQAVTriangleMesh@Gu@4@XZ 101338e0 f i GuMeshFactory.obj
 0001:00132900       ?getName@?$ReflectionAllocator@VConvexMesh@Gu@physx@@@shdfnd@physx@@CAPBDXZ 10133900 f i GuMeshFactory.obj
 0001:00132950       ?getName@?$ReflectionAllocator@VHeightField@Gu@physx@@@shdfnd@physx@@CAPBDXZ 10133950 f i GuMeshFactory.obj
 0001:001329a0       ?getName@?$ReflectionAllocator@VTriangleMesh@Gu@physx@@@shdfnd@physx@@CAPBDXZ 101339a0 f i GuMeshFactory.obj
 0001:001329f0       ?grow@?$HashBase@PAVConvexMesh@Gu@physx@@PAV123@U?$Hash@PAVConvexMesh@Gu@physx@@@shdfnd@3@UGetKey@?$HashSetBase@PAVConvexMesh@Gu@physx@@U?$Hash@PAVConvexMesh@Gu@physx@@@shdfnd@3@VAllocator@53@$00@internal@53@VAllocator@53@$00@internal@shdfnd@physx@@AAEXXZ 101339f0 f i GuMeshFactory.obj
 0001:00132ab0       ?grow@?$HashBase@PAVHeightField@Gu@physx@@PAV123@U?$Hash@PAVHeightField@Gu@physx@@@shdfnd@3@UGetKey@?$HashSetBase@PAVHeightField@Gu@physx@@U?$Hash@PAVHeightField@Gu@physx@@@shdfnd@3@VAllocator@53@$00@internal@53@VAllocator@53@$00@internal@shdfnd@physx@@AAEXXZ 10133ab0 f i GuMeshFactory.obj
 0001:00132b70       ?grow@?$HashBase@PAVTriangleMesh@Gu@physx@@PAV123@U?$Hash@PAVTriangleMesh@Gu@physx@@@shdfnd@3@UGetKey@?$HashSetBase@PAVTriangleMesh@Gu@physx@@U?$Hash@PAVTriangleMesh@Gu@physx@@@shdfnd@3@VAllocator@53@$00@internal@53@VAllocator@53@$00@internal@shdfnd@physx@@AAEXXZ 10133b70 f i GuMeshFactory.obj
 0001:00132c30       ?growAndPushBack@?$Array@PAVGuMeshFactoryListener@physx@@VNamedAllocator@shdfnd@2@@shdfnd@physx@@IAEAAPAVGuMeshFactoryListener@3@ABQAV43@@Z 10133c30 f i GuMeshFactory.obj
 0001:00132dc0       ?hash@?$HashBase@PAVConvexMesh@Gu@physx@@PAV123@U?$Hash@PAVConvexMesh@Gu@physx@@@shdfnd@3@UGetKey@?$HashSetBase@PAVConvexMesh@Gu@physx@@U?$Hash@PAVConvexMesh@Gu@physx@@@shdfnd@3@VAllocator@53@$00@internal@53@VAllocator@53@$00@internal@shdfnd@physx@@ABEIABQAVConvexMesh@Gu@4@@Z 10133dc0 f i GuMeshFactory.obj
 0001:00132df0       ?hash@?$HashBase@PAVHeightField@Gu@physx@@PAV123@U?$Hash@PAVHeightField@Gu@physx@@@shdfnd@3@UGetKey@?$HashSetBase@PAVHeightField@Gu@physx@@U?$Hash@PAVHeightField@Gu@physx@@@shdfnd@3@VAllocator@53@$00@internal@53@VAllocator@53@$00@internal@shdfnd@physx@@ABEIABQAVHeightField@Gu@4@@Z 10133df0 f i GuMeshFactory.obj
 0001:00132e20       ?hash@?$HashBase@PAVTriangleMesh@Gu@physx@@PAV123@U?$Hash@PAVTriangleMesh@Gu@physx@@@shdfnd@3@UGetKey@?$HashSetBase@PAVTriangleMesh@Gu@physx@@U?$Hash@PAVTriangleMesh@Gu@physx@@@shdfnd@3@VAllocator@53@$00@internal@53@VAllocator@53@$00@internal@shdfnd@physx@@ABEIABQAVTriangleMesh@Gu@4@@Z 10133e20 f i GuMeshFactory.obj
 0001:00132e50       ?insert@?$HashSetBase@PAVConvexMesh@Gu@physx@@U?$Hash@PAVConvexMesh@Gu@physx@@@shdfnd@3@VAllocator@53@$00@internal@shdfnd@physx@@QAE_NABQAVConvexMesh@Gu@4@@Z 10133e50 f i GuMeshFactory.obj
 0001:00132ef0       ?insert@?$HashSetBase@PAVHeightField@Gu@physx@@U?$Hash@PAVHeightField@Gu@physx@@@shdfnd@3@VAllocator@53@$00@internal@shdfnd@physx@@QAE_NABQAVHeightField@Gu@4@@Z 10133ef0 f i GuMeshFactory.obj
 0001:00132f90       ?insert@?$HashSetBase@PAVTriangleMesh@Gu@physx@@U?$Hash@PAVTriangleMesh@Gu@physx@@@shdfnd@3@VAllocator@53@$00@internal@shdfnd@physx@@QAE_NABQAVTriangleMesh@Gu@4@@Z 10133f90 f i GuMeshFactory.obj
 0001:00133030       ?isInUserMemory@?$Array@PAVGuMeshFactoryListener@physx@@VNamedAllocator@shdfnd@2@@shdfnd@physx@@QBEIXZ 10134030 f i GuMeshFactory.obj
 0001:00133050       ?pushBack@?$Array@PAVGuMeshFactoryListener@physx@@VNamedAllocator@shdfnd@2@@shdfnd@physx@@QAEAAPAVGuMeshFactoryListener@3@ABQAV43@@Z 10134050 f i GuMeshFactory.obj
 0001:00133100       ?replaceWithLast@?$Array@PAVGuMeshFactoryListener@physx@@VNamedAllocator@shdfnd@2@@shdfnd@physx@@QAEXI@Z 10134100 f i GuMeshFactory.obj
 0001:001331a0       ?replaceWithLast@?$HashBase@PAVConvexMesh@Gu@physx@@PAV123@U?$Hash@PAVConvexMesh@Gu@physx@@@shdfnd@3@UGetKey@?$HashSetBase@PAVConvexMesh@Gu@physx@@U?$Hash@PAVConvexMesh@Gu@physx@@@shdfnd@3@VAllocator@53@$00@internal@53@VAllocator@53@$00@internal@shdfnd@physx@@AAEXI@Z 101341a0 f i GuMeshFactory.obj
 0001:001332f0       ?replaceWithLast@?$HashBase@PAVHeightField@Gu@physx@@PAV123@U?$Hash@PAVHeightField@Gu@physx@@@shdfnd@3@UGetKey@?$HashSetBase@PAVHeightField@Gu@physx@@U?$Hash@PAVHeightField@Gu@physx@@@shdfnd@3@VAllocator@53@$00@internal@53@VAllocator@53@$00@internal@shdfnd@physx@@AAEXI@Z 101342f0 f i GuMeshFactory.obj
 0001:00133440       ?replaceWithLast@?$HashBase@PAVTriangleMesh@Gu@physx@@PAV123@U?$Hash@PAVTriangleMesh@Gu@physx@@@shdfnd@3@UGetKey@?$HashSetBase@PAVTriangleMesh@Gu@physx@@U?$Hash@PAVTriangleMesh@Gu@physx@@@shdfnd@3@VAllocator@53@$00@internal@53@VAllocator@53@$00@internal@shdfnd@physx@@AAEXI@Z 10134440 f i GuMeshFactory.obj
 0001:00133590       ?reserve@?$HashBase@PAVConvexMesh@Gu@physx@@PAV123@U?$Hash@PAVConvexMesh@Gu@physx@@@shdfnd@3@UGetKey@?$HashSetBase@PAVConvexMesh@Gu@physx@@U?$Hash@PAVConvexMesh@Gu@physx@@@shdfnd@3@VAllocator@53@$00@internal@53@VAllocator@53@$00@internal@shdfnd@physx@@QAEXI@Z 10134590 f i GuMeshFactory.obj
 0001:001335c0       ?reserve@?$HashBase@PAVHeightField@Gu@physx@@PAV123@U?$Hash@PAVHeightField@Gu@physx@@@shdfnd@3@UGetKey@?$HashSetBase@PAVHeightField@Gu@physx@@U?$Hash@PAVHeightField@Gu@physx@@@shdfnd@3@VAllocator@53@$00@internal@53@VAllocator@53@$00@internal@shdfnd@physx@@QAEXI@Z 101345c0 f i GuMeshFactory.obj
 0001:001335f0       ?reserve@?$HashBase@PAVTriangleMesh@Gu@physx@@PAV123@U?$Hash@PAVTriangleMesh@Gu@physx@@@shdfnd@3@UGetKey@?$HashSetBase@PAVTriangleMesh@Gu@physx@@U?$Hash@PAVTriangleMesh@Gu@physx@@@shdfnd@3@VAllocator@53@$00@internal@53@VAllocator@53@$00@internal@shdfnd@physx@@QAEXI@Z 101345f0 f i GuMeshFactory.obj
 0001:00133620       ?setMeshFactory@ConvexMesh@Gu@physx@@QAEXPAVGuMeshFactory@3@@Z 10134620 f i GuMeshFactory.obj
 0001:00133640       ?setMeshFactory@TriangleMesh@Gu@physx@@QAEXPAVGuMeshFactory@3@@Z 10134640 f i GuMeshFactory.obj
 0001:00133660       ?size@?$Array@PAVGuMeshFactoryListener@physx@@VNamedAllocator@shdfnd@2@@shdfnd@physx@@QBEIXZ 10134660 f i GuMeshFactory.obj
 0001:00133680       ?size@?$HashBase@PAVConvexMesh@Gu@physx@@PAV123@U?$Hash@PAVConvexMesh@Gu@physx@@@shdfnd@3@UGetKey@?$HashSetBase@PAVConvexMesh@Gu@physx@@U?$Hash@PAVConvexMesh@Gu@physx@@@shdfnd@3@VAllocator@53@$00@internal@53@VAllocator@53@$00@internal@shdfnd@physx@@QBEIXZ 10134680 f i GuMeshFactory.obj
 0001:001336a0       ?size@?$HashBase@PAVHeightField@Gu@physx@@PAV123@U?$Hash@PAVHeightField@Gu@physx@@@shdfnd@3@UGetKey@?$HashSetBase@PAVHeightField@Gu@physx@@U?$Hash@PAVHeightField@Gu@physx@@@shdfnd@3@VAllocator@53@$00@internal@53@VAllocator@53@$00@internal@shdfnd@physx@@QBEIXZ 101346a0 f i GuMeshFactory.obj
 0001:001336c0       ?size@?$HashBase@PAVTriangleMesh@Gu@physx@@PAV123@U?$Hash@PAVTriangleMesh@Gu@physx@@@shdfnd@3@UGetKey@?$HashSetBase@PAVTriangleMesh@Gu@physx@@U?$Hash@PAVTriangleMesh@Gu@physx@@@shdfnd@3@VAllocator@53@$00@internal@53@VAllocator@53@$00@internal@shdfnd@physx@@QBEIXZ 101346c0 f i GuMeshFactory.obj
 0001:001336e0       ?size@?$HashSetBase@PAVConvexMesh@Gu@physx@@U?$Hash@PAVConvexMesh@Gu@physx@@@shdfnd@3@VAllocator@53@$00@internal@shdfnd@physx@@QBEIXZ 101346e0 f i GuMeshFactory.obj
 0001:00133700       ?size@?$HashSetBase@PAVHeightField@Gu@physx@@U?$Hash@PAVHeightField@Gu@physx@@@shdfnd@3@VAllocator@53@$00@internal@shdfnd@physx@@QBEIXZ 10134700 f i GuMeshFactory.obj
 0001:00133720       ?size@?$HashSetBase@PAVTriangleMesh@Gu@physx@@U?$Hash@PAVTriangleMesh@Gu@physx@@@shdfnd@3@VAllocator@53@$00@internal@shdfnd@physx@@QBEIXZ 10134720 f i GuMeshFactory.obj
 0001:00133740       ?getBinaryMetaData@HeightField@Gu@physx@@SAXAAVPxOutputStream@3@@Z 10134740 f   GuMetaData.obj
 0001:00133bb0       ?getBinaryMetaData@BigConvexData@physx@@SAXAAVPxOutputStream@2@@Z 10134bb0 f   GuMetaData.obj
 0001:00133ea0       ?getBinaryMetaData@ConvexMesh@Gu@physx@@SAXAAVPxOutputStream@3@@Z 10134ea0 f   GuMetaData.obj
 0001:00134650       ?getBinaryMetaData@MeshInterface@Gu@physx@@SAXAAVPxOutputStream@3@@Z 10135650 f   GuMetaData.obj
 0001:00134850       ?getBinaryMetaData@RTree@Gu@physx@@SAXAAVPxOutputStream@3@@Z 10135850 f   GuMetaData.obj
 0001:00134d90       ?getBinaryMetaData@RTreeMidphase@Gu@physx@@SAXAAVPxOutputStream@3@@Z 10135d90 f   GuMetaData.obj
 0001:00134ee0       ?getBinaryMetaData@InternalTriangleMesh@physx@@SAXAAVPxOutputStream@2@@Z 10135ee0 f   GuMetaData.obj
 0001:00135370       ?getBinaryMetaData@TriangleMesh@Gu@physx@@SAXAAVPxOutputStream@3@@Z 10136370 f   GuMetaData.obj
 0001:00135570       ?getBinaryMetaData@MaterialIndicesStruct@physx@@SAXAAVPxOutputStream@2@@Z 10136570 f   GuMetaData.obj
 0001:00135710       ?getBinaryMetaData@GeometryUnion@Gu@physx@@SAXAAVPxOutputStream@3@@Z 10136710 f   GuMetaData.obj
 0001:001399b0       ?computeMTD_SphereSphere@Gu@physx@@YA_NAAVPxVec3@2@AAMABVSphere@12@2@Z 1013a9b0 f   GuMTD.obj
 0001:00139a40       ?computeMTD_SphereCapsule@Gu@physx@@YA_NAAVPxVec3@2@AAMABVSphere@12@ABVCapsule@12@@Z 1013aa40 f   GuMTD.obj
 0001:00139b00       ?computeMTD_SphereBox@Gu@physx@@YA_NAAVPxVec3@2@AAMABVSphere@12@ABVBox@12@@Z 1013ab00 f   GuMTD.obj
 0001:00139ba0       ?computeMTD_CapsuleCapsule@Gu@physx@@YA_NAAVPxVec3@2@AAMABVCapsule@12@2@Z 1013aba0 f   GuMTD.obj
 0001:00139c80       ?computeMTD_CapsuleBox@Gu@physx@@YA_NAAVPxVec3@2@AAMABVCapsule@12@ABVBox@12@@Z 1013ac80 f   GuMTD.obj
 0001:00139df0       ?computeMTD_BoxBox@Gu@physx@@YA_NAAVPxVec3@2@AAMABVBox@12@2@Z 1013adf0 f   GuMTD.obj
 0001:0013a020       ?computeMTD_SphereConvex@Gu@physx@@YA_NAAVPxVec3@2@AAMABVSphere@12@ABVPxConvexMeshGeometry@2@ABVPxTransform@2@@Z 1013b020 f   GuMTD.obj
 0001:0013a1a0       ?computeMTD_BoxConvex@Gu@physx@@YA_NAAVPxVec3@2@AAMABVBox@12@ABVPxConvexMeshGeometry@2@ABVPxTransform@2@@Z 1013b1a0 f   GuMTD.obj
 0001:0013a430       ?computeMTD_CapsuleConvex@Gu@physx@@YA_NAAVPxVec3@2@AAMABVCapsule@12@ABVPxTransform@2@ABVPxConvexMeshGeometry@2@3@Z 1013b430 f   GuMTD.obj
 0001:0013a730       ?computeMTD_ConvexConvex@Gu@physx@@YA_NAAVPxVec3@2@AAMABVPxConvexMeshGeometry@2@ABVPxTransform@2@23@Z 1013b730 f   GuMTD.obj
 0001:0013a9f0       ?computeMTD_SpherePlane@Gu@physx@@YA_NAAVPxVec3@2@AAMABVSphere@12@ABVPxPlane@2@@Z 1013b9f0 f   GuMTD.obj
 0001:0013aa50       ?computeMTD_PlaneBox@Gu@physx@@YA_NAAVPxVec3@2@AAMABVPxPlane@2@ABVBox@12@@Z 1013ba50 f   GuMTD.obj
 0001:0013ab30       ?computeMTD_PlaneCapsule@Gu@physx@@YA_NAAVPxVec3@2@AAMABVPxPlane@2@ABVCapsule@12@@Z 1013bb30 f   GuMTD.obj
 0001:0013abe0       ?computeMTD_PlaneConvex@Gu@physx@@YA_NAAVPxVec3@2@AAMABVPxPlane@2@ABVPxConvexMeshGeometry@2@ABVPxTransform@2@@Z 1013bbe0 f   GuMTD.obj
 0001:0013ace0       ?computeMTD_SphereMesh@Gu@physx@@YA_NAAVPxVec3@2@AAMABVSphere@12@ABVPxTriangleMeshGeometry@2@ABVPxTransform@2@@Z 1013bce0 f   GuMTD.obj
 0001:0013ae00       ?computeMTD_BoxMesh@Gu@physx@@YA_NAAVPxVec3@2@AAMABVBox@12@ABVPxTriangleMeshGeometry@2@ABVPxTransform@2@@Z 1013be00 f   GuMTD.obj
 0001:0013af40       ?computeMTD_CapsuleMesh@Gu@physx@@YA_NAAVPxVec3@2@AAMABVCapsule@12@ABVPxTriangleMeshGeometry@2@ABVPxTransform@2@@Z 1013bf40 f   GuMTD.obj
 0001:0013b080       ?computeMTD_ConvexMesh@Gu@physx@@YA_NAAVPxVec3@2@AAMABVPxConvexMeshGeometry@2@ABVPxTransform@2@ABVPxTriangleMeshGeometry@2@3@Z 1013c080 f   GuMTD.obj
 0001:0013b180       ?computeMTD_SphereHeightField@Gu@physx@@YA_NAAVPxVec3@2@AAMABVSphere@12@ABVPxHeightFieldGeometry@2@ABVPxTransform@2@@Z 1013c180 f   GuMTD.obj
 0001:0013b2a0       ?computeMTD_CapsuleHeightField@Gu@physx@@YA_NAAVPxVec3@2@AAMABVCapsule@12@ABVPxHeightFieldGeometry@2@ABVPxTransform@2@@Z 1013c2a0 f   GuMTD.obj
 0001:0013b3e0       ?computeMTD_BoxHeightField@Gu@physx@@YA_NAAVPxVec3@2@AAMABVBox@12@ABVPxHeightFieldGeometry@2@ABVPxTransform@2@@Z 1013c3e0 f   GuMTD.obj
 0001:0013b520       ?computeMTD_ConvexHeightField@Gu@physx@@YA_NAAVPxVec3@2@AAMABVPxConvexMeshGeometry@2@ABVPxTransform@2@ABVPxHeightFieldGeometry@2@3@Z 1013c520 f   GuMTD.obj
 0001:0013c1d0       ?pointConvexDistance@@YA_NAAVPxVec3@physx@@0AAMABV12@PBVConvexMesh@Gu@2@ABVPxMeshScale@2@ABVPxTransform@2@@Z 1013d1d0 f   GuMTD.obj
 0001:0013f1a0       ??0Cache@Gu@physx@@QAE@XZ  101401a0 f i GuMTD.obj
 0001:0013f1c0       ??0ContactBuffer@Gu@physx@@QAE@XZ 101401c0 f i GuMTD.obj
 0001:0013f1f0       ??0ContactPoint@Gu@physx@@QAE@XZ 101401f0 f i GuMTD.obj
 0001:0013f230       ??0PxSphereGeometry@physx@@QAE@M@Z 10140230 f i GuMTD.obj
 0001:0013f260       ?getNbVerts@ConvexMesh@Gu@physx@@QBEIXZ 10140260 f i GuMTD.obj
 0001:0013f280       ?getPolygons@ConvexMesh@Gu@physx@@QBEPBUHullPolygonData@23@XZ 10140280 f i GuMTD.obj
 0001:0013f2a0       ?getVerts@ConvexMesh@Gu@physx@@QBEPBVPxVec3@3@XZ 101402a0 f i GuMTD.obj
 0001:0013f2c0       ?length@Segment@Gu@physx@@QBEMXZ 101402c0 f i GuMTD.obj
 0001:0013f2f0       ?reset@ContactBuffer@Gu@physx@@QAEXXZ 101402f0 f i GuMTD.obj
 0001:0013f310       ?computeBounds@GeometryUnion@Gu@physx@@QBEXAAVPxBounds3@3@ABVPxTransform@3@MPIBV43@@Z 10140310 f   GuObjectBounds.obj
 0001:0013fb60       ?computeBoundsWithCCDThreshold@GeometryUnion@Gu@physx@@QBEMAAVPxVec3@3@0ABVPxTransform@3@PIBVPxBounds3@3@@Z 10140b60 f   GuObjectBounds.obj
 0001:00140d30       ??$memFetchAsync@UConvexHullData@Gu@physx@@@Cm@physx@@YAPAUConvexHullData@Gu@1@IIAAU?$MemFetchBufferA@UConvexHullData@Gu@physx@@$00@01@@Z 10141d30 f i GuObjectBounds.obj
 0001:00140d40       ??$memFetchAsync@UHeightFieldData@Gu@physx@@@Cm@physx@@YAPAUHeightFieldData@Gu@1@IIAAU?$MemFetchBufferA@UHeightFieldData@Gu@physx@@$00@01@@Z 10141d40 f i GuObjectBounds.obj
 0001:00140d50       ??$memFetchAsync@UInternalTriangleMeshData@Gu@physx@@@Cm@physx@@YAPAUInternalTriangleMeshData@Gu@1@IIAAU?$MemFetchBufferA@UInternalTriangleMeshData@Gu@physx@@$00@01@@Z 10141d50 f i GuObjectBounds.obj
 0001:00140d60       ??0PxPlane@physx@@QAE@ABVPxVec3@1@0@Z 10141d60 f i GuObjectBounds.obj
 0001:00140dc0       ?intersectPlaneBox@Gu@physx@@YA_NABVPxPlane@2@ABVBox@12@@Z 10141dc0 f   GuOverlapTests.obj
 0001:00140e30       ?intersectPlaneCapsule@Gu@physx@@YA_NABVCapsule@12@ABVPxPlane@2@@Z 10141e30 f   GuOverlapTests.obj
 0001:00140e90       ?intersectSphereSphere@Gu@physx@@YA_NABVSphere@12@0@Z 10141e90 f   GuOverlapTests.obj
 0001:00140ef0       ?intersectSphereCapsule@Gu@physx@@YA_NABVSphere@12@ABVCapsule@12@@Z 10141ef0 f   GuOverlapTests.obj
 0001:00140f50       ?intersectSphereBox@Gu@physx@@YA_NABVSphere@12@ABVBox@12@@Z 10141f50 f   GuOverlapTests.obj
 0001:001410d0       ?intersectBoxCapsule@Gu@physx@@YA_NABVBox@12@ABVCapsule@12@@Z 101420d0 f   GuOverlapTests.obj
 0001:00141130       ?intersectSphereConvex@Gu@physx@@YA_NABVSphere@12@ABVConvexMesh@12@ABVPxMeshScale@2@ABVPxTransform@2@PAVPxVec3@2@@Z 10142130 f   GuOverlapTests.obj
 0001:001412f0       ?intersectCapsuleConvex@Gu@physx@@YA_NABVPxCapsuleGeometry@2@ABVPxTransform@2@ABVConvexMesh@12@ABVPxMeshScale@2@1PAVPxVec3@2@@Z 101422f0 f   GuOverlapTests.obj
 0001:00141500       ?intersectBoxConvex@Gu@physx@@YA_NABVPxBoxGeometry@2@ABVPxTransform@2@ABVConvexMesh@12@ABVPxMeshScale@2@1PAVPxVec3@2@@Z 10142500 f   GuOverlapTests.obj
 0001:00141700       ?checkOverlapSphere_boxGeom@Gu@physx@@YA_NABVPxGeometry@2@ABVPxTransform@2@ABVSphere@12@@Z 10142700 f   GuOverlapTests.obj
 0001:001417a0       ?checkOverlapSphere_sphereGeom@Gu@physx@@YA_NABVPxGeometry@2@ABVPxTransform@2@ABVSphere@12@@Z 101427a0 f   GuOverlapTests.obj
 0001:00141830       ?checkOverlapSphere_capsuleGeom@Gu@physx@@YA_NABVPxGeometry@2@ABVPxTransform@2@ABVSphere@12@@Z 10142830 f   GuOverlapTests.obj
 0001:001418c0       ?checkOverlapSphere_planeGeom@Gu@physx@@YA_NABVPxGeometry@2@ABVPxTransform@2@ABVSphere@12@@Z 101428c0 f   GuOverlapTests.obj
 0001:00141960       ?checkOverlapSphere_convexGeom@Gu@physx@@YA_NABVPxGeometry@2@ABVPxTransform@2@ABVSphere@12@@Z 10142960 f   GuOverlapTests.obj
 0001:00141a20       ?checkOverlapOBB_boxGeom@Gu@physx@@YA_NABVPxGeometry@2@ABVPxTransform@2@ABVBox@12@@Z 10142a20 f   GuOverlapTests.obj
 0001:00141ab0       ?checkOverlapOBB_sphereGeom@Gu@physx@@YA_NABVPxGeometry@2@ABVPxTransform@2@ABVBox@12@@Z 10142ab0 f   GuOverlapTests.obj
 0001:00141b40       ?checkOverlapOBB_capsuleGeom@Gu@physx@@YA_NABVPxGeometry@2@ABVPxTransform@2@ABVBox@12@@Z 10142b40 f   GuOverlapTests.obj
 0001:00141bd0       ?checkOverlapOBB_planeGeom@Gu@physx@@YA_NABVPxGeometry@2@ABVPxTransform@2@ABVBox@12@@Z 10142bd0 f   GuOverlapTests.obj
 0001:00141c50       ?checkOverlapOBB_convexGeom@Gu@physx@@YA_NABVPxGeometry@2@ABVPxTransform@2@ABVBox@12@@Z 10142c50 f   GuOverlapTests.obj
 0001:00141d40       ?checkOverlapCapsule_boxGeom@Gu@physx@@YA_NABVPxGeometry@2@ABVPxTransform@2@ABVCapsule@12@@Z 10142d40 f   GuOverlapTests.obj
 0001:00141de0       ?checkOverlapCapsule_sphereGeom@Gu@physx@@YA_NABVPxGeometry@2@ABVPxTransform@2@ABVCapsule@12@@Z 10142de0 f   GuOverlapTests.obj
 0001:00141e70       ?checkOverlapCapsule_capsuleGeom@Gu@physx@@YA_NABVPxGeometry@2@ABVPxTransform@2@ABVCapsule@12@@Z 10142e70 f   GuOverlapTests.obj
 0001:00141f40       ?checkOverlapCapsule_planeGeom@Gu@physx@@YA_NABVPxGeometry@2@ABVPxTransform@2@ABVCapsule@12@@Z 10142f40 f   GuOverlapTests.obj
 0001:00141fc0       ?checkOverlapCapsule_convexGeom@Gu@physx@@YA_NABVPxGeometry@2@ABVPxTransform@2@ABVCapsule@12@@Z 10142fc0 f   GuOverlapTests.obj
 0001:001420e0       ?GetGeomOverlapMethodTable@Gu@physx@@YAPAY06P6A_NABVPxGeometry@2@ABVPxTransform@2@01PAUTriggerCache@12@@ZXZ 101430e0 f   GuOverlapTests.obj
 0001:001420f0       ?registerHeightFields@Gu@physx@@YAXXZ 101430f0 f   GuOverlapTests.obj
 0001:00144b10       ??0PxCapsuleGeometry@physx@@QAE@XZ 10145b10 f i GuOverlapTests.obj
 0001:00144b50       ?CalculateBoxTolerance@Gu@physx@@YA?AT__m128@@ABT3@@Z 10145b50 f i GuOverlapTests.obj
 0001:00144be0       ?isNormalized@PxVec3@physx@@QBE_NXZ 10145be0 f i GuOverlapTests.obj
 0001:00144c70       ?multiply@PxVec3@physx@@QBE?AV12@ABV12@@Z 10145c70 f i GuOverlapTests.obj
 0001:00144ce0       ?sqr@shdfnd@physx@@YAMM@Z  10145ce0 f i GuOverlapTests.obj
 0001:00144d00       ?transform@PxTransform@physx@@QBE?AV12@ABV12@@Z 10145d00 f i GuOverlapTests.obj
 0001:00144e60       ?GetRaycastFuncTable@Gu@physx@@YAAAY06P6AIABVPxGeometry@2@ABVPxTransform@2@ABVPxVec3@2@2MV?$PxFlags@W4Enum@PxHitFlag@physx@@G@2@IPIAUPxRaycastHit@2@_NP6A_NAAU72@PAX@Z7@ZXZ 10145e60 f   GuRaycastTests.obj
 0001:00144e70       ?raycast_box@@YAIABVPxGeometry@physx@@ABVPxTransform@2@ABVPxVec3@2@2MV?$PxFlags@W4Enum@PxHitFlag@physx@@G@2@IPIAUPxRaycastHit@2@_NP6A_NAAU62@PAX@Z7@Z 10145e70 f   GuRaycastTests.obj
 0001:001451a0       ?raycast_sphere@@YAIABVPxGeometry@physx@@ABVPxTransform@2@ABVPxVec3@2@2MV?$PxFlags@W4Enum@PxHitFlag@physx@@G@2@IPIAUPxRaycastHit@2@_NP6A_NAAU62@PAX@Z7@Z 101461a0 f   GuRaycastTests.obj
 0001:00145390       ?raycast_capsule@@YAIABVPxGeometry@physx@@ABVPxTransform@2@ABVPxVec3@2@2MV?$PxFlags@W4Enum@PxHitFlag@physx@@G@2@IPIAUPxRaycastHit@2@_NP6A_NAAU62@PAX@Z7@Z 10146390 f   GuRaycastTests.obj
 0001:00145720       ?raycast_plane@@YAIABVPxGeometry@physx@@ABVPxTransform@2@ABVPxVec3@2@2MV?$PxFlags@W4Enum@PxHitFlag@physx@@G@2@IPIAUPxRaycastHit@2@_NP6A_NAAU62@PAX@Z7@Z 10146720 f   GuRaycastTests.obj
 0001:001458e0       ?raycast_convexMesh@@YAIABVPxGeometry@physx@@ABVPxTransform@2@ABVPxVec3@2@2MV?$PxFlags@W4Enum@PxHitFlag@physx@@G@2@IPIAUPxRaycastHit@2@_NP6A_NAAU62@PAX@Z7@Z 101468e0 f   GuRaycastTests.obj
 0001:00145e40       ?raycast_triangleMesh@@YAIABVPxGeometry@physx@@ABVPxTransform@2@ABVPxVec3@2@2MV?$PxFlags@W4Enum@PxHitFlag@physx@@G@2@IPIAUPxRaycastHit@2@_NP6A_NAAU62@PAX@Z7@Z 10146e40 f   GuRaycastTests.obj
 0001:001461c0       ?raycast_heightField@@YAIABVPxGeometry@physx@@ABVPxTransform@2@ABVPxVec3@2@2MV?$PxFlags@W4Enum@PxHitFlag@physx@@G@2@IPIAUPxRaycastHit@2@_NP6A_NAAU62@PAX@Z7@Z 101471c0 f   GuRaycastTests.obj
 0001:00146aa0       ??$PX_UNUSED@P6A_NAAUPxRaycastHit@physx@@PAX@Z@@YAXABQ6A_NAAUPxRaycastHit@physx@@PAX@Z@Z 10147aa0 f i GuRaycastTests.obj
 0001:00146ab0       ??$PX_UNUSED@PAX@@YAXABQAX@Z 10147ab0 f i GuRaycastTests.obj
 0001:00146ac0       ??$memFetchAsync@VConvexMesh@Gu@physx@@@Cm@physx@@YAPAVConvexMesh@Gu@1@PAXIII@Z 10147ac0 f i GuRaycastTests.obj
 0001:00146ad0       ??$memFetchAsync@VHeightField@Gu@physx@@@Cm@physx@@YAPAVHeightField@Gu@1@PAXIII@Z 10147ad0 f i GuRaycastTests.obj
 0001:00146ae0       ??$traceSegment@VRayCastCallback@Gu@physx@@$0A@$0A@$0A@@HeightFieldUtil@Gu@physx@@QBEXABVPxVec3@2@0PAVRayCastCallback@12@PBV32@@Z 10147ae0 f i GuRaycastTests.obj
 0001:00148ca0       ??0?$OverlapTraceSegment@VRayCastCallback@Gu@physx@@@HeightFieldUtil@Gu@physx@@QAE@ABV123@ABVHeightField@23@@Z 10149ca0 f i GuRaycastTests.obj
 0001:00148d40       ??0PxLocationHit@physx@@QAE@ABU01@@Z 10149d40 f i GuRaycastTests.obj
 0001:00148dd0       ??0PxRaycastHit@physx@@QAE@ABU01@@Z 10149dd0 f i GuRaycastTests.obj
 0001:00148e40       ??0RayCastCallback@Gu@physx@@QAE@XZ 10149e40 f i GuRaycastTests.obj
 0001:00148e70       ??0RayMeshColliderCallback@@QAE@W4Enum@CallbackMode@Gu@physx@@PAUPxRaycastHit@4@IPBVPxMeshScale@4@PBVPxTransform@4@PBVMatrix34@Cm@4@IP6A_NAAU54@PAX@Z6ABVPxVec3@4@_NM@Z 10149e70 f i GuRaycastTests.obj
 0001:00148f60       ??1RayMeshColliderCallback@@UAE@XZ 10149f60 f i GuRaycastTests.obj
 0001:00148f80       ??Dphysx@@YA?AVMatrix34@Cm@0@ABVPxMeshScale@0@ABVPxTransform@0@@Z 10149f80 f i GuRaycastTests.obj
 0001:00148ff0       ??_ERayMeshColliderCallback@@UAEPAXI@Z 10149ff0 f i GuRaycastTests.obj
 0001:00148ff0       ??_GRayMeshColliderCallback@@UAEPAXI@Z 10149ff0 f i GuRaycastTests.obj
 0001:00149030       ?addIndex@?$OverlapTraceSegment@VRayCastCallback@Gu@physx@@@HeightFieldUtil@Gu@physx@@QAE_NI@Z 1014a030 f i GuRaycastTests.obj
 0001:001490a0       ?computeRectangleDifference@?$OverlapTraceSegment@VRayCastCallback@Gu@physx@@@HeightFieldUtil@Gu@physx@@QAEXABUOverlapRectangle@1234@0AAUOverlapLine@1234@@Z 1014a0a0 f i GuRaycastTests.obj
 0001:00149190       ?faceHit@RayCastCallback@Gu@physx@@QAE_NABVHeightFieldUtil@23@ABVPxVec3@3@I@Z 1014a190 f i GuRaycastTests.obj
 0001:001491d0       ?init@?$OverlapTraceSegment@VRayCastCallback@Gu@physx@@@HeightFieldUtil@Gu@physx@@QAE_NHHHHHPAVRayCastCallback@34@PAV?$Array@IVNamedAllocator@shdfnd@physx@@@shdfnd@4@@Z 1014a1d0 f i GuRaycastTests.obj
 0001:001492f0       ?initialized@?$OverlapTraceSegment@VRayCastCallback@Gu@physx@@@HeightFieldUtil@Gu@physx@@QBE_NXZ 1014a2f0 f i GuRaycastTests.obj
 0001:00149310       ?intersectRayPlane@Gu@physx@@YA_NABVPxVec3@2@0ABVPxPlane@2@AAMPAV32@@Z 1014a310 f i GuRaycastTests.obj
 0001:001493e0       ?invalidate@OverlapRectangle@?$OverlapTraceSegment@VRayCastCallback@Gu@physx@@@HeightFieldUtil@Gu@physx@@QAEXXZ 1014a3e0 f i GuRaycastTests.obj
 0001:00149420       ?isSet@?$PxFlags@W4Enum@PxMeshGeometryFlag@physx@@E@physx@@QBE_NW4Enum@PxMeshGeometryFlag@2@@Z 1014a420 f i GuRaycastTests.obj
 0001:00149470       ?onEvent@RayCastCallback@Gu@physx@@QAE_NIPAI@Z 1014a470 f i GuRaycastTests.obj
 0001:00149490       ?prepare@?$OverlapTraceSegment@VRayCastCallback@Gu@physx@@@HeightFieldUtil@Gu@physx@@QAEXABVPxVec3@4@00AAM1@Z 1014a490 f i GuRaycastTests.obj
 0001:00149820       ?processHit@RayMeshColliderCallback@@UAE_NABUPxRaycastHit@physx@@ABVPxVec3@3@11AAMPBI@Z 1014a820 f i GuRaycastTests.obj
 0001:00149be0       ?reportOverlaps@?$OverlapTraceSegment@VRayCastCallback@Gu@physx@@@HeightFieldUtil@Gu@physx@@QAE_NXZ 1014abe0 f i GuRaycastTests.obj
 0001:00149c40       ?step@?$OverlapTraceSegment@VRayCastCallback@Gu@physx@@@HeightFieldUtil@Gu@physx@@QAE_NHH@Z 1014ac40 f i GuRaycastTests.obj
 0001:00149d20       ?testVertexIndex@?$OverlapTraceSegment@VRayCastCallback@Gu@physx@@@HeightFieldUtil@Gu@physx@@QAE_NI@Z 1014ad20 f i GuRaycastTests.obj
 0001:00149ec0       ?transform@PxMeshScale@physx@@QBE?AVPxVec3@2@ABV32@@Z 1014aec0 f i GuRaycastTests.obj
 0001:00149f20       ?underFaceHit@RayCastCallback@Gu@physx@@QAE_NABVHeightFieldUtil@23@ABVPxVec3@3@1MMMI@Z 1014af20 f i GuRaycastTests.obj
 0001:00149f40       ?visitCells@?$OverlapTraceSegment@VRayCastCallback@Gu@physx@@@HeightFieldUtil@Gu@physx@@QAE_NABUOverlapLine@1234@@Z 1014af40 f i GuRaycastTests.obj
 0001:0014a110       ?visitCells@?$OverlapTraceSegment@VRayCastCallback@Gu@physx@@@HeightFieldUtil@Gu@physx@@QAE_NABUOverlapRectangle@1234@@Z 1014b110 f i GuRaycastTests.obj
 0001:0014a210       ??0RadixSort@Gu@physx@@QAE@XZ 1014b210 f   GuRevisitedRadix.obj
 0001:0014a290       ??1RadixSort@Gu@physx@@UAE@XZ 1014b290 f   GuRevisitedRadix.obj
 0001:0014a2b0       ?Sort@RadixSort@Gu@physx@@QAEAAV123@PBIIW4RadixHint@23@@Z 1014b2b0 f   GuRevisitedRadix.obj
 0001:0014ade0       ?Sort@RadixSort@Gu@physx@@QAEAAV123@PBMI@Z 1014bde0 f   GuRevisitedRadix.obj
 0001:0014b850       ?SetBuffers@RadixSort@Gu@physx@@QAE_NPAI00PAPAI@Z 1014c850 f   GuRevisitedRadix.obj
 0001:0014be70       ??_ERadixSort@Gu@physx@@UAEPAXI@Z 1014ce70 f i GuRevisitedRadix.obj
 0001:0014bf10       ??_GRadixSort@Gu@physx@@UAEPAXI@Z 1014cf10 f i GuRevisitedRadix.obj
 0001:0014bf50       ?CheckPassValidity@@YAPBIIPBIIPBXAAE@Z 1014cf50 f i GuRevisitedRadix.obj
 0001:0014bfa0       ??0RadixSortBuffered@Gu@physx@@QAE@XZ 1014cfa0 f   GuRevisitedRadixBuffered.obj
 0001:0014bfc0       ??1RadixSortBuffered@Gu@physx@@UAE@XZ 1014cfc0 f   GuRevisitedRadixBuffered.obj
 0001:0014c030       ?Sort@RadixSortBuffered@Gu@physx@@QAEAAV123@PBIIW4RadixHint@23@@Z 1014d030 f   GuRevisitedRadixBuffered.obj
 0001:0014c0a0       ?Sort@RadixSortBuffered@Gu@physx@@QAEAAV123@PBMI@Z 1014d0a0 f   GuRevisitedRadixBuffered.obj
 0001:0014c110       ?Resize@RadixSortBuffered@Gu@physx@@AAE_NI@Z 1014d110 f   GuRevisitedRadixBuffered.obj
 0001:0014c270       ??_ERadixSortBuffered@Gu@physx@@UAEPAXI@Z 1014d270 f i GuRevisitedRadixBuffered.obj
 0001:0014c310       ??_GRadixSortBuffered@Gu@physx@@UAEPAXI@Z 1014d310 f i GuRevisitedRadixBuffered.obj
 0001:0014c350       ?CheckResize@RadixSortBuffered@Gu@physx@@AAEXI@Z 1014d350 f i GuRevisitedRadixBuffered.obj
 0001:0014c3c0       ?writeChunk@physx@@YAXCCCCAAVPxOutputStream@1@@Z 1014d3c0 f   GuSerialize.obj
 0001:0014c410       ?readChunk@physx@@YAXAAC000AAVPxInputStream@1@@Z 1014d410 f   GuSerialize.obj
 0001:0014c460       ?readWord@physx@@YAG_NAAVPxInputStream@1@@Z 1014d460 f   GuSerialize.obj
 0001:0014c4a0       ?readDword@physx@@YAI_NAAVPxInputStream@1@@Z 1014d4a0 f   GuSerialize.obj
 0001:0014c4e0       ?readFloat@physx@@YAM_NAAVPxInputStream@1@@Z 1014d4e0 f   GuSerialize.obj
 0001:0014c520       ?writeWord@physx@@YAXG_NAAVPxOutputStream@1@@Z 1014d520 f   GuSerialize.obj
 0001:0014c550       ?writeDword@physx@@YAXI_NAAVPxOutputStream@1@@Z 1014d550 f   GuSerialize.obj
 0001:0014c580       ?writeFloat@physx@@YAXM_NAAVPxOutputStream@1@@Z 1014d580 f   GuSerialize.obj
 0001:0014c5b0       ?readFloatBuffer@physx@@YA_NPAMI_NAAVPxInputStream@1@@Z 1014d5b0 f   GuSerialize.obj
 0001:0014c610       ?writeWordBuffer@physx@@YAXPBGI_NAAVPxOutputStream@1@@Z 1014d610 f   GuSerialize.obj
 0001:0014c670       ?writeFloatBuffer@physx@@YAXPBMI_NAAVPxOutputStream@1@@Z 1014d670 f   GuSerialize.obj
 0001:0014c6d0       ?writeHeader@physx@@YA_NCCCCI_NAAVPxOutputStream@1@@Z 1014d6d0 f   GuSerialize.obj
 0001:0014c740       ?readHeader@physx@@YA_NCCCCAAIAA_NAAVPxInputStream@1@@Z 1014d740 f   GuSerialize.obj
 0001:0014c830       ?computeMaxIndex@physx@@YAIPBII@Z 1014d830 f   GuSerialize.obj
 0001:0014c880       ?computeMaxIndex@physx@@YAGPBGI@Z 1014d880 f   GuSerialize.obj
 0001:0014c8e0       ?storeIndices@physx@@YAXIIPBIAAVPxOutputStream@1@_N@Z 1014d8e0 f   GuSerialize.obj
 0001:0014c9a0       ?readIndices@physx@@YAXIIPAIAAVPxInputStream@1@_N@Z 1014d9a0 f   GuSerialize.obj
 0001:0014ca50       ?WriteHeader@Gu@physx@@YA_NEEEEI_NAAVPxOutputStream@2@@Z 1014da50 f   GuSerialize.obj
 0001:0014cac0       ?ReadHeader@Gu@physx@@YA_NEEEEAAIAA_NAAVPxInputStream@2@@Z 1014dac0 f   GuSerialize.obj
 0001:0014cbb0       ?StoreIndices@Gu@physx@@YAXIIPBIAAVPxOutputStream@2@_N@Z 1014dbb0 f   GuSerialize.obj
 0001:0014cc90       ?ReadIndices@Gu@physx@@YAXIIPAIAAVPxInputStream@2@_N@Z 1014dc90 f   GuSerialize.obj
 0001:0014cd80       ?StoreIndices@Gu@physx@@YAXGIPBGAAVPxOutputStream@2@_N@Z 1014dd80 f   GuSerialize.obj
 0001:0014ce10       ?ReadIndices@Gu@physx@@YAXGIPAGAAVPxInputStream@2@_N@Z 1014de10 f   GuSerialize.obj
 0001:0014d220       ?readIntBuffer@physx@@YA_NPAII_NAAVPxInputStream@1@@Z 1014e220 f i GuSerialize.obj
 0001:0014d250       ?writeIntBuffer@physx@@YAXPBII_NAAVPxOutputStream@1@@Z 1014e250 f i GuSerialize.obj
 0001:0014d280       ?computeCapsule_TriangleMeshMTD@Gu@physx@@YA_NABVPxTriangleMeshGeometry@2@ABVPxTransform@2@AAVCapsuleV@12@MM_NAAUPxSweepHit@2@@Z 1014e280 f   GuSweepMTD.obj
 0001:0014d8c0       ?computeCapsule_HeightFieldMTD@Gu@physx@@YA_NABVPxHeightFieldGeometry@2@ABVPxTransform@2@AAVCapsuleV@12@MM_NIAAUPxSweepHit@2@@Z 1014e8c0 f   GuSweepMTD.obj
 0001:0014df10       ?computeBox_TriangleMeshMTD@Gu@physx@@YA_NABVPxTriangleMeshGeometry@2@ABVPxTransform@2@ABVBox@12@1MM_NAAUPxSweepHit@2@@Z 1014ef10 f   GuSweepMTD.obj
 0001:0014e7c0       ?computeBox_HeightFieldMTD@Gu@physx@@YA_NABVPxHeightFieldGeometry@2@ABVPxTransform@2@ABVBox@12@1MM_NIAAUPxSweepHit@2@@Z 1014f7c0 f   GuSweepMTD.obj
 0001:0014f090       ?computeConvex_TriangleMeshMTD@Gu@physx@@YA_NABVPxTriangleMeshGeometry@2@ABVPxTransform@2@ABVPxConvexMeshGeometry@2@1MM_NAAUPxSweepHit@2@@Z 10150090 f   GuSweepMTD.obj
 0001:0014fad0       ?computeConvex_HeightFieldMTD@Gu@physx@@YA_NABVPxHeightFieldGeometry@2@ABVPxTransform@2@ABVPxConvexMeshGeometry@2@1MM_NIAAUPxSweepHit@2@@Z 10150ad0 f   GuSweepMTD.obj
 0001:001504e0       ?computeSphere_SphereMTD@Gu@physx@@YA_NABVSphere@12@0AAUPxSweepHit@2@@Z 101514e0 f   GuSweepMTD.obj
 0001:001505a0       ?computeSphere_CapsuleMTD@Gu@physx@@YA_NABVSphere@12@ABVCapsule@12@AAUPxSweepHit@2@@Z 101515a0 f   GuSweepMTD.obj
 0001:00150690       ?computeCapsule_CapsuleMTD@Gu@physx@@YA_NABVCapsule@12@0AAUPxSweepHit@2@@Z 10151690 f   GuSweepMTD.obj
 0001:001507a0       ?computePlane_CapsuleMTD@Gu@physx@@YA_NABVPxPlane@2@ABVCapsule@12@AAUPxSweepHit@2@@Z 101517a0 f   GuSweepMTD.obj
 0001:00150870       ?computePlane_BoxMTD@Gu@physx@@YA_NABVPxPlane@2@ABVBox@12@AAUPxSweepHit@2@@Z 10151870 f   GuSweepMTD.obj
 0001:00150970       ?computePlane_ConvexMTD@Gu@physx@@YA_NABVPxPlane@2@ABVPxConvexMeshGeometry@2@ABVPxTransform@2@AAUPxSweepHit@2@@Z 10151970 f   GuSweepMTD.obj
 0001:00150d10       ?calculateMTD@@YA_NABVCapsuleV@Gu@physx@@ABT__m128@@_NPBUMTDTriangle@@IIPAVMeshPersistentContact@23@AAIAAT4@6656@Z 10151d10 f   GuSweepMTD.obj
 0001:00150f70       ?calculateMTD@@YA_NABUPolygonalData@Gu@physx@@PAVSupportLocal@23@AAVPsTransformV@aos@shdfnd@3@ABVPsMatTransformV@673@_NABT__m128@@PBUMTDTriangle@@IIPAVMeshPersistentContact@23@AAIAAT9@9989@Z 10151f70 f   GuSweepMTD.obj
 0001:00151fe0       ??0MTDTriangle@@QAE@XZ     10152fe0 f i GuSweepMTD.obj
 0001:00152000       ??0MeshMTDGenerationCallback@@QAE@AAVContainer@Gu@physx@@@Z 10153000 f i GuSweepMTD.obj
 0001:00152040       ??0MidPhaseQueryLocalReport@@QAE@AAVContainer@Gu@physx@@@Z 10153040 f i GuSweepMTD.obj
 0001:00152080       ??0TriangleV@Gu@physx@@QAE@XZ 10153080 f i GuSweepMTD.obj
 0001:00152110       ??1MTDTriangle@@QAE@XZ     10153110 f i GuSweepMTD.obj
 0001:00152130       ??1MeshMTDGenerationCallback@@UAE@XZ 10153130 f i GuSweepMTD.obj
 0001:00152150       ??1MidPhaseQueryLocalReport@@UAE@XZ 10153150 f i GuSweepMTD.obj
 0001:00152170       ??_EMeshMTDGenerationCallback@@UAEPAXI@Z 10153170 f i GuSweepMTD.obj
 0001:00152170       ??_GMeshMTDGenerationCallback@@UAEPAXI@Z 10153170 f i GuSweepMTD.obj
 0001:001521b0       ??_GMidPhaseQueryLocalReport@@UAEPAXI@Z 101531b0 f i GuSweepMTD.obj
 0001:001521b0       ??_EMidPhaseQueryLocalReport@@UAEPAXI@Z 101531b0 f i GuSweepMTD.obj
 0001:001521f0       ?getLocalTriangle@TriangleMesh@Gu@physx@@QBEXAAVPxTriangle@3@I@Z 101531f0 f i GuSweepMTD.obj
 0001:00152330       ?getScaledTriangle@physx@@YAXABVPxTriangleMeshGeometry@1@ABVMatrix34@Cm@1@AAVPxTriangle@1@I@Z 10153330 f i GuSweepMTD.obj
 0001:00152370       ?onEvent@MidPhaseQueryLocalReport@@UAE_NIPAI@Z 10153370 f i GuSweepMTD.obj
 0001:001523d0       ?processHit@MeshMTDGenerationCallback@@UAE_NABUPxRaycastHit@physx@@ABVPxVec3@3@11AAMPBI@Z 101533d0 f i GuSweepMTD.obj
 0001:00152400       ?setCenter@CapsuleV@Gu@physx@@QAEXABT__m128@@@Z 10153400 f i GuSweepMTD.obj
 0001:001524b0       ?setShapeSpaceCenterofMass@SupportLocal@Gu@physx@@QAEXABT__m128@@@Z 101534b0 f i GuSweepMTD.obj
 0001:00152520       ?SweepCapsuleTriangles@Gu@physx@@YA_NIPBVPxTriangle@2@_NABVPxCapsuleGeometry@2@ABVPxTransform@2@ABVPxVec3@2@MPBIAAV62@6AAMAAIMV?$PxFlags@W4Enum@PxHitFlag@physx@@G@2@@Z 10153520 f   GuSweepSharedTests.obj
 0001:001527b0       ?sweepCapsule_SphereGeom@@YA_NABVPxGeometry@physx@@ABVPxTransform@2@ABVCapsule@Gu@2@ABVPxVec3@2@MAAUPxSweepHit@2@V?$PxFlags@W4Enum@PxHitFlag@physx@@G@2@M@Z 101537b0 f   GuSweepSharedTests.obj
 0001:001529f0       ?sweepCapsule_PlaneGeom@@YA_NABVPxGeometry@physx@@ABVPxTransform@2@ABVCapsule@Gu@2@ABVPxVec3@2@MAAUPxSweepHit@2@V?$PxFlags@W4Enum@PxHitFlag@physx@@G@2@M@Z 101539f0 f   GuSweepSharedTests.obj
 0001:00152cc0       ?sweepCapsule_CapsuleGeom@@YA_NABVPxGeometry@physx@@ABVPxTransform@2@ABVCapsule@Gu@2@ABVPxVec3@2@MAAUPxSweepHit@2@V?$PxFlags@W4Enum@PxHitFlag@physx@@G@2@M@Z 10153cc0 f   GuSweepSharedTests.obj
 0001:00152e40       ?sweepCapsule_ConvexGeom@@YA_NABVPxGeometry@physx@@ABVPxTransform@2@ABVCapsule@Gu@2@ABVPxVec3@2@MAAUPxSweepHit@2@V?$PxFlags@W4Enum@PxHitFlag@physx@@G@2@M@Z 10153e40 f   GuSweepSharedTests.obj
 0001:00153480       ?sweepBox_PlaneGeom@@YA_NABVPxGeometry@physx@@ABVPxTransform@2@ABVBox@Gu@2@ABVPxVec3@2@MAAUPxSweepHit@2@V?$PxFlags@W4Enum@PxHitFlag@physx@@G@2@M@Z 10154480 f   GuSweepSharedTests.obj
 0001:00153710       ?sweepBox_ConvexGeom@@YA_NABVPxGeometry@physx@@ABVPxTransform@2@ABVBox@Gu@2@ABVPxVec3@2@MAAUPxSweepHit@2@V?$PxFlags@W4Enum@PxHitFlag@physx@@G@2@M@Z 10154710 f   GuSweepSharedTests.obj
 0001:00153c70       ?sweepConvex_SphereGeom@@YA_NABVPxGeometry@physx@@ABVPxTransform@2@ABVPxConvexMeshGeometry@2@1ABVPxVec3@2@MAAUPxSweepHit@2@V?$PxFlags@W4Enum@PxHitFlag@physx@@G@2@M@Z 10154c70 f   GuSweepSharedTests.obj
 0001:00154150       ?sweepConvex_PlaneGeom@@YA_NABVPxGeometry@physx@@ABVPxTransform@2@ABVPxConvexMeshGeometry@2@1ABVPxVec3@2@MAAUPxSweepHit@2@V?$PxFlags@W4Enum@PxHitFlag@physx@@G@2@M@Z 10155150 f   GuSweepSharedTests.obj
 0001:00154420       ?sweepConvex_CapsuleGeom@@YA_NABVPxGeometry@physx@@ABVPxTransform@2@ABVPxConvexMeshGeometry@2@1ABVPxVec3@2@MAAUPxSweepHit@2@V?$PxFlags@W4Enum@PxHitFlag@physx@@G@2@M@Z 10155420 f   GuSweepSharedTests.obj
 0001:00154570       ?sweepConvex_BoxGeom@@YA_NABVPxGeometry@physx@@ABVPxTransform@2@ABVPxConvexMeshGeometry@2@1ABVPxVec3@2@MAAUPxSweepHit@2@V?$PxFlags@W4Enum@PxHitFlag@physx@@G@2@M@Z 10155570 f   GuSweepSharedTests.obj
 0001:001546c0       ?sweepConvex_ConvexGeom@@YA_NABVPxGeometry@physx@@ABVPxTransform@2@ABVPxConvexMeshGeometry@2@1ABVPxVec3@2@MAAUPxSweepHit@2@V?$PxFlags@W4Enum@PxHitFlag@physx@@G@2@M@Z 101556c0 f   GuSweepSharedTests.obj
 0001:001555f0       ?loadTransformU@aos@shdfnd@physx@@YA?AVPsTransformV@123@ABVPxTransform@3@@Z 101565f0 f i GuSweepSharedTests.obj
 0001:00155670       ?GetGeomSweepFuncs@Gu@physx@@YAABUGeomSweepFuncs@12@XZ 10156670 f   GuSweepTests.obj
 0001:00155680       ?SweepBoxTriangles@Gu@physx@@YA_NIPBVPxTriangle@2@_NABVPxBoxGeometry@2@ABVPxTransform@2@ABVPxVec3@2@MAAV62@5AAMAAIPBIMV?$PxFlags@W4Enum@PxHitFlag@physx@@G@2@@Z 10156680 f   GuSweepTests.obj
 0001:00156010       ?sweepCapsule_BoxGeom@@YA_NABVPxGeometry@physx@@ABVPxTransform@2@ABVCapsule@Gu@2@ABVPxVec3@2@MAAUPxSweepHit@2@V?$PxFlags@W4Enum@PxHitFlag@physx@@G@2@M@Z 10157010 f   GuSweepTests.obj
 0001:00156550       ?sweepBox_SphereGeom@@YA_NABVPxGeometry@physx@@ABVPxTransform@2@ABVBox@Gu@2@ABVPxVec3@2@MAAUPxSweepHit@2@V?$PxFlags@W4Enum@PxHitFlag@physx@@G@2@M@Z 10157550 f   GuSweepTests.obj
 0001:001569d0       ?sweepBox_CapsuleGeom@@YA_NABVPxGeometry@physx@@ABVPxTransform@2@ABVBox@Gu@2@ABVPxVec3@2@MAAUPxSweepHit@2@V?$PxFlags@W4Enum@PxHitFlag@physx@@G@2@M@Z 101579d0 f   GuSweepTests.obj
 0001:00156ec0       ?sweepBox_BoxGeom@@YA_NABVPxGeometry@physx@@ABVPxTransform@2@ABVBox@Gu@2@ABVPxVec3@2@MAAUPxSweepHit@2@V?$PxFlags@W4Enum@PxHitFlag@physx@@G@2@M@Z 10157ec0 f   GuSweepTests.obj
 0001:00157a6e       _CloseHandle@4             10158a6e f   kernel32:KERNEL32.dll
 0001:00157a74       _MapViewOfFile@20          10158a74 f   kernel32:KERNEL32.dll
 0001:00157a7a       _UnmapViewOfFile@4         10158a7a f   kernel32:KERNEL32.dll
 0001:00157a80       _CreateFileMappingA@24     10158a80 f   kernel32:KERNEL32.dll
 0001:00157a86       _OpenFileMappingA@12       10158a86 f   kernel32:KERNEL32.dll
 0001:00157a8c       _FreeLibrary@4             10158a8c f   kernel32:KERNEL32.dll
 0001:00157a92       _GetProcAddress@8          10158a92 f   kernel32:KERNEL32.dll
 0001:00157a98       _LoadLibraryA@4            10158a98 f   kernel32:KERNEL32.dll
 0001:00157a9e       _InitializeCriticalSection@4 10158a9e f   kernel32:KERNEL32.dll
 0001:00157aa4       _EnterCriticalSection@4    10158aa4 f   kernel32:KERNEL32.dll
 0001:00157aaa       _LeaveCriticalSection@4    10158aaa f   kernel32:KERNEL32.dll
 0001:00157ab0       _TryEnterCriticalSection@4 10158ab0 f   kernel32:KERNEL32.dll
 0001:00157ab6       _DeleteCriticalSection@4   10158ab6 f   kernel32:KERNEL32.dll
 0001:00157abc       _GetCurrentThread@0        10158abc f   kernel32:KERNEL32.dll
 0001:00157ac2       _GetCurrentThreadId@0      10158ac2 f   kernel32:KERNEL32.dll
 0001:00157ac8       _OutputDebugStringA@4      10158ac8 f   kernel32:KERNEL32.dll
 0001:00157ace       _InitializeSListHead@4     10158ace f   kernel32:KERNEL32.dll
 0001:00157ad4       _InterlockedPopEntrySList@4 10158ad4 f   kernel32:KERNEL32.dll
 0001:00157ada       _InterlockedPushEntrySList@8 10158ada f   kernel32:KERNEL32.dll
 0001:00157ae0       _InterlockedFlushSList@4   10158ae0 f   kernel32:KERNEL32.dll
 0001:00157ae6       _SetEvent@4                10158ae6 f   kernel32:KERNEL32.dll
 0001:00157aec       _ResetEvent@4              10158aec f   kernel32:KERNEL32.dll
 0001:00157af2       _WaitForSingleObject@8     10158af2 f   kernel32:KERNEL32.dll
 0001:00157af8       _CreateEventA@16           10158af8 f   kernel32:KERNEL32.dll
 0001:00157afe       _RaiseException@16         10158afe f   kernel32:KERNEL32.dll
 0001:00157b04       _GetLastError@0            10158b04 f   kernel32:KERNEL32.dll
 0001:00157b0a       _Sleep@4                   10158b0a f   kernel32:KERNEL32.dll
 0001:00157b10       _SwitchToThread@0          10158b10 f   kernel32:KERNEL32.dll
 0001:00157b16       _CreateThread@24           10158b16 f   kernel32:KERNEL32.dll
 0001:00157b1c       _SetThreadPriority@8       10158b1c f   kernel32:KERNEL32.dll
 0001:00157b22       _GetThreadPriority@4       10158b22 f   kernel32:KERNEL32.dll
 0001:00157b28       _ExitThread@4              10158b28 f   kernel32:KERNEL32.dll
 0001:00157b2e       _TerminateThread@8         10158b2e f   kernel32:KERNEL32.dll
 0001:00157b34       _ResumeThread@4            10158b34 f   kernel32:KERNEL32.dll
 0001:00157b3a       _TlsAlloc@0                10158b3a f   kernel32:KERNEL32.dll
 0001:00157b40       _TlsGetValue@4             10158b40 f   kernel32:KERNEL32.dll
 0001:00157b46       _TlsSetValue@8             10158b46 f   kernel32:KERNEL32.dll
 0001:00157b4c       _TlsFree@4                 10158b4c f   kernel32:KERNEL32.dll
 0001:00157b52       _GetModuleHandleA@4        10158b52 f   kernel32:KERNEL32.dll
 0001:00157b58       _SetThreadAffinityMask@8   10158b58 f   kernel32:KERNEL32.dll
 0001:00157b5e       _QueryPerformanceCounter@4 10158b5e f   kernel32:KERNEL32.dll
 0001:00157b64       _QueryPerformanceFrequency@4 10158b64 f   kernel32:KERNEL32.dll
 0001:00157b70       __CRT_RTC_INIT             10158b70 f   MSVCRTD:_init_.obj
 0001:00157b80       __CRT_RTC_INITW            10158b80 f   MSVCRTD:_init_.obj
 0001:00157b90       __RTC_InitBase             10158b90 f   MSVCRTD:_init_.obj
 0001:00157bd0       __RTC_Shutdown             10158bd0 f   MSVCRTD:_init_.obj
 0001:00157bf0       ??3@YAXPAXI@Z              10158bf0 f   MSVCRTD:delete_scalar_size.obj
 0001:00157c10       ??_V@YAXPAXI@Z             10158c10 f   MSVCRTD:delete_array_size.obj
 0001:00157c30       ?__scrt_initialize_type_info@@YAXXZ 10158c30 f   MSVCRTD:tncleanup.obj
 0001:00157c50       ?__scrt_uninitialize_type_info@@YAXXZ 10158c50 f   MSVCRTD:tncleanup.obj
 0001:00157c70       ??1type_info@@UAE@XZ       10158c70 f   MSVCRTD:std_type_info_static.obj
 0001:00157c90       ??_Gtype_info@@UAEPAXI@Z   10158c90 f i MSVCRTD:std_type_info_static.obj
 0001:00157c90       ??_Etype_info@@UAEPAXI@Z   10158c90 f i MSVCRTD:std_type_info_static.obj
 0001:00157cd0       ??3@YAXPAX@Z               10158cd0 f   MSVCRTD:delete_scalar.obj
 0001:00157cf0       ??_V@YAXPAX@Z              10158cf0 f   MSVCRTD:delete_array.obj
 0001:00157d10       __alloca_probe_16          10158d10 f   MSVCRTD:alloca16.obj
 0001:00157d26       __alloca_probe_8           10158d26     MSVCRTD:alloca16.obj
 0001:00157d50       __allmul                   10158d50 f   MSVCRTD:llmul.obj
 0001:00157da0       __aulldiv                  10158da0 f   MSVCRTD:ulldiv.obj
 0001:00157e30       __ftoui3                   10158e30 f   MSVCRTD:_ftol3_.obj
 0001:00157e3f       __ftoul3                   10158e3f f   MSVCRTD:_ftol3_.obj
 0001:00157e4e       __ftol3                    10158e4e f   MSVCRTD:_ftol3_.obj
 0001:00157e5b       __ftol3_NaN                10158e5b f   MSVCRTD:_ftol3_.obj
 0001:00157e73       __ftol3_work               10158e73 f   MSVCRTD:_ftol3_.obj
 0001:00157ef9       __ftol3_common             10158ef9 f   MSVCRTD:_ftol3_.obj
 0001:00157fbb       __ftol3_arg_error          10158fbb f   MSVCRTD:_ftol3_.obj
 0001:00157fcd       __ftol3_except             10158fcd f   MSVCRTD:_ftol3_.obj
 0001:00158011       __dtoui3                   10159011 f   MSVCRTD:_ftol3_.obj
 0001:00158020       __dtoul3                   10159020 f   MSVCRTD:_ftol3_.obj
 0001:0015802f       __dtol3                    1015902f f   MSVCRTD:_ftol3_.obj
 0001:0015803c       __dtol3_NaN                1015903c f   MSVCRTD:_ftol3_.obj
 0001:00158059       __dtol3_work               10159059 f   MSVCRTD:_ftol3_.obj
 0001:00158140       __ultod3                   10159140 f   MSVCRTD:_ftol3_.obj
 0001:00158180       __ltod3                    10159180 f   MSVCRTD:_ftol3_.obj
 0001:00158290       ??$__crt_fast_decode_pointer@PAP6AXXZ@@YAPAP6AXXZQAP6AXXZ@Z 10159290 f i MSVCRTD:utility.obj
 0001:001582c0       ??$__crt_fast_encode_pointer@PAP6AXXZ@@YAPAP6AXXZQAP6AXXZ@Z 101592c0 f i MSVCRTD:utility.obj
 0001:00158300       ?__crt_rotate_pointer_value@@YAIIH@Z 10159300 f i MSVCRTD:utility.obj
 0001:00158310       ?configure_argv@__scrt_narrow_argv_policy@@SAHXZ 10159310 f i MSVCRTD:utility.obj
 0001:00158470       _NtCurrentTeb              10159470 f i MSVCRTD:utility.obj
 0001:00158480       ___scrt_acquire_startup_lock 10159480 f   MSVCRTD:utility.obj
 0001:001584e0       ___scrt_dllmain_after_initialize_c 101594e0 f   MSVCRTD:utility.obj
 0001:00158520       ___scrt_dllmain_before_initialize_c 10159520 f   MSVCRTD:utility.obj
 0001:00158550       ___scrt_dllmain_crt_thread_attach 10159550 f   MSVCRTD:utility.obj
 0001:00158590       ___scrt_dllmain_crt_thread_detach 10159590 f   MSVCRTD:utility.obj
 0001:001585b0       ___scrt_dllmain_exception_filter 101595b0 f   MSVCRTD:utility.obj
 0001:00158610       ___scrt_dllmain_uninitialize_c 10159610 f   MSVCRTD:utility.obj
 0001:00158650       ___scrt_dllmain_uninitialize_critical 10159650 f   MSVCRTD:utility.obj
 0001:00158670       ___scrt_initialize_crt     10159670 f   MSVCRTD:utility.obj
 0001:001586d0       ___scrt_initialize_onexit_tables 101596d0 f   MSVCRTD:utility.obj
 0001:001587d0       ___scrt_is_nonwritable_in_current_image 101597d0 f   MSVCRTD:utility.obj
 0001:00158950       ___scrt_release_startup_lock 10159950 f   MSVCRTD:utility.obj
 0001:00158980       ___scrt_uninitialize_crt   10159980 f   MSVCRTD:utility.obj
 0001:001589d0       __onexit                   101599d0 f   MSVCRTD:utility.obj
 0001:00158a60       _at_quick_exit             10159a60 f   MSVCRTD:utility.obj
 0001:00158ac0       _atexit                    10159ac0 f   MSVCRTD:utility.obj
 0001:00158b00       __chkstk                   10159b00 f   MSVCRTD:chkstk.obj
 0001:00158b00       __alloca_probe             10159b00 f   MSVCRTD:chkstk.obj
 0001:00158b40       ??_U@YAPAXI@Z              10159b40 f   MSVCRTD:new_array.obj
 0001:00158b60       __allshl                   10159b60 f   MSVCRTD:llshl.obj
 0001:00158b90       __aullshr                  10159b90 f   MSVCRTD:ullshr.obj
 0001:00158bc0       __ftol2_sse                10159bc0 f   MSVCRTD:_ftol2_.obj
 0001:00158bc9       __ftol2_pentium4           10159bc9 f   MSVCRTD:_ftol2_.obj
 0001:00158bdc       __ftol2_sse_excpt          10159bdc f   MSVCRTD:_ftol2_.obj
 0001:00158c00       __ftol2                    10159c00 f   MSVCRTD:_ftol2_.obj
 0001:00159270       __CRT_INIT@12              1015a270 f   MSVCRTD:dll_dllmain.obj
 0001:00159290       __DllMainCRTStartup@12     1015a290 f   MSVCRTD:dll_dllmain.obj
 0001:001592c0       ?_RTC_GetErrorFunc@@YAP6AHHPBDH00ZZPBX@Z 1015a2c0 f   MSVCRTD:_userapi_.obj
 0001:001592d0       ?_RTC_GetErrorFuncW@@YAP6AHHPB_WH00ZZPBX@Z 1015a2d0 f   MSVCRTD:_userapi_.obj
 0001:001592e0       __RTC_GetErrDesc           1015a2e0 f   MSVCRTD:_userapi_.obj
 0001:00159300       __RTC_NumErrors            1015a300 f   MSVCRTD:_userapi_.obj
 0001:00159310       __RTC_SetErrorFunc         1015a310 f   MSVCRTD:_userapi_.obj
 0001:00159340       __RTC_SetErrorFuncW        1015a340 f   MSVCRTD:_userapi_.obj
 0001:00159370       __RTC_SetErrorType         1015a370 f   MSVCRTD:_userapi_.obj
 0001:001593a0       ___isa_available_init      1015a3a0 f   MSVCRTD:_cpu_disp_.obj
 0001:00159730       __get_startup_argv_mode    1015a730 f   MSVCRTD:argv_mode.obj
 0001:00159740       ___scrt_is_ucrt_dll_in_use 1015a740 f   MSVCRTD:ucrt_detection.obj
 0001:00159770       ___scrt_fastfail           1015a770 f   MSVCRTD:utility_desktop.obj
 0001:00159900       ___scrt_get_show_window_mode 1015a900 f   MSVCRTD:utility_desktop.obj
 0001:00159950       ___scrt_initialize_winrt   1015a950 f   MSVCRTD:utility_desktop.obj
 0001:00159960       ___scrt_is_managed_app     1015a960 f   MSVCRTD:utility_desktop.obj
 0001:00159a10       ___scrt_set_unhandled_exception_filter 1015aa10 f   MSVCRTD:utility_desktop.obj
 0001:00159a30       ___scrt_unhandled_exception_filter@4 1015aa30 f   MSVCRTD:utility_desktop.obj
 0001:00159ab0       __crt_debugger_hook        1015aab0 f   MSVCRTD:utility_desktop.obj
 0001:00159ad0       @_guard_check_icall@4      1015aad0 f i MSVCRTD:checkcfg.obj
 0001:00159af0       __except_handler4          1015aaf0 f   MSVCRTD:_chandler4gs_.obj
 0001:00159b20       ??2@YAPAXI@Z               1015ab20 f   MSVCRTD:new_scalar.obj
 0001:00159b80       ___security_init_cookie    1015ab80 f   MSVCRTD:gs_support.obj
 0001:00159ca0       _DllMain@12                1015aca0 f   MSVCRTD:dll_dllmain_stub.obj
 0001:00159cd0       ___local_stdio_scanf_options 1015acd0 f i MSVCRTD:default_local_stdio_options.obj
 0001:00159ce0       ___scrt_initialize_default_local_stdio_options 1015ace0 f   MSVCRTD:default_local_stdio_options.obj
 0001:00159d30       ___scrt_get_dyn_tls_init_callback 1015ad30 f   MSVCRTD:dyn_tls_init.obj
 0001:00159d40       __RTC_Initialize           1015ad40 f   MSVCRTD:_initsect_.obj
 0001:00159d80       __RTC_Terminate            1015ad80 f   MSVCRTD:_initsect_.obj
 0001:00159f60       ?_RTC_AllocaFailure@@YAXPAXPAU_RTC_ALLOCA_NODE@@H@Z 1015af60 f   MSVCRTD:_error_.obj
 0001:0015a0d0       ?_RTC_Failure@@YAXPAXH@Z   1015b0d0 f   MSVCRTD:_error_.obj
 0001:0015a140       ?_RTC_StackFailure@@YAXPAXPBD@Z 1015b140 f   MSVCRTD:_error_.obj
 0001:0015a5c0       __RTC_UninitUse            1015b5c0 f   MSVCRTD:_error_.obj
 0001:0015a6f0       _sprintf_s                 1015b6f0 f i MSVCRTD:_error_.obj
 0001:0015a720       @__security_check_cookie@4 1015b720 f   MSVCRTD:_secchk_.obj
 0001:0015a740       @_guard_check_icall_nop@4  1015b740 f i MSVCRTD:guard_support.obj
 0001:0015a750       __guard_icall_checks_enforced 1015b750 f i MSVCRTD:guard_support.obj
 0001:0015a780       ??0bad_alloc@std@@AAE@QBD@Z 1015b780 f i MSVCRTD:throw_bad_alloc.obj
 0001:0015a7b0       ??0bad_alloc@std@@QAE@ABV01@@Z 1015b7b0 f i MSVCRTD:throw_bad_alloc.obj
 0001:0015a7e0       ??0bad_alloc@std@@QAE@XZ   1015b7e0 f i MSVCRTD:throw_bad_alloc.obj
 0001:0015a810       ??0bad_array_new_length@std@@QAE@ABV01@@Z 1015b810 f i MSVCRTD:throw_bad_alloc.obj
 0001:0015a840       ??0bad_array_new_length@std@@QAE@XZ 1015b840 f i MSVCRTD:throw_bad_alloc.obj
 0001:0015a870       ??0exception@std@@QAE@ABV01@@Z 1015b870 f i MSVCRTD:throw_bad_alloc.obj
 0001:0015a8c0       ??0exception@std@@QAE@QBDH@Z 1015b8c0 f i MSVCRTD:throw_bad_alloc.obj
 0001:0015a900       ??1bad_alloc@std@@UAE@XZ   1015b900 f i MSVCRTD:throw_bad_alloc.obj
 0001:0015a920       ??1bad_array_new_length@std@@UAE@XZ 1015b920 f i MSVCRTD:throw_bad_alloc.obj
 0001:0015a940       ??1exception@std@@UAE@XZ   1015b940 f i MSVCRTD:throw_bad_alloc.obj
 0001:0015a970       ??_Ebad_alloc@std@@UAEPAXI@Z 1015b970 f i MSVCRTD:throw_bad_alloc.obj
 0001:0015a970       ??_Gbad_alloc@std@@UAEPAXI@Z 1015b970 f i MSVCRTD:throw_bad_alloc.obj
 0001:0015a9b0       ??_Ebad_array_new_length@std@@UAEPAXI@Z 1015b9b0 f i MSVCRTD:throw_bad_alloc.obj
 0001:0015a9b0       ??_Gbad_array_new_length@std@@UAEPAXI@Z 1015b9b0 f i MSVCRTD:throw_bad_alloc.obj
 0001:0015a9f0       ??_Eexception@std@@UAEPAXI@Z 1015b9f0 f i MSVCRTD:throw_bad_alloc.obj
 0001:0015a9f0       ??_Gexception@std@@UAEPAXI@Z 1015b9f0 f i MSVCRTD:throw_bad_alloc.obj
 0001:0015aa30       ?__scrt_throw_std_bad_alloc@@YAXXZ 1015ba30 f   MSVCRTD:throw_bad_alloc.obj
 0001:0015aa60       ?__scrt_throw_std_bad_array_new_length@@YAXXZ 1015ba60 f   MSVCRTD:throw_bad_alloc.obj
 0001:0015aa90       ?what@exception@std@@UBEPBDXZ 1015ba90 f i MSVCRTD:throw_bad_alloc.obj
 0001:0015b090       ?_RTC_GetSrcLine@@YAHPAEPA_WKPAH1K@Z 1015c090 f   MSVCRTD:_pdblkup_.obj
 0001:0015b4c0       ___raise_securityfailure   1015c4c0 f   MSVCRTD:gs_report.obj
 0001:0015b500       ___report_gsfailure        1015c500 f   MSVCRTD:gs_report.obj
 0001:0015b650       ___report_rangecheckfailure 1015c650 f   MSVCRTD:gs_report.obj
 0001:0015b660       ___report_securityfailure  1015c660 f   MSVCRTD:gs_report.obj
 0001:0015b770       ___report_securityfailureEx 1015c770 f   MSVCRTD:gs_report.obj
 0001:0015b8de       ___WSAFDIsSet@8            1015c8de f   Ws2_32:WS2_32.dll
 0001:0015b8e4       _accept@12                 1015c8e4 f   Ws2_32:WS2_32.dll
 0001:0015b8ea       _bind@12                   1015c8ea f   Ws2_32:WS2_32.dll
 0001:0015b8f0       _closesocket@4             1015c8f0 f   Ws2_32:WS2_32.dll
 0001:0015b8f6       _connect@12                1015c8f6 f   Ws2_32:WS2_32.dll
 0001:0015b8fc       _ioctlsocket@12            1015c8fc f   Ws2_32:WS2_32.dll
 0001:0015b902       _getsockopt@20             1015c902 f   Ws2_32:WS2_32.dll
 0001:0015b908       _htonl@4                   1015c908 f   Ws2_32:WS2_32.dll
 0001:0015b90e       _htons@4                   1015c90e f   Ws2_32:WS2_32.dll
 0001:0015b914       _inet_addr@4               1015c914 f   Ws2_32:WS2_32.dll
 0001:0015b91a       _listen@8                  1015c91a f   Ws2_32:WS2_32.dll
 0001:0015b920       _recv@16                   1015c920 f   Ws2_32:WS2_32.dll
 0001:0015b926       _select@20                 1015c926 f   Ws2_32:WS2_32.dll
 0001:0015b92c       _send@16                   1015c92c f   Ws2_32:WS2_32.dll
 0001:0015b932       _setsockopt@20             1015c932 f   Ws2_32:WS2_32.dll
 0001:0015b938       _socket@12                 1015c938 f   Ws2_32:WS2_32.dll
 0001:0015b93e       _gethostbyaddr@12          1015c93e f   Ws2_32:WS2_32.dll
 0001:0015b944       _gethostbyname@4           1015c944 f   Ws2_32:WS2_32.dll
 0001:0015b94a       _WSAStartup@8              1015c94a f   Ws2_32:WS2_32.dll
 0001:0015b950       _WSACleanup@0              1015c950 f   Ws2_32:WS2_32.dll
 0001:0015b956       _WSAGetLastError@0         1015c956 f   Ws2_32:WS2_32.dll
 0001:0015b95c       _WSASendDisconnect@8       1015c95c f   Ws2_32:WS2_32.dll
 0001:0015b962       __purecall                 1015c962 f   vcruntimed:VCRUNTIME140D.dll
 0001:0015b968       ___std_type_info_name      1015c968 f   vcruntimed:VCRUNTIME140D.dll
 0001:0015b96e       _memcpy                    1015c96e f   vcruntimed:VCRUNTIME140D.dll
 0001:0015b974       _memset                    1015c974 f   vcruntimed:VCRUNTIME140D.dll
 0001:0015b97a       __except_handler3          1015c97a f   vcruntimed:VCRUNTIME140D.dll
 0001:0015b980       _memmove                   1015c980 f   vcruntimed:VCRUNTIME140D.dll
 0001:0015b986       _strchr                    1015c986 f   vcruntimed:VCRUNTIME140D.dll
 0001:0015b98c       _strstr                    1015c98c f   vcruntimed:VCRUNTIME140D.dll
 0001:0015b992       ___std_type_info_destroy_list 1015c992 f   vcruntimed:VCRUNTIME140D.dll
 0001:0015b998       __except_handler4_common   1015c998 f   vcruntimed:VCRUNTIME140D.dll
 0001:0015b99e       ___std_exception_copy      1015c99e f   vcruntimed:VCRUNTIME140D.dll
 0001:0015b9a4       ___std_exception_destroy   1015c9a4 f   vcruntimed:VCRUNTIME140D.dll
 0001:0015b9aa       __CxxThrowException@8      1015c9aa f   vcruntimed:VCRUNTIME140D.dll
 0001:0015b9b0       ___vcrt_GetModuleFileNameW 1015c9b0 f   vcruntimed:VCRUNTIME140D.dll
 0001:0015b9b6       ___vcrt_GetModuleHandleW   1015c9b6 f   vcruntimed:VCRUNTIME140D.dll
 0001:0015b9bc       ___vcrt_LoadLibraryExW     1015c9bc f   vcruntimed:VCRUNTIME140D.dll
 0001:0015b9c2       __clearfp                  1015c9c2 f   ucrtd:ucrtbased.dll
 0001:0015b9c8       __controlfp_s              1015c9c8 f   ucrtd:ucrtbased.dll
 0001:0015b9ce       ___control87_2             1015c9ce f   ucrtd:ucrtbased.dll
 0001:0015b9d4       _puts                      1015c9d4 f   ucrtd:ucrtbased.dll
 0001:0015b9da       ___stdio_common_vsprintf_s 1015c9da f   ucrtd:ucrtbased.dll
 0001:0015b9e0       ___stdio_common_vsprintf   1015c9e0 f   ucrtd:ucrtbased.dll
 0001:0015b9e6       __CrtDbgReport             1015c9e6 f   ucrtd:ucrtbased.dll
 0001:0015b9ec       __CrtSetReportMode         1015c9ec f   ucrtd:ucrtbased.dll
 0001:0015b9f2       __wassert                  1015c9f2 f   ucrtd:ucrtbased.dll
 0001:0015b9f8       _strcmp                    1015c9f8 f   ucrtd:ucrtbased.dll
 0001:0015b9fe       _strlen                    1015c9fe f   ucrtd:ucrtbased.dll
 0001:0015ba04       _strncmp                   1015ca04 f   ucrtd:ucrtbased.dll
 0001:0015ba0a       _tolower                   1015ca0a f   ucrtd:ucrtbased.dll
 0001:0015ba10       _asin                      1015ca10 f   ucrtd:ucrtbased.dll
 0001:0015ba16       _atan2                     1015ca16 f   ucrtd:ucrtbased.dll
 0001:0015ba1c       _cos                       1015ca1c f   ucrtd:ucrtbased.dll
 0001:0015ba22       _fabs                      1015ca22 f   ucrtd:ucrtbased.dll
 0001:0015ba28       _sin                       1015ca28 f   ucrtd:ucrtbased.dll
 0001:0015ba2e       _sqrt                      1015ca2e f   ucrtd:ucrtbased.dll
 0001:0015ba34       __fpclass                  1015ca34 f   ucrtd:ucrtbased.dll
 0001:0015ba3a       _strnlen                   1015ca3a f   ucrtd:ucrtbased.dll
 0001:0015ba40       ___acrt_iob_func           1015ca40 f   ucrtd:ucrtbased.dll
 0001:0015ba46       ___stdio_common_vfprintf   1015ca46 f   ucrtd:ucrtbased.dll
 0001:0015ba4c       _ceil                      1015ca4c f   ucrtd:ucrtbased.dll
 0001:0015ba52       _floor                     1015ca52 f   ucrtd:ucrtbased.dll
 0001:0015ba58       __CrtDbgReportW            1015ca58 f   ucrtd:ucrtbased.dll
 0001:0015ba5e       __free_dbg                 1015ca5e f   ucrtd:ucrtbased.dll
 0001:0015ba64       __except1                  1015ca64 f   ucrtd:ucrtbased.dll
 0001:0015ba6a       __seh_filter_dll           1015ca6a f   ucrtd:ucrtbased.dll
 0001:0015ba70       __configure_narrow_argv    1015ca70 f   ucrtd:ucrtbased.dll
 0001:0015ba76       __initialize_narrow_environment 1015ca76 f   ucrtd:ucrtbased.dll
 0001:0015ba7c       __initialize_onexit_table  1015ca7c f   ucrtd:ucrtbased.dll
 0001:0015ba82       __register_onexit_function 1015ca82 f   ucrtd:ucrtbased.dll
 0001:0015ba88       __execute_onexit_table     1015ca88 f   ucrtd:ucrtbased.dll
 0001:0015ba8e       __crt_atexit               1015ca8e f   ucrtd:ucrtbased.dll
 0001:0015ba94       __crt_at_quick_exit        1015ca94 f   ucrtd:ucrtbased.dll
 0001:0015ba9a       __cexit                    1015ca9a f   ucrtd:ucrtbased.dll
 0001:0015baa0       __initterm                 1015caa0 f   ucrtd:ucrtbased.dll
 0001:0015baa6       __initterm_e               1015caa6 f   ucrtd:ucrtbased.dll
 0001:0015baac       _terminate                 1015caac f   ucrtd:ucrtbased.dll
 0001:0015bab2       __callnewh                 1015cab2 f   ucrtd:ucrtbased.dll
 0001:0015bab8       _malloc                    1015cab8 f   ucrtd:ucrtbased.dll
 0001:0015babe       __wmakepath_s              1015cabe f   ucrtd:ucrtbased.dll
 0001:0015bac4       __wsplitpath_s             1015cac4 f   ucrtd:ucrtbased.dll
 0001:0015baca       _wcscpy_s                  1015caca f   ucrtd:ucrtbased.dll
 0001:0015bad0       _IsProcessorFeaturePresent@4 1015cad0 f   kernel32:KERNEL32.dll
 0001:0015bad6       _IsDebuggerPresent@0       1015cad6 f   kernel32:KERNEL32.dll
 0001:0015badc       _UnhandledExceptionFilter@4 1015cadc f   kernel32:KERNEL32.dll
 0001:0015bae2       _SetUnhandledExceptionFilter@4 1015cae2 f   kernel32:KERNEL32.dll
 0001:0015bae8       _GetStartupInfoW@4         1015cae8 f   kernel32:KERNEL32.dll
 0001:0015baee       _GetModuleHandleW@4        1015caee f   kernel32:KERNEL32.dll
 0001:0015baf4       _GetCurrentProcessId@0     1015caf4 f   kernel32:KERNEL32.dll
 0001:0015bafa       _GetSystemTimeAsFileTime@4 1015cafa f   kernel32:KERNEL32.dll
 0001:0015bb00       _DisableThreadLibraryCalls@4 1015cb00 f   kernel32:KERNEL32.dll
 0001:0015bb06       _MultiByteToWideChar@24    1015cb06 f   kernel32:KERNEL32.dll
 0001:0015bb0c       _WideCharToMultiByte@32    1015cb0c f   kernel32:KERNEL32.dll
 0001:0015bb12       _HeapAlloc@12              1015cb12 f   kernel32:KERNEL32.dll
 0001:0015bb18       _HeapFree@12               1015cb18 f   kernel32:KERNEL32.dll
 0001:0015bb1e       _GetProcessHeap@0          1015cb1e f   kernel32:KERNEL32.dll
 0001:0015bb24       _VirtualQuery@12           1015cb24 f   kernel32:KERNEL32.dll
 0001:0015bb2a       _GetCurrentProcess@0       1015cb2a f   kernel32:KERNEL32.dll
 0001:0015bb30       _TerminateProcess@8        1015cb30 f   kernel32:KERNEL32.dll
 0001:0015bb40       ___scrt_stub_for_acrt_initialize 1015cb40 f   MSVCRTD:ucrt_stubs.obj
 0001:0015bb40       ___vcrt_initialize         1015cb40 f   MSVCRTD:ucrt_stubs.obj
 0001:0015bb40       ___acrt_initialize         1015cb40 f   MSVCRTD:ucrt_stubs.obj
 0001:0015bb50       ___acrt_thread_attach      1015cb50 f   MSVCRTD:ucrt_stubs.obj
 0001:0015bb50       ___scrt_stub_for_acrt_thread_attach 1015cb50 f   MSVCRTD:ucrt_stubs.obj
 0001:0015bb50       ___vcrt_thread_attach      1015cb50 f   MSVCRTD:ucrt_stubs.obj
 0001:0015bb60       ___scrt_stub_for_acrt_thread_detach 1015cb60 f   MSVCRTD:ucrt_stubs.obj
 0001:0015bb60       ___vcrt_thread_detach      1015cb60 f   MSVCRTD:ucrt_stubs.obj
 0001:0015bb60       ___acrt_thread_detach      1015cb60 f   MSVCRTD:ucrt_stubs.obj
 0001:0015bb70       ___vcrt_uninitialize       1015cb70 f   MSVCRTD:ucrt_stubs.obj
 0001:0015bb70       ___acrt_uninitialize       1015cb70 f   MSVCRTD:ucrt_stubs.obj
 0001:0015bb70       ___scrt_stub_for_acrt_uninitialize 1015cb70 f   MSVCRTD:ucrt_stubs.obj
 0001:0015bb80       ___acrt_uninitialize_critical 1015cb80 f   MSVCRTD:ucrt_stubs.obj
 0001:0015bb80       ___scrt_stub_for_acrt_uninitialize_critical 1015cb80 f   MSVCRTD:ucrt_stubs.obj
 0001:0015bb80       ___vcrt_uninitialize_critical 1015cb80 f   MSVCRTD:ucrt_stubs.obj
 0001:0015bb90       __is_c_termination_complete 1015cb90 f   MSVCRTD:ucrt_stubs.obj
 0001:0015bb90       ___scrt_stub_for_is_c_termination_complete 1015cb90 f   MSVCRTD:ucrt_stubs.obj
 0002:00000000       ___xc_a                    10161000     MSVCRTD:initializers.obj
 0002:00000e00       ___xc_z                    10161e00     MSVCRTD:initializers.obj
 0002:00000f04       ___xi_a                    10161f04     MSVCRTD:initializers.obj
 0002:00001008       ___xi_z                    10162008     MSVCRTD:initializers.obj
 0002:0000110c       ___xp_a                    1016210c     MSVCRTD:initializers.obj
 0002:00001210       ___xp_z                    10162210     MSVCRTD:initializers.obj
 0002:00001314       ___xt_a                    10162314     MSVCRTD:initializers.obj
 0002:00001418       ___xt_z                    10162418     MSVCRTD:initializers.obj
 0002:00001520       ?MAX_LISTENER_COUNT@ErrorHandler@shdfnd@physx@@2IB 10162520     PsWindowsMemoryMappedFile.obj
 0002:00001524       ??_7PxFoundation@physx@@6B@ 10162524     PsWindowsMemoryMappedFile.obj
 0002:00001550       ??_C@_0BF@COMAHIMK@MemoryMappedFileImpl?$AA@ 10162550     PsWindowsMemoryMappedFile.obj
 0002:0000156c       ??_C@_0DL@HJOKOCAB@?4?4?2?4?4?2foundation?2src?2windows?2PsW@ 1016256c     PsWindowsMemoryMappedFile.obj
 0002:000015b4       ??_C@_0BK@KKGDMEEI@PhysX3CommonDEBUG_x64?4dll?$AA@ 101625b4     PsWindowsModuleUpdateLoader.obj
 0002:000015d4       ??_C@_0BM@FGKCIMCL@PhysX3CommonCHECKED_x64?4dll?$AA@ 101625d4     PsWindowsModuleUpdateLoader.obj
 0002:000015f8       ??_C@_0BM@NIMEGLC@PhysX3CommonPROFILE_x64?4dll?$AA@ 101625f8     PsWindowsModuleUpdateLoader.obj
 0002:0000161c       ??_C@_0BF@HEEMOJKO@PhysX3Common_x64?4dll?$AA@ 1016261c     PsWindowsModuleUpdateLoader.obj
 0002:00001638       ??_C@_0BK@LHJEBOBO@PhysX3CommonDEBUG_x86?4dll?$AA@ 10162638     PsWindowsModuleUpdateLoader.obj
 0002:00001658       ??_C@_0BM@ELFFFGHN@PhysX3CommonCHECKED_x86?4dll?$AA@ 10162658     PsWindowsModuleUpdateLoader.obj
 0002:0000167c       ??_C@_0BM@BAHLJMOE@PhysX3CommonPROFILE_x86?4dll?$AA@ 1016267c     PsWindowsModuleUpdateLoader.obj
 0002:000016a0       ??_C@_0BF@GJLLDDPI@PhysX3Common_x86?4dll?$AA@ 101626a0     PsWindowsModuleUpdateLoader.obj
 0002:000016bc       ??_C@_0BK@FCFCOGBN@PhysX3CommonDEBUG_arm?4dll?$AA@ 101626bc     PsWindowsModuleUpdateLoader.obj
 0002:000016dc       ??_C@_0BM@KOJDKOHO@PhysX3CommonCHECKED_arm?4dll?$AA@ 101626dc     PsWindowsModuleUpdateLoader.obj
 0002:00001700       ??_C@_0BM@PFLNGEOH@PhysX3CommonPROFILE_arm?4dll?$AA@ 10162700     PsWindowsModuleUpdateLoader.obj
 0002:00001724       ??_C@_0BF@IMHNMLPL@PhysX3Common_arm?4dll?$AA@ 10162724     PsWindowsModuleUpdateLoader.obj
 0002:00001740       ??_C@_0BB@CPDDPFKD@GetUpdatedModule?$AA@ 10162740     PsWindowsModuleUpdateLoader.obj
 0002:00001758       ??_C@_0EF@CDCIFOOI@Mutex?5must?5be?5unlocked?5only?5by?5t@ 10162758     PsWindowsMutex.obj
 0002:000017ac       ??_C@_0DA@FAMEPBEB@?4?4?2?4?4?2foundation?2src?2windows?2PsW@ 101627ac     PsWindowsMutex.obj
 0002:000017e8       ??_C@_0BC@GNIIFCOL@ReadWriteLockImpl?$AA@ 101627e8     PsWindowsMutex.obj
 0002:00001800       ??_C@_0EL@IDMCJNCA@c?3?2physx?5sdk?2physx?93?43?9master?2ph@ 10162800     PsWindowsMutex.obj
 0002:0000185c       ??_C@_0BM@OIFKLHDN@?$DMallocation?5names?5disabled?$DO?$AA@ 1016285c     PsWindowsMutex.obj
 0002:00001880       ??_C@_0DF@KNPIDOCL@?4?4?2?4?4?2foundation?2src?2windows?2PsW@ 10162880     PsWindowsPAEventSrc.obj
 0002:000018c0       ??_C@_0EM@NPLJPKIB@The?5AGPerfMON?5DLL?5does?5not?5conta@ 101628c0     PsWindowsPAEventSrc.obj
 0002:0000191c       ??_C@_09KKJFIDEP@NTDLL?4DLL?$AA@ 1016291c     PsWindowsPAEventSrc.obj
 0002:00001928       ??_C@_0BJ@HKKELGGC@NtQueryInformationThread?$AA@ 10162928     PsWindowsPAEventSrc.obj
 0002:00001948       ??_C@_0BC@PJLEJAOL@AgPerfMon_x86?4dll?$AA@ 10162948     PsWindowsPAEventSrc.obj
 0002:00001960       ??_C@_0BL@DDAKOMJB@AgPmCreateSourceConnection?$AA@ 10162960     PsWindowsPAEventSrc.obj
 0002:00001980       ??_C@_0BM@OHHNIHIM@AgPmDestroySourceConnection?$AA@ 10162980     PsWindowsPAEventSrc.obj
 0002:000019a4       ??_C@_0BC@DFOHHJHM@AgPmRegisterEvent?$AA@ 101629a4     PsWindowsPAEventSrc.obj
 0002:000019bc       ??_C@_0BA@GDHBLAIH@AgPmSubmitEvent?$AA@ 101629bc     PsWindowsPAEventSrc.obj
 0002:000019d0       ??_C@_0BN@BFGBHLJA@AgPmSubmitEventWithTimestamp?$AA@ 101629d0     PsWindowsPAEventSrc.obj
 0002:000019f4       ??_C@_0CD@CADILMFD@AgPmSubmitEventWithTimestampUnsa@ 101629f4     PsWindowsPAEventSrc.obj
 0002:00001a20       ??_C@_0BE@GFJBJNMP@AgPmSubmitEventLock?$AA@ 10162a20     PsWindowsPAEventSrc.obj
 0002:00001a38       ??_C@_0BG@DKGMIMMC@AgPmSubmitEventUnlock?$AA@ 10162a38     PsWindowsPAEventSrc.obj
 0002:00001a54       ??_C@_0BB@BBBCLILL@AgPmEventEnabled?$AA@ 10162a54     PsWindowsPAEventSrc.obj
 0002:00001a68       ??_C@_0BI@OBLMKHMO@AgPmEventLoggingEnabled?$AA@ 10162a68     PsWindowsPAEventSrc.obj
 0002:00001a88       ??_C@_0HF@GCOFMDCL@The?5AGPerfMON?5DLL?5does?5not?5conta@ 10162a88     PsWindowsPAEventSrc.obj
 0002:00001b18       ??_C@_0EG@BIIDHCKE@The?5AGPerfMON?5DLL?5was?5not?5able?5t@ 10162b18     PsWindowsPAEventSrc.obj
 0002:00001b6c       ??_C@_01EEMJAFIK@?6?$AA@   10162b6c     PsWindowsPrintString.obj
 0002:00001b74       ?DEFAULT_BUFFER_SIZE@Socket@shdfnd@physx@@2IB 10162b74     PsWindowsSocket.obj
 0002:00001b78       ??_7Socket@shdfnd@physx@@6B@ 10162b78     PsWindowsSocket.obj
 0002:00001b7c       ??_7Runnable@shdfnd@physx@@6B@ 10162b7c     PsWindowsSocket.obj
 0002:00001b88       ??_7?$ThreadT@V?$ReflectionAllocator@VThreadImpl@shdfnd@physx@@@shdfnd@physx@@@shdfnd@physx@@6B@ 10162b88     PsWindowsSocket.obj
 0002:00001b94       ??_7SocketImpl@shdfnd@physx@@6B@ 10162b94     PsWindowsSocket.obj
 0002:00001ba8       ??_7BufferedSocketImpl@shdfnd@physx@@6B@ 10162ba8     PsWindowsSocket.obj
 0002:00001bbc       ??_C@_0BD@KMBMAPOF@BufferedSocketImpl?$AA@ 10162bbc     PsWindowsSocket.obj
 0002:00001bd4       ??_C@_0DB@HGEALNHB@?4?4?2?4?4?2foundation?2src?2windows?2PsW@ 10162bd4     PsWindowsSocket.obj
 0002:00001c10       ??_C@_0L@PFIMNOMP@SocketImpl?$AA@ 10162c10     PsWindowsSocket.obj
 0002:00001c20       ??_C@_0EM@PIGMJNPC@C?3?2PhysX?5SDK?2PhysX?93?43?9master?2Ph@ 10162c20     PsWindowsSocket.obj
 0002:00001c7c       ?waitForever@SyncImpl@shdfnd@physx@@2IB 10162c7c     PsWindowsSync.obj
 0002:00001c88       ??_C@_0BP@KHGALBC@GetLogicalProcessorInformation?$AA@ 10162c88     PsWindowsThread.obj
 0002:00001cb0       ??_C@_08PNLNEKOB@kernel32?$AA@ 10162cb0     PsWindowsThread.obj
 0002:00001cbc       ??_C@_0DB@OEAPNBAD@?4?4?2?4?4?2foundation?2src?2windows?2PsW@ 10162cbc     PsWindowsThread.obj
 0002:00001cf8       ??_C@_0M@EKJPNJAD@rc?5?$DN?$DN?5FALSE?$AA@ 10162cf8     PsWindowsThread.obj
 0002:00001d08       ??_C@_0DN@IFPBEEGJ@Error?5querying?5buffer?5size?5for?5n@ 10162d08     PsWindowsThread.obj
 0002:00001d54       ??_C@_0CN@ELPPFLE@Error?5querying?5number?5of?5physica@ 10162d54     PsWindowsThread.obj
 0002:00001d8c       ??_C@_0BH@PLOIAFPM@rv?$CB?$DNTLS_OUT_OF_INDEXES?$AA@ 10162d8c     PsWindowsThread.obj
 0002:00001da8       ?sNumTensOfNanoSecondsInASecond@Time@shdfnd@physx@@2_KB 10162da8     PsWindowsTime.obj
 0002:00001db8       __real@3ff0000000000000    10162db8     PsWindowsTime.obj
 0002:00001dc4       ??_C@_0BA@DLCJDKDM@NonTrackedAlloc?$AA@ 10162dc4     PsAllocator.obj
 0002:00001dd8       ??_C@_0CF@LCBCFEI@?4?4?2?4?4?2foundation?2src?2PsAllocator@ 10162dd8     PsAllocator.obj
 0002:00001e04       ??_C@_01KGKMHCOC@e?$AA@    10162e04     PsAllocator.obj
 0002:00001e08       ??_C@_06GPKCBJOO@erased?$AA@ 10162e08     PsAllocator.obj
 0002:00001e10       ??_C@_00CNPNBAHC@?$AA@     10162e10     PsAllocator.obj
 0002:00001e18       ??_C@_0FD@HFOAEJAL@c?3?2physx?5sdk?2physx?93?43?9master?2ph@ 10162e18     PsAllocator.obj
 0002:00001e80       ??_C@_0EK@CFJIEPPJ@?$CImFreeList?5?$DN?$DN?5EOL?$CJ?5?$HM?$HM?5?$CIcompactin@ 10162e80     PsAllocator.obj
 0002:00001ed8       ??_C@_09PJMFFBHC@?$CKptr?$CB?$DNEOL?$AA@ 10162ed8     PsAllocator.obj
 0002:00001ee4       ??_C@_0BB@GDPMDOF@?$CBfreeListEmpty?$CI?$CJ?$AA@ 10162ee4     PsAllocator.obj
 0002:00001ef8       ??_C@_0BL@DHJNKJLG@mFreeList?5?$DN?$DN?5mEntriesCount?$AA@ 10162ef8     PsAllocator.obj
 0002:00001f18       ??_C@_0BB@NINNBHIG@?$CB?$CIsize?$CG?$CIsize?91?$CJ?$CJ?$AA@ 10162f18     PsAllocator.obj
 0002:00001f2c       ??_C@_09LAGLDPIH@newBuffer?$AA@ 10162f2c     PsAllocator.obj
 0002:00001f38       ??_C@_0BE@JIMKLMPE@index?5?$CB?$DN?5newHash?$FLh?$FN?$AA@ 10162f38     PsAllocator.obj
 0002:00001f50       ??_C@_0BD@IHJIMOLE@mFreeList?5?$CB?$DN?5end?91?$AA@ 10162f50     PsAllocator.obj
 0002:00001f70       __xmm@41f00000000000000000000000000000 10162f70     PsAllocator.obj
 0002:00001f84       ??_7PxAssertHandler@physx@@6B@ 10162f84     PsAssert.obj
 0002:00001f90       ??_7DefaultAssertHandler@?A0x8c7671c9@@6B@ 10162f90     PsAssert.obj
 0002:00001f9c       ??_C@_0BP@EFIHDDDE@?$CFs?$CI?$CFd?$CJ?5?3?5Assertion?5failed?3?5?$CFs?6?$AA@ 10162f9c     PsAssert.obj
 0002:00001fc4       ??_C@_02DKCKIIND@?$CFs?$AA@ 10162fc4     PsAssert.obj
 0002:00001fc8       ??_C@_0EO@EEMGCKKO@C?3?2PhysX?5SDK?2PhysX?93?43?9master?2Ph@ 10162fc8     PsErrorHandler.obj
 0002:00002028       ??_C@_01FJMABOPO@x?$AA@    10163028     PsErrorHandler.obj
 0002:0000202c       ??_C@_0CI@FFMBLLDA@?4?4?2?4?4?2foundation?2src?2PsErrorHand@ 1016302c     PsErrorHandler.obj
 0002:0000205c       ??_C@_0BD@LKAAOGCF@reserveBitmap?5?$CB?$DN?50?$AA@ 1016305c     PsErrorHandler.obj
 0002:00002074       ??_7PxIPC@shdfnd@physx@@6B@ 10163074     PsFastIPC.obj
 0002:000020a0       ??_C@_0FA@HBEDHBFL@C?3?2PhysX?5SDK?2PhysX?93?43?9master?2Ph@ 101630a0     PsFastIPC.obj
 0002:00002100       ??_C@_0N@MNDLPGEI@bufferSize?$DO0?$AA@ 10163100     PsFastIPC.obj
 0002:00002110       ??_C@_04ENMBGAPA@char?$AA@ 10163110     PsFastIPC.obj
 0002:00002118       ??_C@_0M@NPMOIPEP@data_len?$CB?$DN0?$AA@ 10163118     PsFastIPC.obj
 0002:00002128       ??_C@_0BF@KPHBIJBP@mReceiveData?5?$DN?$DN?5NULL?$AA@ 10163128     PsFastIPC.obj
 0002:00002144       ??_C@_0N@HNGBLCMB@mReceiveData?$AA@ 10163144     PsFastIPC.obj
 0002:00002154       ??_C@_0O@HBMLBDFN@data_len?5?$CB?$DN?50?$AA@ 10163154     PsFastIPC.obj
 0002:00002164       ??_C@_0M@KOODBCLE@ret?$DN?$DNMT_APP?$AA@ 10163164     PsFastIPC.obj
 0002:00002174       ??_C@_0BL@DGFMCPHK@mReceiveData?9?$DOisFinished?$CI?$CJ?$AA@ 10163174     PsFastIPC.obj
 0002:00002198       ??_C@_1KA@JAJBANPH@?$AAC?$AA?3?$AA?2?$AAP?$AAh?$AAy?$AAs?$AAX?$AA?5?$AAS?$AAD?$AAK?$AA?2?$AAP?$AAh?$AAy?$AAs?$AAX?$AA?9?$AA3?$AA?4?$AA3?$AA?9?$AAm?$AAa?$AAs?$AAt?$AAe?$AAr?$AA?2?$AAP?$AAh@ 10163198     PsFastIPC.obj
 0002:00002258       ??_C@_1BO@NJJMPLLH@?$AAt?$AAy?$AAp?$AAe?$AA?5?$AA?$CB?$AA?$DN?$AA?5?$AAM?$AAT?$AA_?$AAA?$AAP?$AAP?$AA?$AA@ 10163258     PsFastIPC.obj
 0002:0000227c       ??_C@_0BE@NHAINPOB@dataLen?5?$DM?$DN?5mDataLen?$AA@ 1016327c     PsFastIPC.obj
 0002:00002294       ??_C@_0L@EJGPBDCN@mDataWrite?$AA@ 10163294     PsFastIPC.obj
 0002:000022a4       ??_C@_1CI@BKGBOENM@?$AAm?$AAE?$AAr?$AAr?$AAo?$AAr?$AAC?$AAo?$AAd?$AAe?$AA?5?$AA?$DN?$AA?$DN?$AA?5?$AAE?$AAC?$AA_?$AAO?$AAK?$AA?$AA@ 101632a4     PsFastIPC.obj
 0002:000022d4       ??_C@_0DC@GFPFIBLL@writeAddress?5?$DM?5?$CImBufferSize?9size@ 101632d4     PsFastIPC.obj
 0002:00002310       ??_C@_0CF@LHILFFAD@?$CIreadAddress?$CLdataLen?$CJ?5?$DM?$DN?5mBuffer@ 10163310     PsFastIPC.obj
 0002:0000233c       ??_C@_0BM@KLAHKBFF@?$CKmReadAddress?5?$DM?5mBufferSize?$AA@ 1016333c     PsFastIPC.obj
 0002:00002360       ??_C@_0BN@FODJNGLD@?$CKmWriteAddress?5?$DM?5mBufferSize?$AA@ 10163360     PsFastIPC.obj
 0002:00002384       ??_7FastIPC@shdfnd@physx@@6B@ 10163384     PsFastIPC.obj
 0002:000023b0       ??_C@_0CD@BHELJLFF@?4?4?2?4?4?2foundation?2src?2PsFastIPC?4c@ 101633b0     PsFastIPC.obj
 0002:000023dc       ??_C@_07FCMBNOEH@mWriter?$AA@ 101633dc     PsFastIPC.obj
 0002:000023e8       ??_C@_07HOEDNPJN@mReader?$AA@ 101633e8     PsFastIPC.obj
 0002:0000243c       ??_C@_04GJOGLFEJ@?$CGlt?$DL?$AA@ 1016343c     PsFastXml.obj
 0002:00002444       ??_C@_05JKJFEODM@?$CGamp?$DL?$AA@ 10163444     PsFastXml.obj
 0002:0000244c       ??_C@_04LOOHDCEI@?$CGgt?$DL?$AA@ 1016344c     PsFastXml.obj
 0002:00002454       ??_C@_06DDLNFFBN@?$CGquot?$DL?$AA@ 10163454     PsFastXml.obj
 0002:0000245c       ??_C@_06PNMEMOHD@?$CGapos?$DL?$AA@ 1016345c     PsFastXml.obj
 0002:00002464       ??_7FastXml@shdfnd@physx@@6B@ 10163464     PsFastXml.obj
 0002:00002478       ??_7MyFastXml@?A0x376bbd1f@@6B@ 10163478     PsFastXml.obj
 0002:0000248c       ??_C@_03PJHHNEEI@xml?$AA@  1016348c     PsFastXml.obj
 0002:00002490       ??_C@_0CB@OICNKAFC@User?5aborted?5the?5parsing?5process@ 10163490     PsFastXml.obj
 0002:000024b8       ??_C@_0CD@JIBENJJB@?4?4?2?4?4?2foundation?2src?2PsFastXml?4c@ 101634b8     PsFastXml.obj
 0002:000024e4       ??_C@_01GBGANLPD@0?$AA@    101634e4     PsFastXml.obj
 0002:000024e8       ??_C@_0N@BEABIJND@mOpenCount?$DO0?$AA@ 101634e8     PsFastXml.obj
 0002:000024f8       ??_C@_03PNLDJJMO@?9?9?$DO?$AA@ 101634f8     PsFastXml.obj
 0002:000024fc       ??_C@_0DG@FBEFPMIN@Data?5portion?5of?5an?5element?5wasn?8@ 101634fc     PsFastXml.obj
 0002:0000253c       ??_C@_0CD@DGNEBNCH@Open?5and?5closing?5tags?5do?5not?5mat@ 1016353c     PsFastXml.obj
 0002:00002568       ??_C@_0BE@JGHDDPMB@scan?5?$DO?$DN?5mReadBuffer?$AA@ 10163568     PsFastXml.obj
 0002:00002580       ??_C@_07JGKBCNAA@DOCTYPE?$AA@ 10163580     PsFastXml.obj
 0002:0000258c       ??_C@_0BA@NOIEEIDL@Invalid?5DOCTYPE?$AA@ 1016358c     PsFastXml.obj
 0002:000025a0       ??_C@_0CA@DFOKEHEE@encountered?5too?5many?5attributes?$AA@ 101635a0     PsFastXml.obj
 0002:000025c8       ??_C@_0CL@IMALDHHH@Failed?5to?5find?5closing?5quote?5for@ 101635c8     PsFastXml.obj
 0002:000025fc       ??_C@_0BE@OMJLDAGM@Invalid?5file?5format?$AA@ 101635fc     PsFastXml.obj
 0002:00002614       ??_C@_0CG@HHHDBDCD@mStackIndex?5?$DM?5?$CIphysx?3?3PxU32?$CJMAX_@ 10163614     PsFastXml.obj
 0002:00002644       ??_C@_0O@IDAHFMJJ@mStackIndex?$DO0?$AA@ 10163644     PsFastXml.obj
 0002:00002654       ??_7PxAllocatorCallback@physx@@6B@ 10163654     PsFoundation.obj
 0002:00002664       ??_7PxBroadcastingAllocator@physx@@6B@ 10163664     PsFoundation.obj
 0002:0000267c       ??_7AlignCheckAllocator@Foundation@shdfnd@physx@@6B@ 1016367c     PsFoundation.obj
 0002:00002694       ??_7Foundation@shdfnd@physx@@6B@ 10163694     PsFoundation.obj
 0002:000026c0       ??_C@_0FA@FOEGCCDH@c?3?2physx?5sdk?2physx?93?43?9master?2ph@ 101636c0     PsFoundation.obj
 0002:00002720       ??_C@_0CE@DDLAAJOB@mListenerCount?5?$DM?5MAX_LISTENER_CO@ 10163720     PsFoundation.obj
 0002:0000274c       ??_C@_0BI@HKOIKGON@Foundation?3?3mErrorMutex?$AA@ 1016374c     PsFoundation.obj
 0002:00002768       ??_C@_0BN@NBAOJKHL@Foundation?3?3mNamedAllocMutex?$AA@ 10163768     PsFoundation.obj
 0002:0000278c       ??_C@_0BM@LHNNBHFJ@Foundation?3?3mTempAllocMutex?$AA@ 1016378c     PsFoundation.obj
 0002:000027b0       ??_C@_0CG@BMKONEAC@?4?4?2?4?4?2foundation?2src?2PsFoundatio@ 101637b0     PsFoundation.obj
 0002:000027e0       ??_C@_0P@HHLOAIGO@callbackIdx?$DN?$DN0?$AA@ 101637e0     PsFoundation.obj
 0002:000027f4       ??_C@_09OPLPKOKL@mInstance?$AA@ 101637f4     PsFoundation.obj
 0002:00002800       ??_C@_0BC@OGMCOOJN@mInstance?5?$CB?$DN?5NULL?$AA@ 10163800     PsFoundation.obj
 0002:00002818       ??_C@_0L@PMGFAJF@messageFmt?$AA@ 10163818     PsFoundation.obj
 0002:00002828       ??_C@_0EE@HLMNBHHJ@Wrong?5version?3?5foundation?5versio@ 10163828     PsFoundation.obj
 0002:0000287c       ??_C@_0L@LLOEHGOK@Foundation?$AA@ 1016387c     PsFoundation.obj
 0002:0000288c       ??_C@_0P@DHKJKNDE@mRefCount?5?$DN?$DN?50?$AA@ 1016388c     PsFoundation.obj
 0002:000028a0       ??_C@_0DA@CNIIACOI@Memory?5allocation?5for?5foundation@ 101638a0     PsFoundation.obj
 0002:000028e0       ??_C@_0FA@BDOLCCKE@Foundation?5object?5exists?5already@ 101638e0     PsFoundation.obj
 0002:00002940       ??_C@_0GL@CPBKAIEN@Foundation?5destruction?5failed?5du@ 10163940     PsFoundation.obj
 0002:000029c0       ??_C@_0CL@BGGAJOAL@Foundation?3?5Invalid?5registration@ 101639c0     PsFoundation.obj
 0002:000029f4       ??_C@_0CN@HIKEAJOE@Foundation?3?5Invalid?5deregistrati@ 101639f4     PsFoundation.obj
 0002:00002a2c       ??_C@_0BO@FEGALDIG@User?5allocator?5returned?5NULL?4?$AA@ 10163a2c     PsFoundation.obj
 0002:00002a50       ??_C@_0CP@BEECKDMG@Allocations?5for?5PhysX?5must?5be?516@ 10163a50     PsFoundation.obj
 0002:00002a88       ??_C@_0EL@IKKPJEFJ@c?3?2physx?5sdk?2physx?93?43?9master?2ph@ 10163a88     PsFoundation.obj
 0002:00002ae4       ??_C@_09GCLCCGEM@i?5?$DM?5mSize?$AA@ 10163ae4     PsFoundation.obj
 0002:00002af0       ??_C@_08DELPPNON@hashBase?$AA@ 10163af0     PsFoundation.obj
 0002:00002afc       ??_C@_0CP@CPGGIPKL@?$CI?$CBcapacity?$CJ?5?$HM?$HM?5?$CInewData?5?$CG?$CG?5?$CInewD@ 10163afc     PsFoundation.obj
 0002:00002b34       ??_C@_0BM@BMFMDKFG@this?9?$DOcapacity?$CI?$CJ?5?$DM?5capacity?$AA@ 10163b34     PsFoundation.obj
 0002:00002b58       __real@3f400000            10163b58     PsFoundation.obj
 0002:00002b60       ??_C@_0ED@CLCLIBCL@C?3?2PhysX?5SDK?2PhysX?93?43?9master?2Ph@ 10163b60     PsMathUtils.obj
 0002:00002bb0       ??_C@_0BF@NNGJDGAP@index?$DO?$DN0?5?$CG?$CG?5index?$DM?$DN2?$AA@ 10163bb0     PsMathUtils.obj
 0002:00002bcc       ??_C@_08LJALFGJN@index?$DM?$DN2?$AA@ 10163bcc     PsMathUtils.obj
 0002:00002bd8       ??_C@_0ED@JBFJIONK@C?3?2PhysX?5SDK?2PhysX?93?43?9master?2Ph@ 10163bd8     PsMathUtils.obj
 0002:00002c28       ??_C@_0CH@HHAIKLMJ@PxAbs?$CI1?40f?9unitAxis?4magnitude?$CI?$CJ?$CJ@ 10163c28     PsMathUtils.obj
 0002:00002c58       ??_C@_0ED@BLKPMIDI@C?3?2PhysX?5SDK?2PhysX?93?43?9master?2Ph@ 10163c58     PsMathUtils.obj
 0002:00002ca8       ??_C@_06EDEMIEBC@lo?$DM?$DNhi?$AA@ 10163ca8     PsMathUtils.obj
 0002:00002cb0       __real@00000000            10163cb0     PsMathUtils.obj
 0002:00002cb4       __real@24e69595            10163cb4     PsMathUtils.obj
 0002:00002cb8       __real@322bcc77            10163cb8     PsMathUtils.obj
 0002:00002cbc       __real@3a83126f            10163cbc     PsMathUtils.obj
 0002:00002cc0       __real@3f000000            10163cc0     PsMathUtils.obj
 0002:00002cc4       __real@3f7ff972            10163cc4     PsMathUtils.obj
 0002:00002cc8       __real@3f800000            10163cc8     PsMathUtils.obj
 0002:00002ccc       __real@40490fdb            10163ccc     PsMathUtils.obj
 0002:00002cd0       __real@bf7ff972            10163cd0     PsMathUtils.obj
 0002:00002cd4       __real@bf800000            10163cd4     PsMathUtils.obj
 0002:00002ce0       __xmm@80000000800000008000000080000000 10163ce0     PsMathUtils.obj
 0002:00002cf8       ??_C@_0EO@GEGPKECC@c?3?2physx?5sdk?2physx?93?43?9master?2ph@ 10163cf8     PsTempAllocator.obj
 0002:00002d58       ??_C@_0CJ@EAPPIAOK@?4?4?2?4?4?2foundation?2src?2PsTempAlloc@ 10163d58     PsTempAllocator.obj
 0002:00002d8c       ??_C@_0BJ@DLCOLAI@?$CIsize_t?$CIret?$CJ?5?$CG?50xf?$CJ?5?$DN?$DN?50?$AA@ 10163d8c     PsTempAllocator.obj
 0002:00002db0       ??_C@_0EL@BKMLHFN@C?3?2PhysX?5SDK?2PhysX?93?43?9master?2Ph@ 10163db0     PsTempAllocator.obj
 0002:00002e0c       ??_7PxCollection@physx@@6B@ 10163e0c     CmCollection.obj
 0002:00002e58       ??_7Collection@Cm@physx@@6B@ 10163e58     CmCollection.obj
 0002:00002ea8       ??_C@_0GE@GBACBMOC@PxCollection?3?3add?5called?5for?5an?5@ 10163ea8     CmCollection.obj
 0002:00002f20       ??_C@_0CC@IADNGPGM@?4?4?2?4?4?2Common?2src?2CmCollection?4cp@ 10163f20     CmCollection.obj
 0002:00002f48       ??_C@_0EM@OMMGDOMK@PxCollection?3?3add?5called?5with?5an@ 10163f48     CmCollection.obj
 0002:00002fa8       ??_C@_0EL@CBFFIHFG@PxCollection?3?3remove?5called?5for?5@ 10163fa8     CmCollection.obj
 0002:00003008       ??_C@_0EP@DBNENNLL@PxCollection?3?3addId?5called?5for?5o@ 10164008     CmCollection.obj
 0002:00003068       ??_C@_0FL@DACPFKDD@PxCollection?3?3addId?5called?5with?5@ 10164068     CmCollection.obj
 0002:000030d8       ??_C@_0EP@GMPAMDKI@PxCollection?3?3addId?5called?5with?5@ 101640d8     CmCollection.obj
 0002:00003138       ??_C@_0FO@DIHIGAFD@PxCollection?3?3removeId?5called?5wi@ 10164138     CmCollection.obj
 0002:000031a8       ??_C@_0FF@MENHIPMD@PxCollection?3?3removeId?5called?5wi@ 101641a8     CmCollection.obj
 0002:00003210       ??_C@_0FK@BAFICJEM@PxCollection?3?3find?5called?5with?5P@ 10164210     CmCollection.obj
 0002:0000327c       ??_C@_0DF@CLGAFPLL@PxCollection?3?3add?$CIPxCollection?$CG?$CJ@ 1016427c     CmCollection.obj
 0002:000032bc       ??_C@_0DN@DMJACFO@PxCollection?3?3add?$CIPxCollection?$CG?$CJ@ 101642bc     CmCollection.obj
 0002:00003308       ??_C@_0DI@DICAIAPC@PxCollection?3?3remove?$CIPxCollectio@ 10164308     CmCollection.obj
 0002:0000334c       ??_C@_0BI@JDDBPHIO@index?5?$DM?5mObjects?4size?$CI?$CJ?$AA@ 1016434c     CmCollection.obj
 0002:00003368       ??_C@_0DG@LOILDLGN@PxCollection?3?3getObjects?5called?5@ 10164368     CmCollection.obj
 0002:000033a8       ??_C@_0DD@GMICJLDJ@PxCollection?3?3getObjects?5called?5@ 101643a8     CmCollection.obj
 0002:000033e8       ??_C@_0DC@GILGGBAI@PxCollection?3?3getIds?5called?5with@ 101643e8     CmCollection.obj
 0002:00003424       ??_C@_0CP@LFEKADKN@PxCollection?3?3getIds?5called?5with@ 10164424     CmCollection.obj
 0002:0000345c       ??_C@_0BP@BKFDLDDE@mTimestamp?5?$DN?$DN?5mBase?4mTimestamp?$AA@ 1016445c     CmCollection.obj
 0002:00003484       ??_C@_0BA@MIBLHBGK@Basic?4collision?$AA@ 10164484     CmEventProfiler.obj
 0002:00003498       ??_C@_0BB@CNNNIIKB@Basic?4broadPhase?$AA@ 10164498     CmEventProfiler.obj
 0002:000034ac       ??_C@_0BC@JMIHPGJA@Basic?4narrowPhase?$AA@ 101644ac     CmEventProfiler.obj
 0002:000034c4       ??_C@_0BG@GJLJHLKK@Basic?4rigidBodySolver?$AA@ 101644c4     CmEventProfiler.obj
 0002:000034e0       ??_C@_0BA@HGKFBHPH@Basic?4islandGen?$AA@ 101644e0     CmEventProfiler.obj
 0002:000034f4       ??_C@_0P@LCFKDIEP@Basic?4dynamics?$AA@ 101644f4     CmEventProfiler.obj
 0002:00003508       ??_C@_0BE@CABHADLK@Basic?4pvdFrameStart?$AA@ 10164508     CmEventProfiler.obj
 0002:00003520       ??_C@_0P@FCMKHNLB@Basic?4simulate?$AA@ 10164520     CmEventProfiler.obj
 0002:00003534       ??_C@_0BD@JOGLKFKJ@Basic?4checkResults?$AA@ 10164534     CmEventProfiler.obj
 0002:0000354c       ??_C@_0BF@LGFKGEBC@Basic?4checkCollision?$AA@ 1016454c     CmEventProfiler.obj
 0002:00003568       ??_C@_0BD@ELBODAJK@Basic?4fetchResults?$AA@ 10164568     CmEventProfiler.obj
 0002:00003580       ??_C@_0BF@LJCIBDL@?4API?4flushSimulation?$AA@ 10164580     CmEventProfiler.obj
 0002:0000359c       ??_C@_0BH@PCMHPPAG@?4API?4flushQueryUpdates?$AA@ 1016459c     CmEventProfiler.obj
 0002:000035b8       ??_C@_0O@EIEDIKON@?4API?4addActor?$AA@ 101645b8     CmEventProfiler.obj
 0002:000035c8       ??_C@_0P@NKOBPHHK@?4API?4addActors?$AA@ 101645c8     CmEventProfiler.obj
 0002:000035dc       ??_C@_0BB@KMKGGDIE@?4API?4removeActor?$AA@ 101645dc     CmEventProfiler.obj
 0002:000035f0       ??_C@_0BC@OOGLMLGP@?4API?4removeActors?$AA@ 101645f0     CmEventProfiler.obj
 0002:00003608       ??_C@_0BC@DPBMBOGL@?4API?4addAggregate?$AA@ 10164608     CmEventProfiler.obj
 0002:00003620       ??_C@_0BF@FLGPGMAF@?4API?4removeAggregate?$AA@ 10164620     CmEventProfiler.obj
 0002:0000363c       ??_C@_0BF@CEDAHEOM@?4API?4addArticulation?$AA@ 1016463c     CmEventProfiler.obj
 0002:00003658       ??_C@_0BI@LCHMKJFA@?4API?4removeArticulation?$AA@ 10164658     CmEventProfiler.obj
 0002:00003674       ??_C@_0BD@BNILPGGG@?4API?4addCollection?$AA@ 10164674     CmEventProfiler.obj
 0002:0000368c       ??_C@_0BH@DBNJDACL@?4API?4addParticleSystem?$AA@ 1016468c     CmEventProfiler.obj
 0002:000036a8       ??_C@_0BK@IBMLOJLK@?4API?4removeParticleSystem?$AA@ 101646a8     CmEventProfiler.obj
 0002:000036c8       ??_C@_0BG@FHCIAMCP@?4API?4addParticleFluid?$AA@ 101646c8     CmEventProfiler.obj
 0002:000036e4       ??_C@_0BJ@JFGJLPFF@?4API?4removeParticleFluid?$AA@ 101646e4     CmEventProfiler.obj
 0002:00003704       ??_C@_0O@KAJNNKOD@?4API?4addCloth?$AA@ 10164704     CmEventProfiler.obj
 0002:00003714       ??_C@_0BB@EEHIDDIK@?4API?4removeCloth?$AA@ 10164714     CmEventProfiler.obj
 0002:00003728       ??_C@_0BG@HFDIJLP@?4API?4createBatchQuery?$AA@ 10164728     CmEventProfiler.obj
 0002:00003744       ??_C@_0BH@NFMEGCFI@?4API?4releaseBatchQuery?$AA@ 10164744     CmEventProfiler.obj
 0002:00003760       ??_C@_0BN@NHLFGIND@?4API?4forceDynamicTreeRebuild?$AA@ 10164760     CmEventProfiler.obj
 0002:00003784       ??_C@_0BB@BIDPKBFO@?4API?4shiftOrigin?$AA@ 10164784     CmEventProfiler.obj
 0002:00003798       ??_C@_0BD@NKEMEMNB@?4API?4addActorToSim?$AA@ 10164798     CmEventProfiler.obj
 0002:000037b0       ??_C@_0BI@EIALDOIM@?4API?4removeActorFromSim?$AA@ 101647b0     CmEventProfiler.obj
 0002:000037cc       ??_C@_0BE@LODGKFBP@?4API?4addShapesToSim?$AA@ 101647cc     CmEventProfiler.obj
 0002:000037e4       ??_C@_0BJ@JAKJJECM@?4API?4removeShapesFromSim?$AA@ 101647e4     CmEventProfiler.obj
 0002:00003804       ??_C@_0BD@BJCJKOGM@?4API?4addShapesToSQ?$AA@ 10164804     CmEventProfiler.obj
 0002:0000381c       ??_C@_0BI@DCBFBMBB@?4API?4removeShapesFromSQ?$AA@ 1016481c     CmEventProfiler.obj
 0002:00003838       ??_C@_0BN@ECHOGGPB@?4API?4simAddShapeToBroadPhase?$AA@ 10164838     CmEventProfiler.obj
 0002:0000385c       ??_C@_0BM@NFHNBMHI@?4API?4findAndReplaceWithLast?$AA@ 1016485c     CmEventProfiler.obj
 0002:00003880       ??_C@_0BH@BJKEIFKF@Sim?4updateDirtyShaders?$AA@ 10164880     CmEventProfiler.obj
 0002:0000389c       ??_C@_0BH@DMPCGCE@Sim?4taskFrameworkSetup?$AA@ 1016489c     CmEventProfiler.obj
 0002:000038b8       ??_C@_0BG@DNHCGIKJ@Sim?4resetDependencies?$AA@ 101648b8     CmEventProfiler.obj
 0002:000038d4       ??_C@_0BE@CAIIKOJC@Sim?4solveQueueTasks?$AA@ 101648d4     CmEventProfiler.obj
 0002:000038ec       ??_C@_0BG@KMFIHMN@Sim?4collideQueueTasks?$AA@ 101648ec     CmEventProfiler.obj
 0002:00003908       ??_C@_0BG@DJLFLABI@Sim?4stepSetupSimulate?$AA@ 10164908     CmEventProfiler.obj
 0002:00003924       ??_C@_0BD@JJMKFKDH@Sim?4stepSetupSolve?$AA@ 10164924     CmEventProfiler.obj
 0002:0000393c       ??_C@_0BF@FANAHMLK@Sim?4stepSetupCollide?$AA@ 1016493c     CmEventProfiler.obj
 0002:00003958       ??_C@_0BL@LELOEGFN@?4Sim?4projectionTreeUpdates?$AA@ 10164958     CmEventProfiler.obj
 0002:00003978       ??_C@_0BH@LNNOBOLE@Sim?4processNewOverlaps?$AA@ 10164978     CmEventProfiler.obj
 0002:00003994       ??_C@_0BI@JLHCBPCB@Sim?4processLostOverlaps?$AA@ 10164994     CmEventProfiler.obj
 0002:000039b0       ??_C@_0BE@CIIPCGID@Sim?4processTriggers?$AA@ 101649b0     CmEventProfiler.obj
 0002:000039c8       ??_C@_0BF@NDJOFMEP@Sim?4queueNarrowPhase?$AA@ 101649c8     CmEventProfiler.obj
 0002:000039e4       ??_C@_0BA@IAJJNLNL@Sim?4narrowPhase?$AA@ 101649e4     CmEventProfiler.obj
 0002:000039f8       ??_C@_0BK@PBHILHAF@Sim?4finishModifiablePairs?$AA@ 101649f8     CmEventProfiler.obj
 0002:00003a18       ??_C@_0BF@LAABKADL@Sim?4narrowPhaseMerge?$AA@ 10164a18     CmEventProfiler.obj
 0002:00003a34       ??_C@_0BB@MMIHNICK@Sim?4preIslandGen?$AA@ 10164a34     CmEventProfiler.obj
 0002:00003a48       ??_C@_0BC@IGMBOODB@Sim?4updateIslands?$AA@ 10164a48     CmEventProfiler.obj
 0002:00003a60       ??_C@_0BL@LOJEKLAG@Sim?4preIslandGenSecondPass?$AA@ 10164a60     CmEventProfiler.obj
 0002:00003a80       ??_C@_0BM@DDHIIJBM@Sim?4updateIslandsSecondPass?$AA@ 10164a80     CmEventProfiler.obj
 0002:00003aa4       ??_C@_0BM@IGNAPKHI@Sim?4postIslandGenSecondPass?$AA@ 10164aa4     CmEventProfiler.obj
 0002:00003ac8       ??_C@_0BB@CFGDPNEA@Sim?4updateForces?$AA@ 10164ac8     CmEventProfiler.obj
 0002:00003adc       ??_C@_0BH@OOBNLNPN@Sim?4updateCCDMultiPass?$AA@ 10164adc     CmEventProfiler.obj
 0002:00003af8       ??_C@_0BC@DNOCCOIA@Sim?4ccdBroadPhase?$AA@ 10164af8     CmEventProfiler.obj
 0002:00003b10       ??_C@_0BI@LKPOJOFH@Sim?4updateCCDSinglePass?$AA@ 10164b10     CmEventProfiler.obj
 0002:00003b2c       ??_C@_0BK@NKFLGOIH@Sim?4ccdBroadPhaseComplete?$AA@ 10164b2c     CmEventProfiler.obj
 0002:00003b4c       ??_C@_0BF@CILKBHIA@?4Sim?4projectContacts?$AA@ 10164b4c     CmEventProfiler.obj
 0002:00003b68       ??_C@_0O@LJEANFP@?4Sim?4ccdSweep?$AA@ 10164b68     CmEventProfiler.obj
 0002:00003b78       ??_C@_0BD@CHPHICPP@?4Sim?4ccdSweepMerge?$AA@ 10164b78     CmEventProfiler.obj
 0002:00003b90       ??_C@_0N@CBJMAAJC@?4Sim?4ccdPair?$AA@ 10164b90     CmEventProfiler.obj
 0002:00003ba0       ??_C@_0P@DGLLIMAB@?4Sim?4ccdIsland?$AA@ 10164ba0     CmEventProfiler.obj
 0002:00003bb4       ??_C@_0BC@OLPJNLOP@?4Sim?4getSimEvents?$AA@ 10164bb4     CmEventProfiler.obj
 0002:00003bcc       ??_C@_0BL@OIBOHMDC@?4Sim?4syncBodiesAfterSolver?$AA@ 10164bcc     CmEventProfiler.obj
 0002:00003bec       ??_C@_0CA@IPIGIJJJ@?4Sim?4syncBodiesAfterIntegration?$AA@ 10164bec     CmEventProfiler.obj
 0002:00003c14       ??_C@_0BI@KLMJHGNC@?4Sim?4projectConstraints?$AA@ 10164c14     CmEventProfiler.obj
 0002:00003c30       ??_C@_0BN@GPOBOIBN@?4Sim?4checkConstraintBreakage?$AA@ 10164c30     CmEventProfiler.obj
 0002:00003c54       ??_C@_0BI@DHNJPMGB@?4Sim?4visualizeStartStep?$AA@ 10164c54     CmEventProfiler.obj
 0002:00003c70       ??_C@_0BG@LAKEEIOL@?4Sim?4visualizeEndStep?$AA@ 10164c70     CmEventProfiler.obj
 0002:00003c8c       ??_C@_0CB@EIGHFGHM@Sim?4fireCustomFilteringCallbacks@ 10164c8c     CmEventProfiler.obj
 0002:00003cb4       ??_C@_0BJ@LFGMCHDM@Sim?4fireCallBacksPreSync?$AA@ 10164cb4     CmEventProfiler.obj
 0002:00003cd4       ??_C@_0BH@OPBJDBEE@Sim?4updatePruningTrees?$AA@ 10164cd4     CmEventProfiler.obj
 0002:00003cf0       ??_C@_0BK@NGHEFLJE@Sim?4fireCallBacksPostSync?$AA@ 10164cf0     CmEventProfiler.obj
 0002:00003d10       ??_C@_0O@OOLOCNEF@Sim?4syncState?$AA@ 10164d10     CmEventProfiler.obj
 0002:00003d20       ??_C@_0BK@NNOIFFML@Sim?4buildActiveTransforms?$AA@ 10164d20     CmEventProfiler.obj
 0002:00003d40       ??_C@_0BB@KKAMLGKP@Sim?4fetchResults?$AA@ 10164d40     CmEventProfiler.obj
 0002:00003d54       ??_C@_0BG@IANODDFO@Sim?4sceneFinalization?$AA@ 10164d54     CmEventProfiler.obj
 0002:00003d70       ??_C@_0BG@IBLJLDMG@ParticleSim?4startStep?$AA@ 10164d70     CmEventProfiler.obj
 0002:00003d8c       ??_C@_0BE@GEILGIKO@ParticleSim?4endStep?$AA@ 10164d8c     CmEventProfiler.obj
 0002:00003da4       ??_C@_0CD@DPGIIPPG@ParticleSim?4shapesUpdateProcessi@ 10164da4     CmEventProfiler.obj
 0002:00003dd0       ??_C@_0BM@JDFGHBHB@ParticleSim?4updateCollision?$AA@ 10164dd0     CmEventProfiler.obj
 0002:00003df4       ??_C@_0BK@PCGIBKAM@Dynamics?4solverQueueTasks?$AA@ 10164df4     CmEventProfiler.obj
 0002:00003e14       ??_C@_0BE@OEBHCFMH@Dynamics?4solveGroup?$AA@ 10164e14     CmEventProfiler.obj
 0002:00003e2c       ??_C@_0BM@GFIEJPFJ@Dynamics?4solverMergeResults?$AA@ 10164e2c     CmEventProfiler.obj
 0002:00003e50       ??_C@_0BA@OKMBOPLA@Dynamics?4solver?$AA@ 10164e50     CmEventProfiler.obj
 0002:00003e64       ??_C@_0BJ@MHAGEBNG@?4Dynamics?4createFinalize?$AA@ 10164e64     CmEventProfiler.obj
 0002:00003e84       ??_C@_0BI@HACBLIBB@?4Dynamics?4setupFinalize?$AA@ 10164e84     CmEventProfiler.obj
 0002:00003ea0       ??_C@_0BL@LGAKCCJL@?4Dynamics?4getFrictionPatch?$AA@ 10164ea0     CmEventProfiler.obj
 0002:00003ec0       ??_C@_0BP@EBKEJMEP@?4Dynamics?4createContactPatches?$AA@ 10164ec0     CmEventProfiler.obj
 0002:00003ee8       ??_C@_0BL@LFJCEHBF@?4Dynamics?4correlatePatches?$AA@ 10164ee8     CmEventProfiler.obj
 0002:00003f08       ??_C@_0BG@PHLBLBFO@?4Dynamics?4growPatches?$AA@ 10164f08     CmEventProfiler.obj
 0002:00003f24       ??_C@_0BI@OHEAFNOI@?4Dynamics?4parallelSolve?$AA@ 10164f24     CmEventProfiler.obj
 0002:00003f40       ??_C@_0BL@OGBIJANG@?4Dynamics?4updateKinematics?$AA@ 10164f40     CmEventProfiler.obj
 0002:00003f60       ??_C@_0BL@JOJBEIFI@?4Dynamics?4updateVelocities?$AA@ 10164f60     CmEventProfiler.obj
 0002:00003f80       ??_C@_0BK@OCLGHGAK@?4Dynamics?4updatePositions?$AA@ 10164f80     CmEventProfiler.obj
 0002:00003fa0       ??_C@_0BH@KPBAFFPF@?4SceneQuery?4raycastAny?$AA@ 10164fa0     CmEventProfiler.obj
 0002:00003fbc       ??_C@_0BK@KJEGJMDA@?4SceneQuery?4raycastSingle?$AA@ 10164fbc     CmEventProfiler.obj
 0002:00003fdc       ??_C@_0BM@INFEBJDK@?4SceneQuery?4raycastMultiple?$AA@ 10164fdc     CmEventProfiler.obj
 0002:00004000       ??_C@_0BM@PJFCPLCI@?4SceneQuery?4overlapMultiple?$AA@ 10165000     CmEventProfiler.obj
 0002:00004024       ??_C@_0BF@OEGDLFDP@?4SceneQuery?4sweepAny?$AA@ 10165024     CmEventProfiler.obj
 0002:00004040       ??_C@_0BJ@EEKDKNDD@?4SceneQuery?4sweepAnyList?$AA@ 10165040     CmEventProfiler.obj
 0002:00004060       ??_C@_0BI@KCAMFMIH@?4SceneQuery?4sweepSingle?$AA@ 10165060     CmEventProfiler.obj
 0002:0000407c       ??_C@_0BM@EHIMLDKE@?4SceneQuery?4sweepSingleList?$AA@ 1016507c     CmEventProfiler.obj
 0002:000040a0       ??_C@_0BK@LNLEOILP@?4SceneQuery?4sweepMultiple?$AA@ 101650a0     CmEventProfiler.obj
 0002:000040c0       ??_C@_0BO@BBFABMGD@?4SceneQuery?4sweepMultipleList?$AA@ 101650c0     CmEventProfiler.obj
 0002:000040e4       ??_C@_0BJ@LPMPMAPA@?4SceneQuery?4flushUpdates?$AA@ 101650e4     CmEventProfiler.obj
 0002:00004104       ??_C@_0BL@BBKIICNF@?4BatchedSceneQuery?4execute?$AA@ 10165104     CmEventProfiler.obj
 0002:00004124       ??_C@_0BO@HAMBEM@?4BatchedSceneQuery?4raycastAny?$AA@ 10165124     CmEventProfiler.obj
 0002:00004148       ??_C@_0CB@DLFGHHEG@?4BatchedSceneQuery?4raycastSingle@ 10165148     CmEventProfiler.obj
 0002:00004170       ??_C@_0CD@MDOJGOKK@?4BatchedSceneQuery?4raycastMultip@ 10165170     CmEventProfiler.obj
 0002:0000419c       ??_C@_0CD@LHOPIMLI@?4BatchedSceneQuery?4overlapMultip@ 1016519c     CmEventProfiler.obj
 0002:000041c8       ??_C@_0BP@BABODHDL@?4BatchedSceneQuery?4sweepSingle?$AA@ 101651c8     CmEventProfiler.obj
 0002:000041f0       ??_C@_0CB@CPKEADMJ@?4BatchedSceneQuery?4sweepMultiple@ 101651f0     CmEventProfiler.obj
 0002:00004218       ??_C@_0CA@DNMMBAMP@?4Articulations?4prepareDataBlock?$AA@ 10165218     CmEventProfiler.obj
 0002:00004240       ??_C@_0BM@LGJMKGKM@?4Articulations?4setupProject?$AA@ 10165240     CmEventProfiler.obj
 0002:00004264       ??_C@_0BN@MKIODIOJ@?4Articulations?4prepareFsData?$AA@ 10165264     CmEventProfiler.obj
 0002:00004288       ??_C@_0BL@OBDPJDBB@?4Articulations?4setupDrives?$AA@ 10165288     CmEventProfiler.obj
 0002:000042a8       ??_C@_0BK@CCNEHK@?4Articulations?4jointLoads?$AA@ 101652a8     CmEventProfiler.obj
 0002:000042c8       ??_C@_0CG@JGLFNGPF@?4Articulations?4propagateDrivenIn@ 101652c8     CmEventProfiler.obj
 0002:000042f8       ??_C@_0CC@PINOIDLF@?4Articulations?4computeJointDrive@ 101652f8     CmEventProfiler.obj
 0002:00004320       ??_C@_0CA@JADFKDHH@?4Articulations?4applyJointDrives?$AA@ 10165320     CmEventProfiler.obj
 0002:00004348       ??_C@_0CF@MJDHKFJG@?4Articulations?4applyExternalImpu@ 10165348     CmEventProfiler.obj
 0002:00004374       ??_C@_0CA@OOGJDHEG@?4Articulations?4setupConstraints?$AA@ 10165374     CmEventProfiler.obj
 0002:0000439c       ??_C@_0BJ@IKFHNEPN@?4Articulations?4integrate?$AA@ 1016539c     CmEventProfiler.obj
 0002:000043bc       ??_C@_0CD@DHMKIDHC@?4BroadPhase?4computeAABBUpdateLis@ 101653bc     CmEventProfiler.obj
 0002:000043e8       ??_C@_0CG@IGODGJJL@?4BroadPhase?4updateAggLocalSpaceB@ 101653e8     CmEventProfiler.obj
 0002:00004418       ??_C@_0BN@ODAGPJLA@?4BroadPhase?4updateShapeAABBs?$AA@ 10165418     CmEventProfiler.obj
 0002:0000443c       ??_C@_0BL@MPKGGIDP@?4BroadPhase?4updateAggAABBs?$AA@ 1016543c     CmEventProfiler.obj
 0002:0000445c       ??_C@_0BN@OKBHLBNE@?4BroadPhase?4updateBroadphase?$AA@ 1016545c     CmEventProfiler.obj
 0002:00004480       ??_C@_0BG@HNFCKPFC@?4BroadPhase?4SapUpdate?$AA@ 10165480     CmEventProfiler.obj
 0002:0000449c       ??_C@_0BK@NAJKDGHG@?4BroadPhase?4SapPostUpdate?$AA@ 1016549c     CmEventProfiler.obj
 0002:000044bc       ??_C@_0BJ@LBAKENLA@?4BroadPhase?4SapUpdateSPU?$AA@ 101654bc     CmEventProfiler.obj
 0002:000044dc       ??_C@_0BN@LLHCNIPA@?4BroadPhase?4SapPostUpdateSPU?$AA@ 101654dc     CmEventProfiler.obj
 0002:00004500       ??_C@_0BG@GDPMCDJ@?4BroadPhase?4MBPUpdate?$AA@ 10165500     CmEventProfiler.obj
 0002:0000451c       ??_C@_0BK@GLDGKDFJ@?4BroadPhase?4MBPPostUpdate?$AA@ 1016551c     CmEventProfiler.obj
 0002:0000453c       ??_C@_0BJ@BGNIGBAF@?4BroadPhase?4MBPUpdateSPU?$AA@ 1016553c     CmEventProfiler.obj
 0002:0000455c       ??_C@_0BN@FLDFEIAK@?4BroadPhase?4MBPPostUpdateSPU?$AA@ 1016555c     CmEventProfiler.obj
 0002:00004580       ??_C@_0BN@EMEDBPE@?4BroadPhase?4processBPResults?$AA@ 10165580     CmEventProfiler.obj
 0002:000045a4       ??_C@_0CE@DNLACEDP@?4BroadPhase?4updateLazyAggShapeAA@ 101655a4     CmEventProfiler.obj
 0002:000045d0       ??_C@_0CE@MJIPFNHP@?4BroadPhase?4computeAggAggShapePa@ 101655d0     CmEventProfiler.obj
 0002:000045fc       ??_C@_0BD@EMBKOIOE@?4BroadPhase?4finish?$AA@ 101655fc     CmEventProfiler.obj
 0002:00004614       ??_C@_0BI@DAOKOBAA@?4IslandGen?4resizeArrays?$AA@ 10165614     CmEventProfiler.obj
 0002:00004630       ??_C@_0BP@HCJOIOMO@?4IslandGen?4resizeForKinematics?$AA@ 10165630     CmEventProfiler.obj
 0002:00004658       ??_C@_0BN@DDPLMBBJ@?4IslandGen?4cleanupEdgeEvents?$AA@ 10165658     CmEventProfiler.obj
 0002:0000467c       ??_C@_0BI@EOIJAKEO@?4IslandGen?4emptyIslands?$AA@ 1016567c     CmEventProfiler.obj
 0002:00004698       ??_C@_0BH@MHLIJJPL@?4IslandGen?4joinedEdges?$AA@ 10165698     CmEventProfiler.obj
 0002:000046b4       ??_C@_0BI@OIACCHDK@?4IslandGen?4createdNodes?$AA@ 101656b4     CmEventProfiler.obj
 0002:000046d0       ??_C@_0CD@NMJNDKBO@?4IslandGen?4duplicateKinematicNod@ 101656d0     CmEventProfiler.obj
 0002:000046fc       ??_C@_0BN@CFEOLCAH@?4IslandGen?4brokenEdgeIslands?$AA@ 101656fc     CmEventProfiler.obj
 0002:00004720       ??_C@_0CC@CMMPHDOH@?4IslandGen?4processSleepingIsland@ 10165720     CmEventProfiler.obj
 0002:00004748       ??_C@_0BH@EFDLIGFG@?4IslandGen?4freeBuffers?$AA@ 10165748     CmEventProfiler.obj
 0002:00004764       ??_C@_0BN@BNGFLIND@?4IslandGen?4deletedNodesEdges?$AA@ 10165764     CmEventProfiler.obj
 0002:00004788       ??_C@_0BE@IKDMEHLH@?4PVD?4updateContacts?$AA@ 10165788     CmEventProfiler.obj
 0002:000047a0       ??_C@_0BJ@IIPPGIEK@?4PVD?4updateDynamicBodies?$AA@ 101657a0     CmEventProfiler.obj
 0002:000047c0       ??_C@_0BC@CCDNOENI@?4PVD?4updateJoints?$AA@ 101657c0     CmEventProfiler.obj
 0002:000047d8       ??_C@_0BC@JEOJMLOK@?4PVD?4updateCloths?$AA@ 101657d8     CmEventProfiler.obj
 0002:000047f0       ??_C@_0BE@GPNMCIEE@?4PVD?4updateSleeping?$AA@ 101657f0     CmEventProfiler.obj
 0002:00004808       ??_C@_0BN@CHDLNOLO@?4PVD?4updatePariclesAndFluids?$AA@ 10165808     CmEventProfiler.obj
 0002:0000482c       ??_C@_0BB@FDDDEOJB@?4PVD?4sceneUpdate?$AA@ 1016582c     CmEventProfiler.obj
 0002:00004840       ??_C@_0BH@IIFBHCLD@?4PVD?4createPVDInstance?$AA@ 10165840     CmEventProfiler.obj
 0002:0000485c       ??_C@_0BI@IHPAHCC@?4PVD?4releasePVDInstance?$AA@ 1016585c     CmEventProfiler.obj
 0002:00004878       ??_C@_0BJ@PKDEPGEK@?4PVD?4updatePVDProperties?$AA@ 10165878     CmEventProfiler.obj
 0002:00004898       ??_C@_0BD@DLOBPCIF@?4PVD?4sendPVDArrays?$AA@ 10165898     CmEventProfiler.obj
 0002:000048b0       ??_C@_0BA@PJNJNBCJ@PVD?4originShift?$AA@ 101658b0     CmEventProfiler.obj
 0002:000048c8       ??_C@_1LA@COLHFJLF@?$AAc?$AA?3?$AA?2?$AAp?$AAh?$AAy?$AAs?$AAx?$AA?5?$AAs?$AAd?$AAk?$AA?2?$AAp?$AAh?$AAy?$AAs?$AAx?$AA?9?$AA3?$AA?4?$AA3?$AA?9?$AAm?$AAa?$AAs?$AAt?$AAe?$AAr?$AA?2?$AAp?$AAh@ 101658c8     CmFreeListAllocator.obj
 0002:0000499c       ??_C@_1DG@KNAFIHKH@?$AA?$CB?$AAi?$AAs?$AAU?$AAs?$AAe?$AAd?$AA?$CI?$AA?$CJ?$AA?5?$AA?$CG?$AA?$CG?$AA?5?$AA?$CB?$AAn?$AAi?$AAb?$AA?4?$AAi?$AAs?$AAU?$AAs?$AAe?$AAd?$AA?$CI?$AA?$CJ?$AA?$AA@ 1016599c     CmFreeListAllocator.obj
 0002:000049dc       ??_C@_1BE@MDABCIAH@?$AA?$CB?$AAi?$AAs?$AAU?$AAs?$AAe?$AAd?$AA?$CI?$AA?$CJ?$AA?$AA@ 101659dc     CmFreeListAllocator.obj
 0002:000049f4       ??_C@_1BG@HGHBDFGD@?$AAr?$AAm?$AAd?$AAr?$AAQ?$AAW?$AAS?$AAi?$AAz?$AAe?$AA?$AA@ 101659f4     CmFreeListAllocator.obj
 0002:00004a10       ??_7FreeListAllocator@Cm@physx@@6B@ 10165a10     CmFreeListAllocator.obj
 0002:00004a20       ??_C@_0BH@DIEJOAKE@FreeListAllocatorMutex?$AA@ 10165a20     CmFreeListAllocator.obj
 0002:00004a40       ??_C@_1FC@LHBKDCGA@?$AA?4?$AA?4?$AA?2?$AA?4?$AA?4?$AA?2?$AAC?$AAo?$AAm?$AAm?$AAo?$AAn?$AA?2?$AAs?$AAr?$AAc?$AA?2?$AAC?$AAm?$AAF?$AAr?$AAe?$AAe?$AAL?$AAi?$AAs?$AAt?$AAA?$AAl?$AAl?$AAo?$AAc@ 10165a40     CmFreeListAllocator.obj
 0002:00004aa4       ??_C@_1DM@GAFGJDLG@?$AAq?$AAw?$AAS?$AAi?$AAz?$AAe?$AA?$DM?$AA?$DN?$AAB?$AAl?$AAo?$AAc?$AAk?$AA?3?$AA?3?$AAQ?$AAW?$AAO?$AAR?$AAD?$AA_?$AAC?$AAA?$AAP?$AAA?$AAC?$AAI?$AAT?$AAY?$AA?$AA@ 10165aa4     CmFreeListAllocator.obj
 0002:00004aec       ??_C@_0CJ@KFICLIBG@?4?4?2?4?4?2Common?2src?2CmFreeListAlloc@ 10165aec     CmFreeListAllocator.obj
 0002:00004b20       ??_C@_1BK@CBGKPCNK@?$AA?$CB?$AA?$CI?$AAa?$AAd?$AAd?$AAr?$AA?5?$AA?$CG?$AA?5?$AA1?$AA5?$AA?$CJ?$AA?$AA@ 10165b20     CmFreeListAllocator.obj
 0002:00004b40       ??_C@_1CM@ELPPBFLE@?$AA?$CB?$AA?$CI?$AA?$CI?$AAi?$AAn?$AAt?$AA?$CJ?$AAm?$AA?$FL?$AA?9?$AA1?$AA?$FN?$AA?$CG?$AA?$CI?$AA1?$AA?$DM?$AA?$DM?$AA3?$AA1?$AA?$CJ?$AA?$CJ?$AA?$AA@ 10165b40     CmFreeListAllocator.obj
 0002:00004b74       ??_C@_1DK@PLHKGHIP@?$AAc?$AAh?$AAu?$AAn?$AAk?$AA?9?$AA?$DO?$AAg?$AAe?$AAt?$AAQ?$AAW?$AAS?$AAi?$AAz?$AAe?$AA?$CI?$AA?$CJ?$AA?5?$AA?$DN?$AA?$DN?$AA?5?$AAq?$AAw?$AAS?$AAi?$AAz?$AAe?$AA?$AA@ 10165b74     CmFreeListAllocator.obj
 0002:00004bbc       ??_C@_1M@CDLPECDA@?$AAc?$AAh?$AAu?$AAn?$AAk?$AA?$AA@ 10165bbc     CmFreeListAllocator.obj
 0002:00004bd0       ??_C@_1EA@PNCAOBML@?$AAf?$AAo?$AAu?$AAn?$AAd?$AA?9?$AA?$DO?$AAg?$AAe?$AAt?$AAQ?$AAW?$AAS?$AAi?$AAz?$AAe?$AA?$CI?$AA?$CJ?$AA?$DN?$AA?$DN?$AAf?$AAo?$AAu?$AAn?$AAd?$AAQ?$AAW?$AAS?$AAi?$AAz?$AAe?$AA?$AA@ 10165bd0     CmFreeListAllocator.obj
 0002:00004c1c       ??_C@_1DG@HBNALAFP@?$AAc?$AAh?$AAu?$AAn?$AAk?$AA?9?$AA?$DO?$AAg?$AAe?$AAt?$AAP?$AAr?$AAe?$AAv?$AAI?$AAn?$AAB?$AAl?$AAo?$AAc?$AAk?$AA?$CI?$AA?$CJ?$AA?$DN?$AA?$DN?$AA0?$AA?$AA@ 10165c1c     CmFreeListAllocator.obj
 0002:00004c5c       ??_C@_0CD@HOICFALD@?$DN?$DN?$DN?$DN?$DN?$DN?$DN?$DN?$DN?$DN?$DN?$DN?$DN?$DN?$DN?$DN?$DN?$DN?$DN?$DN?$DN?$DN?$DN?$DN?$DN?$DN?$DN?$DN?$DN?$DN?$DN?$DN@ 10165c5c     CmFreeListAllocator.obj
 0002:00004c88       ??_C@_05HKAKDGKI@EMPTY?$AA@ 10165c88     CmFreeListAllocator.obj
 0002:00004c90       ??_C@_0L@NIFKCPOI@Block?3?5?$CFp?6?$AA@ 10165c90     CmFreeListAllocator.obj
 0002:00004ca0       ??_C@_04DHFLIKEL@LAST?$AA@ 10165ca0     CmFreeListAllocator.obj
 0002:00004ca8       ??_C@_05BDPGECIF@FIRST?$AA@ 10165ca8     CmFreeListAllocator.obj
 0002:00004cb0       ??_C@_04PCNCCNDP@USED?$AA@ 10165cb0     CmFreeListAllocator.obj
 0002:00004cb8       ??_C@_0CK@DEKKEMKF@Chunk?5?$CFp?0?5size?5?$CFu?0?5prevSize?5?$CFu?0?5@ 10165cb8     CmFreeListAllocator.obj
 0002:00004cec       ??_C@_0BC@PAEBNJHI@FreeListAllocator?$AA@ 10165cec     CmFreeListAllocator.obj
 0002:00004d08       ??_C@_0EL@IMBLOCE@C?3?2PhysX?5SDK?2PhysX?93?43?9master?2Ph@ 10165d08     CmFreeListAllocator.obj
 0002:00004d64       ??_C@_1DC@FHLIDOBM@?$AAm?$AAN?$AAe?$AAx?$AAt?$AA?5?$AA?$DN?$AA?$DN?$AA?5?$AA0?$AA?5?$AA?$CG?$AA?$CG?$AA?5?$AAm?$AAP?$AAr?$AAe?$AAv?$AA?5?$AA?$DN?$AA?$DN?$AA?5?$AA0?$AA?$AA@ 10165d64     CmFreeListAllocator.obj
 0002:00004da0       ??_C@_0EI@OILECEMM@C?3?2PhysX?5SDK?2PhysX?93?43?9master?2Ph@ 10165da0     CmMathUtils.obj
 0002:00004df8       ??_C@_0M@BJFDEEID@q0?4isSane?$CI?$CJ?$AA@ 10165df8     CmMathUtils.obj
 0002:00004e08       ??_C@_0ED@KLICIHAJ@C?3?2PhysX?5SDK?2PhysX?93?43?9master?2Ph@ 10165e08     CmMathUtils.obj
 0002:00004e58       ??_C@_08KABAGHNM@index?$DM?$DN3?$AA@ 10165e58     CmMathUtils.obj
 0002:00004e64       ??_C@_0CB@MNJAMGKE@?4?4?2?4?4?2Common?2src?2CmMathUtils?4cpp@ 10165e64     CmMathUtils.obj
 0002:00004e8c       ??_C@_04GCPPINEE@h?$CB?$DN1?$AA@ 10165e8c     CmMathUtils.obj
 0002:00004e94       __real@358637bd            10165e94     CmMathUtils.obj
 0002:00004e98       __real@3c23d70a            10165e98     CmMathUtils.obj
 0002:00004e9c       __real@3dcccccd            10165e9c     CmMathUtils.obj
 0002:00004ea0       __real@3f3504f3            10165ea0     CmMathUtils.obj
 0002:00004ea4       __real@40000000            10165ea4     CmMathUtils.obj
 0002:00004ea8       __real@40800000            10165ea8     CmMathUtils.obj
 0002:00004eb0       __real@413e848000000000    10165eb0     CmMathUtils.obj
 0002:00004ebc       __real@447a0000            10165ebc     CmMathUtils.obj
 0002:00004ec0       ??_C@_0CA@OBIMPDNK@?4?4?2?4?4?2Common?2src?2CmPtrTable?4cpp?$AA@ 10165ec0     CmPtrTable.obj
 0002:00004ee8       ??_C@_0M@DAGELID@mOwnsMemory?$AA@ 10165ee8     CmPtrTable.obj
 0002:00004ef8       ??_C@_0M@IBLEJNCA@mCount?5?$DN?$DN?50?$AA@ 10165ef8     CmPtrTable.obj
 0002:00004f08       ??_C@_0O@HDLAHOCN@mList?5?$DN?$DN?5NULL?$AA@ 10165f08     CmPtrTable.obj
 0002:00004f18       ??_C@_0ED@HKENHAKJ@?$CImOwnsMemory?5?$CG?$CG?5oldCapacity?$CJ?5?$HM?$HM?5@ 10165f18     CmPtrTable.obj
 0002:00004f68       ??_C@_0M@JBHIAGAJ@newCapacity?$AA@ 10165f68     CmPtrTable.obj
 0002:00004f78       ??_C@_0N@NGLHNOCC@?$CBmBufferUsed?$AA@ 10165f78     CmPtrTable.obj
 0002:00004f88       ??_C@_0M@MMPOMMLP@mBufferUsed?$AA@ 10165f88     CmPtrTable.obj
 0002:00004f98       ??_C@_09LNDPMKFO@mCount?$CB?$DN0?$AA@ 10165f98     CmPtrTable.obj
 0002:00004fa4       ??_C@_08MDGMHCHN@PtrTable?$AA@ 10165fa4     CmPtrTable.obj
 0002:00004fb0       ??_C@_04GKJNKENE@void?$AA@ 10165fb0     CmPtrTable.obj
 0002:00004fb8       ??_C@_07DFEBJDHE@mSingle?$AA@ 10165fb8     CmPtrTable.obj
 0002:00004fc4       ??_C@_05NLHHBMOH@PxU16?$AA@ 10165fc4     CmPtrTable.obj
 0002:00004fcc       ??_C@_06EPKHJPIM@mCount?$AA@ 10165fcc     CmPtrTable.obj
 0002:00004fd4       ??_C@_04DDKJGDCM@bool?$AA@ 10165fd4     CmPtrTable.obj
 0002:00004fdc       ?sBufferSize@DebugText@Cm@physx@@2HB 10165fdc     CmRenderOutput.obj
 0002:00004fe0       __real@3e19999a            10165fe0     CmRenderOutput.obj
 0002:00004fe4       __real@3e800000            10165fe4     CmRenderOutput.obj
 0002:00004fe8       __real@40400000            10165fe8     CmRenderOutput.obj
 0002:00004fec       __real@40c90fdb            10165fec     CmRenderOutput.obj
 0002:00004ff0       __real@3e490fdb            10165ff0     CmVisualization.obj
 0002:00004ff4       __real@3e99999a            10165ff4     CmVisualization.obj
 0002:00004ff8       __real@3fc00000            10165ff8     CmVisualization.obj
 0002:00004ffc       __real@3fc90fdb            10165ffc     CmVisualization.obj
 0002:00005000       __real@41a00000            10166000     CmVisualization.obj
 0002:00005010       ?g_PXSinCoefficients0@aos@shdfnd@physx@@3UPX_VECTORF32@123@B 10166010     GuContactCapsuleMesh.obj
 0002:00005030       ?g_PXSinCoefficients1@aos@shdfnd@physx@@3UPX_VECTORF32@123@B 10166030     GuContactCapsuleMesh.obj
 0002:00005050       ?g_PXSinCoefficients2@aos@shdfnd@physx@@3UPX_VECTORF32@123@B 10166050     GuContactCapsuleMesh.obj
 0002:00005070       ?g_PXCosCoefficients0@aos@shdfnd@physx@@3UPX_VECTORF32@123@B 10166070     GuContactCapsuleMesh.obj
 0002:00005090       ?g_PXCosCoefficients1@aos@shdfnd@physx@@3UPX_VECTORF32@123@B 10166090     GuContactCapsuleMesh.obj
 0002:000050b0       ?g_PXCosCoefficients2@aos@shdfnd@physx@@3UPX_VECTORF32@123@B 101660b0     GuContactCapsuleMesh.obj
 0002:000050d0       ?g_PXTanCoefficients0@aos@shdfnd@physx@@3UPX_VECTORF32@123@B 101660d0     GuContactCapsuleMesh.obj
 0002:000050f0       ?g_PXTanCoefficients1@aos@shdfnd@physx@@3UPX_VECTORF32@123@B 101660f0     GuContactCapsuleMesh.obj
 0002:00005110       ?g_PXTanCoefficients2@aos@shdfnd@physx@@3UPX_VECTORF32@123@B 10166110     GuContactCapsuleMesh.obj
 0002:00005130       ?g_PXASinCoefficients0@aos@shdfnd@physx@@3UPX_VECTORF32@123@B 10166130     GuContactCapsuleMesh.obj
 0002:00005150       ?g_PXASinCoefficients1@aos@shdfnd@physx@@3UPX_VECTORF32@123@B 10166150     GuContactCapsuleMesh.obj
 0002:00005170       ?g_PXASinCoefficients2@aos@shdfnd@physx@@3UPX_VECTORF32@123@B 10166170     GuContactCapsuleMesh.obj
 0002:00005190       ?g_PXATanCoefficients0@aos@shdfnd@physx@@3UPX_VECTORF32@123@B 10166190     GuContactCapsuleMesh.obj
 0002:000051b0       ?g_PXATanCoefficients1@aos@shdfnd@physx@@3UPX_VECTORF32@123@B 101661b0     GuContactCapsuleMesh.obj
 0002:000051d0       ?g_PXATanCoefficients2@aos@shdfnd@physx@@3UPX_VECTORF32@123@B 101661d0     GuContactCapsuleMesh.obj
 0002:000051f0       ?g_PXSinEstCoefficients@aos@shdfnd@physx@@3UPX_VECTORF32@123@B 101661f0     GuContactCapsuleMesh.obj
 0002:00005210       ?g_PXCosEstCoefficients@aos@shdfnd@physx@@3UPX_VECTORF32@123@B 10166210     GuContactCapsuleMesh.obj
 0002:00005230       ?g_PXTanEstCoefficients@aos@shdfnd@physx@@3UPX_VECTORF32@123@B 10166230     GuContactCapsuleMesh.obj
 0002:00005250       ?g_PXATanEstCoefficients@aos@shdfnd@physx@@3UPX_VECTORF32@123@B 10166250     GuContactCapsuleMesh.obj
 0002:00005270       ?g_PXASinEstCoefficients@aos@shdfnd@physx@@3UPX_VECTORF32@123@B 10166270     GuContactCapsuleMesh.obj
 0002:00005290       ?g_PXASinEstConstants@aos@shdfnd@physx@@3UPX_VECTORF32@123@B 10166290     GuContactCapsuleMesh.obj
 0002:000052b0       ?g_PXPiConstants0@aos@shdfnd@physx@@3UPX_VECTORF32@123@B 101662b0     GuContactCapsuleMesh.obj
 0002:000052d0       ?g_PXReciprocalTwoPi@aos@shdfnd@physx@@3UPX_VECTORF32@123@B 101662d0     GuContactCapsuleMesh.obj
 0002:000052f0       ?g_PXTwoPi@aos@shdfnd@physx@@3UPX_VECTORF32@123@B 101662f0     GuContactCapsuleMesh.obj
 0002:00005328       ??_C@_0EI@PPJFJEBJ@C?3?2PhysX?5SDK?2PhysX?93?43?9master?2Ph@ 10166328     GuContactCapsuleMesh.obj
 0002:00005380       ??_C@_0L@EGHDLJIP@isFinite?$CI?$CJ?$AA@ 10166380     GuContactCapsuleMesh.obj
 0002:00005390       ??_C@_0N@PMAOLNPB@src?4isSane?$CI?$CJ?$AA@ 10166390     GuContactCapsuleMesh.obj
 0002:000053a0       ??_C@_0EG@DNBLLACE@C?3?2PhysX?5SDK?2PhysX?93?43?9master?2Ph@ 101663a0     GuContactCapsuleMesh.obj
 0002:000053f4       ??_C@_09GLGJMIMJ@isValid?$CI?$CJ?$AA@ 101663f4     GuContactCapsuleMesh.obj
 0002:00005400       ??_C@_0BB@GKJHIFOF@bounds?4isValid?$CI?$CJ?$AA@ 10166400     GuContactCapsuleMesh.obj
 0002:00005414       ??_C@_06EJKDJEDO@PxBase?$AA@ 10166414     GuContactCapsuleMesh.obj
 0002:0000541c       ??_C@_0P@GGNFNHKF@PxTriangleMesh?$AA@ 1016641c     GuContactCapsuleMesh.obj
 0002:00005430       ??_C@_0O@PBAKPCEC@PxHeightField?$AA@ 10166430     GuContactCapsuleMesh.obj
 0002:00005440       ??_7PxBase@physx@@6B@      10166440     GuContactCapsuleMesh.obj
 0002:00005458       ??_7PxTriangleMesh@physx@@6B@ 10166458     GuContactCapsuleMesh.obj
 0002:000054a0       ??_C@_0FG@NBDFKDPL@c?3?2physx?5sdk?2physx?93?43?9master?2ph@ 101664a0     GuContactCapsuleMesh.obj
 0002:00005508       ??_C@_0CJ@ILIBJFPM@PxAbs?$CIworldNormalIn?4magnitude?$CI?$CJ?9@ 10166508     GuContactCapsuleMesh.obj
 0002:0000553c       ??_7PxHeightField@physx@@6B@ 1016653c     GuContactCapsuleMesh.obj
 0002:00005598       ??_C@_0EP@JKLMODKH@c?3?2physx?5sdk?2physx?93?43?9master?2ph@ 10166598     GuContactCapsuleMesh.obj
 0002:000055f8       ??_C@_0BL@KDIAIEJL@isValidVertex?$CIvertexIndex?$CJ?$AA@ 101665f8     GuContactCapsuleMesh.obj
 0002:00005618       ??_C@_0BG@GBAEBKEF@cell?5?$DN?$DN?5edgeIndex?5?1?53?$AA@ 10166618     GuContactCapsuleMesh.obj
 0002:00005638       ??_C@_0FD@FFMOCDNB@C?3?2PhysX?5SDK?2PhysX?93?43?9master?2Ph@ 10166638     GuContactCapsuleMesh.obj
 0002:0000569c       ??_C@_0DD@LOMMHFKH@mHfGeom?9?$DOheightScale?5?$DO?$DN?5PX_MIN_H@ 1016669c     GuContactCapsuleMesh.obj
 0002:000056dc       ??_C@_0CL@PIHMIDKP@absRowScale?5?$DO?$DN?5PX_MIN_HEIGHTFIEL@ 101666dc     GuContactCapsuleMesh.obj
 0002:00005710       ??_C@_0CL@OMOEBLIK@absColScale?5?$DO?$DN?5PX_MIN_HEIGHTFIEL@ 10166710     GuContactCapsuleMesh.obj
 0002:00005744       ??_C@_0DG@OPFLNCLI@row?5?$DN?$DN?5vertexIndex?5?1?5mHeightFiel@ 10166744     GuContactCapsuleMesh.obj
 0002:00005784       ??_C@_0DJ@FIPNBJOF@column?5?$DN?$DN?5vertexIndex?5?$CF?5mHeightF@ 10166784     GuContactCapsuleMesh.obj
 0002:000057c8       ??_C@_0CA@KJFNONEO@MaterialIndicesStruct?3?3allocate?$AA@ 101667c8     GuContactCapsuleMesh.obj
 0002:000057f0       ??_C@_0EO@OIEDOCFH@C?3?2PhysX?5SDK?2PhysX?93?43?9master?2Ph@ 101667f0     GuContactCapsuleMesh.obj
 0002:00005850       ??_C@_0FP@DNFFFCHO@geometry?4getType?$CI?$CJ?$DN?$DN?5PxGeometryT@ 10166850     GuContactCapsuleMesh.obj
 0002:000058c4       ??_C@_0DF@NKMEJLOE@?4?4?2?4?4?2GeomUtils?2src?2contact?2GuCo@ 101668c4     GuContactCapsuleMesh.obj
 0002:00005904       ??_C@_08CLAMOLMC@d0?$DO?$DN0?40f?$AA@ 10166904     GuContactCapsuleMesh.obj
 0002:00005910       ??_C@_08OHKGOLFM@d1?$DO?$DN0?40f?$AA@ 10166910     GuContactCapsuleMesh.obj
 0002:0000591c       ??_C@_0BH@OJMCGBAA@contactBuffer?4count?$DN?$DN0?$AA@ 1016691c     GuContactCapsuleMesh.obj
 0002:00005938       ??_7?$MeshHitCallback@UPxRaycastHit@physx@@@Gu@physx@@6B@ 10166938     GuContactCapsuleMesh.obj
 0002:00005944       ??_7CapsuleMeshContactGenerationCallback@?A0x109bc84c@@6B@ 10166944     GuContactCapsuleMesh.obj
 0002:00005950       ??_7?$EntityReport@I@Gu@physx@@6B@ 10166950     GuContactCapsuleMesh.obj
 0002:0000595c       ??_7CapsuleHeightfieldContactGenerationCallback@?A0x109bc84c@@6B@ 1016695c     GuContactCapsuleMesh.obj
 0002:00005968       ??_C@_0FL@GDEGIEFP@static_cast?$DMPxU32?$DO?$CIgeometry?4getT@ 10166968     GuContactCapsuleMesh.obj
 0002:000059d8       __real@30d1b7e9            101669d8     GuContactCapsuleMesh.obj
 0002:000059dc       __real@358637be            101669dc     GuContactCapsuleMesh.obj
 0002:000059e0       __real@3eaaaaab            101669e0     GuContactCapsuleMesh.obj
 0002:000059e8       __real@3eb0c6f7a0b5ed8d    101669e8     GuContactCapsuleMesh.obj
 0002:000059f4       __real@3f7fbe77            101669f4     GuContactCapsuleMesh.obj
 0002:000059f8       __real@7e7fffff            101669f8     GuContactCapsuleMesh.obj
 0002:000059fc       __real@7f7fffff            101669fc     GuContactCapsuleMesh.obj
 0002:00005a00       __real@ba83126f            10166a00     GuContactCapsuleMesh.obj
 0002:00005a04       __real@fe7fffff            10166a04     GuContactCapsuleMesh.obj
 0002:00005a08       __real@ff7fffff            10166a08     GuContactCapsuleMesh.obj
 0002:00005a28       ??_C@_0EP@CGKKDCOJ@c?3?2physx?5sdk?2physx?93?43?9master?2ph@ 10166a28     GuContactConvexMesh.obj
 0002:00005a88       ??_C@_0M@JAJDAINE@value?$DM?$DN0xff?$AA@ 10166a88     GuContactConvexMesh.obj
 0002:00005a98       ??_C@_0EK@DDBIJGNG@C?3?2PhysX?5SDK?2PhysX?93?43?9master?2Ph@ 10166a98     GuContactConvexMesh.obj
 0002:00005af0       ??_C@_0BA@IHICCAI@i?$DMmCurNbEntries?$AA@ 10166af0     GuContactConvexMesh.obj
 0002:00005b04       ??_C@_0DE@LHEEBKCA@?4?4?2?4?4?2GeomUtils?2src?2contact?2GuCo@ 10166b04     GuContactConvexMesh.obj
 0002:00005b44       ??_C@_0CL@HIMDBCEM@dtest?5?$CL?5testInternalObjectsEpsil@ 10166b44     GuContactConvexMesh.obj
 0002:00005b78       ??_7ConvexMeshContactGenerationCallback@@6B@ 10166b78     GuContactConvexMesh.obj
 0002:00005b84       ??_C@_0DC@EOIKHBHI@shape1?4getType?$CI?$CJ?5?$DN?$DN?5PxGeometryTy@ 10166b84     GuContactConvexMesh.obj
 0002:00005bc0       ??_7ConvexVsHeightfieldContactGenerationCallback@?A0x2952d824@@6B@ 10166bc0     GuContactConvexMesh.obj
 0002:00005bcc       __real@38d1b717            10166bcc     GuContactConvexMesh.obj
 0002:00005be8       ??_C@_0ED@DGFFLPLA@C?3?2PhysX?5SDK?2PhysX?93?43?9master?2Ph@ 10166be8     GuContactPolygonPolygon.obj
 0002:00005c38       ??_C@_0DI@IAOKNCL@?4?4?2?4?4?2GeomUtils?2src?2contact?2GuCo@ 10166c38     GuContactPolygonPolygon.obj
 0002:00005c7c       ??_C@_0CF@LDBPJJBP@indices0?5?$CB?$DN?5NULL?5?$CG?$CG?5indices1?5?$CB?$DN?5@ 10166c7c     GuContactPolygonPolygon.obj
 0002:00005ca8       __real@3c8efa35            10166ca8     GuContactPolygonPolygon.obj
 0002:00005cb0       __real@3e7ad7f29abcaf48    10166cb0     GuContactPolygonPolygon.obj
 0002:00005cbc       __real@41000000            10166cbc     GuContactPolygonPolygon.obj
 0002:00005cc0       __real@43340000            10166cc0     GuContactPolygonPolygon.obj
 0002:00005cc4       __real@b58637bd            10166cc4     GuContactPolygonPolygon.obj
 0002:00005ce4       ??_C@_0DL@OAFGOMGB@Dropping?5contacts?5in?5sphere?5vs?5m@ 10166ce4     GuContactSphereMesh.obj
 0002:00005d2c       ??_C@_0DE@ENPODGDE@?4?4?2?4?4?2GeomUtils?2src?2contact?2GuCo@ 10166d2c     GuContactSphereMesh.obj
 0002:00005d6c       ??_7SphereMeshContactGenerationCallback_NoScale@?A0xd3e8f430@@6B@ 10166d6c     GuContactSphereMesh.obj
 0002:00005d78       ??_7SphereMeshContactGenerationCallback_Scale@?A0xd3e8f430@@6B@ 10166d78     GuContactSphereMesh.obj
 0002:00005d84       ??_7SphereHeightfieldContactGenerationCallback@?A0xd3e8f430@@6B@ 10166d84     GuContactSphereMesh.obj
 0002:00005d90       ??_C@_0EK@NDLBFJJC@C?3?2PhysX?5SDK?2PhysX?93?43?9master?2Ph@ 10166d90     GuContactSphereMesh.obj
 0002:00005de8       ??_C@_0CC@OFEDJMLN@first?5?$DO?$DN?50?5?$CG?$CG?5last?5?$DM?5?$CIPxI32?$CJcoun@ 10166de8     GuContactSphereMesh.obj
 0002:00005e10       ??_C@_0CE@JEKBEHJN@?$CBcompare?$CIelements?$FLi?$FN?0elements?$FLi?9@ 10166e10     GuContactSphereMesh.obj
 0002:00005e40       ??_C@_0FD@JHNNLKAK@c?3?2physx?5sdk?2physx?93?43?9master?2ph@ 10166e40     GuContactSphereMesh.obj
 0002:00005ea4       ??_C@_08JNEJNCCA@?$CBempty?$CI?$CJ?$AA@ 10166ea4     GuContactSphereMesh.obj
 0002:00005eb0       ??_C@_0BE@IEAAKGDK@i?$DM?$DNlast?5?$CG?$CG?5j?$DO?$DNfirst?$AA@ 10166eb0     GuContactSphereMesh.obj
 0002:00005ec8       ??_C@_0BL@LHJILAEN@i?$DM?$DNlast?5?$CG?$CG?5first?$DM?$DN?$CIlast?91?$CJ?$AA@ 10166ec8     GuContactSphereMesh.obj
 0002:00005f04       ??_C@_0O@JEHCGDAJ@value?$DM?$DN0xffff?$AA@ 10166f04     GuBigConvexData.obj
 0002:00005f14       ??_C@_0BD@PGLLAGCI@BigConvexData?5data?$AA@ 10166f14     GuBigConvexData.obj
 0002:00005f2c       ??_C@_0CP@JIINMLKM@?4?4?2?4?4?2GeomUtils?2src?2convex?2GuBig@ 10166f2c     GuBigConvexData.obj
 0002:00005f64       ??_C@_0CK@PBMKBIBC@0?5?$DN?$DN?5?$CIsize_t?$CImData?4mAdjacentVert@ 10166f64     GuBigConvexData.obj
 0002:00005f98       ??_C@_0L@MNDLJEDL@Version?$DN?$DN2?$AA@ 10166f98     GuBigConvexData.obj
 0002:00005fa8       ??_C@_0BI@KHIEILPD@BigConvex?5Samples?5Data?5?$AA@ 10166fa8     GuBigConvexData.obj
 0002:00005fe8       ??_C@_0EG@DKCFKAGO@C?3?2PhysX?5SDK?2PhysX?93?43?9master?2Ph@ 10166fe8     GuConvexHelper.obj
 0002:00006040       ??_C@_0EP@MCIEFEGM@C?3?2PhysX?5SDK?2PhysX?93?43?9master?2Ph@ 10167040     GuConvexHelper.obj
 0002:000060a0       ??_C@_0CO@FOLIGLOK@?4?4?2?4?4?2GeomUtils?2src?2convex?2GuCon@ 101670a0     GuConvexHelper.obj
 0002:000060d8       ??_C@_0CH@GCHNPLOI@?$CBshapeConvex?4hullData?9?$DOmAABB?4isE@ 101670d8     GuConvexHelper.obj
 0002:00006108       ??_C@_0EE@HBPDODHM@Internal?5error?3?5max?5nb?5edges?5rea@ 10167108     GuConvexHelper.obj
 0002:0000615c       ??_C@_0N@CDGINLLF@PxConvexMesh?$AA@ 1016715c     GuConvexMesh.obj
 0002:0000616c       ??_7PxConvexMesh@physx@@6B@ 1016716c     GuConvexMesh.obj
 0002:000061ac       ??_7RefCountable@Cm@physx@@6B@ 101671ac     GuConvexMesh.obj
 0002:000061b8       ??_C@_0EK@IMLEBGHB@C?3?2PhysX?5SDK?2PhysX?93?43?9master?2Ph@ 101671b8     GuConvexMesh.obj
 0002:00006210       ??_C@_0N@BBDNFLJE@mRefCount?$CB?$DN0?$AA@ 10167210     GuConvexMesh.obj
 0002:00006220       ??_C@_0M@LIFNGCHH@mRefCount?$DO0?$AA@ 10167220     GuConvexMesh.obj
 0002:00006230       ??_7ConvexMesh@Gu@physx@@6BPxConvexMesh@2@@ 10167230     GuConvexMesh.obj
 0002:00006278       ??_7ConvexMesh@Gu@physx@@6BRefCountable@Cm@2@@ 10167278     GuConvexMesh.obj
 0002:00006288       ??_C@_0FC@CIPBHEGL@c?3?2physx?5sdk?2physx?93?43?9master?2ph@ 10167288     GuConvexMesh.obj
 0002:000062ec       ??_C@_0BK@JMCAOFLN@mHullData?4mAABB?4isValid?$CI?$CJ?$AA@ 101672ec     GuConvexMesh.obj
 0002:0000630c       ??_7GuMeshFactory@physx@@6B@ 1016730c     GuConvexMesh.obj
 0002:00006310       ??_C@_0BE@EJGGFHND@ConvexHullData?5data?$AA@ 10167310     GuConvexMesh.obj
 0002:00006328       ??_C@_0CM@DABFPBIC@?4?4?2?4?4?2GeomUtils?2src?2convex?2GuCon@ 10167328     GuConvexMesh.obj
 0002:0000635c       ??_C@_0CO@ECOAJMAD@?$CB?$CIsize_t?$CImDataHullVertices?$CJ?5?$CF?5si@ 1016735c     GuConvexMesh.obj
 0002:00006394       ??_C@_0CL@HKBLGOPN@?$CB?$CIsize_t?$CIdata?4mPolygons?$CJ?5?$CF?5sizeo@ 10167394     GuConvexMesh.obj
 0002:000063c8       ??_C@_0DB@PCJABBEE@size_t?$CIaddress?$CJ?$DM?$DNsize_t?$CImDataMem@ 101673c8     GuConvexMesh.obj
 0002:00006408       ??_C@_0JL@ECHHLPCO@Loading?5convex?5mesh?5failed?3?5Depr@ 10167408     GuConvexMesh.obj
 0002:000064c4       ??_C@_0BF@JBFMCKMN@gaussMapFlag?5?$DN?$DN?51?40f?$AA@ 101674c4     GuConvexMesh.obj
 0002:000064e0       ??_C@_0DD@GDAMDLJL@Gu?3?3ConvexMesh?3?3release?3?5double?5@ 101674e0     GuConvexMesh.obj
 0002:00006540       __xmm@000000000000000000000000ffffffff 10167540     GuConvexSupportTable.obj
 0002:00006560       __xmm@0000000000000000ffffffff00000000 10167560     GuConvexSupportTable.obj
 0002:00006580       __xmm@0000000000000000ffffffffffffffff 10167580     GuConvexSupportTable.obj
 0002:000065a0       __xmm@00000000ffffffff0000000000000000 101675a0     GuConvexSupportTable.obj
 0002:000065c0       __xmm@00000000ffffffff00000000ffffffff 101675c0     GuConvexSupportTable.obj
 0002:000065e0       __xmm@00000000ffffffffffffffff00000000 101675e0     GuConvexSupportTable.obj
 0002:00006600       __xmm@00000000ffffffffffffffffffffffff 10167600     GuConvexSupportTable.obj
 0002:00006614       ??_C@_0CO@BGMKCFHK@?4?4?2?4?4?2GeomUtils?2src?2convex?2GuHil@ 10167614     GuHillClimbing.obj
 0002:0000664c       ??_C@_0N@EBIPONNP@verts?5?$CG?$CG?5val?$AA@ 1016764c     GuHillClimbing.obj
 0002:0000665c       ??_C@_0BB@ILEENMEP@Valencies?5?$CG?$CG?5Adj?$AA@ 1016765c     GuHillClimbing.obj
 0002:000066ac       ??_C@_0CN@HEHHLFAL@?4?4?2?4?4?2GeomUtils?2src?2convex?2GuSha@ 101676ac     GuShapeConvex.obj
 0002:000066e4       ??_C@_08PJAGNENM@maxDp?$DO?$DN0?$AA@ 101676e4     GuShapeConvex.obj
 0002:000066f0       ??_C@_0BD@ELJMHHHN@maximum?5?$DO?$DN?5minimum?$AA@ 101676f0     GuShapeConvex.obj
 0002:00006708       ??_C@_0BJ@LGLNNFAE@ED?$FLclosestEdge?$FN?4Count?$DN?$DN2?$AA@ 10167708     GuShapeConvex.obj
 0002:00006728       ??_C@_0CP@KIMKGGGP@mPolygons?$FL1?$FN?4getMin?$CImVertices?$CJ?5?$DN@ 10167728     GuShapeConvex.obj
 0002:00006760       ??_C@_0CP@HCFLEOBA@mPolygons?$FL3?$FN?4getMin?$CImVertices?$CJ?5?$DN@ 10167760     GuShapeConvex.obj
 0002:00006798       ??_C@_0CP@FPHCBGIO@mPolygons?$FL4?$FN?4getMin?$CImVertices?$CJ?5?$DN@ 10167798     GuShapeConvex.obj
 0002:000067d0       ??_C@_0CP@NPICABJB@mPolygons?$FL5?$FN?4getMin?$CImVertices?$CJ?5?$DN@ 101677d0     GuShapeConvex.obj
 0002:00006808       ??_C@_0CP@MAJNDLIN@mPolygons?$FL2?$FN?4getMin?$CImVertices?$CJ?5?$DN@ 10167808     GuShapeConvex.obj
 0002:00006840       ??_C@_0CP@BKAMBDPC@mPolygons?$FL0?$FN?4getMin?$CImVertices?$CJ?5?$DN@ 10167840     GuShapeConvex.obj
 0002:00006878       __real@bf3504f3            10167878     GuShapeConvex.obj
 0002:000068c0       __xmm@ffffffffffffffffffffffffffffffff 101678c0     GuDistancePointTriangle.obj
 0002:00006914       __real@34000000            10167914     GuDistanceSegmentSegment.obj
 0002:00006934       __real@2b8cbccc            10167934     GuDistanceSegmentTriangle.obj
 0002:00006958       ??_C@_0FK@EKFJEGDI@c?3?2physx?5sdk?2physx?93?43?9master?2ph@ 10167958     GuSweepBoxBox.obj
 0002:000069c4       ??_C@_0BF@FMFPKEFL@mData?4mExtraTrigData?$AA@ 101679c4     GuSweepBoxBox.obj
 0002:000069e0       ??_C@_0N@BIOECAPM@mAdjacencies?$AA@ 101679e0     GuSweepBoxBox.obj
 0002:000069f0       ??_7TriangleMesh@Gu@physx@@6BPxTriangleMesh@2@@ 101679f0     GuSweepBoxBox.obj
 0002:00006a3c       ??_7TriangleMesh@Gu@physx@@6BRefCountable@Cm@2@@ 10167a3c     GuSweepBoxBox.obj
 0002:00006a48       ??_C@_0FC@LFHCEPMG@C?3?2PhysX?5SDK?2PhysX?93?43?9master?2Ph@ 10167a48     GuSweepBoxBox.obj
 0002:00006aac       ??_C@_0BM@JDJKFDJE@mMesh?4mData?4mAABB?4isValid?$CI?$CJ?$AA@ 10167aac     GuSweepBoxBox.obj
 0002:00006ad0       ??_C@_0CM@ECLAEIKF@?4?4?2?4?4?2GeomUtils?2src?2sweep?2GuSwee@ 10167ad0     GuSweepBoxBox.obj
 0002:00006b04       ??_C@_0N@KNDEANMD@edgeIndex?$DM12?$AA@ 10167b04     GuSweepBoxBox.obj
 0002:00006b34       __real@b727c5ac            10167b34     GuSweepBoxSphere.obj
 0002:00006b54       ??_C@_0DO@OPNPODDL@?4?4?2?4?4?2GeomUtils?2src?2sweep?2GuSwee@ 10167b54     GuSweepBoxTriangle_FeatureBased.obj
 0002:00006ba0       ??_C@_0EK@MFHHLMHC@plane?5?$DN?$DN?5intersectRayAABB?$CIMin?0?5M@ 10167ba0     GuSweepBoxTriangle_FeatureBased.obj
 0002:00006bf8       ??_C@_0BK@NNMDBNO@saved_j?5?$CB?$DN?5PX_INVALID_U32?$AA@ 10167bf8     GuSweepBoxTriangle_FeatureBased.obj
 0002:00006c18       ??_C@_0BK@GILLAKJI@saved_k?5?$CB?$DN?5PX_INVALID_U32?$AA@ 10167c18     GuSweepBoxTriangle_FeatureBased.obj
 0002:00006c38       __real@3727c5ac            10167c38     GuSweepBoxTriangle_FeatureBased.obj
 0002:00006c3c       __real@3ca3d70a            10167c3c     GuSweepBoxTriangle_FeatureBased.obj
 0002:00006c74       ??_C@_0DA@IFKKGIIO@?4?4?2?4?4?2GeomUtils?2src?2sweep?2GuSwee@ 10167c74     GuSweepCapsuleBox.obj
 0002:00006cb0       ??_C@_0N@JMKKNOMA@nbTris?$DM?$DN12?$CK7?$AA@ 10167cb0     GuSweepCapsuleBox.obj
 0002:00006cf8       ??_C@_0FJ@HNCMJLMM@c?3?2physx?5sdk?2physx?93?43?9master?2ph@ 10167cf8     GuSweepCapsuleTriangle.obj
 0002:00006d64       ??_C@_0BG@CGMKKMHE@?$CKcachedIndex?5?$DM?5nbTris?$AA@ 10167d64     GuSweepCapsuleTriangle.obj
 0002:00006d80       ??_C@_0BI@NPIPIEPD@normal?4dot?$CIdir?$CJ?5?$DM?$DN?50?40f?$AA@ 10167d80     GuSweepCapsuleTriangle.obj
 0002:00006d9c       __real@3f7fff58            10167d9c     GuSweepCapsuleTriangle.obj
 0002:00006db4       ??_C@_0DC@OPFNJFGG@?4?4?2?4?4?2GeomUtils?2src?2sweep?2GuSwee@ 10167db4     GuSweepSphereSphere.obj
 0002:00006df0       ??_C@_07KBLCOPNC@a?$CB?$DN0?40f?$AA@ 10167df0     GuSweepSphereSphere.obj
 0002:00006e14       ??_C@_0DE@FJLCAKOC@?4?4?2?4?4?2GeomUtils?2src?2sweep?2GuSwee@ 10167e14     GuSweepSphereTriangle.obj
 0002:00006e54       ??_C@_09ONFGPHMK@u?$CLv?$DO?$DN1?40f?$AA@ 10167e54     GuSweepSphereTriangle.obj
 0002:00006e60       __real@41200000            10167e60     GuSweepSphereTriangle.obj
 0002:00006e84       ??_C@_0DD@MPCABPBN@?4?4?2?4?4?2GeomUtils?2src?2sweep?2GuSwee@ 10167e84     GuSweepTriangleUtils.obj
 0002:00006ec4       ??_C@_0M@GMHMIFE@ADotA?$CB?$DN0?40f?$AA@ 10167ec4     GuSweepTriangleUtils.obj
 0002:00006ed4       ??_C@_0M@PPNGBNEH@BDotB?$CB?$DN0?40f?$AA@ 10167ed4     GuSweepTriangleUtils.obj
 0002:00006ee4       __real@3d4ccccd            10167ee4     GuSweepTriangleUtils.obj
 0002:00006ee8       __real@3eaaaa9f            10167ee8     GuSweepTriangleUtils.obj
 0002:00006f20       ?absMask@?1??FAbs@aos@shdfnd@physx@@YA?AT__m128@@T5@@Z@4QBIB 10167f20     GuEPA.obj
 0002:00006f34       ??_C@_0M@PNONEMFD@value?$DM?$DN0x7f?$AA@ 10167f34     GuEPA.obj
 0002:00006f48       ??_C@_0EN@FHBOOHCB@c?3?2physx?5sdk?2physx?93?43?9master?2ph@ 10167f48     GuEPA.obj
 0002:00006fa4       ??_C@_0M@LNIGABHK@m_index?5?$DM?53?$AA@ 10167fa4     GuEPA.obj
 0002:00006fb4       ??_C@_0BC@LIJHKLAA@m_Size?5?$DM?5MaxEdges?$AA@ 10167fb4     GuEPA.obj
 0002:00006fcc       ??_C@_0P@HAJKNGOK@index?5?$DM?5m_Size?$AA@ 10167fcc     GuEPA.obj
 0002:00006fe0       ??_C@_0EP@IDFGKAOP@c?3?2physx?5sdk?2physx?93?43?9master?2ph@ 10167fe0     GuEPA.obj
 0002:00007040       ??_C@_0CC@FCABCMKM@?4?4?2?4?4?2GeomUtils?2src?2gjk?2GuEPA?4cp@ 10168040     GuEPA.obj
 0002:00007068       ??_C@_0CB@PHNOJDBP@i0?5?$CB?$DN?5i1?5?$CG?$CG?5i0?5?$CB?$DN?5i2?5?$CG?$CG?5i1?5?$CB?$DN?5i2@ 10168068     GuEPA.obj
 0002:00007090       ??_C@_0CI@CAIKJMIF@facetManager?4getNumUsedID?$CI?$CJ?5?$DM?5Ma@ 10168090     GuEPA.obj
 0002:000070c0       ??_C@_0L@ODIJAOKC@f?9?$DOValid?$CI?$CJ?$AA@ 101680c0     GuEPA.obj
 0002:000070d0       ??_C@_0BC@JBJCCDFM@size?5?$DM?$DN?5MaxFacets?$AA@ 101680d0     GuEPA.obj
 0002:000070e8       ??_C@_0BH@NAOKBANN@f0?9?$DOm_planeDist?5?$DO?$DN?50?4f?$AA@ 101680e8     GuEPA.obj
 0002:00007104       ??_C@_0BH@MHMCHEBN@f1?9?$DOm_planeDist?5?$DO?$DN?50?4f?$AA@ 10168104     GuEPA.obj
 0002:00007120       ??_C@_0BH@POLKNJFN@f2?9?$DOm_planeDist?5?$DO?$DN?50?4f?$AA@ 10168120     GuEPA.obj
 0002:0000713c       ??_C@_0BH@OJJCLNJN@f3?9?$DOm_planeDist?5?$DO?$DN?50?4f?$AA@ 1016813c     GuEPA.obj
 0002:00007158       ??_C@_0L@LEMJOOJC@firstFacet?$AA@ 10168158     GuEPA.obj
 0002:00007168       ??_C@_08GNBMKLEF@newFacet?$AA@ 10168168     GuEPA.obj
 0002:00007174       ??_C@_0O@IHGLOLNO@mHeapSize?5?$DO?50?$AA@ 10168174     GuEPA.obj
 0002:00007184       ??_C@_0N@ONNGEMCM@i?5?$DM?5Capacity?$AA@ 10168184     GuEPA.obj
 0002:00007194       ??_C@_07PAGLMNCK@valid?$CI?$CJ?$AA@ 10168194     GuEPA.obj
 0002:000071a0       ??_C@_0BM@JAPEJJIP@?$CIPxU32?$CJmHeapSize?5?$DM?5Capacity?$AA@ 101681a0     GuEPA.obj
 0002:000071c8       ??_C@_0EE@PJCBHNJB@C?3?2PhysX?5SDK?2PhysX?93?43?9master?2Ph@ 101681c8     GuEPA.obj
 0002:0000721c       ??_C@_09OCPDOMNM@index?5?$DM?5N?$AA@ 1016821c     GuEPA.obj
 0002:00007228       ??_C@_09JKAIBPGD@mSize?5?$DO?50?$AA@ 10168228     GuEPA.obj
 0002:00007234       ??_C@_09IBLNIDJA@mSize?5?$DM?5N?$AA@ 10168234     GuEPA.obj
 0002:00007240       __real@3f5db3d7            10168240     GuEPA.obj
 0002:00007244       __real@bf000000            10168244     GuEPA.obj
 0002:00007264       ??_7EPASupportMapPair@Gu@physx@@6B@ 10168264     GuEPAPenetrationWrapper.obj
 0002:00007278       ??_7?$EPASupportMapPairLocalImpl@VCapsuleV@Gu@physx@@VBoxV@23@@Gu@physx@@6B@ 10168278     GuEPAPenetrationWrapper.obj
 0002:0000728c       ??_7?$EPASupportMapPairLocalImpl@VCapsuleV@Gu@physx@@VConvexHullV@23@@Gu@physx@@6B@ 1016828c     GuEPAPenetrationWrapper.obj
 0002:000072a0       ??_7?$EPASupportMapPairLocalImpl@VTriangleV@Gu@physx@@VBoxV@23@@Gu@physx@@6B@ 101682a0     GuEPAPenetrationWrapper.obj
 0002:000072b4       ??_7?$EPASupportMapPairLocalImpl@VTriangleV@Gu@physx@@VConvexHullV@23@@Gu@physx@@6B@ 101682b4     GuEPAPenetrationWrapper.obj
 0002:000072c8       ??_7?$EPASupportMapPairRelativeImpl@VBoxV@Gu@physx@@V123@@Gu@physx@@6B@ 101682c8     GuEPAPenetrationWrapper.obj
 0002:000072dc       ??_7?$EPASupportMapPairRelativeImpl@VBoxV@Gu@physx@@VConvexHullV@23@@Gu@physx@@6B@ 101682dc     GuEPAPenetrationWrapper.obj
 0002:000072f0       ??_7?$EPASupportMapPairRelativeImpl@VConvexHullV@Gu@physx@@V123@@Gu@physx@@6B@ 101682f0     GuEPAPenetrationWrapper.obj
 0002:00007304       ??_7?$EPASupportMapPairRelativeImpl@VConvexHullNoScaleV@Gu@physx@@V123@@Gu@physx@@6B@ 10168304     GuEPAPenetrationWrapper.obj
 0002:00007318       ??_7?$EPASupportMapPairRelativeImpl@VConvexHullNoScaleV@Gu@physx@@VConvexHullV@23@@Gu@physx@@6B@ 10168318     GuEPAPenetrationWrapper.obj
 0002:0000732c       ??_7?$EPASupportMapPairRelativeImpl@VConvexHullV@Gu@physx@@VConvexHullNoScaleV@23@@Gu@physx@@6B@ 1016832c     GuEPAPenetrationWrapper.obj
 0002:00007358       ??_C@_0FK@HDGBNEMB@c?3?2physx?5sdk?2physx?93?43?9master?2ph@ 10168358     GuGJKFallBack.obj
 0002:000073c4       ??_C@_0CK@DDNLKJCJ@?4?4?2?4?4?2GeomUtils?2src?2gjk?2GuGJKFal@ 101683c4     GuGJKFallBack.obj
 0002:000073f8       ??_C@_0BE@GEKHCPBA@size?5?$DM?5MaxStackSize?$AA@ 101683f8     GuGJKFallBack.obj
 0002:00007410       ??_C@_08PHAGGDFH@size?5?$DM?54?$AA@ 10168410     GuGJKFallBack.obj
 0002:0000741c       __real@396bedfa            1016841c     GuGJKFallBack.obj
 0002:00007434       ??_C@_08CDCEHMFH@value?$DO?$DN0?$AA@ 10168434     GuGJKPenetrationWrapper.obj
 0002:00007440       ??_C@_0FD@NGJEJAO@c?3?2physx?5sdk?2physx?93?43?9master?2ph@ 10168440     GuGJKPenetrationWrapper.obj
 0002:000074a4       ??_C@_08OCOCIPGO@bIndices?$AA@ 101684a4     GuGJKPenetrationWrapper.obj
 0002:000074b0       ??_C@_0BH@FPPAOKKA@FAllGrtr?$CIdist?0?5FEps?$CI?$CJ?$CJ?$AA@ 101684b0     GuGJKPenetrationWrapper.obj
 0002:000074cc       ??_C@_09PHIOLFCN@size?5?$DM?$DN?54?$AA@ 101684cc     GuGJKPenetrationWrapper.obj
 0002:000074d8       __real@39d1b717            101684d8     GuGJKPenetrationWrapper.obj
 0002:00007514       ??_C@_0DE@OMJPPAHE@?4?4?2?4?4?2GeomUtils?2src?2gjk?2GuGJKSim@ 10168514     GuGJKSimplexTesselation.obj
 0002:00007554       ??_C@_0CC@LKPHKBJK@V3AllEq?$CItriNormal?0?5V3Zero?$CI?$CJ?$CJ?5?$DN?$DN?5@ 10168554     GuGJKSimplexTesselation.obj
 0002:0000757c       __real@42c80000            1016857c     GuGJKSimplexTesselation.obj
 0002:00007580       __real@461c4000            10168580     GuGJKSimplexTesselation.obj
 0002:000075a4       ??_7SupportMap@Gu@physx@@6B@ 101685a4     GuGJKWrapper.obj
 0002:000075b8       ??_C@_0EI@LGKBDHLG@c?3?2physx?5sdk?2physx?93?43?9master?2ph@ 101685b8     GuGJKWrapper.obj
 0002:00007610       ??_7?$SupportMapRelativeImpl@VBoxV@Gu@physx@@@Gu@physx@@6B@ 10168610     GuGJKWrapper.obj
 0002:00007624       ??_7?$SupportMapLocalImpl@VConvexHullV@Gu@physx@@@Gu@physx@@6B@ 10168624     GuGJKWrapper.obj
 0002:00007638       ??_7?$SupportMapRelativeImpl@VConvexHullV@Gu@physx@@@Gu@physx@@6B@ 10168638     GuGJKWrapper.obj
 0002:0000764c       ??_7?$EPASupportMapPairLocalImpl@VTriangleV@Gu@physx@@VCapsuleV@23@@Gu@physx@@6B@ 1016864c     GuGJKWrapper.obj
 0002:00007660       ??_7?$EPASupportMapPairRelativeImpl@VTriangleV@Gu@physx@@VBoxV@23@@Gu@physx@@6B@ 10168660     GuGJKWrapper.obj
 0002:00007674       ??_7?$EPASupportMapPairRelativeImpl@VTriangleV@Gu@physx@@VCapsuleV@23@@Gu@physx@@6B@ 10168674     GuGJKWrapper.obj
 0002:00007688       ??_7?$EPASupportMapPairRelativeImpl@VTriangleV@Gu@physx@@VConvexHullV@23@@Gu@physx@@6B@ 10168688     GuGJKWrapper.obj
 0002:0000769c       ??_7?$EPASupportMapPairRelativeImpl@VCapsuleV@Gu@physx@@V123@@Gu@physx@@6B@ 1016869c     GuGJKWrapper.obj
 0002:000076b0       ??_7?$EPASupportMapPairRelativeImpl@VCapsuleV@Gu@physx@@VBoxV@23@@Gu@physx@@6B@ 101686b0     GuGJKWrapper.obj
 0002:000076c4       ??_7?$EPASupportMapPairRelativeImpl@VCapsuleV@Gu@physx@@VConvexHullV@23@@Gu@physx@@6B@ 101686c4     GuGJKWrapper.obj
 0002:000076d8       ??_C@_0EP@GAGDBOAP@c?3?2physx?5sdk?2physx?93?43?9master?2ph@ 101686d8     GuGJKWrapper.obj
 0002:00007760       __xmm@ffffffffffffffffffffffff00000000 10168760     GuVecBox.obj
 0002:00007794       ??_C@_0DK@MDNFFPGJ@?4?4?2?4?4?2GeomUtils?2src?2intersection@ 10168794     GuIntersectionRayBox.obj
 0002:000077dc       ??_C@_0CP@OHMNLEPM@maximum?4x?9minimum?4x?5?$DO?$DN?5GU_MIN_AA@ 101687dc     GuIntersectionRayBox.obj
 0002:00007814       ??_C@_0CP@MKEDGGHB@maximum?4y?9minimum?4y?5?$DO?$DN?5GU_MIN_AA@ 10168814     GuIntersectionRayBox.obj
 0002:0000784c       ??_C@_0CP@LMNABBOG@maximum?4z?9minimum?4z?5?$DO?$DN?5GU_MIN_AA@ 1016884c     GuIntersectionRayBox.obj
 0002:00007884       __real@3089705f            10168884     GuIntersectionRayBox.obj
 0002:00007888       __real@3a03126f            10168888     GuIntersectionRayBox.obj
 0002:0000788c       __real@40a00000            1016888c     GuIntersectionRayBox.obj
 0002:00007890       __real@b4000000            10168890     GuIntersectionRayBox.obj
 0002:000078b4       __real@3f7ffffe            101688b4     GuIntersectionRayCapsule.obj
 0002:000078e0       __xmm@ffffffffffffffff00000000ffffffff 101688e0     GuIntersectionTriangleBox.obj
 0002:000078f4       ??_C@_0DE@DHOAGBNA@?4?4?2?4?4?2GeomUtils?2src?2mesh?2GuInter@ 101688f4     GuInternalTriangleMesh.obj
 0002:00007934       ??_C@_0BB@ECLKCDNJ@?$CBmData?4mVertices?$AA@ 10168934     GuInternalTriangleMesh.obj
 0002:00007948       ??_C@_06KDGGGLIJ@PxVec3?$AA@ 10168948     GuInternalTriangleMesh.obj
 0002:00007950       ??_C@_0BC@KOBKJNMH@?$CBmData?4mTriangles?$AA@ 10168950     GuInternalTriangleMesh.obj
 0002:00007968       ??_C@_0BB@LCPKKNOG@mData?4mTriangles?$AA@ 10168968     GuInternalTriangleMesh.obj
 0002:0000797c       ??_C@_0BC@JJFONCPB@?$CBmMaterialIndices?$AA@ 1016897c     GuInternalTriangleMesh.obj
 0002:00007994       ??_C@_0M@HMFKPFNM@?$CBmFaceRemap?$AA@ 10168994     GuInternalTriangleMesh.obj
 0002:000079a4       ??_C@_0O@JGEAIGBH@?$CBmAdjacencies?$AA@ 101689a4     GuInternalTriangleMesh.obj
 0002:000079b8       ??_C@_0FG@PKANIOEJ@Obsolete?5cooked?5mesh?5found?4?5Mesh@ 101689b8     GuInternalTriangleMesh.obj
 0002:00007a20       ??_C@_0BP@CDOKDACA@RTree?5binary?5image?5load?5error?4?$AA@ 10168a20     GuInternalTriangleMesh.obj
 0002:00007a48       ??_C@_0CM@PCALKPID@MeshInterface?3?3SetPointers?3?5poin@ 10168a48     GuMeshInterface.obj
 0002:00007a7c       ??_C@_0CN@EAJLGEFM@?4?4?2?4?4?2GeomUtils?2src?2mesh?2GuMeshI@ 10168a7c     GuMeshInterface.obj
 0002:00007ad8       ??_C@_0ED@DEIKAHMD@c?3?2physx?5sdk?2physx?93?43?9master?2ph@ 10168ad8     GuMeshQuery.obj
 0002:00007b28       ??_C@_0FC@JOLMEIIM@c?3?2physx?5sdk?2physx?93?43?9master?2ph@ 10168b28     GuMeshQuery.obj
 0002:00007b8c       ??_7HfTrianglesEntityReport2@?A0x6f1dce09@@6B@ 10168b8c     GuMeshQuery.obj
 0002:00007b98       ??_C@_0DK@FFHPKGEP@PxMeshQuery?3?3getTriangle?3?5triang@ 10168b98     GuMeshQuery.obj
 0002:00007be0       ??_C@_0CJ@EBMNMENK@?4?4?2?4?4?2GeomUtils?2src?2mesh?2GuMeshQ@ 10168be0     GuMeshQuery.obj
 0002:00007c18       ??_C@_0FD@EHCCILIF@Adjacency?5information?5not?5create@ 10168c18     GuMeshQuery.obj
 0002:00007c80       ??_C@_0FA@MCAAGAGM@findOverlapTriangleMesh?3?5Only?5bo@ 10168c80     GuMeshQuery.obj
 0002:00007ce0       ??_C@_0EM@BEFNLPHI@findOverlapHeightField?3?5Only?5box@ 10168ce0     GuMeshQuery.obj
 0002:00007d3c       ??_C@_0CP@HDNNPJFC@Gu?3?3GeometryQuery?3?3sweep?$CI?$CJ?3?5pose@ 10168d3c     GuMeshQuery.obj
 0002:00007d74       ??_C@_0DC@OFHNHMMB@Gu?3?3GeometryQuery?3?3sweep?$CI?$CJ?3?5unit@ 10168d74     GuMeshQuery.obj
 0002:00007db0       ??_C@_0DD@DBDCFCCE@Gu?3?3GeometryQuery?3?3sweep?$CI?$CJ?3?5dist@ 10168db0     GuMeshQuery.obj
 0002:00007df0       ??_C@_0ED@CPNPLCJA@Gu?3?3GeometryQuery?3?3sweep?$CI?$CJ?3?5swee@ 10168df0     GuMeshQuery.obj
 0002:00007e40       ??_C@_0FP@FMGEIBGF@Gu?3?3GeometryQuery?3?3sweep?$CI?$CJ?3?5geom@ 10168e40     GuMeshQuery.obj
 0002:00007eb4       __real@4cbebc20            10168eb4     GuMeshQuery.obj
 0002:00007ed4       ??_7Callback@RTree@Gu@physx@@6B@ 10168ed4     GuMidphase.obj
 0002:00007ee4       ??_7CallbackRaycast@RTree@Gu@physx@@6B@ 10168ee4     GuMidphase.obj
 0002:00007ef0       ??_C@_0EP@MAJFJIEM@C?3?2PhysX?5SDK?2PhysX?93?43?9master?2Ph@ 10168ef0     GuMidphase.obj
 0002:00007f50       ??_7?$RayRTreeCallback@$0A@$0A@@@6BCallbackRaycast@RTree@Gu@physx@@@ 10168f50     GuMidphase.obj
 0002:00007f5c       ??_7?$RayRTreeCallback@$0A@$0A@@@6BCallback@RTree@Gu@physx@@@ 10168f5c     GuMidphase.obj
 0002:00007f6c       ??_C@_0CI@LCJGMKNP@?4?4?2?4?4?2GeomUtils?2src?2mesh?2GuMidph@ 10168f6c     GuMidphase.obj
 0002:00007f9c       ??_C@_0BO@PKHBOHAH@outerCallback?4inClosestMode?$CI?$CJ?$AA@ 10168f9c     GuMidphase.obj
 0002:00007fc0       ??_C@_0BA@JHBBDNEI@NumTouched?5?$DN?$DN?51?$AA@ 10168fc0     GuMidphase.obj
 0002:00007fd4       ??_C@_0P@NOLDENKN@NumTouched?5?$DO?50?$AA@ 10168fd4     GuMidphase.obj
 0002:00007fe8       ??_C@_0BJ@OMCMLIFJ@tempHit?4distance?5?$DO?$DN?50?40f?$AA@ 10168fe8     GuMidphase.obj
 0002:00008008       ??_C@_0CD@DHEFIFOD@closestHit?4distance?5?$DN?$DN?5PX_MAX_RE@ 10169008     GuMidphase.obj
 0002:00008034       ??_7?$RayRTreeCallback@$00$0A@@@6BCallbackRaycast@RTree@Gu@physx@@@ 10169034     GuMidphase.obj
 0002:00008040       ??_7?$RayRTreeCallback@$00$0A@@@6BCallback@RTree@Gu@physx@@@ 10169040     GuMidphase.obj
 0002:00008050       ??_7?$RayRTreeCallback@$0A@$00@@6BCallbackRaycast@RTree@Gu@physx@@@ 10169050     GuMidphase.obj
 0002:0000805c       ??_7?$RayRTreeCallback@$0A@$00@@6BCallback@RTree@Gu@physx@@@ 1016905c     GuMidphase.obj
 0002:0000806c       ??_7?$RayRTreeCallback@$00$00@@6BCallbackRaycast@RTree@Gu@physx@@@ 1016906c     GuMidphase.obj
 0002:00008078       ??_7?$RayRTreeCallback@$00$00@@6BCallback@RTree@Gu@physx@@@ 10169078     GuMidphase.obj
 0002:000080a8       ??_C@_0FC@DDPHDCB@C?3?2PhysX?5SDK?2PhysX?93?43?9master?2Ph@ 101690a8     GuOverlapTestsMesh.obj
 0002:0000810c       ??_C@_0DA@EHIAANNM@?4?4?2?4?4?2GeomUtils?2src?2mesh?2GuOverl@ 1016910c     GuOverlapTestsMesh.obj
 0002:00008148       ??_C@_0DA@FHGGPFND@geom?4getType?$CI?$CJ?5?$DN?$DN?5PxGeometryType@ 10169148     GuOverlapTestsMesh.obj
 0002:00008184       ??_C@_0CJ@NHIKKCNE@geom0?4getType?$CI?$CJ?$DN?$DNPxGeometryType?3@ 10169184     GuOverlapTestsMesh.obj
 0002:000081b8       ??_C@_0CP@BJEIKFHK@geom1?4getType?$CI?$CJ?$DN?$DNPxGeometryType?3@ 101691b8     GuOverlapTestsMesh.obj
 0002:000081f0       ??_C@_0CK@CDFGGAJM@geom0?4getType?$CI?$CJ?$DN?$DNPxGeometryType?3@ 101691f0     GuOverlapTestsMesh.obj
 0002:00008224       ??_C@_0CG@CNFBAFOD@geom0?4getType?$CI?$CJ?$DN?$DNPxGeometryType?3@ 10169224     GuOverlapTestsMesh.obj
 0002:00008254       ??_7ConvexVsMeshOverlapCallback@@6B@ 10169254     GuOverlapTestsMesh.obj
 0002:00008260       ??_C@_0CN@BEKOBDIM@geom0?4getType?$CI?$CJ?$DN?$DNPxGeometryType?3@ 10169260     GuOverlapTestsMesh.obj
 0002:00008298       ??_C@_0CE@BJGAPCIE@?$CBcm?9?$DOgetLocalBoundsFast?$CI?$CJ?4isEmpt@ 10169298     GuOverlapTestsMesh.obj
 0002:000082c4       ??_7?$IntersectAnyVsMeshCallback@$0A@$00@@6B@ 101692c4     GuOverlapTestsMesh.obj
 0002:000082d0       ??_7?$IntersectAnyVsMeshCallback@$0A@$0A@@@6B@ 101692d0     GuOverlapTestsMesh.obj
 0002:000082dc       ??_7?$IntersectAnyVsMeshCallback@$00$00@@6B@ 101692dc     GuOverlapTestsMesh.obj
 0002:000082e8       ??_7?$IntersectAnyVsMeshCallback@$00$0A@@@6B@ 101692e8     GuOverlapTestsMesh.obj
 0002:000082f4       ??_7?$IntersectAnyVsMeshCallback@$01$00@@6B@ 101692f4     GuOverlapTestsMesh.obj
 0002:00008300       ??_7?$IntersectAnyVsMeshCallback@$01$0A@@@6B@ 10169300     GuOverlapTestsMesh.obj
 0002:0000830c       ??_C@_0N@CPIMPPGB@tSCB?5?$DN?$DN?5eBOX?$AA@ 1016930c     GuOverlapTestsMesh.obj
 0002:0000831c       __real@3e4ccccd            1016931c     GuOverlapTestsMesh.obj
 0002:00008320       ?MN@RTreePage@Gu@physx@@2MB 10169320     GuRTree.obj
 0002:00008324       ?MX@RTreePage@Gu@physx@@2MB 10169324     GuRTree.obj
 0002:0000832c       ??_C@_0CF@JNCLIKON@?4?4?2?4?4?2GeomUtils?2src?2mesh?2GuRTree@ 1016932c     GuRTree.obj
 0002:00008358       ??_C@_0CC@OILHDHHM@?$CICm?3?3MemFetchPtr?$CIthis?$CJ?5?$CG?515?$CJ?5?$DN?$DN?5@ 10169358     GuRTree.obj
 0002:00008380       ??_C@_0BL@KPCIFPJJ@?$CImFlags?5?$CG?5IS_DYNAMIC?$CJ?5?$DN?$DN?50?$AA@ 10169380     GuRTree.obj
 0002:000083a0       ??_C@_0O@GAOCDILC@rightMostPage?$AA@ 101693a0     GuRTree.obj
 0002:000083b0       ??_C@_0CA@HDBEKEKD@nc?5?$DO?50?5?$CG?$CG?5nc?5?$DM?$DN?5RTreePage?3?3SIZE?$AA@ 101693b0     GuRTree.obj
 0002:000083d8       ??_C@_0BN@KPHCMAO@ptr?5?$CF?5sizeof?$CIRTreePage?$CJ?5?$DN?$DN?50?$AA@ 101693d8     GuRTree.obj
 0002:000083fc       ??_C@_0BM@JFMFECIH@nodeIndex?5?$DM?5RTreePage?3?3SIZE?$AA@ 101693fc     GuRTree.obj
 0002:00008420       ??_C@_0BM@GKEBDLLI@n?4minx?5?$DO?$DN?5parentBounds?4minx?$AA@ 10169420     GuRTree.obj
 0002:00008444       ??_C@_0BM@OICJOACN@n?4miny?5?$DO?$DN?5parentBounds?4miny?$AA@ 10169444     GuRTree.obj
 0002:00008468       ??_C@_0BM@LFOBIKND@n?4minz?5?$DO?$DN?5parentBounds?4minz?$AA@ 10169468     GuRTree.obj
 0002:0000848c       ??_C@_0BM@LAMHHDDC@n?4maxx?5?$DM?$DN?5parentBounds?4maxx?$AA@ 1016948c     GuRTree.obj
 0002:000084b0       ??_C@_0BM@DCKPKIKH@n?4maxy?5?$DM?$DN?5parentBounds?4maxy?$AA@ 101694b0     GuRTree.obj
 0002:000084d4       ??_C@_0BM@GPGHMCFJ@n?4maxz?5?$DM?$DN?5parentBounds?4maxz?$AA@ 101694d4     GuRTree.obj
 0002:000084f8       ??_C@_0P@KAENJLCG@?$CIn?4ptr?$CG1?$CJ?5?$DN?$DN?50?$AA@ 101694f8     GuRTree.obj
 0002:0000850c       ??_C@_0CL@PLNDFHKG@recomputedBounds?4minx?5?$DN?$DN?5parentB@ 1016950c     GuRTree.obj
 0002:00008540       ??_C@_0CL@HJLLIMDD@recomputedBounds?4miny?5?$DN?$DN?5parentB@ 10169540     GuRTree.obj
 0002:00008574       ??_C@_0CL@CEHDOGMN@recomputedBounds?4minz?5?$DN?$DN?5parentB@ 10169574     GuRTree.obj
 0002:000085a8       ??_C@_0CL@MFJBBOFB@recomputedBounds?4maxx?5?$DN?$DN?5parentB@ 101695a8     GuRTree.obj
 0002:000085dc       ??_C@_0CL@EHPJMFME@recomputedBounds?4maxy?5?$DN?$DN?5parentB@ 101695dc     GuRTree.obj
 0002:00008610       ??_C@_0CL@BKDBKPDK@recomputedBounds?4maxz?5?$DN?$DN?5parentB@ 10169610     GuRTree.obj
 0002:00008664       ??_C@_0CM@GMLLNKLB@?4?4?2?4?4?2GeomUtils?2src?2mesh?2GuRTree@ 10169664     GuRTreeQueries.obj
 0002:00008698       ??_C@_08PPIJGMPL@callback?$AA@ 10169698     GuRTreeQueries.obj
 0002:000086a4       ??_C@_0BI@DLFPNEDE@maxResults?5?$DO?$DN?5mPageSize?$AA@ 101696a4     GuRTreeQueries.obj
 0002:000086c0       ??_C@_06MMNBLHOK@mPages?$AA@ 101696c0     GuRTreeQueries.obj
 0002:000086c8       ??_C@_0CF@IBDFPJGG@?$CICm?3?3MemFetchPtr?$CImPages?$CJ?5?$CG?5127?$CJ?5@ 101696c8     GuRTreeQueries.obj
 0002:000086f4       ??_C@_0BM@PMHHGLDD@Ps?3?3isPowerOfTwo?$CImPageSize?$CJ?$AA@ 101696f4     GuRTreeQueries.obj
 0002:00008718       ??_C@_0EF@DCMOALJI@?$CI?$CImFlags?5?$CG?5IS_DYNAMIC?$CJ?5?$CG?$CG?5mNumRo@ 10169718     GuRTreeQueries.obj
 0002:0000876c       ??_C@_0CK@KICLFBBP@?$CBcacheTopValid?5?$HM?$HM?5stackPtr?$FL0?$FN?5?$DN?$DN@ 1016976c     GuRTreeQueries.obj
 0002:000087a0       ??_C@_0CB@LIACHGEF@mPageSize?5?$DN?$DN?54?5?$HM?$HM?5mPageSize?5?$DN?$DN?58@ 101697a0     GuRTreeQueries.obj
 0002:000087c8       ??_C@_0BC@DKBGFHHN@mNumRootPages?5?$DO?50?$AA@ 101697c8     GuRTreeQueries.obj
 0002:000087e0       ??_C@_0CC@FCCCLAGC@?$CBcacheTopValid?5?$HM?$HM?5top?5?$DN?$DN?5cacheTo@ 101697e0     GuRTreeQueries.obj
 0002:00008808       ??_C@_0P@EKDKDKIC@newMaxT?5?$DM?5maxT?$AA@ 10169808     GuRTreeQueries.obj
 0002:0000881c       __real@33d6bf95            1016981c     GuRTreeQueries.obj
 0002:00008838       ??_C@_0EG@IALHKHJC@C?3?2PhysX?5SDK?2PhysX?93?43?9master?2Ph@ 10169838     GuSweepsMesh.obj
 0002:0000888c       ??_C@_0L@PAMJDFLA@r?4isUnit?$CI?$CJ?$AA@ 1016988c     GuSweepsMesh.obj
 0002:000088a0       ??_C@_0EF@LKNEICIN@C?3?2PhysX?5SDK?2PhysX?93?43?9master?2Ph@ 101698a0     GuSweepsMesh.obj
 0002:000088f4       ??_C@_0BC@NPEPHOJ@?$CBbounds?4isEmpty?$CI?$CJ?$AA@ 101698f4     GuSweepsMesh.obj
 0002:00008910       ??_C@_0FC@KIJJGAAO@C?3?2PhysX?5SDK?2PhysX?93?43?9master?2Ph@ 10169910     GuSweepsMesh.obj
 0002:00008974       ??_C@_0BA@PIPMOCIL@isSaneQuatV?$CIq0?$CJ?$AA@ 10169974     GuSweepsMesh.obj
 0002:00008988       ??_7SweepCapsuleCallback@@6B@ 10169988     GuSweepsMesh.obj
 0002:00008994       ??_C@_0CK@HHBNGCIF@?4?4?2?4?4?2GeomUtils?2src?2mesh?2GuSweep@ 10169994     GuSweepsMesh.obj
 0002:000089c8       ??_7SweepBoxMeshHitCallback@@6B@ 101699c8     GuSweepsMesh.obj
 0002:000089d4       ??_7ConvexVsMeshSweepCallback@@6B@ 101699d4     GuSweepsMesh.obj
 0002:000089e0       ??_C@_0DF@BLLPHHKF@aMeshGeom?4getType?$CI?$CJ?5?$DN?$DN?5PxGeometr@ 101699e0     GuSweepsMesh.obj
 0002:00008a20       ??_C@_0CM@PBEOCDPN@?$CBconvexMesh?9?$DOgetLocalBoundsFast?$CI@ 10169a20     GuSweepsMesh.obj
 0002:00008a54       __real@1e3ce508            10169a54     GuSweepsMesh.obj
 0002:00008a58       __real@3f8147ae            10169a58     GuSweepsMesh.obj
 0002:00008a5c       ??_C@_0DF@DNLKAHAL@Gu?3?3TriangleMesh?3?3release?3?5doubl@ 10169a5c     GuTriangleMesh.obj
 0002:00008a9c       ??_C@_0CM@OEFFOGD@?4?4?2?4?4?2GeomUtils?2src?2mesh?2GuTrian@ 10169a9c     GuTriangleMesh.obj
 0002:00008ad0       ??_C@_0GP@NHELMDAL@Loading?5triangle?5mesh?5failed?3?5De@ 10169ad0     GuTriangleMesh.obj
 0002:00008b58       ??_C@_0BM@DFEFHPDN@nb?$DN?$DNmMesh?4getNumTriangles?$CI?$CJ?$AA@ 10169b58     GuTriangleMesh.obj
 0002:00008b7c       ??_C@_0BI@OAKEBHKC@mMesh?4has16BitIndices?$CI?$CJ?$AA@ 10169b7c     GuTriangleMesh.obj
 0002:00008b98       ??_C@_0BF@GFCPFNOD@tmp?5triangle?5indices?$AA@ 10169b98     GuTriangleMesh.obj
 0002:00008bb4       ??_C@_0BB@PFNPIFEP@?$CBnormal?4isZero?$CI?$CJ?$AA@ 10169bb4     GuTriangleMesh.obj
 0002:00008bc8       ??_7HeightField@Gu@physx@@6BPxHeightField@2@@ 10169bc8     GuHeightField.obj
 0002:00008c28       ??_7HeightField@Gu@physx@@6BRefCountable@Cm@2@@ 10169c28     GuHeightField.obj
 0002:00008c34       ??_C@_0CD@DOHOGNDP@?$CIvertexIndex?5?1?5mData?4columns?$CJ?$DN?$DNr@ 10169c34     GuHeightField.obj
 0002:00008c60       ??_C@_0CG@MFLNCBLF@?$CIvertexIndex?5?$CF?5mData?4columns?$CJ?$DN?$DNc@ 10169c60     GuHeightField.obj
 0002:00008c90       ??_C@_0CJ@ECCFDMLB@?4?4?2?4?4?2GeomUtils?2src?2hf?2GuHeightF@ 10169c90     GuHeightField.obj
 0002:00008cc4       ??_C@_0N@EGBCLMAK@mMeshFactory?$AA@ 10169cc4     GuHeightField.obj
 0002:00008cd4       ??_C@_0DL@DNGFPCEG@Gu?3?3HeightField?3?3onRefCountZero?3@ 10169cd4     GuHeightField.obj
 0002:00008d1c       ??_C@_0DF@LLAFPPKJ@Gu?3?3HeightField?3?3modifySamples?3?5@ 10169d1c     GuHeightField.obj
 0002:00008d5c       ??_C@_0BE@CJJAMAMK@PxHeightFieldSample?$AA@ 10169d5c     GuHeightField.obj
 0002:00008d74       ??_C@_0CI@DMKEKGNK@Gu?3?3HeightField?3?3load?3?5PX_ALLOC?5@ 10169d74     GuHeightField.obj
 0002:00008da4       ??_C@_0DG@LACOBMDE@Gu?3?3HeightField?3?3loadFromDesc?3?5d@ 10169da4     GuHeightField.obj
 0002:00008de4       ??_C@_0BJ@CAAAMGEC@mMaxHeight?5?$DO?$DN?5mMinHeight?$AA@ 10169de4     GuHeightField.obj
 0002:00008e04       ??_C@_0BP@PJNEFCEM@?$CIvertexIndex?5?1?5nbColumns?$CJ?$DN?$DNrow?$AA@ 10169e04     GuHeightField.obj
 0002:00008e2c       ??_C@_0CC@IAIMCKFA@?$CIvertexIndex?5?$CF?5nbColumns?$CJ?$DN?$DNcolum@ 10169e2c     GuHeightField.obj
 0002:00008e54       ??_C@_0BE@CCCOPNHP@cell?$DN?$DNedgeIndex?5?1?53?$AA@ 10169e54     GuHeightField.obj
 0002:00008e6c       ??_C@_0BG@CKDOJJJL@row?$DN?$DNcell?5?1?5nbColumns?$AA@ 10169e6c     GuHeightField.obj
 0002:00008e88       ??_C@_0BJ@BKLDCMBE@column?$DN?$DNcell?5?$CF?5nbColumns?$AA@ 10169e88     GuHeightField.obj
 0002:00008ea8       ??_C@_0CK@COJHBAPC@?$CIvertexIndex?5?1?5getNbColumnsFast?$CI@ 10169ea8     GuHeightField.obj
 0002:00008edc       ??_C@_0CN@HIDBPFHK@?$CIvertexIndex?5?$CF?5getNbColumnsFast?$CI@ 10169edc     GuHeightField.obj
 0002:00008f14       ??_C@_0CD@CCMCAFFB@x?5?$DO?$DN?50?40f?5?$CG?$CG?5x?5?$DM?5PxF32?$CImData?4row@ 10169f14     GuHeightField.obj
 0002:00008f40       ??_C@_0CG@FJCFICOE@z?5?$DO?$DN?50?40f?5?$CG?$CG?5z?5?$DM?5PxF32?$CImData?4col@ 10169f40     GuHeightField.obj
 0002:00008f70       ??_C@_0CL@EJBCLPDG@vertexIndex?5?$DM?5?$CImData?4rows?$CJ?$CK?$CImDat@ 10169f70     GuHeightField.obj
 0002:00008fa8       ??_C@_0EE@MNGOHLDP@C?3?2PhysX?5SDK?2PhysX?93?43?9master?2Ph@ 10169fa8     GuHeightField.obj
 0002:00008ffc       ??_C@_0BI@NFDAPDBF@index?$DMgetWordCount?$CI?$CJ?$CK32?$AA@ 10169ffc     GuHeightField.obj
 0002:00009034       ??_C@_0BM@GOCGMPIP@row?5?$DN?$DN?5cell?5?1?5mData?4columns?$AA@ 1016a034     GuHeightFieldUtil.obj
 0002:00009058       ??_C@_0BP@IEIJBKDD@column?5?$DN?$DN?5cell?5?$CF?5mData?4columns?$AA@ 1016a058     GuHeightFieldUtil.obj
 0002:00009080       ??_C@_0FD@MDOMEFFI@c?3?2physx?5sdk?2physx?93?43?9master?2ph@ 1016a080     GuHeightFieldUtil.obj
 0002:000090e4       ??_C@_0CN@FGOIGDLJ@?4?4?2?4?4?2GeomUtils?2src?2hf?2GuHeightF@ 1016a0e4     GuHeightFieldUtil.obj
 0002:0000911c       ??_C@_0CA@OMEHEIDN@isShapePointOnHeightField?$CIx?0?5z?$CJ?$AA@ 1016a11c     GuHeightFieldUtil.obj
 0002:00009144       ??_C@_0DF@JGJHCPAO@row?5?$DN?$DN?5vertexIndex?5?1?5mHeightFiel@ 1016a144     GuHeightFieldUtil.obj
 0002:00009184       ??_C@_0DI@INAAEJHA@column?5?$DN?$DN?5vertexIndex?5?$CF?5mHeightF@ 1016a184     GuHeightFieldUtil.obj
 0002:000091c8       ??_C@_0CK@CDDKBOCK@row?5?$DM?5?$CImHeightField?9?$DOgetNbRowsFa@ 1016a1c8     GuHeightFieldUtil.obj
 0002:000091fc       ??_C@_0DA@FBCALLGB@column?5?$DM?5?$CImHeightField?9?$DOgetNbCol@ 1016a1fc     GuHeightFieldUtil.obj
 0002:00009238       ??_C@_0CP@FEMCBDAG@row?5?$DN?$DN?5cell?5?1?5mHeightField?9?$DOgetN@ 1016a238     GuHeightFieldUtil.obj
 0002:00009270       ??_C@_0DC@GMBCNKJ@column?5?$DN?$DN?5cell?5?$CF?5mHeightField?9?$DOg@ 1016a270     GuHeightFieldUtil.obj
 0002:000092ac       ??_C@_0CN@EPALKFJF@Invalid?5edge?5index?5in?5findCloses@ 1016a2ac     GuHeightFieldUtil.obj
 0002:000092e4       ??_C@_0BH@FCJADDGN@?$CBlocalBounds?4isEmpty?$CI?$CJ?$AA@ 1016a2e4     GuHeightFieldUtil.obj
 0002:00009300       ??_C@_0DH@EJDJIMCB@HeightFieldShape?3?3getTriangle?3?5I@ 1016a300     GuHeightFieldUtil.obj
 0002:00009400       ??_C@_0FB@DHCLJBEH@C?3?2PhysX?5SDK?2PhysX?93?43?9master?2Ph@ 1016a400     GuOverlapTestsHF.obj
 0002:00009464       ??_C@_0BD@HOPNPOK@vertex1?5?$DO?$DN?5vertex0?$AA@ 1016a464     GuOverlapTestsHF.obj
 0002:0000947c       ??_C@_0CM@EAMAEFHL@?4?4?2?4?4?2GeomUtils?2src?2hf?2GuOverlap@ 1016a47c     GuOverlapTestsHF.obj
 0002:000094b0       ??_C@_0CF@DLGDODNO@row_?5?$DN?$DN?5cell?5?1?5hf?4getNbColumnsFa@ 1016a4b0     GuOverlapTestsHF.obj
 0002:000094dc       ??_C@_0CI@GKKJHGBH@column_?5?$DN?$DN?5cell?5?$CF?5hf?4getNbColumn@ 1016a4dc     GuOverlapTestsHF.obj
 0002:0000950c       ??_C@_0CP@LAFGOBCM@geom?4getType?$CI?$CJ?5?$DN?$DN?5PxGeometryType@ 1016a50c     GuOverlapTestsHF.obj
 0002:00009544       ??_C@_0CO@JKIFBMMO@geom1?4getType?$CI?$CJ?$DN?$DNPxGeometryType?3@ 1016a544     GuOverlapTestsHF.obj
 0002:0000957c       ??_C@_0CI@NGJMKDCO@geom0?4getType?$CI?$CJ?$DN?$DNPxGeometryType?3@ 1016a57c     GuOverlapTestsHF.obj
 0002:000095ac       ??_C@_0O@IBJJNELN@NOT?5SUPPORTED?$AA@ 1016a5ac     GuOverlapTestsHF.obj
 0002:000095bc       ??_C@_0BF@OAOCOJDG@nbVi?5?$DO?50?5?$CG?$CG?5nbUi?5?$DO?50?$AA@ 1016a5bc     GuOverlapTestsHF.obj
 0002:000095d8       ??_C@_0BJ@HMKBPNAD@tu?5?$DO?$DN?50?40f?5?$CG?$CG?5tv?5?$DO?$DN?50?40f?$AA@ 1016a5d8     GuOverlapTestsHF.obj
 0002:000095f8       ??_C@_0FF@MNCGIKLK@ui?5?$DO?$DN?50?5?9?5expandu?5?$CG?$CG?5ui?5?$DM?5nbUi?5?$CL@ 1016a5f8     GuOverlapTestsHF.obj
 0002:00009660       ??_C@_0HF@MDNPPAHK@ui?$CLstep_ui?5?$DO?$DN?50?5?9?5expandu?5?$CG?$CG?5ui?$CL@ 1016a660     GuOverlapTestsHF.obj
 0002:000096ec       __real@2edbe6ff            1016a6ec     GuOverlapTestsHF.obj
 0002:000096f0       __real@3f800347            1016a6f0     GuOverlapTestsHF.obj
 0002:000096f4       __real@b8d1b717            1016a6f4     GuOverlapTestsHF.obj
 0002:00009714       ??_7CapsuleTraceSegmentReport@@6B@ 1016a714     GuSweepsHF.obj
 0002:00009720       ??_C@_0CG@ECBGNEIE@?4?4?2?4?4?2GeomUtils?2src?2hf?2GuSweepsH@ 1016a720     GuSweepsHF.obj
 0002:00009750       ??_7ConvexVsHeightfieldSweep@@6B@ 1016a750     GuSweepsHF.obj
 0002:0000975c       ??_7BoxTraceSegmentReport@@6B@ 1016a75c     GuSweepsHF.obj
 0002:00009768       ??_C@_0ED@EAOEONA@c?3?2physx?5sdk?2physx?93?43?9master?2ph@ 1016a768     GuSweepsHF.obj
 0002:000097d8       ??_C@_0FO@BHMIEANB@c?3?2physx?5sdk?2physx?93?43?9master?2ph@ 1016a7d8     GuPCMContactBoxBox.obj
 0002:00009848       ??_C@_0CH@MLLAKCLP@mNumContacts?5?$DM?$DN?5GU_MANIFOLD_CACH@ 1016a848     GuPCMContactBoxBox.obj
 0002:00009878       ??_C@_0FK@NMHNNFLK@C?3?2PhysX?5SDK?2PhysX?93?43?9master?2Ph@ 1016a878     GuPCMContactBoxBox.obj
 0002:000098e4       ??_C@_0BG@OAPIMILG@?$CImanifold?5?$CG?50xf?$CJ?5?$DN?$DN?50?$AA@ 1016a8e4     GuPCMContactBoxBox.obj
 0002:00009900       ??_C@_0CP@KEPLDBDC@?4?4?2?4?4?2GeomUtils?2src?2pcm?2GuPCMCon@ 1016a900     GuPCMContactBoxBox.obj
 0002:00009938       ??_C@_0BG@FCBMIHCG@transform1?4q?4isSane?$CI?$CJ?$AA@ 1016a938     GuPCMContactBoxBox.obj
 0002:00009954       ??_C@_0BG@IPIKFOKD@transform0?4q?4isSane?$CI?$CJ?$AA@ 1016a954     GuPCMContactBoxBox.obj
 0002:00009970       __real@3f4ccccd            1016a970     GuPCMContactBoxBox.obj
 0002:00009980       __xmm@ffffffff00000000ffffffffffffffff 1016a980     GuPCMContactBoxBox.obj
 0002:000099b4       ??_7SupportLocal@Gu@physx@@6B@ 1016a9b4     GuPCMContactBoxConvex.obj
 0002:000099c8       ??_C@_0FD@JLELCPIH@C?3?2PhysX?5SDK?2PhysX?93?43?9master?2Ph@ 1016a9c8     GuPCMContactBoxConvex.obj
 0002:00009a2c       ??_7?$SupportLocalImpl@VBoxV@Gu@physx@@@Gu@physx@@6B@ 1016aa2c     GuPCMContactBoxConvex.obj
 0002:00009a40       ??_7?$SupportLocalImpl@VConvexHullV@Gu@physx@@@Gu@physx@@6B@ 1016aa40     GuPCMContactBoxConvex.obj
 0002:00009a54       ??_7?$SupportLocalImpl@VConvexHullNoScaleV@Gu@physx@@@Gu@physx@@6B@ 1016aa54     GuPCMContactBoxConvex.obj
 0002:00009a68       ??_C@_0DC@JLHJOIC@?4?4?2?4?4?2GeomUtils?2src?2pcm?2GuPCMCon@ 1016aa68     GuPCMContactBoxConvex.obj
 0002:00009aa4       ??_C@_0BG@JINPBPOM@status?5?$DN?$DN?5EPA_CONTACT?$AA@ 1016aaa4     GuPCMContactBoxConvex.obj
 0002:00009ad4       ??_C@_0BC@KHKFFAC@mNumContacts?5?$DM?$DN?52?$AA@ 1016aad4     GuPCMContactCapsuleBox.obj
 0002:00009aec       ??_C@_0DD@KEPJDDMP@?4?4?2?4?4?2GeomUtils?2src?2pcm?2GuPCMCon@ 1016aaec     GuPCMContactCapsuleBox.obj
 0002:00009b44       ??_C@_0DG@GIJDHNKP@?4?4?2?4?4?2GeomUtils?2src?2pcm?2GuPCMCon@ 1016ab44     GuPCMContactCapsuleConvex.obj
 0002:00009b84       __real@3fa00000            1016ab84     GuPCMContactCapsuleConvex.obj
 0002:00009ba4       ??_C@_0CL@KAPCLJCB@mManifoldIndices?$FLi?$FN?5?$DM?5GU_MAX_MAN@ 1016aba4     GuPCMContactCapsuleHeightField.obj
 0002:00009bd8       ??_C@_0BG@PJODPJPH@?$CImanifold?5?$CG?50xf?$CJ?5?$DN?$DN?51?$AA@ 1016abd8     GuPCMContactCapsuleHeightField.obj
 0002:00009bf4       ??_7?$PCMHeightfieldContactGenerationCallback@UPCMCapsuleVsHeightfieldContactGenerationCallback@physx@@@Gu@physx@@6B@ 1016abf4     GuPCMContactCapsuleHeightField.obj
 0002:00009c00       ??_7PCMCapsuleVsHeightfieldContactGenerationCallback@physx@@6B@ 1016ac00     GuPCMContactCapsuleHeightField.obj
 0002:00009c10       ??_C@_0FL@ECIFHGDC@c?3?2physx?5sdk?2physx?93?43?9master?2ph@ 1016ac10     GuPCMContactCapsuleHeightField.obj
 0002:00009c80       ??_C@_0FE@JPLKBHLF@inds?$FL0?$FN?5?$DN?$DN?5vertIndices?$FLa?$FN?5?$HM?$HM?5ind@ 1016ac80     GuPCMContactCapsuleHeightField.obj
 0002:00009ce8       ??_C@_0GG@PNEBHCHD@inds?$FL0?$FN?5?$DN?$DN?5vertIndices?$FL?$CIa?$CL1?$CJ?$CF3?$FN?5@ 1016ace8     GuPCMContactCapsuleHeightField.obj
 0002:00009d64       ??_C@_0BK@GMOEICMC@cache?4mNumTriangles?5?$DM?$DN?516?$AA@ 1016ad64     GuPCMContactCapsuleHeightField.obj
 0002:00009d88       ??_C@_0FD@FIHOOJB@C?3?2PhysX?5SDK?2PhysX?93?43?9master?2Ph@ 1016ad88     GuPCMContactCapsuleHeightField.obj
 0002:00009dec       ??_C@_0BN@KJCBHBHI@mNumTriangles?5?$DM?5MaxTriangles?$AA@ 1016adec     GuPCMContactCapsuleHeightField.obj
 0002:00009e10       __real@3f7ef9db            1016ae10     GuPCMContactCapsuleHeightField.obj
 0002:00009e14       __real@3f7f3b64            1016ae14     GuPCMContactCapsuleHeightField.obj
 0002:00009e18       __real@3f7ff2e5            1016ae18     GuPCMContactCapsuleHeightField.obj
 0002:00009e34       ??_7?$PCMMeshContactGenerationCallback@UPCMCapsuleVsMeshContactGenerationCallback@physx@@@Gu@physx@@6B@ 1016ae34     GuPCMContactCapsuleMesh.obj
 0002:00009e40       ??_7PCMCapsuleVsMeshContactGenerationCallback@physx@@6B@ 1016ae40     GuPCMContactCapsuleMesh.obj
 0002:00009e64       ??_C@_0DF@GLBPEOJI@?4?4?2?4?4?2GeomUtils?2src?2pcm?2GuPCMCon@ 1016ae64     GuPCMContactConvexCommon.obj
 0002:00009ea4       ??_C@_0CM@KKEDCHJJ@mNumContactPatch?5?$DMPCM_MAX_CONTAC@ 1016aea4     GuPCMContactConvexCommon.obj
 0002:00009ed8       ??_C@_0BD@FCCHEAFC@mNumContacts?5?$DM?$DN?564?$AA@ 1016aed8     GuPCMContactConvexCommon.obj
 0002:00009ef0       ??_7?$SupportLocalImpl@VTriangleV@Gu@physx@@@Gu@physx@@6B@ 1016aef0     GuPCMContactConvexCommon.obj
 0002:00009f04       ??_C@_0CL@JFNFGKOO@?$CIpatch?4mEndIndex?5?9?5patch?4mStartI@ 1016af04     GuPCMContactConvexCommon.obj
 0002:00009f54       ??_C@_0DF@CLMOBOI@?4?4?2?4?4?2GeomUtils?2src?2pcm?2GuPCMCon@ 1016af54     GuPCMContactConvexConvex.obj
 0002:00009fb4       ??_7?$PCMHeightfieldContactGenerationCallback@UPCMConvexVsHeightfieldContactGenerationCallback@physx@@@Gu@physx@@6B@ 1016afb4     GuPCMContactConvexHeightField.obj
 0002:00009fc0       ??_7PCMConvexVsHeightfieldContactGenerationCallback@physx@@6B@ 1016afc0     GuPCMContactConvexHeightField.obj
 0002:00009fcc       ??_C@_0DK@FBNKENCF@?4?4?2?4?4?2GeomUtils?2src?2pcm?2GuPCMCon@ 1016afcc     GuPCMContactConvexHeightField.obj
 0002:0000a014       ??_C@_0DE@CLJKHPNA@multiManifold?4mNumManifolds?5?$DM?$DN?5G@ 1016b014     GuPCMContactConvexHeightField.obj
 0002:0000a054       ??_7?$SupportLocalShrunkImpl@VConvexHullNoScaleV@Gu@physx@@VShrunkConvexHullNoScaleV@23@@Gu@physx@@6B@ 1016b054     GuPCMContactConvexHeightField.obj
 0002:0000a068       ??_7?$SupportLocalShrunkImpl@VConvexHullV@Gu@physx@@VShrunkConvexHullV@23@@Gu@physx@@6B@ 1016b068     GuPCMContactConvexHeightField.obj
 0002:0000a07c       ??_7?$SupportLocalShrunkImpl@VBoxV@Gu@physx@@VShrunkBoxV@23@@Gu@physx@@6B@ 1016b07c     GuPCMContactConvexHeightField.obj
 0002:0000a090       __real@3f19999a            1016b090     GuPCMContactConvexHeightField.obj
 0002:0000a0b4       ??_7?$PCMMeshContactGenerationCallback@UPCMConvexVsMeshContactGenerationCallback@physx@@@Gu@physx@@6B@ 1016b0b4     GuPCMContactConvexMesh.obj
 0002:0000a0c0       ??_7PCMConvexVsMeshContactGenerationCallback@physx@@6B@ 1016b0c0     GuPCMContactConvexMesh.obj
 0002:0000a0cc       ??_C@_0DD@FAKBOBLJ@?4?4?2?4?4?2GeomUtils?2src?2pcm?2GuPCMCon@ 1016b0cc     GuPCMContactConvexMesh.obj
 0002:0000a124       ??_C@_0DF@NCCNBIC@?4?4?2?4?4?2GeomUtils?2src?2pcm?2GuPCMCon@ 1016b124     GuPCMContactGenBoxConvex.obj
 0002:0000a164       ??_C@_0BL@MHKHKBNG@FAllGrtrOrEq?$CI_max0?0?5_min0?$CJ?$AA@ 1016b164     GuPCMContactGenBoxConvex.obj
 0002:0000a184       ??_C@_0BL@CJKHKANP@FAllGrtrOrEq?$CI_max1?0?5_min1?$CJ?$AA@ 1016b184     GuPCMContactGenBoxConvex.obj
 0002:0000a1a4       ??_C@_0CI@CIICEHPC@FAllGrtrOrEq?$CItempOverlap?0?5_tempO@ 1016b1a4     GuPCMContactGenBoxConvex.obj
 0002:0000a1d4       ??_C@_0BP@EBOGJGAB@incidentPolygon?4mNbVerts?5?$DM?$DN?564?$AA@ 1016b1d4     GuPCMContactGenBoxConvex.obj
 0002:0000a1fc       ??_C@_0BH@EILOELBH@FAllEq?$CIdenom?0?5zero?$CJ?$DN?$DN0?$AA@ 1016b1fc     GuPCMContactGenBoxConvex.obj
 0002:0000a218       ??_C@_0CH@LDMJNMOK@status?5?$DN?$DN?5POLYDATA0?5?$HM?$HM?5status?5?$DN?$DN@ 1016b218     GuPCMContactGenBoxConvex.obj
 0002:0000a264       __real@3ba3d70a            1016b264     GuPCMContactGenSphereCapsule.obj
 0002:0000a2e4       ??_C@_0BP@OAKFIOEG@index?5?$DM?5GU_MANIFOLD_CACHE_SIZE?$AA@ 1016b2e4     GuPCMContactSphereConvex.obj
 0002:0000a30c       ??_7?$EPASupportMapPairLocalImpl@VCapsuleV@Gu@physx@@VConvexHullNoScaleV@23@@Gu@physx@@6B@ 1016b30c     GuPCMContactSphereConvex.obj
 0002:0000a320       ??_C@_0DF@BOMKKAOE@?4?4?2?4?4?2GeomUtils?2src?2pcm?2GuPCMCon@ 1016b320     GuPCMContactSphereConvex.obj
 0002:0000a374       ??_7?$PCMHeightfieldContactGenerationCallback@UPCMSphereVsHeightfieldContactGenerationCallback@physx@@@Gu@physx@@6B@ 1016b374     GuPCMContactSphereHeightField.obj
 0002:0000a380       ??_7PCMSphereVsHeightfieldContactGenerationCallback@physx@@6B@ 1016b380     GuPCMContactSphereHeightField.obj
 0002:0000a3a4       ??_7?$PCMMeshContactGenerationCallback@UPCMSphereVsMeshContactGenerationCallback@physx@@@Gu@physx@@6B@ 1016b3a4     GuPCMContactSphereMesh.obj
 0002:0000a3b0       ??_7PCMSphereVsMeshContactGenerationCallback@physx@@6B@ 1016b3b0     GuPCMContactSphereMesh.obj
 0002:0000a3c0       ?gPCMBoxPolygonData@Gu@physx@@3QBEB 1016b3c0     GuPCMShapeConvex.obj
 0002:0000a3fc       ??_C@_0CN@DKDBMDNJ@?4?4?2?4?4?2GeomUtils?2src?2pcm?2GuPCMSha@ 1016b3fc     GuPCMShapeConvex.obj
 0002:0000a434       ??_C@_0CG@GNMNMEKH@?$CBconvexHull?4hullData?9?$DOmAABB?4isEm@ 1016b434     GuPCMShapeConvex.obj
 0002:0000a484       ??_C@_0DE@HFICEBBJ@?4?4?2?4?4?2GeomUtils?2src?2pcm?2GuPCMTri@ 1016b484     GuPCMTriangleContactGen.obj
 0002:0000a4c4       ??_C@_0BC@OONFPEED@numContacts?5?$DM?$DN?564?$AA@ 1016b4c4     GuPCMTriangleContactGen.obj
 0002:0000a4dc       __real@3f350481            1016b4dc     GuPCMTriangleContactGen.obj
 0002:0000a4e0       ?invalidateThresholds@Gu@physx@@3QBMB 1016b4e0     GuPersistentContactManifold.obj
 0002:0000a4f4       ?invalidateQuatThresholds@Gu@physx@@3QBMB 1016b4f4     GuPersistentContactManifold.obj
 0002:0000a508       ?invalidateThresholds2@Gu@physx@@3QBMB 1016b508     GuPersistentContactManifold.obj
 0002:0000a514       ?invalidateQuatThresholds2@Gu@physx@@3QBMB 1016b514     GuPersistentContactManifold.obj
 0002:0000a540       ??_C@_0CG@GJLJABKJ@index?5?$DM?5GU_SINGLE_MANIFOLD_CACHE@ 1016b540     GuPersistentContactManifold.obj
 0002:0000a570       ??_C@_0BN@IDAFJLAA@index?5?$DM?5GU_MAX_MANIFOLD_SIZE?$AA@ 1016b570     GuPersistentContactManifold.obj
 0002:0000a594       ??_C@_0CG@PCNFLMFL@mNumManifolds?5?$DM?$DN?5GU_MAX_MANIFOLD@ 1016b594     GuPersistentContactManifold.obj
 0002:0000a5c4       ??_C@_0DI@IFAANLGH@?4?4?2?4?4?2GeomUtils?2src?2pcm?2GuPersis@ 1016b5c4     GuPersistentContactManifold.obj
 0002:0000a608       ??_C@_0BJ@BONKMEDP@contact?4point?4isFinite?$CI?$CJ?$AA@ 1016b608     GuPersistentContactManifold.obj
 0002:0000a628       ??_C@_0BK@MJNHJLDB@contact?4normal?4isFinite?$CI?$CJ?$AA@ 1016b628     GuPersistentContactManifold.obj
 0002:0000a648       ??_C@_0BP@PANHHJJE@PxIsFinite?$CIcontact?4separation?$CJ?$AA@ 1016b648     GuPersistentContactManifold.obj
 0002:0000a670       ??_C@_0P@ELGPELHO@numPoints?5?$DM?564?$AA@ 1016b670     GuPersistentContactManifold.obj
 0002:0000a684       ??_C@_09MHFAFEGD@index?$CB?$DN?91?$AA@ 1016b684     GuPersistentContactManifold.obj
 0002:0000a690       ??_C@_0CL@FCKFFENJ@mManifoldIndices?$FLj?$FN?5?$DM?5GU_MAX_MAN@ 1016b690     GuPersistentContactManifold.obj
 0002:0000a6c4       ??_C@_0L@GOEPKHAM@index?5?$DM?564?$AA@ 1016b6c4     GuPersistentContactManifold.obj
 0002:0000a6d4       ??_C@_0DC@GIJBDMPN@?$CInumManifoldContacts?$CLmanifold?4mN@ 1016b6d4     GuPersistentContactManifold.obj
 0002:0000a710       ??_C@_0CI@ONBGGNEB@mNumTotalContacts?5?$CL?5numContacts?5@ 1016b710     GuPersistentContactManifold.obj
 0002:0000a740       ??_C@_0BD@ECHLPPDI@contactCount?5?$DM?$DN?564?$AA@ 1016b740     GuPersistentContactManifold.obj
 0002:0000a774       ??_C@_0BO@CHBLACKA@?4?4?2?4?4?2GeomUtils?2src?2GuBox?4cpp?$AA@ 1016b774     GuBox.obj
 0002:0000a798       ??_C@_03OCGOGKMG@pts?$AA@  1016b798     GuBox.obj
 0002:0000a79c       ??_C@_0BJ@IPHMGCLA@isValid?$CI?$CJ?5?$CG?$CG?5b?4isValid?$CI?$CJ?$AA@ 1016b79c     GuBoxPruning.obj
 0002:0000a7bc       ??_C@_0BI@KOLOPPGM@Gu?3?3BipartiteBoxPruning?$AA@ 1016b7bc     GuBoxPruning.obj
 0002:0000a7d8       ??_C@_0CF@CNOODDND@?4?4?2?4?4?2GeomUtils?2src?2GuBoxPruning@ 1016b7d8     GuBoxPruning.obj
 0002:0000a804       ??_C@_0BH@PCDMCJDN@Gu?3?3CompleteBoxPruning?$AA@ 1016b804     GuBoxPruning.obj
 0002:0000a858       ??_C@_0FJ@KBEEPPMG@C?3?2PhysX?5SDK?2PhysX?93?43?9master?2Ph@ 1016b858     GuCCTSweepTests.obj
 0002:0000a8c4       ??_C@_0CI@DDIFKNBF@?4?4?2?4?4?2GeomUtils?2src?2GuCCTSweepTe@ 1016b8c4     GuCCTSweepTests.obj
 0002:0000a8f4       ??_C@_0CH@OPHEIGHM@geom?4getType?$CI?$CJ?5?$DN?$DN?5PxGeometryType@ 1016b8f4     GuCCTSweepTests.obj
 0002:0000a924       ??_C@_0CK@HKGPECBE@geom?4getType?$CI?$CJ?5?$DN?$DN?5PxGeometryType@ 1016b924     GuCCTSweepTests.obj
 0002:0000a958       ??_C@_0CL@LIJPEHMM@geom?4getType?$CI?$CJ?5?$DN?$DN?5PxGeometryType@ 1016b958     GuCCTSweepTests.obj
 0002:0000a98c       ??_7LocalReport@?1??sweepCCTBox_HeightFieldGeom@@YA_NABVPxGeometry@physx@@ABVPxTransform@3@ABVBox@Gu@3@ABVPxVec3@3@MAAUPxSweepHit@3@V?$PxFlags@W4Enum@PxHitFlag@physx@@G@3@M@Z@6B@ 1016b98c     GuCCTSweepTests.obj
 0002:0000a998       ??_C@_0EK@EGOKCFFG@c?3?2physx?5sdk?2physx?93?43?9master?2ph@ 1016b998     GuContainer.obj
 0002:0000a9f0       ??_C@_0CO@ONBCOPNE@?4?4?2?4?4?2GeomUtils?2src?2GuContainerM@ 1016b9f0     GuContainerMemoryMgmt.obj
 0002:0000aa28       ??_C@_0DG@GOPNNIOF@Invalid?5operation?5?9?5trying?5to?5re@ 1016ba28     GuContainerMemoryMgmt.obj
 0002:0000aa68       ??_C@_0DF@IKAMHMN@Invalid?5operation?5?9?5trying?5to?5re@ 1016ba68     GuContainerMemoryMgmt.obj
 0002:0000aaa8       ??_C@_0CA@DBEAEKMC@?4?4?2?4?4?2GeomUtils?2src?2GuDebug?4cpp?$AA@ 1016baa8     GuDebug.obj
 0002:0000aae8       ??_C@_0FK@KKFAMHEC@C?3?2PhysX?5SDK?2PhysX?93?43?9master?2Ph@ 1016bae8     GuGeometryQuery.obj
 0002:0000ab58       ??_C@_0EO@MEOHBCKJ@c?3?2physx?5sdk?2physx?93?43?9master?2ph@ 1016bb58     GuGeometryQuery.obj
 0002:0000abb8       ??_C@_0CO@DGHGHPPJ@PxGeometryQuery?3?3sweep?$CI?$CJ?3?5pose0?5@ 1016bbb8     GuGeometryQuery.obj
 0002:0000abf0       ??_C@_0CI@OEFLDCLG@?4?4?2?4?4?2GeomUtils?2src?2GuGeometryQu@ 1016bbf0     GuGeometryQuery.obj
 0002:0000ac20       ??_C@_0CO@JIBOOOGI@PxGeometryQuery?3?3sweep?$CI?$CJ?3?5pose1?5@ 1016bc20     GuGeometryQuery.obj
 0002:0000ac58       ??_C@_0DA@JEEBDBEM@PxGeometryQuery?3?3sweep?$CI?$CJ?3?5unitDi@ 1016bc58     GuGeometryQuery.obj
 0002:0000ac94       ??_C@_0DB@KCEKJBPE@PxGeometryQuery?3?3sweep?$CI?$CJ?3?5distan@ 1016bc94     GuGeometryQuery.obj
 0002:0000acd0       ??_C@_0FM@HAJNNJNC@PxGeometryQuery?3?3sweep?$CI?$CJ?3?5sweep?5@ 1016bcd0     GuGeometryQuery.obj
 0002:0000ad40       ??_C@_0GL@GJKJELMB@PxGeometryQuery?3?3sweep?$CI?$CJ?3?5first?5@ 1016bd40     GuGeometryQuery.obj
 0002:0000adc0       ??_C@_0DA@PHOIAONC@PxGeometryQuery?3?3overlap?$CI?$CJ?3?5pose@ 1016bdc0     GuGeometryQuery.obj
 0002:0000adfc       ??_C@_0DA@FJIAJPED@PxGeometryQuery?3?3overlap?$CI?$CJ?3?5pose@ 1016bdfc     GuGeometryQuery.obj
 0002:0000ae38       ??_C@_0M@HIMKKFD@overlapFunc?$AA@ 1016be38     GuGeometryQuery.obj
 0002:0000ae48       ??_C@_0DB@OMDGMOND@PxGeometryQuery?3?3raycast?$CI?$CJ?3?5rayD@ 1016be48     GuGeometryQuery.obj
 0002:0000ae84       ??_C@_0DE@MGFNMBNA@PxGeometryQuery?3?3raycast?$CI?$CJ?3?5rayO@ 1016be84     GuGeometryQuery.obj
 0002:0000aec4       ??_C@_0CP@NHLDPNEB@PxGeometryQuery?3?3raycast?$CI?$CJ?3?5pose@ 1016bec4     GuGeometryQuery.obj
 0002:0000aefc       ??_C@_0DB@HPNPNEMP@PxGeometryQuery?3?3raycast?$CI?$CJ?3?5maxD@ 1016befc     GuGeometryQuery.obj
 0002:0000af38       ??_C@_0DC@BLMIOBO@PxGeometryQuery?3?3raycast?$CI?$CJ?3?5maxD@ 1016bf38     GuGeometryQuery.obj
 0002:0000af74       ??_C@_0DP@IPJGHFJE@PxGeometryQuery?3?3raycast?$CI?$CJ?3?5ray?5@ 1016bf74     GuGeometryQuery.obj
 0002:0000afc0       ??_C@_0DF@BMEFDPAL@PxGeometryQuery?3?3pointDistance?$CI?$CJ@ 1016bfc0     GuGeometryQuery.obj
 0002:0000b000       ??_C@_0GM@KKKGKIEH@PxGeometryQuery?3?3pointDistance?$CI?$CJ@ 1016c000     GuGeometryQuery.obj
 0002:0000b084       ??_C@_0DI@OFPEJDFM@Gu?3?3GeometryQuery?3?3getWorldBound@ 1016c084     GuGeometryQuery.obj
 0002:0000b0c8       ??_C@_0BB@KMJOEPCF@result?4isValid?$CI?$CJ?$AA@ 1016c0c8     GuGeometryQuery.obj
 0002:0000b0dc       ??_C@_0DL@LECAKFBF@PxGeometryQuery?3?3computePenetrat@ 1016c0dc     GuGeometryQuery.obj
 0002:0000b124       ??_C@_0DL@BKEIDEIE@PxGeometryQuery?3?3computePenetrat@ 1016c124     GuGeometryQuery.obj
 0002:0000b16c       ??_C@_07NNLKAPIB@mtdFunc?$AA@ 1016c16c     GuGeometryQuery.obj
 0002:0000b178       __real@3f1a36e2eb1c432d    1016c178     GuGeometryQuery.obj
 0002:0000b184       ??_C@_0CI@IMFAJEAC@?4?4?2?4?4?2GeomUtils?2src?2GuGeometryUn@ 1016c184     GuGeometryUnion.obj
 0002:0000b1b4       ??_C@_0BK@GFPIJDFH@geometry?5type?5not?5handled?$AA@ 1016c1b4     GuGeometryUnion.obj
 0002:0000b1f4       ??_C@_0CM@NKCMJPAE@?4?4?2?4?4?2GeomUtils?2src?2GuGeomUtilsI@ 1016c1f4     GuGeomUtilsInternal.obj
 0002:0000b228       ??_C@_0CG@GABGHALN@?4?4?2?4?4?2GeomUtils?2src?2GuMeshFactor@ 1016c228     GuMeshFactory.obj
 0002:0000b258       ??_C@_0BH@MLPJFOCA@mesh?9?$DOgetRefCount?$CI?$CJ?$DN?$DN1?$AA@ 1016c258     GuMeshFactory.obj
 0002:0000b274       ??_C@_07PGKBDHFC@i?$DMmSize?$AA@ 1016c274     GuMeshFactory.obj
 0002:0000b280       ??_C@_07GFCEJNGM@Valency?$AA@ 1016c280     GuMetaData.obj
 0002:0000b28c       ??_C@_07NHGKEEIN@mOffset?$AA@ 1016c28c     GuMetaData.obj
 0002:0000b298       ??_C@_0BB@BAGHBMNJ@BigConvexRawData?$AA@ 1016c298     GuMetaData.obj
 0002:0000b2ac       ??_C@_07PBDEJAAC@mSubdiv?$AA@ 1016c2ac     GuMetaData.obj
 0002:0000b2b8       ??_C@_0L@HNPACPGH@mNbSamples?$AA@ 1016c2b8     GuMetaData.obj
 0002:0000b2c8       ??_C@_04NCKNBPPK@PxU8?$AA@ 1016c2c8     GuMetaData.obj
 0002:0000b2d0       ??_C@_08DEPEKJNI@mSamples?$AA@ 1016c2d0     GuMetaData.obj
 0002:0000b2dc       ??_C@_05LMJPANIN@PxU32?$AA@ 1016c2dc     GuMetaData.obj
 0002:0000b2e4       ??_C@_08IJDNJBMI@mNbVerts?$AA@ 1016c2e4     GuMetaData.obj
 0002:0000b2f0       ??_C@_0M@MMKMIJAF@mNbAdjVerts?$AA@ 1016c2f0     GuMetaData.obj
 0002:0000b300       ??_C@_0L@EOKMNILC@mValencies?$AA@ 1016c300     GuMetaData.obj
 0002:0000b310       ??_C@_0P@DLGEAMHJ@mAdjacentVerts?$AA@ 1016c310     GuMetaData.obj
 0002:0000b324       ??_C@_0O@PFOPBKAM@BigConvexData?$AA@ 1016c324     GuMetaData.obj
 0002:0000b334       ??_C@_05PLKALGFN@mData?$AA@ 1016c334     GuMetaData.obj
 0002:0000b33c       ??_C@_08PEMCLHEM@mVBuffer?$AA@ 1016c33c     GuMetaData.obj
 0002:0000b348       ??_C@_09FBMAGD@Alignment?$AA@ 1016c348     GuMetaData.obj
 0002:0000b354       ??_C@_0BE@KFHIBEEA@InternalObjectsData?$AA@ 1016c354     GuMetaData.obj
 0002:0000b36c       ??_C@_06GIEBFILM@PxReal?$AA@ 1016c36c     GuMetaData.obj
 0002:0000b374       ??_C@_07NKGFFIBH@mRadius?$AA@ 1016c374     GuMetaData.obj
 0002:0000b380       ??_C@_08EHFCACAE@mExtents?$AA@ 1016c380     GuMetaData.obj
 0002:0000b38c       ??_C@_0BA@LFMGGCBK@HullPolygonData?$AA@ 1016c38c     GuMetaData.obj
 0002:0000b3a0       ??_C@_06BOHHGLB@mPlane?$AA@ 1016c3a0     GuMetaData.obj
 0002:0000b3a8       ??_C@_06EHMLHGLN@mVRef8?$AA@ 1016c3a8     GuMetaData.obj
 0002:0000b3b0       ??_C@_09BAHHHINI@mMinIndex?$AA@ 1016c3b0     GuMetaData.obj
 0002:0000b3bc       ??_C@_0P@GBLBPIPB@ConvexHullData?$AA@ 1016c3bc     GuMetaData.obj
 0002:0000b3d0       ??_C@_09JDCJAPKD@PxBounds3?$AA@ 1016c3d0     GuMetaData.obj
 0002:0000b3dc       ??_C@_05NDNHIFA@mAABB?$AA@ 1016c3dc     GuMetaData.obj
 0002:0000b3e4       ??_C@_0O@LNOGEMJI@mCenterOfMass?$AA@ 1016c3e4     GuMetaData.obj
 0002:0000b3f4       ??_C@_09CNMCBBKH@mPolygons?$AA@ 1016c3f4     GuMetaData.obj
 0002:0000b400       ??_C@_0BC@KKPDCFJC@mBigConvexRawData?$AA@ 1016c400     GuMetaData.obj
 0002:0000b418       ??_C@_08ELDMKGKH@mNbEdges?$AA@ 1016c418     GuMetaData.obj
 0002:0000b424       ??_C@_0BA@CGLOHBAC@mNbHullVertices?$AA@ 1016c424     GuMetaData.obj
 0002:0000b438       ??_C@_0M@HGFFLLDM@mNbPolygons?$AA@ 1016c438     GuMetaData.obj
 0002:0000b448       ??_C@_09BHJEMDGO@mInternal?$AA@ 1016c448     GuMetaData.obj
 0002:0000b454       ??_C@_0L@GMFHOMKA@ConvexMesh?$AA@ 1016c454     GuMetaData.obj
 0002:0000b464       ??_C@_0N@KECKKFLK@RefCountable?$AA@ 1016c464     GuMetaData.obj
 0002:0000b474       ??_C@_09ILEBDLJH@mHullData?$AA@ 1016c474     GuMetaData.obj
 0002:0000b480       ??_C@_03DKDIKGNC@mNb?$AA@  1016c480     GuMetaData.obj
 0002:0000b484       ??_C@_0P@ENLHFHMD@mBigConvexData?$AA@ 1016c484     GuMetaData.obj
 0002:0000b498       ??_C@_05ILALLCHK@mMass?$AA@ 1016c498     GuMetaData.obj
 0002:0000b4a0       ??_C@_07DBPDADGB@PxMat33?$AA@ 1016c4a0     GuMetaData.obj
 0002:0000b4ac       ??_C@_08FNBHNDBI@mInertia?$AA@ 1016c4ac     GuMetaData.obj
 0002:0000b4b8       ??_C@_0O@FCKNKLMJ@GuMeshFactory?$AA@ 1016c4b8     GuMetaData.obj
 0002:0000b4c8       ??_C@_05MBLIPEMA@PxI16?$AA@ 1016c4c8     GuMetaData.obj
 0002:0000b4d0       ??_C@_06LNLHEAAG@height?$AA@ 1016c4d0     GuMetaData.obj
 0002:0000b4d8       ??_C@_0N@HHDGHJN@PxBitAndByte?$AA@ 1016c4d8     GuMetaData.obj
 0002:0000b4e8       ??_C@_0P@MBBMLBO@materialIndex0?$AA@ 1016c4e8     GuMetaData.obj
 0002:0000b4fc       ??_C@_0P@BFAKPKFP@materialIndex1?$AA@ 1016c4fc     GuMetaData.obj
 0002:0000b510       ??_C@_0BD@EBLPJEOE@PxHeightFieldFlags?$AA@ 1016c510     GuMetaData.obj
 0002:0000b528       ??_C@_0BK@FNNCFFCN@PxHeightFieldFormat?3?3Enum?$AA@ 1016c528     GuMetaData.obj
 0002:0000b548       ??_C@_0BA@CLNFMAAA@HeightFieldData?$AA@ 1016c548     GuMetaData.obj
 0002:0000b55c       ??_C@_04IMCGAIPI@rows?$AA@ 1016c55c     GuMetaData.obj
 0002:0000b564       ??_C@_07HIFEPIJN@columns?$AA@ 1016c564     GuMetaData.obj
 0002:0000b570       ??_C@_08MOAGOABI@rowLimit?$AA@ 1016c570     GuMetaData.obj
 0002:0000b57c       ??_C@_08BAGEHOBO@colLimit?$AA@ 1016c57c     GuMetaData.obj
 0002:0000b588       ??_C@_09LKDBLADF@nbColumns?$AA@ 1016c588     GuMetaData.obj
 0002:0000b594       ??_C@_07ODIFGGLK@samples?$AA@ 1016c594     GuMetaData.obj
 0002:0000b5a0       ??_C@_09GLPKLBIH@thickness?$AA@ 1016c5a0     GuMetaData.obj
 0002:0000b5ac       ??_C@_0BE@POHEGOJG@convexEdgeThreshold?$AA@ 1016c5ac     GuMetaData.obj
 0002:0000b5c4       ??_C@_05GECEPKB@flags?$AA@ 1016c5c4     GuMetaData.obj
 0002:0000b5cc       ??_C@_06DLEPGFEF@format?$AA@ 1016c5cc     GuMetaData.obj
 0002:0000b5d4       ??_C@_0L@NDMBOBEK@rowsPadded?$AA@ 1016c5d4     GuMetaData.obj
 0002:0000b5e4       ??_C@_0O@LADHJMOF@columnsPadded?$AA@ 1016c5e4     GuMetaData.obj
 0002:0000b5f4       ??_C@_06JEAOGIEO@tilesU?$AA@ 1016c5f4     GuMetaData.obj
 0002:0000b5fc       ??_C@_06LPCDDLIN@tilesV?$AA@ 1016c5fc     GuMetaData.obj
 0002:0000b604       ??_C@_0BF@MOGDNMPL@PxMaterialTableIndex?$AA@ 1016c604     GuMetaData.obj
 0002:0000b620       ??_C@_0M@JMJICJJO@HeightField?$AA@ 1016c620     GuMetaData.obj
 0002:0000b630       ??_C@_0O@ENGHMLJP@mSampleStride?$AA@ 1016c630     GuMetaData.obj
 0002:0000b640       ??_C@_0L@EBEEMFFB@mMinHeight?$AA@ 1016c640     GuMetaData.obj
 0002:0000b650       ??_C@_0L@EAEIFPOF@mMaxHeight?$AA@ 1016c650     GuMetaData.obj
 0002:0000b660       ??_C@_0O@PDJPGKCH@LeafTriangles?$AA@ 1016c660     GuMetaData.obj
 0002:0000b670       ??_C@_04DICKPMGH@Data?$AA@ 1016c670     GuMetaData.obj
 0002:0000b678       ??_C@_0O@PEJLJCAI@MeshInterface?$AA@ 1016c678     GuMetaData.obj
 0002:0000b688       ??_C@_07MPIKOOAP@mNbTris?$AA@ 1016c688     GuMetaData.obj
 0002:0000b694       ??_C@_05LFOGJJFO@mTris?$AA@ 1016c694     GuMetaData.obj
 0002:0000b69c       ??_C@_06JFCLJMNN@mVerts?$AA@ 1016c69c     GuMetaData.obj
 0002:0000b6a4       ??_C@_0BB@MBAOOMGA@mHas16BitIndices?$AA@ 1016c6a4     GuMetaData.obj
 0002:0000b6b8       ??_C@_0O@PGJOBDM@RTreeMidphase?$AA@ 1016c6b8     GuMetaData.obj
 0002:0000b6c8       ??_C@_06PHKNPKGP@mIMesh?$AA@ 1016c6c8     GuMetaData.obj
 0002:0000b6d0       ??_C@_0N@MGIKKCI@mGeomEpsilon?$AA@ 1016c6d0     GuMetaData.obj
 0002:0000b6e0       ??_C@_05FFEIGAJF@RTree?$AA@ 1016c6e0     GuMetaData.obj
 0002:0000b6e8       ??_C@_06JDIHDDGN@mRTree?$AA@ 1016c6e8     GuMetaData.obj
 0002:0000b6f0       ??_C@_09PHDKHCK@RTreePage?$AA@ 1016c6f0     GuMetaData.obj
 0002:0000b6fc       ??_C@_04LLPOBGED@minx?$AA@ 1016c6fc     GuMetaData.obj
 0002:0000b704       ??_C@_04KCOFCHAC@miny?$AA@ 1016c704     GuMetaData.obj
 0002:0000b70c       ??_C@_04IJMIHEMB@minz?$AA@ 1016c70c     GuMetaData.obj
 0002:0000b714       ??_C@_04GGOBOBGO@maxx?$AA@ 1016c714     GuMetaData.obj
 0002:0000b71c       ??_C@_04HPPKNACP@maxy?$AA@ 1016c71c     GuMetaData.obj
 0002:0000b724       ??_C@_04FENHIDOM@maxz?$AA@ 1016c724     GuMetaData.obj
 0002:0000b72c       ??_C@_04HHDFEJON@ptrs?$AA@ 1016c72c     GuMetaData.obj
 0002:0000b734       ??_C@_06OMCHPNEO@PxVec4?$AA@ 1016c734     GuMetaData.obj
 0002:0000b73c       ??_C@_0L@NBIFEFLN@mBoundsMin?$AA@ 1016c73c     GuMetaData.obj
 0002:0000b74c       ??_C@_0L@MDAOKBNC@mBoundsMax?$AA@ 1016c74c     GuMetaData.obj
 0002:0000b75c       ??_C@_0N@NJEHLCOF@mInvDiagonal?$AA@ 1016c75c     GuMetaData.obj
 0002:0000b76c       ??_C@_0BA@BEFIGPFG@mDiagonalScaler?$AA@ 1016c76c     GuMetaData.obj
 0002:0000b780       ??_C@_09DICGGKGO@mPageSize?$AA@ 1016c780     GuMetaData.obj
 0002:0000b78c       ??_C@_0O@BOFFCNOL@mNumRootPages?$AA@ 1016c78c     GuMetaData.obj
 0002:0000b79c       ??_C@_0L@JKLGBKAE@mNumLevels?$AA@ 1016c79c     GuMetaData.obj
 0002:0000b7ac       ??_C@_0M@PHDOHJGK@mTotalNodes?$AA@ 1016c7ac     GuMetaData.obj
 0002:0000b7bc       ??_C@_0M@GDGHALAO@mTotalPages?$AA@ 1016c7bc     GuMetaData.obj
 0002:0000b7cc       ??_C@_07JFBFPKGD@mUnused?$AA@ 1016c7cc     GuMetaData.obj
 0002:0000b7d8       ??_C@_06MHCBBJGP@mFlags?$AA@ 1016c7d8     GuMetaData.obj
 0002:0000b7e0       ??_C@_0BJ@CCMJAMJI@InternalTriangleMeshData?$AA@ 1016c7e0     GuMetaData.obj
 0002:0000b800       ??_C@_0N@EONCGABL@mNumVertices?$AA@ 1016c800     GuMetaData.obj
 0002:0000b810       ??_C@_0O@NLHMFGBI@mNumTriangles?$AA@ 1016c810     GuMetaData.obj
 0002:0000b820       ??_C@_09LNNEGOJA@mVertices?$AA@ 1016c820     GuMetaData.obj
 0002:0000b82c       ??_C@_0L@KBOFAKLO@mTriangles?$AA@ 1016c82c     GuMetaData.obj
 0002:0000b83c       ??_C@_0P@MHDFIHLD@mExtraTrigData?$AA@ 1016c83c     GuMetaData.obj
 0002:0000b850       ??_C@_0BA@BEEAIDOP@mCollisionModel?$AA@ 1016c850     GuMetaData.obj
 0002:0000b864       ??_C@_0BF@LJKJIEBP@InternalTriangleMesh?$AA@ 1016c864     GuMetaData.obj
 0002:0000b880       ??_C@_0BB@IFLOOCNA@mMaterialIndices?$AA@ 1016c880     GuMetaData.obj
 0002:0000b894       ??_C@_0L@OPJMBFMI@mFaceRemap?$AA@ 1016c894     GuMetaData.obj
 0002:0000b8a4       ??_C@_0BA@ICGEFMNF@mNumAdjacencies?$AA@ 1016c8a4     GuMetaData.obj
 0002:0000b8b8       ??_C@_0BF@GBKBIGOB@mConvexEdgeThreshold?$AA@ 1016c8b8     GuMetaData.obj
 0002:0000b8d4       ??_C@_0P@EMMDNPMH@mMeshInterface?$AA@ 1016c8d4     GuMetaData.obj
 0002:0000b8e8       ??_C@_0N@OJNNNLIB@TriangleMesh?$AA@ 1016c8e8     GuMetaData.obj
 0002:0000b8f8       ??_C@_05KNFPOOLH@mMesh?$AA@ 1016c8f8     GuMetaData.obj
 0002:0000b900       ??_C@_0BG@EAPGHGEI@MaterialIndicesStruct?$AA@ 1016c900     GuMetaData.obj
 0002:0000b91c       ??_C@_07OKCKIPNN@indices?$AA@ 1016c91c     GuMetaData.obj
 0002:0000b928       ??_C@_0L@KCBHBGBP@numIndices?$AA@ 1016c928     GuMetaData.obj
 0002:0000b938       ??_C@_03PNAAIPML@pad?$AA@  1016c938     GuMetaData.obj
 0002:0000b93c       ??_C@_0BJ@LIOOOKID@ShadowConvexMeshGeometry?$AA@ 1016c93c     GuMetaData.obj
 0002:0000b95c       ??_C@_0BF@PJFPGDNP@PxGeometryType?3?3Enum?$AA@ 1016c95c     GuMetaData.obj
 0002:0000b978       ??_C@_05GNIIDDHH@mType?$AA@ 1016c978     GuMetaData.obj
 0002:0000b980       ??_C@_0M@JFNDEGCE@PxMeshScale?$AA@ 1016c980     GuMetaData.obj
 0002:0000b990       ??_C@_05MHMEBBGO@scale?$AA@ 1016c990     GuMetaData.obj
 0002:0000b998       ??_C@_0L@OKMLGDHH@convexMesh?$AA@ 1016c998     GuMetaData.obj
 0002:0000b9a8       ??_C@_08CICKEKCM@hullData?$AA@ 1016c9a8     GuMetaData.obj
 0002:0000b9b4       ??_C@_0BE@FFPGAPHN@PxMeshGeometryFlags?$AA@ 1016c9b4     GuMetaData.obj
 0002:0000b9cc       ??_C@_0BL@KABFLNEB@ShadowTriangleMeshGeometry?$AA@ 1016c9cc     GuMetaData.obj
 0002:0000b9ec       ??_C@_09PLMNFMJI@meshFlags?$AA@ 1016c9ec     GuMetaData.obj
 0002:0000b9f8       ??_C@_0BB@EINMAHMD@paddingFromFlags?$AA@ 1016c9f8     GuMetaData.obj
 0002:0000ba0c       ??_C@_0N@FKKDJAHE@triangleMesh?$AA@ 1016ca0c     GuMetaData.obj
 0002:0000ba1c       ??_C@_08BEABJAHJ@meshData?$AA@ 1016ca1c     GuMetaData.obj
 0002:0000ba28       ??_C@_0BA@NGIONHFJ@materialIndices?$AA@ 1016ca28     GuMetaData.obj
 0002:0000ba3c       ??_C@_09JGGNEAGH@materials?$AA@ 1016ca3c     GuMetaData.obj
 0002:0000ba48       ??_C@_0BK@OIFEOHNJ@ShadowHeightFieldGeometry?$AA@ 1016ca48     GuMetaData.obj
 0002:0000ba68       ??_C@_0M@IEKJPCGG@heightField?$AA@ 1016ca68     GuMetaData.obj
 0002:0000ba78       ??_C@_0M@LHLNPPJ@heightScale?$AA@ 1016ca78     GuMetaData.obj
 0002:0000ba88       ??_C@_08GJPCBGLE@rowScale?$AA@ 1016ca88     GuMetaData.obj
 0002:0000ba94       ??_C@_0M@HHBHEPCE@columnScale?$AA@ 1016ca94     GuMetaData.obj
 0002:0000baa4       ??_C@_0BB@PMIIHDKK@heightFieldFlags?$AA@ 1016caa4     GuMetaData.obj
 0002:0000bab8       ??_C@_0BA@DMOKLLHN@heightFieldData?$AA@ 1016cab8     GuMetaData.obj
 0002:0000bacc       ??_C@_0BE@IKADPPC@ShadowPlaneGeometry?$AA@ 1016cacc     GuMetaData.obj
 0002:0000bae4       ??_C@_0BF@PIKLLBGN@ShadowSphereGeometry?$AA@ 1016cae4     GuMetaData.obj
 0002:0000bb00       ??_C@_06KGHINEPG@radius?$AA@ 1016cb00     GuMetaData.obj
 0002:0000bb08       ??_C@_0BG@OBHJHKMO@ShadowCapsuleGeometry?$AA@ 1016cb08     GuMetaData.obj
 0002:0000bb24       ??_C@_0L@PMAANELH@halfHeight?$AA@ 1016cb24     GuMetaData.obj
 0002:0000bb34       ??_C@_0BC@DMJNHLLO@ShadowBoxGeometry?$AA@ 1016cb34     GuMetaData.obj
 0002:0000bb4c       ??_C@_0M@CMAEPJOI@halfExtents?$AA@ 1016cb4c     GuMetaData.obj
 0002:0000bb5c       ??_C@_0BH@PKALDLFA@PxConvexMeshGeometryLL?$AA@ 1016cb5c     GuMetaData.obj
 0002:0000bb78       ??_C@_0BJ@GAFBNAAE@PxTriangleMeshGeometryLL?$AA@ 1016cb78     GuMetaData.obj
 0002:0000bb98       ??_C@_0BI@IIFLCNOC@PxHeightFieldGeometryLL?$AA@ 1016cb98     GuMetaData.obj
 0002:0000bbb4       ??_C@_0BA@NAHKMBFO@PxPlaneGeometry?$AA@ 1016cbb4     GuMetaData.obj
 0002:0000bbc8       ??_C@_0BB@CHBDIEFA@PxSphereGeometry?$AA@ 1016cbc8     GuMetaData.obj
 0002:0000bbdc       ??_C@_0BC@LJMOIOOK@PxCapsuleGeometry?$AA@ 1016cbdc     GuMetaData.obj
 0002:0000bbf4       ??_C@_0O@OEDJDNFP@PxBoxGeometry?$AA@ 1016cbf4     GuMetaData.obj
 0002:0000bc04       ??_C@_0BC@ICOOCLFG@Gu?3?3GeometryUnion?$AA@ 1016cc04     GuMetaData.obj
 0002:0000bc34       ??_C@_0BO@CHOHCGHC@?4?4?2?4?4?2GeomUtils?2src?2GuMTD?4cpp?$AA@ 1016cc34     GuMTD.obj
 0002:0000bc58       ??_C@_0CJ@FHHKLFML@geom1?4getType?$CI?$CJ?$DN?$DNPxGeometryType?3@ 1016cc58     GuMTD.obj
 0002:0000bc8c       ??_C@_0CI@EDOMHHLL@geom1?4getType?$CI?$CJ?$DN?$DNPxGeometryType?3@ 1016cc8c     GuMTD.obj
 0002:0000bcbc       ??_C@_0CK@KONOJNHO@geom1?4getType?$CI?$CJ?$DN?$DNPxGeometryType?3@ 1016ccbc     GuMTD.obj
 0002:0000bcf0       ??_C@_0CG@JNDFENF@geom1?4getType?$CI?$CJ?$DN?$DNPxGeometryType?3@ 1016ccf0     GuMTD.obj
 0002:0000bd20       ??_C@_0CN@PMLJIDCN@geom1?4getType?$CI?$CJ?$DN?$DNPxGeometryType?3@ 1016cd20     GuMTD.obj
 0002:0000bd58       ??_C@_0CH@NCDKBGFJ@?4?4?2?4?4?2GeomUtils?2src?2GuObjectBoun@ 1016cd58     GuObjectBounds.obj
 0002:0000bd88       ??_C@_0BC@FAEIBAIH@?$CBlocalSpaceBounds?$AA@ 1016cd88     GuObjectBounds.obj
 0002:0000bda0       ??_C@_0DG@DFOCGHP@Gu?3?3GeometryUnion?3?3computeBounds@ 1016cda0     GuObjectBounds.obj
 0002:0000bde0       __real@3f7fffef            1016cde0     GuObjectBounds.obj
 0002:0000be04       ??_C@_08ECJOCDKG@isSane?$CI?$CJ?$AA@ 1016ce04     GuOverlapTests.obj
 0002:0000be10       ??_C@_0CH@MIKFAPPP@?4?4?2?4?4?2GeomUtils?2src?2GuOverlapTes@ 1016ce10     GuOverlapTests.obj
 0002:0000be40       ??_C@_0BI@NLBIFMBL@localDir?4isNormalized?$CI?$CJ?$AA@ 1016ce40     GuOverlapTests.obj
 0002:0000be5c       ??_C@_0BB@DBCIGECP@bestVert?5?$CB?$DN?5NULL?$AA@ 1016ce5c     GuOverlapTests.obj
 0002:0000be70       ??_C@_0CJ@FEPECFEE@geom?4getType?$CI?$CJ?5?$DN?$DN?5PxGeometryType@ 1016ce70     GuOverlapTests.obj
 0002:0000bea4       ??_C@_0CO@EAGPPFNG@geom?4getType?$CI?$CJ?5?$DN?$DN?5PxGeometryType@ 1016cea4     GuOverlapTests.obj
 0002:0000bedc       ??_C@_0CP@FOFLFDIB@geom0?4getType?$CI?$CJ?$DN?$DNPxGeometryType?3@ 1016cedc     GuOverlapTests.obj
 0002:0000bf14       ??_C@_0CO@DLLMJICA@geom0?4getType?$CI?$CJ?$DN?$DNPxGeometryType?3@ 1016cf14     GuOverlapTests.obj
 0002:0000bf50       ??_C@_0EC@MLIJOGHA@Height?5Field?5Overlap?5test?5called@ 1016cf50     GuOverlapTests.obj
 0002:0000bfb4       ??_C@_0CH@DLGIHIFF@?4?4?2?4?4?2GeomUtils?2src?2GuRaycastTes@ 1016cfb4     GuRaycastTests.obj
 0002:0000bfe4       ??_C@_0BA@KOODMNOH@maxHits?5?$CG?$CG?5hits?$AA@ 1016cfe4     GuRaycastTests.obj
 0002:0000bff8       ??_C@_0CI@CBEDPOMN@PxAbs?$CIrayDir?4magnitudeSquared?$CI?$CJ?9@ 1016cff8     GuRaycastTests.obj
 0002:0000c028       ??_7RayMeshColliderCallback@@6B@ 1016d028     GuRaycastTests.obj
 0002:0000c034       ??_C@_0BL@PJJCJKNJ@?$CImaxHits?5?$CG?$CG?5hits?$CJ?5?$HM?$HM?5hitCB?$AA@ 1016d034     GuRaycastTests.obj
 0002:0000c054       __real@501502f9            1016d054     GuRaycastTests.obj
 0002:0000c058       __real@b3d6bf95            1016d058     GuRaycastTests.obj
 0002:0000c060       __real@be7ad7f29abcaf48    1016d060     GuRaycastTests.obj
 0002:0000c06c       ??_7RadixSort@Gu@physx@@6B@ 1016d06c     GuRevisitedRadix.obj
 0002:0000c070       ??_C@_0CJ@NAKCCODK@?4?4?2?4?4?2GeomUtils?2src?2GuRevisitedR@ 1016d070     GuRevisitedRadix.obj
 0002:0000c0a4       ??_C@_0P@OPCKFFMF@mHistogram1024?$AA@ 1016d0a4     GuRevisitedRadix.obj
 0002:0000c0b8       ??_C@_09DJDIIHNA@mLinks256?$AA@ 1016d0b8     GuRevisitedRadix.obj
 0002:0000c0c4       ??_C@_06PGIPHEGB@mRanks?$AA@ 1016d0c4     GuRevisitedRadix.obj
 0002:0000c0cc       ??_C@_07NHDDIKML@mRanks2?$AA@ 1016d0cc     GuRevisitedRadix.obj
 0002:0000c0d8       ??_7RadixSortBuffered@Gu@physx@@6B@ 1016d0d8     GuRevisitedRadixBuffered.obj
 0002:0000c0dc       ??_C@_0BJ@LFNCOACD@RadixSortBuffered?3mRanks?$AA@ 1016d0dc     GuRevisitedRadixBuffered.obj
 0002:0000c0fc       ??_C@_0DB@NDPHLCHA@?4?4?2?4?4?2GeomUtils?2src?2GuRevisitedR@ 1016d0fc     GuRevisitedRadixBuffered.obj
 0002:0000c138       ??_C@_0BK@EPKCPHOD@RadixSortBuffered?3mRanks2?$AA@ 1016d138     GuRevisitedRadixBuffered.obj
 0002:0000c174       ??_7MeshMTDGenerationCallback@@6B@ 1016d174     GuSweepMTD.obj
 0002:0000c180       ??_C@_0CD@HIDHINOM@?4?4?2?4?4?2GeomUtils?2src?2GuSweepMTD?4c@ 1016d180     GuSweepMTD.obj
 0002:0000c1ac       ??_C@_0DE@IKPPEJO@triangleIndex?5?$DN?$DN?5manifoldContact@ 1016d1ac     GuSweepMTD.obj
 0002:0000c1ec       ??_7MidPhaseQueryLocalReport@@6B@ 1016d1ec     GuSweepMTD.obj
 0002:0000c1f8       __real@3f933333            1016d1f8     GuSweepMTD.obj
 0002:0000c214       ??_C@_0CL@ECNBMPNK@?4?4?2?4?4?2GeomUtils?2src?2GuSweepShare@ 1016d214     GuSweepSharedTests.obj
 0002:0000c248       ??_C@_07HKLLBGOJ@nbPolys?$AA@ 1016d248     GuSweepSharedTests.obj
 0002:0000c274       ??_C@_0CF@DGAJDDIC@?4?4?2?4?4?2GeomUtils?2src?2GuSweepTests@ 1016d274     GuSweepTests.obj
 0002:0000c2a4       ??_7type_info@@6B@         1016d2a4     MSVCRTD:std_type_info_static.obj
 0002:0000c34c       __pDefaultRawDllMain       1016d34c     MSVCRTD:dll_dllmain.obj
 0002:0000c34c       __pRawDllMain              1016d34c     MSVCRTD:dll_dllmain.obj
 0002:0000c368       ??_C@_0BJ@HEGAHDFO@Stack?5pointer?5corruption?$AA@ 1016d368     MSVCRTD:_userapi_.obj
 0002:0000c388       ??_C@_0CK@FEGOIOPB@Cast?5to?5smaller?5type?5causing?5los@ 1016d388     MSVCRTD:_userapi_.obj
 0002:0000c3bc       ??_C@_0BI@CIGMDCBH@Stack?5memory?5corruption?$AA@ 1016d3bc     MSVCRTD:_userapi_.obj
 0002:0000c3d8       ??_C@_0CK@CNLNOEPB@Local?5variable?5used?5before?5initi@ 1016d3d8     MSVCRTD:_userapi_.obj
 0002:0000c40c       ??_C@_0BP@OGBCLIBO@Stack?5around?5_alloca?5corrupted?$AA@ 1016d40c     MSVCRTD:_userapi_.obj
 0002:0000c4f0       ??_C@_0NN@NGPKDKPD@The?5value?5of?5ESP?5was?5not?5properl@ 1016d4f0     MSVCRTD:_error_.obj
 0002:0000c600       ??_C@_0BBN@GPMLNJCF@A?5cast?5to?5a?5smaller?5data?5type?5ha@ 1016d600     MSVCRTD:_error_.obj
 0002:0000c758       ??_C@_0BN@FFOINMNJ@Stack?5memory?5was?5corrupted?6?$AN?$AA@ 1016d758     MSVCRTD:_error_.obj
 0002:0000c77c       ??_C@_0DG@HKJMLLLP@A?5local?5variable?5was?5used?5before@ 1016d77c     MSVCRTD:_error_.obj
 0002:0000c7bc       ??_C@_0CM@NGINOKPC@Stack?5memory?5around?5_alloca?5was?5@ 1016d7bc     MSVCRTD:_error_.obj
 0002:0000c7f0       ??_C@_0BO@GNIAFIKK@Unknown?5Runtime?5Check?5Error?6?$AN?$AA@ 1016d7f0     MSVCRTD:_error_.obj
 0002:0000c818       ??_C@_1GM@OLMCBDMB@?$AAR?$AAu?$AAn?$AAt?$AAi?$AAm?$AAe?$AA?5?$AAC?$AAh?$AAe?$AAc?$AAk?$AA?5?$AAE?$AAr?$AAr?$AAo?$AAr?$AA?4?$AA?6?$AA?$AN?$AA?5?$AAU?$AAn?$AAa?$AAb?$AAl?$AAe?$AA?5?$AAt?$AAo@ 1016d818     MSVCRTD:_error_.obj
 0002:0000c8a0       ??_C@_1EA@NFKNIFJP@?$AAR?$AAu?$AAn?$AA?9?$AAT?$AAi?$AAm?$AAe?$AA?5?$AAC?$AAh?$AAe?$AAc?$AAk?$AA?5?$AAF?$AAa?$AAi?$AAl?$AAu?$AAr?$AAe?$AA?5?$AA?$CD?$AA?$CF?$AAd?$AA?5?$AA?9?$AA?5?$AA?$CF?$AAs?$AA?$AA@ 1016d8a0     MSVCRTD:_error_.obj
 0002:0000c8ec       ??_C@_0BB@PFFGGCJP@Unknown?5Filename?$AA@ 1016d8ec     MSVCRTD:_error_.obj
 0002:0000c900       ??_C@_0BE@GNBOBNCK@Unknown?5Module?5Name?$AA@ 1016d900     MSVCRTD:_error_.obj
 0002:0000c918       ??_C@_0CA@IODNCDPG@Run?9Time?5Check?5Failure?5?$CD?$CFd?5?9?5?$CFs?$AA@ 1016d918     MSVCRTD:_error_.obj
 0002:0000c940       ??_C@_0CG@IAFNJNEE@Stack?5corrupted?5near?5unknown?5var@ 1016d940     MSVCRTD:_error_.obj
 0002:0000c970       ??_C@_05MKKEDADM@?$CF?42X?5?$AA@ 1016d970     MSVCRTD:_error_.obj
 0002:0000c978       ??_C@_0EJ@LJKNEOLN@Stack?5area?5around?5_alloca?5memory@ 1016d978     MSVCRTD:_error_.obj
 0002:0000c9d0       ??_C@_08OMAHNMHJ@?6Data?3?5?$DM?$AA@ 1016d9d0     MSVCRTD:_error_.obj
 0002:0000c9dc       ??_C@_0CK@DKGBICFE@?6Allocation?5number?5within?5this?5f@ 1016d9dc     MSVCRTD:_error_.obj
 0002:0000ca10       ??_C@_07DFDJCKFN@?6Size?3?5?$AA@ 1016da10     MSVCRTD:_error_.obj
 0002:0000ca1c       ??_C@_0N@MHFFIMFG@?6Address?3?50x?$AA@ 1016da1c     MSVCRTD:_error_.obj
 0002:0000ca30       ??_C@_0EI@CLEPFNGI@Stack?5area?5around?5_alloca?5memory@ 1016da30     MSVCRTD:_error_.obj
 0002:0000ca88       ??_C@_0BC@HHMKLAND@?$CFs?$CFs?$CFp?$CFs?$CFzd?$CFs?$CFd?$CFs?$AA@ 1016da88     MSVCRTD:_error_.obj
 0002:0000caa0       ??_C@_02LLMPMKNF@?$DO?5?$AA@ 1016daa0     MSVCRTD:_error_.obj
 0002:0000caa4       ??_C@_08KJEDNCKC@?$CFs?$CFs?$CFs?$CFs?$AA@ 1016daa4     MSVCRTD:_error_.obj
 0002:0000cab0       ??_C@_0DE@OHJBPMBP@A?5variable?5is?5being?5used?5without@ 1016dab0     MSVCRTD:_error_.obj
 0002:0000caf4       ??_7exception@std@@6B@     1016daf4     MSVCRTD:throw_bad_alloc.obj
 0002:0000cb00       ??_C@_0BC@EOODALEL@Unknown?5exception?$AA@ 1016db00     MSVCRTD:throw_bad_alloc.obj
 0002:0000cb1c       ??_7bad_alloc@std@@6B@     1016db1c     MSVCRTD:throw_bad_alloc.obj
 0002:0000cb28       ??_C@_0P@GHFPNOJB@bad?5allocation?$AA@ 1016db28     MSVCRTD:throw_bad_alloc.obj
 0002:0000cb40       ??_7bad_array_new_length@std@@6B@ 1016db40     MSVCRTD:throw_bad_alloc.obj
 0002:0000cb4c       ??_C@_0BF@KINCDENJ@bad?5array?5new?5length?$AA@ 1016db4c     MSVCRTD:throw_bad_alloc.obj
 0002:0000cbc0       ??_C@_1EI@MLPKHBGE@?$AAa?$AAp?$AAi?$AA?9?$AAm?$AAs?$AA?9?$AAw?$AAi?$AAn?$AA?9?$AAc?$AAo?$AAr?$AAe?$AA?9?$AAr?$AAe?$AAg?$AAi?$AAs?$AAt?$AAr?$AAy?$AA?9?$AAl?$AA1?$AA?9?$AA1?$AA?9?$AA0?$AA?4@ 1016dbc0     MSVCRTD:_pdblkup_.obj
 0002:0000cc18       ??_C@_1BK@JHLNAEJL@?$AAa?$AAd?$AAv?$AAa?$AAp?$AAi?$AA3?$AA2?$AA?4?$AAd?$AAl?$AAl?$AA?$AA@ 1016dc18     MSVCRTD:_pdblkup_.obj
 0002:0000cc38       ??_C@_0O@COHOBMLB@RegOpenKeyExW?$AA@ 1016dc38     MSVCRTD:_pdblkup_.obj
 0002:0000cc48       ??_C@_0BB@GLNAEDBD@RegQueryValueExW?$AA@ 1016dc48     MSVCRTD:_pdblkup_.obj
 0002:0000cc5c       ??_C@_0M@HLOHPNFA@RegCloseKey?$AA@ 1016dc5c     MSVCRTD:_pdblkup_.obj
 0002:0000cc70       ??_C@_1HE@EBEAGLFB@?$AAS?$AAO?$AAF?$AAT?$AAW?$AAA?$AAR?$AAE?$AA?2?$AAW?$AAo?$AAw?$AA6?$AA4?$AA3?$AA2?$AAN?$AAo?$AAd?$AAe?$AA?2?$AAM?$AAi?$AAc?$AAr?$AAo?$AAs?$AAo?$AAf?$AAt?$AA?2?$AAV@ 1016dc70     MSVCRTD:_pdblkup_.obj
 0002:0000ccfc       ??_C@_1BG@EABPBLLF@?$AAP?$AAr?$AAo?$AAd?$AAu?$AAc?$AAt?$AAD?$AAi?$AAr?$AA?$AA@ 1016dcfc     MSVCRTD:_pdblkup_.obj
 0002:0000cd3c       ??_C@_1BC@JINFINNJ@?$AAM?$AAS?$AAP?$AAD?$AAB?$AA1?$AA4?$AA0?$AA?$AA@ 1016dd3c     MSVCRTD:_pdblkup_.obj
 0002:0000cd54       ??_C@_0BB@KCIACLNC@PDBOpenValidate5?$AA@ 1016dd54     MSVCRTD:_pdblkup_.obj
 0002:0000cd68       ??_C@_01KDCPPGHE@r?$AA@    1016dd68     MSVCRTD:_pdblkup_.obj
 0002:0000cdb8       __load_config_used         1016ddb8     MSVCRTD:loadcfg.obj
 0002:0000d3c4       ??_R4type_info@@6B@        1016e3c4     MSVCRTD:std_type_info_static.obj
 0002:0000d3dc       ??_R3type_info@@8          1016e3dc     MSVCRTD:std_type_info_static.obj
 0002:0000d3f0       ??_R2type_info@@8          1016e3f0     MSVCRTD:std_type_info_static.obj
 0002:0000d3f8       ??_R1A@?0A@EA@type_info@@8 1016e3f8     MSVCRTD:std_type_info_static.obj
 0002:0000d41c       ??_R4exception@std@@6B@    1016e41c     MSVCRTD:throw_bad_alloc.obj
 0002:0000d434       ??_R3exception@std@@8      1016e434     MSVCRTD:throw_bad_alloc.obj
 0002:0000d448       ??_R2exception@std@@8      1016e448     MSVCRTD:throw_bad_alloc.obj
 0002:0000d450       ??_R1A@?0A@EA@exception@std@@8 1016e450     MSVCRTD:throw_bad_alloc.obj
 0002:0000d474       ??_R4bad_alloc@std@@6B@    1016e474     MSVCRTD:throw_bad_alloc.obj
 0002:0000d48c       ??_R3bad_alloc@std@@8      1016e48c     MSVCRTD:throw_bad_alloc.obj
 0002:0000d4a0       ??_R2bad_alloc@std@@8      1016e4a0     MSVCRTD:throw_bad_alloc.obj
 0002:0000d4ac       ??_R1A@?0A@EA@bad_alloc@std@@8 1016e4ac     MSVCRTD:throw_bad_alloc.obj
 0002:0000d4d0       ??_R4bad_array_new_length@std@@6B@ 1016e4d0     MSVCRTD:throw_bad_alloc.obj
 0002:0000d4e8       ??_R3bad_array_new_length@std@@8 1016e4e8     MSVCRTD:throw_bad_alloc.obj
 0002:0000d4fc       ??_R2bad_array_new_length@std@@8 1016e4fc     MSVCRTD:throw_bad_alloc.obj
 0002:0000d50c       ??_R1A@?0A@EA@bad_array_new_length@std@@8 1016e50c     MSVCRTD:throw_bad_alloc.obj
 0002:0000d640       ___safe_se_handler_table   1016e640     <linker-defined>
 0002:0000d8e0       ___rtc_iaa                 1016e8e0     MSVCRTD:_initsect_.obj
 0002:0000dd68       ___rtc_izz                 1016ed68     MSVCRTD:_initsect_.obj
 0002:0000de6c       ___rtc_taa                 1016ee6c     MSVCRTD:_initsect_.obj
 0002:0000e2f4       ___rtc_tzz                 1016f2f4     MSVCRTD:_initsect_.obj
 0002:0000e4c8       __TI2?AVbad_alloc@std@@    1016f4c8     MSVCRTD:throw_bad_alloc.obj
 0002:0000e4dc       __CTA2?AVbad_alloc@std@@   1016f4dc     MSVCRTD:throw_bad_alloc.obj
 0002:0000e4ec       __CT??_R0?AVbad_alloc@std@@@8??0bad_alloc@std@@QAE@ABV01@@Z12 1016f4ec     MSVCRTD:throw_bad_alloc.obj
 0002:0000e50c       __CT??_R0?AVexception@std@@@8??0exception@std@@QAE@ABV01@@Z12 1016f50c     MSVCRTD:throw_bad_alloc.obj
 0002:0000e52c       __TI3?AVbad_array_new_length@std@@ 1016f52c     MSVCRTD:throw_bad_alloc.obj
 0002:0000e540       __CTA3?AVbad_array_new_length@std@@ 1016f540     MSVCRTD:throw_bad_alloc.obj
 0002:0000e554       __CT??_R0?AVbad_array_new_length@std@@@8??0bad_array_new_length@std@@QAE@ABV01@@Z12 1016f554     MSVCRTD:throw_bad_alloc.obj
 0003:0000003c       ?sAssertHandlerPtr@?A0x8c7671c9@@3PAVPxAssertHandler@physx@@A 1018703c     PsAssert.obj
 0003:00000180       ?mVersion@RTree@Gu@physx@@2IA 10187180     GuRTree.obj
 0003:000001c8       ?gGeomMTDMethodTable@Gu@physx@@3PAY06P6A_NAAVPxVec3@2@AAMABVPxGeometry@2@ABVPxTransform@2@23@ZA 101871c8     GuMTD.obj
 0003:000002b8       ?gGeomOverlapMethodTable@@3PAY06P6A_NABVPxGeometry@physx@@ABVPxTransform@2@01PAUTriggerCache@Gu@2@@ZA 101872b8     GuOverlapTests.obj
 0003:000003a4       ?gRaycastMap@@3PAP6AIABVPxGeometry@physx@@ABVPxTransform@2@ABVPxVec3@2@2MV?$PxFlags@W4Enum@PxHitFlag@physx@@G@2@IPIAUPxRaycastHit@2@_NP6A_NAAU62@PAX@Z7@ZA 101873a4     GuRaycastTests.obj
 0003:000003e0       ?gGeomSweepFuncs@@3UGeomSweepFuncs@Gu@physx@@A 101873e0     GuSweepTests.obj
 0003:00000490       __fltused                  10187490     MSVCRTD:fltused.obj
 0003:00000494       ___scrt_native_dllmain_reason 10187494     MSVCRTD:utility.obj
 0003:000004a0       ___isa_enabled             101874a0     MSVCRTD:_cpu_disp_.obj
 0003:000004a4       ___security_cookie_complement 101874a4     MSVCRTD:gs_cookie.obj
 0003:000004a8       ___security_cookie         101874a8     MSVCRTD:gs_cookie.obj
 0003:000004b0       ?_RTC_ErrorLevels@@3PAHA   101874b0     MSVCRTD:_error_.obj
 0003:000004c8       ___scrt_ucrt_dll_is_in_use 101874c8     MSVCRTD:ucrt_stubs.obj
 0003:000005e4       ??_R0?AVMutexImpl@shdfnd@physx@@@8 101875e4     PsWindowsMutex.obj
 0003:00000610       ??_R0?AVConnImpl@shdfnd@physx@@@8 10187610     PsWindowsPAEventSrc.obj
 0003:0000063c       ??_R0?AVThreadImpl@shdfnd@physx@@@8 1018763c     PsWindowsSocket.obj
 0003:0000066c       ??_R0?AVFastIPC@shdfnd@physx@@@8 1018766c     PsFastIPC.obj
 0003:00000698       ??_R0?AVMemoryMappedFile@shdfnd@physx@@@8 10187698     PsFastIPC.obj
 0003:000006cc       ??_R0?AVMultiPartData@PxRingBuffer@shdfnd@physx@@@8 101876cc     PsFastIPC.obj
 0003:0000070c       ??_R0?AVMultiPartPacket@PxRingBuffer@shdfnd@physx@@@8 1018770c     PsFastIPC.obj
 0003:00000750       ??_R0?AVCollection@Cm@physx@@@8 10187750     CmCollection.obj
 0003:00000778       ??_R0?AVBigConvexData@physx@@@8 10187778     GuConvexMesh.obj
 0003:000007a0       ??_R0I@8                   101877a0     GuInternalTriangleMesh.obj
 0003:000007b0       ??_R0G@8                   101877b0     GuInternalTriangleMesh.obj
 0003:000007c0       ??_R0E@8                   101877c0     GuTriangleMesh.obj
 0003:000007d0       ??_R0?AVHeightField@Gu@physx@@@8 101877d0     GuMeshFactory.obj
 0003:000007fc       ??_R0?AVConvexMesh@Gu@physx@@@8 101877fc     GuMeshFactory.obj
 0003:00000824       ??_R0?AVTriangleMesh@Gu@physx@@@8 10187824     GuMeshFactory.obj
 0003:00000850       ??_R0?AVtype_info@@@8      10187850     MSVCRTD:std_type_info_static.obj
 0003:0000086c       ??_R0?AVbad_alloc@std@@@8  1018786c     MSVCRTD:throw_bad_alloc.obj
 0003:00000890       ??_R0?AVexception@std@@@8  10187890     MSVCRTD:throw_bad_alloc.obj
 0003:000008b4       ??_R0?AVbad_array_new_length@std@@@8 101878b4     MSVCRTD:throw_bad_alloc.obj
 0003:000009f8       ?_OptionsStorage@?1??__local_stdio_printf_options@@9@4_KA 101879f8     PsWindowsPrintString.obj
 0003:00000a04       ?gPhysicalCoreCount@?A0xa6256d9c@shdfnd@physx@@3IA 10187a04     PsWindowsThread.obj
 0003:00000a10       ?sTickDuration@?A0x7e2a37ff@@3NA 10187a10     PsWindowsTime.obj
 0003:00000a30       ?_ignore@?2??grow@?$HashBase@V?$Pair@QBVNamedAllocator@shdfnd@physx@@PBD@shdfnd@physx@@PBVNamedAllocator@23@U?$Hash@PBVNamedAllocator@shdfnd@physx@@@23@UGetKey@?$HashMapBase@PBVNamedAllocator@shdfnd@physx@@PBDU?$Hash@PBVNamedAllocator@shdfnd@physx@@@23@VNonTrackingAllocator@23@@internal@23@VNonTrackingAllocator@23@$00@internal@shdfnd@physx@@AAEXXZ@4_NA 10187a30     PsAllocator.obj
 0003:00000a31       ?_ignore@?3??replaceWithLast@?$HashBase@V?$Pair@QBVNamedAllocator@shdfnd@physx@@PBD@shdfnd@physx@@PBVNamedAllocator@23@U?$Hash@PBVNamedAllocator@shdfnd@physx@@@23@UGetKey@?$HashMapBase@PBVNamedAllocator@shdfnd@physx@@PBDU?$Hash@PBVNamedAllocator@shdfnd@physx@@@23@VNonTrackingAllocator@23@@internal@23@VNonTrackingAllocator@23@$00@internal@shdfnd@physx@@AAEXI@Z@4_NA 10187a31     PsAllocator.obj
 0003:00000a32       ?_ignore@?2??freeListGetNext@?$HashBase@V?$Pair@QBVNamedAllocator@shdfnd@physx@@PBD@shdfnd@physx@@PBVNamedAllocator@23@U?$Hash@PBVNamedAllocator@shdfnd@physx@@@23@UGetKey@?$HashMapBase@PBVNamedAllocator@shdfnd@physx@@PBDU?$Hash@PBVNamedAllocator@shdfnd@physx@@@23@VNonTrackingAllocator@23@@internal@23@VNonTrackingAllocator@23@$00@internal@shdfnd@physx@@AAEIXZ@4_NA 10187a32     PsAllocator.obj
 0003:00000a33       ?_ignore@?6??freeListGetNext@?$HashBase@V?$Pair@QBVNamedAllocator@shdfnd@physx@@PBD@shdfnd@physx@@PBVNamedAllocator@23@U?$Hash@PBVNamedAllocator@shdfnd@physx@@@23@UGetKey@?$HashMapBase@PBVNamedAllocator@shdfnd@physx@@PBDU?$Hash@PBVNamedAllocator@shdfnd@physx@@@23@VNonTrackingAllocator@23@@internal@23@VNonTrackingAllocator@23@$00@internal@shdfnd@physx@@AAEIXZ@4_NA 10187a33     PsAllocator.obj
 0003:00000a34       ?_ignore@?5??freeListAdd@?$HashBase@V?$Pair@QBVNamedAllocator@shdfnd@physx@@PBD@shdfnd@physx@@PBVNamedAllocator@23@U?$Hash@PBVNamedAllocator@shdfnd@physx@@@23@UGetKey@?$HashMapBase@PBVNamedAllocator@shdfnd@physx@@PBDU?$Hash@PBVNamedAllocator@shdfnd@physx@@@23@VNonTrackingAllocator@23@@internal@23@VNonTrackingAllocator@23@$00@internal@shdfnd@physx@@AAEXI@Z@4_NA 10187a34     PsAllocator.obj
 0003:00000a35       ?_ignore@?4??reserveInternal@?$HashBase@V?$Pair@QBVNamedAllocator@shdfnd@physx@@PBD@shdfnd@physx@@PBVNamedAllocator@23@U?$Hash@PBVNamedAllocator@shdfnd@physx@@@23@UGetKey@?$HashMapBase@PBVNamedAllocator@shdfnd@physx@@PBDU?$Hash@PBVNamedAllocator@shdfnd@physx@@@23@VNonTrackingAllocator@23@@internal@23@VNonTrackingAllocator@23@$00@internal@shdfnd@physx@@AAEXI@Z@4_NA 10187a35     PsAllocator.obj
 0003:00000a36       ?_ignore@?6??reserveInternal@?$HashBase@V?$Pair@QBVNamedAllocator@shdfnd@physx@@PBD@shdfnd@physx@@PBVNamedAllocator@23@U?$Hash@PBVNamedAllocator@shdfnd@physx@@@23@UGetKey@?$HashMapBase@PBVNamedAllocator@shdfnd@physx@@PBDU?$Hash@PBVNamedAllocator@shdfnd@physx@@@23@VNonTrackingAllocator@23@@internal@23@VNonTrackingAllocator@23@$00@internal@shdfnd@physx@@AAEXI@Z@4_NA 10187a36     PsAllocator.obj
 0003:00000a37       ?_ignore@?BE@??reserveInternal@?$HashBase@V?$Pair@QBVNamedAllocator@shdfnd@physx@@PBD@shdfnd@physx@@PBVNamedAllocator@23@U?$Hash@PBVNamedAllocator@shdfnd@physx@@@23@UGetKey@?$HashMapBase@PBVNamedAllocator@shdfnd@physx@@PBDU?$Hash@PBVNamedAllocator@shdfnd@physx@@@23@VNonTrackingAllocator@23@@internal@23@VNonTrackingAllocator@23@$00@internal@shdfnd@physx@@AAEXI@Z@4_NA 10187a37     PsAllocator.obj
 0003:00000a38       ?_ignore@?6??freeListAdd@?$HashBase@V?$Pair@QBVNamedAllocator@shdfnd@physx@@PBD@shdfnd@physx@@PBVNamedAllocator@23@U?$Hash@PBVNamedAllocator@shdfnd@physx@@@23@UGetKey@?$HashMapBase@PBVNamedAllocator@shdfnd@physx@@PBDU?$Hash@PBVNamedAllocator@shdfnd@physx@@@23@VNonTrackingAllocator@23@@internal@23@VNonTrackingAllocator@23@$00@internal@shdfnd@physx@@AAEXII@Z@4_NA 10187a38     PsAllocator.obj
 0003:00000a3c       ?sAssertHandler@?A0x8c7671c9@@3VDefaultAssertHandler@1@A 10187a3c     PsAssert.obj
 0003:00000a40       ?_ignore@?2??lowestSetBit@shdfnd@physx@@YAII@Z@4_NA 10187a40     PsErrorHandler.obj
 0003:00000a42       ?_ignore@?2??init@PxRingBuffer@shdfnd@physx@@QAEXPAXI_N1IPAI2@Z@4_NA 10187a42     PsFastIPC.obj
 0003:00000a43       ?_ignore@?5??receiveData@PxRingBuffer@shdfnd@physx@@QAE?AW4MessageType@234@AAPBXAAI@Z@4_NA 10187a43     PsFastIPC.obj
 0003:00000a44       ?_ignore@?BA@??receiveData@PxRingBuffer@shdfnd@physx@@QAE?AW4MessageType@234@AAPBXAAI@Z@4_NA 10187a44     PsFastIPC.obj
 0003:00000a45       ?_ignore@?BC@??receiveData@PxRingBuffer@shdfnd@physx@@QAE?AW4MessageType@234@AAPBXAAI@Z@4_NA 10187a45     PsFastIPC.obj
 0003:00000a46       ?_ignore@?BG@??receiveData@PxRingBuffer@shdfnd@physx@@QAE?AW4MessageType@234@AAPBXAAI@Z@4_NA 10187a46     PsFastIPC.obj
 0003:00000a47       ?_ignore@?BM@??receiveData@PxRingBuffer@shdfnd@physx@@QAE?AW4MessageType@234@AAPBXAAI@Z@4_NA 10187a47     PsFastIPC.obj
 0003:00000a48       ?_ignore@?BN@??receiveData@PxRingBuffer@shdfnd@physx@@QAE?AW4MessageType@234@AAPBXAAI@Z@4_NA 10187a48     PsFastIPC.obj
 0003:00000a49       ?_ignore@?5??receiveAcknowledge@PxRingBuffer@shdfnd@physx@@QAE?AW4ErrorCode@234@XZ@4_NA 10187a49     PsFastIPC.obj
 0003:00000a4a       ?_ignore@?2??process@MultiPartData@PxRingBuffer@shdfnd@physx@@QAE_NPBXI@Z@4_NA 10187a4a     PsFastIPC.obj
 0003:00000a4b       ?_ignore@?3??process@MultiPartData@PxRingBuffer@shdfnd@physx@@QAE_NPBXI@Z@4_NA 10187a4b     PsFastIPC.obj
 0003:00000a4c       ?_ignore@?2??writeData@PxRingBuffer@shdfnd@physx@@AAEXW4MessageType@234@PBXI@Z@4_NA 10187a4c     PsFastIPC.obj
 0003:00000a4d       ?_ignore@?P@??writeData@PxRingBuffer@shdfnd@physx@@AAEXW4MessageType@234@PBXI@Z@4_NA 10187a4d     PsFastIPC.obj
 0003:00000a4e       ?_ignore@?2??readData@PxRingBuffer@shdfnd@physx@@AAEPBXAAII@Z@4_NA 10187a4e     PsFastIPC.obj
 0003:00000a4f       ?_ignore@?2??getReadAddress@PxRingBuffer@shdfnd@physx@@ABEIXZ@4_NA 10187a4f     PsFastIPC.obj
 0003:00000a50       ?_ignore@?2??setReadAddress@PxRingBuffer@shdfnd@physx@@AAEXI@Z@4_NA 10187a50     PsFastIPC.obj
 0003:00000a51       ?_ignore@?3??setReadAddress@PxRingBuffer@shdfnd@physx@@AAEXI@Z@4_NA 10187a51     PsFastIPC.obj
 0003:00000a52       ?_ignore@?2??getWriteAddress@PxRingBuffer@shdfnd@physx@@ABEIXZ@4_NA 10187a52     PsFastIPC.obj
 0003:00000a53       ?_ignore@?2??setWriteAddress@PxRingBuffer@shdfnd@physx@@AAEXI@Z@4_NA 10187a53     PsFastIPC.obj
 0003:00000a54       ?_ignore@?3??setWriteAddress@PxRingBuffer@shdfnd@physx@@AAEXI@Z@4_NA 10187a54     PsFastIPC.obj
 0003:00000a55       ?_ignore@?2??sendData@FastIPC@shdfnd@physx@@UAE?AW4ErrorCode@PxIPC@34@PBXI_N@Z@4_NA 10187a55     PsFastIPC.obj
 0003:00000a56       ?_ignore@?2??receiveData@FastIPC@shdfnd@physx@@UAEPBXAAI@Z@4_NA 10187a56     PsFastIPC.obj
 0003:00000a57       ?_ignore@?2??receiveAcknowledge@FastIPC@shdfnd@physx@@UAE?AW4ErrorCode@PxIPC@34@XZ@4_NA 10187a57     PsFastIPC.obj
 0003:00000a58       ?_ignore@?2??pumpPendingSends@FastIPC@shdfnd@physx@@UAE_NXZ@4_NA 10187a58     PsFastIPC.obj
 0003:00000a59       ?_ignore@?DM@??processClose@MyFastXml@?A0x376bbd1f@@QAEPADDPBDPADHPAPBDPAVCallback@FastXml@shdfnd@physx@@AA_N@Z@4_NA 10187a59     PsFastXml.obj
 0003:00000a5a       ?_ignore@?EF@??processClose@MyFastXml@?A0x376bbd1f@@QAEPADDPBDPADHPAPBDPAVCallback@FastXml@shdfnd@physx@@AA_N@Z@4_NA 10187a5a     PsFastXml.obj
 0003:00000a5b       ?_ignore@?FJ@??processClose@MyFastXml@?A0x376bbd1f@@QAEPADDPBDPADHPAPBDPAVCallback@FastXml@shdfnd@physx@@AA_N@Z@4_NA 10187a5b     PsFastXml.obj
 0003:00000a5c       ?_ignore@?BM@??readData@MyFastXml@?A0x376bbd1f@@QAEPADPAD@Z@4_NA 10187a5c     PsFastXml.obj
 0003:00000a5d       ?_ignore@?N@??processXml@MyFastXml@?A0x376bbd1f@@QAE_NPAVCallback@FastXml@shdfnd@physx@@@Z@4_NA 10187a5d     PsFastXml.obj
 0003:00000a5e       ?_ignore@?FC@??processXml@MyFastXml@?A0x376bbd1f@@QAE_NPAVCallback@FastXml@shdfnd@physx@@@Z@4_NA 10187a5e     PsFastXml.obj
 0003:00000a5f       ?_ignore@?2??pushElement@MyFastXml@?A0x376bbd1f@@AAEXPBD@Z@4_NA 10187a5f     PsFastXml.obj
 0003:00000a60       ?_ignore@?2??popElement@MyFastXml@?A0x376bbd1f@@AAEPBDXZ@4_NA 10187a60     PsFastXml.obj
 0003:00000a64       ?mInstance@Foundation@shdfnd@physx@@0PAV123@A 10187a64     PsFoundation.obj
 0003:00000a68       ?mRefCount@Foundation@shdfnd@physx@@0IA 10187a68     PsFoundation.obj
 0003:00000a6c       ?mWarnOnceTimestap@Foundation@shdfnd@physx@@0IA 10187a6c     PsFoundation.obj
 0003:00000a72       ?_ignore@?2??registerAllocationListener@AlignCheckAllocator@Foundation@shdfnd@physx@@UAEXAAVPxAllocationListener@5@@Z@4_NA 10187a72     PsFoundation.obj
 0003:00000f4a       ?_ignore@?2???A?$Array@PATTempAllocatorChunk@shdfnd@physx@@VAllocator@23@@shdfnd@physx@@QAEAAPATTempAllocatorChunk@23@I@Z@4_NA 10187f4a     PsFoundation.obj
 0003:00000f4b       ?_ignore@?2??recreate@?$Array@PATTempAllocatorChunk@shdfnd@physx@@VAllocator@23@@shdfnd@physx@@IAEXI@Z@4_NA 10187f4b     PsFoundation.obj
 0003:00000f4c       ?_ignore@?2??grow@?$Array@PATTempAllocatorChunk@shdfnd@physx@@VAllocator@23@@shdfnd@physx@@IAEXI@Z@4_NA 10187f4c     PsFoundation.obj
 0003:00000f4d       ?_ignore@?2???APxVec3@physx@@QAEAAMH@Z@4_NA 10187f4d     PsMathUtils.obj
 0003:00000f4e       ?_ignore@?2???APxVec3@physx@@QAEAAMI@Z@4_NA 10187f4e     PsMathUtils.obj
 0003:00000f4f       ?_ignore@?2???0PxQuat@physx@@QAE@MABVPxVec3@2@@Z@4_NA 10187f4f     PsMathUtils.obj
 0003:00000f50       ?_ignore@?2???$PxClamp@M@physx@@YAMMMM@Z@4_NA 10187f50     PsMathUtils.obj
 0003:00000f51       ?_ignore@?2??highestSetBit@shdfnd@physx@@YAII@Z@4_NA 10187f51     PsTempAllocator.obj
 0003:00000f53       ?_ignore@?2???APxVec3@physx@@QBEABMI@Z@4_NA 10187f53     PsUtilities.obj
 0003:00000f55       ?_ignore@?2??check@Iter@?$HashBase@V?$Pair@$$CB_KPAVPxBase@physx@@@shdfnd@physx@@_KU?$Hash@_K@23@UGetKey@?$HashMapBase@_KPAVPxBase@physx@@U?$Hash@_K@shdfnd@2@VAllocator@42@@internal@23@VAllocator@23@$00@internal@shdfnd@physx@@QBEXXZ@4_NA 10187f55     CmCollection.obj
 0003:00000f56       ?_ignore@?2??grow@?$HashBase@V?$Pair@$$CB_KPAVPxBase@physx@@@shdfnd@physx@@_KU?$Hash@_K@23@UGetKey@?$HashMapBase@_KPAVPxBase@physx@@U?$Hash@_K@shdfnd@2@VAllocator@42@@internal@23@VAllocator@23@$00@internal@shdfnd@physx@@AAEXXZ@4_NA 10187f56     CmCollection.obj
 0003:00000f57       ?_ignore@?3??replaceWithLast@?$HashBase@V?$Pair@$$CB_KPAVPxBase@physx@@@shdfnd@physx@@_KU?$Hash@_K@23@UGetKey@?$HashMapBase@_KPAVPxBase@physx@@U?$Hash@_K@shdfnd@2@VAllocator@42@@internal@23@VAllocator@23@$00@internal@shdfnd@physx@@AAEXI@Z@4_NA 10187f57     CmCollection.obj
 0003:00000f58       ?_ignore@?2??freeListGetNext@?$HashBase@V?$Pair@$$CB_KPAVPxBase@physx@@@shdfnd@physx@@_KU?$Hash@_K@23@UGetKey@?$HashMapBase@_KPAVPxBase@physx@@U?$Hash@_K@shdfnd@2@VAllocator@42@@internal@23@VAllocator@23@$00@internal@shdfnd@physx@@AAEIXZ@4_NA 10187f58     CmCollection.obj
 0003:00000f59       ?_ignore@?6??freeListGetNext@?$HashBase@V?$Pair@$$CB_KPAVPxBase@physx@@@shdfnd@physx@@_KU?$Hash@_K@23@UGetKey@?$HashMapBase@_KPAVPxBase@physx@@U?$Hash@_K@shdfnd@2@VAllocator@42@@internal@23@VAllocator@23@$00@internal@shdfnd@physx@@AAEIXZ@4_NA 10187f59     CmCollection.obj
 0003:00000f5a       ?_ignore@?5??freeListAdd@?$HashBase@V?$Pair@$$CB_KPAVPxBase@physx@@@shdfnd@physx@@_KU?$Hash@_K@23@UGetKey@?$HashMapBase@_KPAVPxBase@physx@@U?$Hash@_K@shdfnd@2@VAllocator@42@@internal@23@VAllocator@23@$00@internal@shdfnd@physx@@AAEXI@Z@4_NA 10187f5a     CmCollection.obj
 0003:00000f5b       ?_ignore@?2??grow@?$HashBase@V?$Pair@QAVPxBase@physx@@_K@shdfnd@physx@@PAVPxBase@3@U?$Hash@PAVPxBase@physx@@@23@UGetKey@?$HashMapBase@PAVPxBase@physx@@_KU?$Hash@PAVPxBase@physx@@@shdfnd@2@VAllocator@42@@internal@23@VAllocator@23@$00@internal@shdfnd@physx@@AAEXXZ@4_NA 10187f5b     CmCollection.obj
 0003:00000f5c       ?_ignore@?4??reserveInternal@?$HashBase@V?$Pair@QAVPxBase@physx@@_K@shdfnd@physx@@PAVPxBase@3@U?$Hash@PAVPxBase@physx@@@23@UGetKey@?$HashMapBase@PAVPxBase@physx@@_KU?$Hash@PAVPxBase@physx@@@shdfnd@2@VAllocator@42@@internal@23@VAllocator@23@$00@internal@shdfnd@physx@@AAEXI@Z@4_NA 10187f5c     CmCollection.obj
 0003:00000f5d       ?_ignore@?6??reserveInternal@?$HashBase@V?$Pair@QAVPxBase@physx@@_K@shdfnd@physx@@PAVPxBase@3@U?$Hash@PAVPxBase@physx@@@23@UGetKey@?$HashMapBase@PAVPxBase@physx@@_KU?$Hash@PAVPxBase@physx@@@shdfnd@2@VAllocator@42@@internal@23@VAllocator@23@$00@internal@shdfnd@physx@@AAEXI@Z@4_NA 10187f5d     CmCollection.obj
 0003:00000f5e       ?_ignore@?BE@??reserveInternal@?$HashBase@V?$Pair@QAVPxBase@physx@@_K@shdfnd@physx@@PAVPxBase@3@U?$Hash@PAVPxBase@physx@@@23@UGetKey@?$HashMapBase@PAVPxBase@physx@@_KU?$Hash@PAVPxBase@physx@@@shdfnd@2@VAllocator@42@@internal@23@VAllocator@23@$00@internal@shdfnd@physx@@AAEXI@Z@4_NA 10187f5e     CmCollection.obj
 0003:00000f5f       ?_ignore@?3??replaceWithLast@?$HashBase@V?$Pair@QAVPxBase@physx@@_K@shdfnd@physx@@PAVPxBase@3@U?$Hash@PAVPxBase@physx@@@23@UGetKey@?$HashMapBase@PAVPxBase@physx@@_KU?$Hash@PAVPxBase@physx@@@shdfnd@2@VAllocator@42@@internal@23@VAllocator@23@$00@internal@shdfnd@physx@@AAEXI@Z@4_NA 10187f5f     CmCollection.obj
 0003:00000f60       ?_ignore@?2??freeListGetNext@?$HashBase@V?$Pair@QAVPxBase@physx@@_K@shdfnd@physx@@PAVPxBase@3@U?$Hash@PAVPxBase@physx@@@23@UGetKey@?$HashMapBase@PAVPxBase@physx@@_KU?$Hash@PAVPxBase@physx@@@shdfnd@2@VAllocator@42@@internal@23@VAllocator@23@$00@internal@shdfnd@physx@@AAEIXZ@4_NA 10187f60     CmCollection.obj
 0003:00000f61       ?_ignore@?6??freeListGetNext@?$HashBase@V?$Pair@QAVPxBase@physx@@_K@shdfnd@physx@@PAVPxBase@3@U?$Hash@PAVPxBase@physx@@@23@UGetKey@?$HashMapBase@PAVPxBase@physx@@_KU?$Hash@PAVPxBase@physx@@@shdfnd@2@VAllocator@42@@internal@23@VAllocator@23@$00@internal@shdfnd@physx@@AAEIXZ@4_NA 10187f61     CmCollection.obj
 0003:00000f62       ?_ignore@?5??freeListAdd@?$HashBase@V?$Pair@QAVPxBase@physx@@_K@shdfnd@physx@@PAVPxBase@3@U?$Hash@PAVPxBase@physx@@@23@UGetKey@?$HashMapBase@PAVPxBase@physx@@_KU?$Hash@PAVPxBase@physx@@@shdfnd@2@VAllocator@42@@internal@23@VAllocator@23@$00@internal@shdfnd@physx@@AAEXI@Z@4_NA 10187f62     CmCollection.obj
 0003:00000f63       ?_ignore@?6??freeListAdd@?$HashBase@V?$Pair@QAVPxBase@physx@@_K@shdfnd@physx@@PAVPxBase@3@U?$Hash@PAVPxBase@physx@@@23@UGetKey@?$HashMapBase@PAVPxBase@physx@@_KU?$Hash@PAVPxBase@physx@@@shdfnd@2@VAllocator@42@@internal@23@VAllocator@23@$00@internal@shdfnd@physx@@AAEXII@Z@4_NA 10187f63     CmCollection.obj
 0003:00000f64       ?_ignore@?4??reserveInternal@?$HashBase@V?$Pair@$$CB_KPAVPxBase@physx@@@shdfnd@physx@@_KU?$Hash@_K@23@UGetKey@?$HashMapBase@_KPAVPxBase@physx@@U?$Hash@_K@shdfnd@2@VAllocator@42@@internal@23@VAllocator@23@$00@internal@shdfnd@physx@@AAEXI@Z@4_NA 10187f64     CmCollection.obj
 0003:00000f65       ?_ignore@?6??reserveInternal@?$HashBase@V?$Pair@$$CB_KPAVPxBase@physx@@@shdfnd@physx@@_KU?$Hash@_K@23@UGetKey@?$HashMapBase@_KPAVPxBase@physx@@U?$Hash@_K@shdfnd@2@VAllocator@42@@internal@23@VAllocator@23@$00@internal@shdfnd@physx@@AAEXI@Z@4_NA 10187f65     CmCollection.obj
 0003:00000f66       ?_ignore@?BE@??reserveInternal@?$HashBase@V?$Pair@$$CB_KPAVPxBase@physx@@@shdfnd@physx@@_KU?$Hash@_K@23@UGetKey@?$HashMapBase@_KPAVPxBase@physx@@U?$Hash@_K@shdfnd@2@VAllocator@42@@internal@23@VAllocator@23@$00@internal@shdfnd@physx@@AAEXI@Z@4_NA 10187f66     CmCollection.obj
 0003:00000f67       ?_ignore@?6??freeListAdd@?$HashBase@V?$Pair@$$CB_KPAVPxBase@physx@@@shdfnd@physx@@_KU?$Hash@_K@23@UGetKey@?$HashMapBase@_KPAVPxBase@physx@@U?$Hash@_K@shdfnd@2@VAllocator@42@@internal@23@VAllocator@23@$00@internal@shdfnd@physx@@AAEXII@Z@4_NA 10187f67     CmCollection.obj
 0003:00000f68       ?sweepMultipleList@SceneQuery@ProfileEventId@Cm@physx@@2UPxProfileEventId@4@B 10187f68     CmEventProfiler.obj
 0003:00000f6c       ?correlatePatches@Dynamics@ProfileEventId@Cm@physx@@2UPxProfileEventId@4@B 10187f6c     CmEventProfiler.obj
 0003:00000f70       ?processSleepingIslands@IslandGen@ProfileEventId@Cm@physx@@2UPxProfileEventId@4@B 10187f70     CmEventProfiler.obj
 0003:00000f74       ?sweepAny@SceneQuery@ProfileEventId@Cm@physx@@2UPxProfileEventId@4@B 10187f74     CmEventProfiler.obj
 0003:00000f78       ?updatePariclesAndFluids@PVD@ProfileEventId@Cm@physx@@2UPxProfileEventId@4@B 10187f78     CmEventProfiler.obj
 0003:00000f7c       ?sendPVDArrays@PVD@ProfileEventId@Cm@physx@@2UPxProfileEventId@4@B 10187f7c     CmEventProfiler.obj
 0003:00000f80       ?emptyIslands@IslandGen@ProfileEventId@Cm@physx@@2UPxProfileEventId@4@B 10187f80     CmEventProfiler.obj
 0003:00000f84       ?updateKinematics@Dynamics@ProfileEventId@Cm@physx@@2UPxProfileEventId@4@B 10187f84     CmEventProfiler.obj
 0003:00000f88       ?solveGroup@Dynamics@ProfileEventId@Cm@physx@@2UPxProfileEventId@4@B 10187f88     CmEventProfiler.obj
 0003:00000f8c       ?narrowPhase@Sim@ProfileEventId@Cm@physx@@2UPxProfileEventId@4@B 10187f8c     CmEventProfiler.obj
 0003:00000f90       ?releasePVDInstance@PVD@ProfileEventId@Cm@physx@@2UPxProfileEventId@4@B 10187f90     CmEventProfiler.obj
 0003:00000f94       ?SapUpdateSPU@BroadPhase@ProfileEventId@Cm@physx@@2UPxProfileEventId@4@B 10187f94     CmEventProfiler.obj
 0003:00000f98       ?removeShapesFromSQ@API@ProfileEventId@Cm@physx@@2UPxProfileEventId@4@B 10187f98     CmEventProfiler.obj
 0003:00000f9c       ?ccdSweepMerge@Sim@ProfileEventId@Cm@physx@@2UPxProfileEventId@4@B 10187f9c     CmEventProfiler.obj
 0003:00000fa0       ?createdNodes@IslandGen@ProfileEventId@Cm@physx@@2UPxProfileEventId@4@B 10187fa0     CmEventProfiler.obj
 0003:00000fa4       ?addShapesToSQ@API@ProfileEventId@Cm@physx@@2UPxProfileEventId@4@B 10187fa4     CmEventProfiler.obj
 0003:00000fa8       ?createPVDInstance@PVD@ProfileEventId@Cm@physx@@2UPxProfileEventId@4@B 10187fa8     CmEventProfiler.obj
 0003:00000fac       ?stepSetupCollide@Sim@ProfileEventId@Cm@physx@@2UPxProfileEventId@4@B 10187fac     CmEventProfiler.obj
 0003:00000fb0       ?flushQueryUpdates@API@ProfileEventId@Cm@physx@@2UPxProfileEventId@4@B 10187fb0     CmEventProfiler.obj
 0003:00000fb4       ?updateLazyAggShapeAABBs@BroadPhase@ProfileEventId@Cm@physx@@2UPxProfileEventId@4@B 10187fb4     CmEventProfiler.obj
 0003:00000fb8       ?sweepAnyList@SceneQuery@ProfileEventId@Cm@physx@@2UPxProfileEventId@4@B 10187fb8     CmEventProfiler.obj
 0003:00000fbc       ?computeAggAggShapePairs@BroadPhase@ProfileEventId@Cm@physx@@2UPxProfileEventId@4@B 10187fbc     CmEventProfiler.obj
 0003:00000fc0       ?simAddShapeToBroadPhase@API@ProfileEventId@Cm@physx@@2UPxProfileEventId@4@B 10187fc0     CmEventProfiler.obj
 0003:00000fc4       ?sweepSingleList@SceneQuery@ProfileEventId@Cm@physx@@2UPxProfileEventId@4@B 10187fc4     CmEventProfiler.obj
 0003:00000fc8       ?createContactPatches@Dynamics@ProfileEventId@Cm@physx@@2UPxProfileEventId@4@B 10187fc8     CmEventProfiler.obj
 0003:00000fcc       ?SapPostUpdateSPU@BroadPhase@ProfileEventId@Cm@physx@@2UPxProfileEventId@4@B 10187fcc     CmEventProfiler.obj
 0003:00000fd0       ?raycastSingle@SceneQuery@ProfileEventId@Cm@physx@@2UPxProfileEventId@4@B 10187fd0     CmEventProfiler.obj
 0003:00000fd4       ?propagateDrivenInertia@Articulations@ProfileEventId@Cm@physx@@2UPxProfileEventId@4@B 10187fd4     CmEventProfiler.obj
 0003:00000fd8       ?updateSleeping@PVD@ProfileEventId@Cm@physx@@2UPxProfileEventId@4@B 10187fd8     CmEventProfiler.obj
 0003:00000fdc       ?finish@BroadPhase@ProfileEventId@Cm@physx@@2UPxProfileEventId@4@B 10187fdc     CmEventProfiler.obj
 0003:00000fe0       ?processTriggers@Sim@ProfileEventId@Cm@physx@@2UPxProfileEventId@4@B 10187fe0     CmEventProfiler.obj
 0003:00000fe4       ?applyExternalImpulses@Articulations@ProfileEventId@Cm@physx@@2UPxProfileEventId@4@B 10187fe4     CmEventProfiler.obj
 0003:00000fe8       ?computeAABBUpdateLists@BroadPhase@ProfileEventId@Cm@physx@@2UPxProfileEventId@4@B 10187fe8     CmEventProfiler.obj
 0003:00000fec       ?fireCallBacksPreSync@Sim@ProfileEventId@Cm@physx@@2UPxProfileEventId@4@B 10187fec     CmEventProfiler.obj
 0003:00000ff0       ?raycastAny@BatchedSceneQuery@ProfileEventId@Cm@physx@@2UPxProfileEventId@4@B 10187ff0     CmEventProfiler.obj
 0003:00000ff4       ?duplicateKinematicNodes@IslandGen@ProfileEventId@Cm@physx@@2UPxProfileEventId@4@B 10187ff4     CmEventProfiler.obj
 0003:00000ff8       ?ccdBroadPhaseComplete@Sim@ProfileEventId@Cm@physx@@2UPxProfileEventId@4@B 10187ff8     CmEventProfiler.obj
 0003:00000ffc       ?execute@BatchedSceneQuery@ProfileEventId@Cm@physx@@2UPxProfileEventId@4@B 10187ffc     CmEventProfiler.obj
 0003:00001000       ?sweepSingle@SceneQuery@ProfileEventId@Cm@physx@@2UPxProfileEventId@4@B 10188000     CmEventProfiler.obj
 0003:00001004       ?MBPUpdate@BroadPhase@ProfileEventId@Cm@physx@@2UPxProfileEventId@4@B 10188004     CmEventProfiler.obj
 0003:00001008       ?solverQueueTasks@Dynamics@ProfileEventId@Cm@physx@@2UPxProfileEventId@4@B 10188008     CmEventProfiler.obj
 0003:0000100c       ?stepSetupSolve@Sim@ProfileEventId@Cm@physx@@2UPxProfileEventId@4@B 1018800c     CmEventProfiler.obj
 0003:00001010       ?prepareFsData@Articulations@ProfileEventId@Cm@physx@@2UPxProfileEventId@4@B 10188010     CmEventProfiler.obj
 0003:00001014       ?MBPPostUpdate@BroadPhase@ProfileEventId@Cm@physx@@2UPxProfileEventId@4@B 10188014     CmEventProfiler.obj
 0003:00001018       ?collision@Basic@ProfileEventId@Cm@physx@@2UPxProfileEventId@4@B 10188018     CmEventProfiler.obj
 0003:0000101c       ?removeParticleSystem@API@ProfileEventId@Cm@physx@@2UPxProfileEventId@4@B 1018801c     CmEventProfiler.obj
 0003:00001020       ?projectContacts@Sim@ProfileEventId@Cm@physx@@2UPxProfileEventId@4@B 10188020     CmEventProfiler.obj
 0003:00001024       ?fireCallBacksPostSync@Sim@ProfileEventId@Cm@physx@@2UPxProfileEventId@4@B 10188024     CmEventProfiler.obj
 0003:00001028       ?SapPostUpdate@BroadPhase@ProfileEventId@Cm@physx@@2UPxProfileEventId@4@B 10188028     CmEventProfiler.obj
 0003:0000102c       ?resetDependencies@Sim@ProfileEventId@Cm@physx@@2UPxProfileEventId@4@B 1018802c     CmEventProfiler.obj
 0003:00001030       ?addParticleSystem@API@ProfileEventId@Cm@physx@@2UPxProfileEventId@4@B 10188030     CmEventProfiler.obj
 0003:00001034       ?updateForces@Sim@ProfileEventId@Cm@physx@@2UPxProfileEventId@4@B 10188034     CmEventProfiler.obj
 0003:00001038       ?MBPPostUpdateSPU@BroadPhase@ProfileEventId@Cm@physx@@2UPxProfileEventId@4@B 10188038     CmEventProfiler.obj
 0003:0000103c       ?projectConstraints@Sim@ProfileEventId@Cm@physx@@2UPxProfileEventId@4@B 1018803c     CmEventProfiler.obj
 0003:00001040       ?sceneUpdate@PVD@ProfileEventId@Cm@physx@@2UPxProfileEventId@4@B 10188040     CmEventProfiler.obj
 0003:00001044       ?updateCCDMultiPass@Sim@ProfileEventId@Cm@physx@@2UPxProfileEventId@4@B 10188044     CmEventProfiler.obj
 0003:00001048       ?processBPResults@BroadPhase@ProfileEventId@Cm@physx@@2UPxProfileEventId@4@B 10188048     CmEventProfiler.obj
 0003:0000104c       ?addAggregate@API@ProfileEventId@Cm@physx@@2UPxProfileEventId@4@B 1018804c     CmEventProfiler.obj
 0003:00001050       ?growPatches@Dynamics@ProfileEventId@Cm@physx@@2UPxProfileEventId@4@B 10188050     CmEventProfiler.obj
 0003:00001054       ?islandGen@Basic@ProfileEventId@Cm@physx@@2UPxProfileEventId@4@B 10188054     CmEventProfiler.obj
 0003:00001058       ?preIslandGen@Sim@ProfileEventId@Cm@physx@@2UPxProfileEventId@4@B 10188058     CmEventProfiler.obj
 0003:0000105c       ?deletedNodesEdges@IslandGen@ProfileEventId@Cm@physx@@2UPxProfileEventId@4@B 1018805c     CmEventProfiler.obj
 0003:00001060       ?addActorToSim@API@ProfileEventId@Cm@physx@@2UPxProfileEventId@4@B 10188060     CmEventProfiler.obj
 0003:00001064       ?visualizeEndStep@Sim@ProfileEventId@Cm@physx@@2UPxProfileEventId@4@B 10188064     CmEventProfiler.obj
 0003:00001068       ?rigidBodySolver@Basic@ProfileEventId@Cm@physx@@2UPxProfileEventId@4@B 10188068     CmEventProfiler.obj
 0003:0000106c       ?shiftOrigin@API@ProfileEventId@Cm@physx@@2UPxProfileEventId@4@B 1018806c     CmEventProfiler.obj
 0003:00001070       ?startStep@ParticleSim@ProfileEventId@Cm@physx@@2UPxProfileEventId@4@B 10188070     CmEventProfiler.obj
 0003:00001074       ?processLostOverlaps@Sim@ProfileEventId@Cm@physx@@2UPxProfileEventId@4@B 10188074     CmEventProfiler.obj
 0003:00001078       ?overlapMultiple@BatchedSceneQuery@ProfileEventId@Cm@physx@@2UPxProfileEventId@4@B 10188078     CmEventProfiler.obj
 0003:0000107c       ?updateJoints@PVD@ProfileEventId@Cm@physx@@2UPxProfileEventId@4@B 1018807c     CmEventProfiler.obj
 0003:00001080       ?integrate@Articulations@ProfileEventId@Cm@physx@@2UPxProfileEventId@4@B 10188080     CmEventProfiler.obj
 0003:00001084       ?queueNarrowPhase@Sim@ProfileEventId@Cm@physx@@2UPxProfileEventId@4@B 10188084     CmEventProfiler.obj
 0003:00001088       ?sweepMultiple@BatchedSceneQuery@ProfileEventId@Cm@physx@@2UPxProfileEventId@4@B 10188088     CmEventProfiler.obj
 0003:0000108c       ?fireCustomFilteringCallbacks@Sim@ProfileEventId@Cm@physx@@2UPxProfileEventId@4@B 1018808c     CmEventProfiler.obj
 0003:00001090       ?solverMergeResults@Dynamics@ProfileEventId@Cm@physx@@2UPxProfileEventId@4@B 10188090     CmEventProfiler.obj
 0003:00001094       ?freeBuffers@IslandGen@ProfileEventId@Cm@physx@@2UPxProfileEventId@4@B 10188094     CmEventProfiler.obj
 0003:00001098       ?findAndReplaceWithLast@API@ProfileEventId@Cm@physx@@2UPxProfileEventId@4@B 10188098     CmEventProfiler.obj
 0003:0000109c       ?stepSetupSimulate@Sim@ProfileEventId@Cm@physx@@2UPxProfileEventId@4@B 1018809c     CmEventProfiler.obj
 0003:000010a0       ?collideQueueTasks@Sim@ProfileEventId@Cm@physx@@2UPxProfileEventId@4@B 101880a0     CmEventProfiler.obj
 0003:000010a4       ?forceDynamicTreeRebuild@API@ProfileEventId@Cm@physx@@2UPxProfileEventId@4@B 101880a4     CmEventProfiler.obj
 0003:000010a8       ?removeParticleFluid@API@ProfileEventId@Cm@physx@@2UPxProfileEventId@4@B 101880a8     CmEventProfiler.obj
 0003:000010ac       ?removeActorFromSim@API@ProfileEventId@Cm@physx@@2UPxProfileEventId@4@B 101880ac     CmEventProfiler.obj
 0003:000010b0       ?checkResults@Basic@ProfileEventId@Cm@physx@@2UPxProfileEventId@4@B 101880b0     CmEventProfiler.obj
 0003:000010b4       ?brokenEdgeIslands@IslandGen@ProfileEventId@Cm@physx@@2UPxProfileEventId@4@B 101880b4     CmEventProfiler.obj
 0003:000010b8       ?solveQueueTasks@Sim@ProfileEventId@Cm@physx@@2UPxProfileEventId@4@B 101880b8     CmEventProfiler.obj
 0003:000010bc       ?updatePositions@Dynamics@ProfileEventId@Cm@physx@@2UPxProfileEventId@4@B 101880bc     CmEventProfiler.obj
 0003:000010c0       ?prepareDataBlock@Articulations@ProfileEventId@Cm@physx@@2UPxProfileEventId@4@B 101880c0     CmEventProfiler.obj
 0003:000010c4       ?raycastMultiple@BatchedSceneQuery@ProfileEventId@Cm@physx@@2UPxProfileEventId@4@B 101880c4     CmEventProfiler.obj
 0003:000010c8       ?updateIslands@Sim@ProfileEventId@Cm@physx@@2UPxProfileEventId@4@B 101880c8     CmEventProfiler.obj
 0003:000010cc       ?createFinalize@Dynamics@ProfileEventId@Cm@physx@@2UPxProfileEventId@4@B 101880cc     CmEventProfiler.obj
 0003:000010d0       ?parallelSolve@Dynamics@ProfileEventId@Cm@physx@@2UPxProfileEventId@4@B 101880d0     CmEventProfiler.obj
 0003:000010d4       ?createBatchQuery@API@ProfileEventId@Cm@physx@@2UPxProfileEventId@4@B 101880d4     CmEventProfiler.obj
 0003:000010d8       ?addArticulation@API@ProfileEventId@Cm@physx@@2UPxProfileEventId@4@B 101880d8     CmEventProfiler.obj
 0003:000010dc       ?updateAggAABBs@BroadPhase@ProfileEventId@Cm@physx@@2UPxProfileEventId@4@B 101880dc     CmEventProfiler.obj
 0003:000010e0       ?updateDynamicBodies@PVD@ProfileEventId@Cm@physx@@2UPxProfileEventId@4@B 101880e0     CmEventProfiler.obj
 0003:000010e4       ?computeJointDrives@Articulations@ProfileEventId@Cm@physx@@2UPxProfileEventId@4@B 101880e4     CmEventProfiler.obj
 0003:000010e8       ?finishModifiablePairs@Sim@ProfileEventId@Cm@physx@@2UPxProfileEventId@4@B 101880e8     CmEventProfiler.obj
 0003:000010ec       ?solver@Dynamics@ProfileEventId@Cm@physx@@2UPxProfileEventId@4@B 101880ec     CmEventProfiler.obj
 0003:000010f0       ?pvdFrameStart@Basic@ProfileEventId@Cm@physx@@2UPxProfileEventId@4@B 101880f0     CmEventProfiler.obj
 0003:000010f4       ?resizeForKinematics@IslandGen@ProfileEventId@Cm@physx@@2UPxProfileEventId@4@B 101880f4     CmEventProfiler.obj
 0003:000010f8       ?removeArticulation@API@ProfileEventId@Cm@physx@@2UPxProfileEventId@4@B 101880f8     CmEventProfiler.obj
 0003:000010fc       ?applyJointDrives@Articulations@ProfileEventId@Cm@physx@@2UPxProfileEventId@4@B 101880fc     CmEventProfiler.obj
 0003:00001100       ?removeActor@API@ProfileEventId@Cm@physx@@2UPxProfileEventId@4@B 10188100     CmEventProfiler.obj
 0003:00001104       ?syncBodiesAfterSolver@Sim@ProfileEventId@Cm@physx@@2UPxProfileEventId@4@B 10188104     CmEventProfiler.obj
 0003:00001108       ?sceneFinalization@Sim@ProfileEventId@Cm@physx@@2UPxProfileEventId@4@B 10188108     CmEventProfiler.obj
 0003:0000110c       ?narrowPhaseMerge@Sim@ProfileEventId@Cm@physx@@2UPxProfileEventId@4@B 1018810c     CmEventProfiler.obj
 0003:00001110       ?raycastAny@SceneQuery@ProfileEventId@Cm@physx@@2UPxProfileEventId@4@B 10188110     CmEventProfiler.obj
 0003:00001114       ?buildActiveTransforms@Sim@ProfileEventId@Cm@physx@@2UPxProfileEventId@4@B 10188114     CmEventProfiler.obj
 0003:00001118       ?broadPhase@Basic@ProfileEventId@Cm@physx@@2UPxProfileEventId@4@B 10188118     CmEventProfiler.obj
 0003:0000111c       ?raycastMultiple@SceneQuery@ProfileEventId@Cm@physx@@2UPxProfileEventId@4@B 1018811c     CmEventProfiler.obj
 0003:00001120       ?getSimEvents@Sim@ProfileEventId@Cm@physx@@2UPxProfileEventId@4@B 10188120     CmEventProfiler.obj
 0003:00001124       ?updateCloths@PVD@ProfileEventId@Cm@physx@@2UPxProfileEventId@4@B 10188124     CmEventProfiler.obj
 0003:00001128       ?removeShapesFromSim@API@ProfileEventId@Cm@physx@@2UPxProfileEventId@4@B 10188128     CmEventProfiler.obj
 0003:0000112c       ?cleanupEdgeEvents@IslandGen@ProfileEventId@Cm@physx@@2UPxProfileEventId@4@B 1018812c     CmEventProfiler.obj
 0003:00001130       ?fetchResults@Basic@ProfileEventId@Cm@physx@@2UPxProfileEventId@4@B 10188130     CmEventProfiler.obj
 0003:00001134       ?processNewOverlaps@Sim@ProfileEventId@Cm@physx@@2UPxProfileEventId@4@B 10188134     CmEventProfiler.obj
 0003:00001138       ?addActor@API@ProfileEventId@Cm@physx@@2UPxProfileEventId@4@B 10188138     CmEventProfiler.obj
 0003:0000113c       ?setupFinalize@Dynamics@ProfileEventId@Cm@physx@@2UPxProfileEventId@4@B 1018813c     CmEventProfiler.obj
 0003:00001140       ?visualizeStartStep@Sim@ProfileEventId@Cm@physx@@2UPxProfileEventId@4@B 10188140     CmEventProfiler.obj
 0003:00001144       ?dynamics@Basic@ProfileEventId@Cm@physx@@2UPxProfileEventId@4@B 10188144     CmEventProfiler.obj
 0003:00001148       ?checkConstraintBreakage@Sim@ProfileEventId@Cm@physx@@2UPxProfileEventId@4@B 10188148     CmEventProfiler.obj
 0003:0000114c       ?removeAggregate@API@ProfileEventId@Cm@physx@@2UPxProfileEventId@4@B 1018814c     CmEventProfiler.obj
 0003:00001150       ?taskFrameworkSetup@Sim@ProfileEventId@Cm@physx@@2UPxProfileEventId@4@B 10188150     CmEventProfiler.obj
 0003:00001154       ?updateBroadphase@BroadPhase@ProfileEventId@Cm@physx@@2UPxProfileEventId@4@B 10188154     CmEventProfiler.obj
 0003:00001158       ?endStep@ParticleSim@ProfileEventId@Cm@physx@@2UPxProfileEventId@4@B 10188158     CmEventProfiler.obj
 0003:0000115c       ?jointLoads@Articulations@ProfileEventId@Cm@physx@@2UPxProfileEventId@4@B 1018815c     CmEventProfiler.obj
 0003:00001160       ?narrowPhase@Basic@ProfileEventId@Cm@physx@@2UPxProfileEventId@4@B 10188160     CmEventProfiler.obj
 0003:00001164       ?joinedEdges@IslandGen@ProfileEventId@Cm@physx@@2UPxProfileEventId@4@B 10188164     CmEventProfiler.obj
 0003:00001168       ?preIslandGenSecondPass@Sim@ProfileEventId@Cm@physx@@2UPxProfileEventId@4@B 10188168     CmEventProfiler.obj
 0003:0000116c       ?addParticleFluid@API@ProfileEventId@Cm@physx@@2UPxProfileEventId@4@B 1018816c     CmEventProfiler.obj
 0003:00001170       ?shapesUpdateProcessing@ParticleSim@ProfileEventId@Cm@physx@@2UPxProfileEventId@4@B 10188170     CmEventProfiler.obj
 0003:00001174       ?updateVelocities@Dynamics@ProfileEventId@Cm@physx@@2UPxProfileEventId@4@B 10188174     CmEventProfiler.obj
 0003:00001180       ?ccdBroadPhase@Sim@ProfileEventId@Cm@physx@@2UPxProfileEventId@4@B 10188180     CmEventProfiler.obj
 0003:00001184       ?ccdSweep@Sim@ProfileEventId@Cm@physx@@2UPxProfileEventId@4@B 10188184     CmEventProfiler.obj
 0003:00001188       ?syncState@Sim@ProfileEventId@Cm@physx@@2UPxProfileEventId@4@B 10188188     CmEventProfiler.obj
 0003:0000118c       ?checkCollision@Basic@ProfileEventId@Cm@physx@@2UPxProfileEventId@4@B 1018818c     CmEventProfiler.obj
 0003:00001190       ?syncBodiesAfterIntegration@Sim@ProfileEventId@Cm@physx@@2UPxProfileEventId@4@B 10188190     CmEventProfiler.obj
 0003:00001194       ?addActors@API@ProfileEventId@Cm@physx@@2UPxProfileEventId@4@B 10188194     CmEventProfiler.obj
 0003:00001198       ?removeActors@API@ProfileEventId@Cm@physx@@2UPxProfileEventId@4@B 10188198     CmEventProfiler.obj
 0003:0000119c       ?updatePVDProperties@PVD@ProfileEventId@Cm@physx@@2UPxProfileEventId@4@B 1018819c     CmEventProfiler.obj
 0003:000011a0       ?projectionTreeUpdates@Sim@ProfileEventId@Cm@physx@@2UPxProfileEventId@4@B 101881a0     CmEventProfiler.obj
 0003:000011a4       ?sweepSingle@BatchedSceneQuery@ProfileEventId@Cm@physx@@2UPxProfileEventId@4@B 101881a4     CmEventProfiler.obj
 0003:000011a8       ?sweepMultiple@SceneQuery@ProfileEventId@Cm@physx@@2UPxProfileEventId@4@B 101881a8     CmEventProfiler.obj
 0003:000011ac       ?updateDirtyShaders@Sim@ProfileEventId@Cm@physx@@2UPxProfileEventId@4@B 101881ac     CmEventProfiler.obj
 0003:00001718       ?flushSimulation@API@ProfileEventId@Cm@physx@@2UPxProfileEventId@4@B 10188718     CmEventProfiler.obj
 0003:0000171c       ?originShift@PVD@ProfileEventId@Cm@physx@@2UPxProfileEventId@4@B 1018871c     CmEventProfiler.obj
 0003:00001720       ?updateContacts@PVD@ProfileEventId@Cm@physx@@2UPxProfileEventId@4@B 10188720     CmEventProfiler.obj
 0003:00001724       ?overlapMultiple@SceneQuery@ProfileEventId@Cm@physx@@2UPxProfileEventId@4@B 10188724     CmEventProfiler.obj
 0003:00001728       ?raycastSingle@BatchedSceneQuery@ProfileEventId@Cm@physx@@2UPxProfileEventId@4@B 10188728     CmEventProfiler.obj
 0003:0000172c       ?addCloth@API@ProfileEventId@Cm@physx@@2UPxProfileEventId@4@B 1018872c     CmEventProfiler.obj
 0003:00001730       ?getFrictionPatch@Dynamics@ProfileEventId@Cm@physx@@2UPxProfileEventId@4@B 10188730     CmEventProfiler.obj
 0003:00001734       ?SapUpdate@BroadPhase@ProfileEventId@Cm@physx@@2UPxProfileEventId@4@B 10188734     CmEventProfiler.obj
 0003:00001738       ?updateIslandsSecondPass@Sim@ProfileEventId@Cm@physx@@2UPxProfileEventId@4@B 10188738     CmEventProfiler.obj
 0003:0000173c       ?flushUpdates@SceneQuery@ProfileEventId@Cm@physx@@2UPxProfileEventId@4@B 1018873c     CmEventProfiler.obj
 0003:00001740       ?ccdPair@Sim@ProfileEventId@Cm@physx@@2UPxProfileEventId@4@B 10188740     CmEventProfiler.obj
 0003:00001744       ?setupProject@Articulations@ProfileEventId@Cm@physx@@2UPxProfileEventId@4@B 10188744     CmEventProfiler.obj
 0003:00001748       ?postIslandGenSecondPass@Sim@ProfileEventId@Cm@physx@@2UPxProfileEventId@4@B 10188748     CmEventProfiler.obj
 0003:0000174c       ?ccdIsland@Sim@ProfileEventId@Cm@physx@@2UPxProfileEventId@4@B 1018874c     CmEventProfiler.obj
 0003:00001750       ?removeCloth@API@ProfileEventId@Cm@physx@@2UPxProfileEventId@4@B 10188750     CmEventProfiler.obj
 0003:00001754       ?setupConstraints@Articulations@ProfileEventId@Cm@physx@@2UPxProfileEventId@4@B 10188754     CmEventProfiler.obj
 0003:00001758       ?releaseBatchQuery@API@ProfileEventId@Cm@physx@@2UPxProfileEventId@4@B 10188758     CmEventProfiler.obj
 0003:0000175c       ?fetchResults@Sim@ProfileEventId@Cm@physx@@2UPxProfileEventId@4@B 1018875c     CmEventProfiler.obj
 0003:00001760       ?updateShapeAABBs@BroadPhase@ProfileEventId@Cm@physx@@2UPxProfileEventId@4@B 10188760     CmEventProfiler.obj
 0003:00001764       ?addShapesToSim@API@ProfileEventId@Cm@physx@@2UPxProfileEventId@4@B 10188764     CmEventProfiler.obj
 0003:00001768       ?updateAggLocalSpaceBounds@BroadPhase@ProfileEventId@Cm@physx@@2UPxProfileEventId@4@B 10188768     CmEventProfiler.obj
 0003:0000176c       ?updateCCDSinglePass@Sim@ProfileEventId@Cm@physx@@2UPxProfileEventId@4@B 1018876c     CmEventProfiler.obj
 0003:00001770       ?updateCollision@ParticleSim@ProfileEventId@Cm@physx@@2UPxProfileEventId@4@B 10188770     CmEventProfiler.obj
 0003:00001774       ?addCollection@API@ProfileEventId@Cm@physx@@2UPxProfileEventId@4@B 10188774     CmEventProfiler.obj
 0003:00001778       ?setupDrives@Articulations@ProfileEventId@Cm@physx@@2UPxProfileEventId@4@B 10188778     CmEventProfiler.obj
 0003:0000177c       ?updatePruningTrees@Sim@ProfileEventId@Cm@physx@@2UPxProfileEventId@4@B 1018877c     CmEventProfiler.obj
 0003:00001780       ?MBPUpdateSPU@BroadPhase@ProfileEventId@Cm@physx@@2UPxProfileEventId@4@B 10188780     CmEventProfiler.obj
 0003:00001784       ?resizeArrays@IslandGen@ProfileEventId@Cm@physx@@2UPxProfileEventId@4@B 10188784     CmEventProfiler.obj
 0003:00001788       ?simulate@Basic@ProfileEventId@Cm@physx@@2UPxProfileEventId@4@B 10188788     CmEventProfiler.obj
 0003:0000192c       ?_ignore@?2??grow@?$HashBase@V?$Pair@$$CBUEventIdContextPair@nvtx@@_K@shdfnd@physx@@UEventIdContextPair@nvtx@@U?$Hash@UEventIdContextPair@nvtx@@@5@UGetKey@?$HashMapBase@UEventIdContextPair@nvtx@@_KU?$Hash@UEventIdContextPair@nvtx@@@2@VAllocator@shdfnd@physx@@@internal@23@VAllocator@23@$00@internal@shdfnd@physx@@AAEXXZ@4_NA 1018892c     CmEventProfiler.obj
 0003:0000192d       ?_ignore@?2??freeListGetNext@?$HashBase@V?$Pair@$$CBUEventIdContextPair@nvtx@@_K@shdfnd@physx@@UEventIdContextPair@nvtx@@U?$Hash@UEventIdContextPair@nvtx@@@5@UGetKey@?$HashMapBase@UEventIdContextPair@nvtx@@_KU?$Hash@UEventIdContextPair@nvtx@@@2@VAllocator@shdfnd@physx@@@internal@23@VAllocator@23@$00@internal@shdfnd@physx@@AAEIXZ@4_NA 1018892d     CmEventProfiler.obj
 0003:0000192e       ?_ignore@?6??freeListGetNext@?$HashBase@V?$Pair@$$CBUEventIdContextPair@nvtx@@_K@shdfnd@physx@@UEventIdContextPair@nvtx@@U?$Hash@UEventIdContextPair@nvtx@@@5@UGetKey@?$HashMapBase@UEventIdContextPair@nvtx@@_KU?$Hash@UEventIdContextPair@nvtx@@@2@VAllocator@shdfnd@physx@@@internal@23@VAllocator@23@$00@internal@shdfnd@physx@@AAEIXZ@4_NA 1018892e     CmEventProfiler.obj
 0003:0000192f       ?_ignore@?4??reserveInternal@?$HashBase@V?$Pair@$$CBUEventIdContextPair@nvtx@@_K@shdfnd@physx@@UEventIdContextPair@nvtx@@U?$Hash@UEventIdContextPair@nvtx@@@5@UGetKey@?$HashMapBase@UEventIdContextPair@nvtx@@_KU?$Hash@UEventIdContextPair@nvtx@@@2@VAllocator@shdfnd@physx@@@internal@23@VAllocator@23@$00@internal@shdfnd@physx@@AAEXI@Z@4_NA 1018892f     CmEventProfiler.obj
 0003:00001930       ?_ignore@?6??reserveInternal@?$HashBase@V?$Pair@$$CBUEventIdContextPair@nvtx@@_K@shdfnd@physx@@UEventIdContextPair@nvtx@@U?$Hash@UEventIdContextPair@nvtx@@@5@UGetKey@?$HashMapBase@UEventIdContextPair@nvtx@@_KU?$Hash@UEventIdContextPair@nvtx@@@2@VAllocator@shdfnd@physx@@@internal@23@VAllocator@23@$00@internal@shdfnd@physx@@AAEXI@Z@4_NA 10188930     CmEventProfiler.obj
 0003:00001931       ?_ignore@?BE@??reserveInternal@?$HashBase@V?$Pair@$$CBUEventIdContextPair@nvtx@@_K@shdfnd@physx@@UEventIdContextPair@nvtx@@U?$Hash@UEventIdContextPair@nvtx@@@5@UGetKey@?$HashMapBase@UEventIdContextPair@nvtx@@_KU?$Hash@UEventIdContextPair@nvtx@@@2@VAllocator@shdfnd@physx@@@internal@23@VAllocator@23@$00@internal@shdfnd@physx@@AAEXI@Z@4_NA 10188931     CmEventProfiler.obj
 0003:00001932       ?_ignore@?6??freeListAdd@?$HashBase@V?$Pair@$$CBUEventIdContextPair@nvtx@@_K@shdfnd@physx@@UEventIdContextPair@nvtx@@U?$Hash@UEventIdContextPair@nvtx@@@5@UGetKey@?$HashMapBase@UEventIdContextPair@nvtx@@_KU?$Hash@UEventIdContextPair@nvtx@@@2@VAllocator@shdfnd@physx@@@internal@23@VAllocator@23@$00@internal@shdfnd@physx@@AAEXII@Z@4_NA 10188932     CmEventProfiler.obj
 0003:00001933       ?_ignore@?2???0PxTransform@physx@@QAE@ABVPxVec3@2@ABVPxQuat@2@@Z@4_NA 10188933     CmMathUtils.obj
 0003:00001934       ?_ignore@?2???APxVec4@physx@@QAEAAMI@Z@4_NA 10188934     CmMathUtils.obj
 0003:00001949       ?_ignore@?2???A?$Array@UPxDebugText@physx@@VNamedAllocator@shdfnd@2@@shdfnd@physx@@QAEAAUPxDebugText@3@I@Z@4_NA 10188949     CmRenderOutput.obj
 0003:0000194a       ?_ignore@?2??grow@?$Array@DVNamedAllocator@shdfnd@physx@@@shdfnd@physx@@IAEXI@Z@4_NA 1018894a     CmRenderOutput.obj
 0003:0000194b       ?_ignore@?2??growAndPushBack@?$Array@UPxDebugPoint@physx@@VNamedAllocator@shdfnd@2@@shdfnd@physx@@IAEAAUPxDebugPoint@4@ABU54@@Z@4_NA 1018894b     CmRenderOutput.obj
 0003:0000194c       ?_ignore@?2??growAndPushBack@?$Array@UPxDebugLine@physx@@VNamedAllocator@shdfnd@2@@shdfnd@physx@@IAEAAUPxDebugLine@4@ABU54@@Z@4_NA 1018894c     CmRenderOutput.obj
 0003:0000194d       ?_ignore@?2??growAndPushBack@?$Array@UPxDebugTriangle@physx@@VNamedAllocator@shdfnd@2@@shdfnd@physx@@IAEAAUPxDebugTriangle@4@ABU54@@Z@4_NA 1018894d     CmRenderOutput.obj
 0003:0000194e       ?_ignore@?2??growAndPushBack@?$Array@UPxDebugText@physx@@VNamedAllocator@shdfnd@2@@shdfnd@physx@@IAEAAUPxDebugText@4@ABU54@@Z@4_NA 1018894e     CmRenderOutput.obj
 0003:0000194f       ?_ignore@?2??growAndPushBack@?$Array@DVNamedAllocator@shdfnd@physx@@@shdfnd@physx@@IAEAADABD@Z@4_NA 1018894f     CmRenderOutput.obj
 0003:00001950       ?_ignore@?2??recreate@?$Array@DVNamedAllocator@shdfnd@physx@@@shdfnd@physx@@IAEXI@Z@4_NA 10188950     CmRenderOutput.obj
 0003:00001951       ?_ignore@?2??grow@?$Array@UPxDebugLine@physx@@VNamedAllocator@shdfnd@2@@shdfnd@physx@@IAEXI@Z@4_NA 10188951     CmRenderOutput.obj
 0003:00001952       ?_ignore@?2??recreate@?$Array@UPxDebugLine@physx@@VNamedAllocator@shdfnd@2@@shdfnd@physx@@IAEXI@Z@4_NA 10188952     CmRenderOutput.obj
 0003:00001953       ?_ignore@?2???APxVec3@physx@@QBEABMH@Z@4_NA 10188953     GuContactCapsuleMesh.obj
 0003:000019d3       ?_ignore@?2??transform@PxTransform@physx@@QBE?AVPxVec3@3@ABV43@@Z@4_NA 101889d3     GuContactCapsuleMesh.obj
 0003:000019d4       ?_ignore@?2??transformInv@PxTransform@physx@@QBE?AVPxVec3@3@ABV43@@Z@4_NA 101889d4     GuContactCapsuleMesh.obj
 0003:000019d5       ?_ignore@?2??rotate@PxTransform@physx@@QBE?AVPxVec3@3@ABV43@@Z@4_NA 101889d5     GuContactCapsuleMesh.obj
 0003:000019d6       ?_ignore@?2??transformInv@PxTransform@physx@@QBE?AV23@ABV23@@Z@4_NA 101889d6     GuContactCapsuleMesh.obj
 0003:000019d7       ?_ignore@?3??transformInv@PxTransform@physx@@QBE?AV23@ABV23@@Z@4_NA 101889d7     GuContactCapsuleMesh.obj
 0003:000019d8       ?_ignore@?2??getCenter@PxBounds3@physx@@QBE?AVPxVec3@3@XZ@4_NA 101889d8     GuContactCapsuleMesh.obj
 0003:000019d9       ?_ignore@?2??getDimensions@PxBounds3@physx@@QBE?AVPxVec3@3@XZ@4_NA 101889d9     GuContactCapsuleMesh.obj
 0003:000019da       ?_ignore@?2??getExtents@PxBounds3@physx@@QBE?AVPxVec3@3@XZ@4_NA 101889da     GuContactCapsuleMesh.obj
 0003:000019db       ?_ignore@?2??transformFast@PxBounds3@physx@@SA?AV23@ABVPxTransform@3@ABV23@@Z@4_NA 101889db     GuContactCapsuleMesh.obj
 0003:000019dc       ?_ignore@?2??contact@ContactBuffer@Gu@physx@@QAE_NABVPxVec3@4@0MII@Z@4_NA 101889dc     GuContactCapsuleMesh.obj
 0003:000019dd       ?_ignore@?2??getSample@HeightField@Gu@physx@@QBEABUPxHeightFieldSample@4@I@Z@4_NA 101889dd     GuContactCapsuleMesh.obj
 0003:000019de       ?_ignore@?3??initialize@HeightFieldUtil@Gu@physx@@AAEXXZ@4_NA 101889de     GuContactCapsuleMesh.obj
 0003:000019df       ?_ignore@?4??initialize@HeightFieldUtil@Gu@physx@@AAEXXZ@4_NA 101889df     GuContactCapsuleMesh.obj
 0003:000019e0       ?_ignore@?5??initialize@HeightFieldUtil@Gu@physx@@AAEXXZ@4_NA 101889e0     GuContactCapsuleMesh.obj
 0003:000019e1       ?_ignore@?2??clipShapeNormalToVertexVoronoi@HeightFieldUtil@Gu@physx@@QBE_NAAVPxVec3@4@III@Z@4_NA 101889e1     GuContactCapsuleMesh.obj
 0003:000019e2       ?_ignore@?3??clipShapeNormalToVertexVoronoi@HeightFieldUtil@Gu@physx@@QBE_NAAVPxVec3@4@III@Z@4_NA 101889e2     GuContactCapsuleMesh.obj
 0003:000019e3       ?_ignore@?2??getEdgeDirection@HeightFieldUtil@Gu@physx@@QBE?AVPxVec3@4@II@Z@4_NA 101889e3     GuContactCapsuleMesh.obj
 0003:000019e4       ?_ignore@?2???$checkType@$$CBVPxCapsuleGeometry@physx@@@physx@@YAXABVGeometryUnion@Gu@1@@Z@4_NA 101889e4     GuContactCapsuleMesh.obj
 0003:000019e7       ?_ignore@?2???0CapsuleMeshContactGeneration@?A0x109bc84c@@QAE@AAVContactBuffer@Gu@physx@@ABVPxTransform@5@ABVSegment@45@MMM@Z@4_NA 101889e7     GuContactCapsuleMesh.obj
 0003:000019e8       ?_ignore@?2???0CapsuleMeshContactGenerationCallback@?A0x109bc84c@@QAE@AAVContactBuffer@Gu@physx@@ABVPxTransform@5@ABVSegment@45@MABVFastVertex2ShapeScaling@Cm@5@MMPBUInternalTriangleMeshData@45@_N@Z@4_NA 101889e8     GuContactCapsuleMesh.obj
 0003:000019e9       ?_ignore@?2???0CapsuleHeightfieldContactGenerationCallback@?A0x109bc84c@@QAE@AAVContactBuffer@Gu@physx@@ABVPxTransform@5@AAVHeightFieldUtil@45@ABVSegment@45@MMM@Z@4_NA 101889e9     GuContactCapsuleMesh.obj
 0003:000019ea       ?_ignore@?2???$checkType@$$CBUPxTriangleMeshGeometryLL@physx@@@physx@@YAXABVGeometryUnion@Gu@1@@Z@4_NA 101889ea     GuContactCapsuleMesh.obj
 0003:000019eb       ?_ignore@?2???$checkType@$$CBUPxHeightFieldGeometryLL@physx@@@physx@@YAXABVGeometryUnion@Gu@1@@Z@4_NA 101889eb     GuContactCapsuleMesh.obj
 0003:000019ec       ?_ignore@?2??to8@shdfnd@physx@@YAEI@Z@4_NA 101889ec     GuContactConvexMesh.obj
 0003:00001a63       ?_ignore@?2???AContainer@Gu@physx@@QBEII@Z@4_NA 10188a63     GuContactConvexMesh.obj
 0003:00001a64       ?_ignore@?2???AContainer@Gu@physx@@QAEAAII@Z@4_NA 10188a64     GuContactConvexMesh.obj
 0003:00001a67       ?_ignore@?2???$checkType@$$CBVPxBoxGeometry@physx@@@physx@@YAXABVGeometryUnion@Gu@1@@Z@4_NA 10188a67     GuContactConvexMesh.obj
 0003:00001b63       ?_ignore@?8??generateLastContacts@SphereMeshContactGeneration@?A0xd3e8f430@@QAEXXZ@4_NA 10188b63     GuContactSphereMesh.obj
 0003:00001b64       ?_ignore@?O@???$sort@USortKey@@U?$Less@USortKey@@@shdfnd@physx@@VNullAllocator@?A0xd3e8f430@@@shdfnd@physx@@YAXPAUSortKey@@IABU?$Less@USortKey@@@12@ABVNullAllocator@?A0xd3e8f430@@I@Z@4_NA 10188b64     GuContactSphereMesh.obj
 0003:00001b65       ?_ignore@?BM@???$sort@USortKey@@U?$Less@USortKey@@@shdfnd@physx@@VNullAllocator@?A0xd3e8f430@@@shdfnd@physx@@YAXPAUSortKey@@IABU?$Less@USortKey@@@12@ABVNullAllocator@?A0xd3e8f430@@I@Z@4_NA 10188b65     GuContactSphereMesh.obj
 0003:00001b66       ?_ignore@?2??pop@?$Stack@VNullAllocator@?A0xd3e8f430@@@internal@shdfnd@physx@@QAEXAAH0@Z@4_NA 10188b66     GuContactSphereMesh.obj
 0003:00001b67       ?_ignore@?8???$partition@USortKey@@$$CBU?$Less@USortKey@@@shdfnd@physx@@@internal@shdfnd@physx@@YAHPAUSortKey@@HHABU?$Less@USortKey@@@23@@Z@4_NA 10188b67     GuContactSphereMesh.obj
 0003:00001b68       ?_ignore@?9???$partition@USortKey@@$$CBU?$Less@USortKey@@@shdfnd@physx@@@internal@shdfnd@physx@@YAHPAUSortKey@@HHABU?$Less@USortKey@@@23@@Z@4_NA 10188b68     GuContactSphereMesh.obj
 0003:00001b69       ?_ignore@?2???$checkType@$$CBVPxSphereGeometry@physx@@@physx@@YAXABVGeometryUnion@Gu@1@@Z@4_NA 10188b69     GuContactSphereMesh.obj
 0003:00001be3       ?_ignore@?2??to16@shdfnd@physx@@YAGI@Z@4_NA 10188be3     GuBigConvexData.obj
 0003:00001be6       ?_ignore@?2??isEmpty@PxBounds3@physx@@QBE_NXZ@4_NA 10188be6     GuConvexHelper.obj
 0003:00001be7       ?_ignore@?2??transformFast@PxBounds3@physx@@SA?AV23@ABVPxMat33@3@ABV23@@Z@4_NA 10188be7     GuConvexHelper.obj
 0003:00001c65       ?_ignore@?2???$checkType@$$CBUPxConvexMeshGeometryLL@physx@@@physx@@YAXABVGeometryUnion@Gu@1@@Z@4_NA 10188c65     GuConvexHelper.obj
 0003:00001c66       ?_ignore@?2??contains@PxBounds3@physx@@QBE_NABVPxVec3@3@@Z@4_NA 10188c66     GuConvexMesh.obj
 0003:00001c67       ?_ignore@?2???0RefCountable@Cm@physx@@QAE@I@Z@4_NA 10188c67     GuConvexMesh.obj
 0003:00001c68       ?_ignore@?2??decRefCount@RefCountable@Cm@physx@@QAEXXZ@4_NA 10188c68     GuConvexMesh.obj
 0003:00001c69       ?_ignore@?2??getLocalBounds@ConvexMesh@Gu@physx@@UBE?AVPxBounds3@4@XZ@4_NA 10188c69     GuConvexMesh.obj
 0003:00001c6e       ?_ignore@?4??reserveInternal@?$HashBase@PAVHeightField@Gu@physx@@PAV123@U?$Hash@PAVHeightField@Gu@physx@@@shdfnd@3@UGetKey@?$HashSetBase@PAVHeightField@Gu@physx@@U?$Hash@PAVHeightField@Gu@physx@@@shdfnd@3@VAllocator@53@$00@internal@53@VAllocator@53@$00@internal@shdfnd@physx@@AAEXI@Z@4_NA 10188c6e     GuConvexMesh.obj
 0003:00001c6f       ?_ignore@?6??reserveInternal@?$HashBase@PAVHeightField@Gu@physx@@PAV123@U?$Hash@PAVHeightField@Gu@physx@@@shdfnd@3@UGetKey@?$HashSetBase@PAVHeightField@Gu@physx@@U?$Hash@PAVHeightField@Gu@physx@@@shdfnd@3@VAllocator@53@$00@internal@53@VAllocator@53@$00@internal@shdfnd@physx@@AAEXI@Z@4_NA 10188c6f     GuConvexMesh.obj
 0003:00001c70       ?_ignore@?BE@??reserveInternal@?$HashBase@PAVHeightField@Gu@physx@@PAV123@U?$Hash@PAVHeightField@Gu@physx@@@shdfnd@3@UGetKey@?$HashSetBase@PAVHeightField@Gu@physx@@U?$Hash@PAVHeightField@Gu@physx@@@shdfnd@3@VAllocator@53@$00@internal@53@VAllocator@53@$00@internal@shdfnd@physx@@AAEXI@Z@4_NA 10188c70     GuConvexMesh.obj
 0003:00001c71       ?_ignore@?4??reserveInternal@?$HashBase@PAVConvexMesh@Gu@physx@@PAV123@U?$Hash@PAVConvexMesh@Gu@physx@@@shdfnd@3@UGetKey@?$HashSetBase@PAVConvexMesh@Gu@physx@@U?$Hash@PAVConvexMesh@Gu@physx@@@shdfnd@3@VAllocator@53@$00@internal@53@VAllocator@53@$00@internal@shdfnd@physx@@AAEXI@Z@4_NA 10188c71     GuConvexMesh.obj
 0003:00001c72       ?_ignore@?6??reserveInternal@?$HashBase@PAVConvexMesh@Gu@physx@@PAV123@U?$Hash@PAVConvexMesh@Gu@physx@@@shdfnd@3@UGetKey@?$HashSetBase@PAVConvexMesh@Gu@physx@@U?$Hash@PAVConvexMesh@Gu@physx@@@shdfnd@3@VAllocator@53@$00@internal@53@VAllocator@53@$00@internal@shdfnd@physx@@AAEXI@Z@4_NA 10188c72     GuConvexMesh.obj
 0003:00001c73       ?_ignore@?BE@??reserveInternal@?$HashBase@PAVConvexMesh@Gu@physx@@PAV123@U?$Hash@PAVConvexMesh@Gu@physx@@@shdfnd@3@UGetKey@?$HashSetBase@PAVConvexMesh@Gu@physx@@U?$Hash@PAVConvexMesh@Gu@physx@@@shdfnd@3@VAllocator@53@$00@internal@53@VAllocator@53@$00@internal@shdfnd@physx@@AAEXI@Z@4_NA 10188c73     GuConvexMesh.obj
 0003:00001c74       ?_ignore@?4??reserveInternal@?$HashBase@PAVTriangleMesh@Gu@physx@@PAV123@U?$Hash@PAVTriangleMesh@Gu@physx@@@shdfnd@3@UGetKey@?$HashSetBase@PAVTriangleMesh@Gu@physx@@U?$Hash@PAVTriangleMesh@Gu@physx@@@shdfnd@3@VAllocator@53@$00@internal@53@VAllocator@53@$00@internal@shdfnd@physx@@AAEXI@Z@4_NA 10188c74     GuConvexMesh.obj
 0003:00001c75       ?_ignore@?6??reserveInternal@?$HashBase@PAVTriangleMesh@Gu@physx@@PAV123@U?$Hash@PAVTriangleMesh@Gu@physx@@@shdfnd@3@UGetKey@?$HashSetBase@PAVTriangleMesh@Gu@physx@@U?$Hash@PAVTriangleMesh@Gu@physx@@@shdfnd@3@VAllocator@53@$00@internal@53@VAllocator@53@$00@internal@shdfnd@physx@@AAEXI@Z@4_NA 10188c75     GuConvexMesh.obj
 0003:00001c76       ?_ignore@?BE@??reserveInternal@?$HashBase@PAVTriangleMesh@Gu@physx@@PAV123@U?$Hash@PAVTriangleMesh@Gu@physx@@@shdfnd@3@UGetKey@?$HashSetBase@PAVTriangleMesh@Gu@physx@@U?$Hash@PAVTriangleMesh@Gu@physx@@@shdfnd@3@VAllocator@53@$00@internal@53@VAllocator@53@$00@internal@shdfnd@physx@@AAEXI@Z@4_NA 10188c76     GuConvexMesh.obj
 0003:00001c77       ?_ignore@?6??freeListAdd@?$HashBase@PAVHeightField@Gu@physx@@PAV123@U?$Hash@PAVHeightField@Gu@physx@@@shdfnd@3@UGetKey@?$HashSetBase@PAVHeightField@Gu@physx@@U?$Hash@PAVHeightField@Gu@physx@@@shdfnd@3@VAllocator@53@$00@internal@53@VAllocator@53@$00@internal@shdfnd@physx@@AAEXII@Z@4_NA 10188c77     GuConvexMesh.obj
 0003:00001c78       ?_ignore@?6??freeListAdd@?$HashBase@PAVConvexMesh@Gu@physx@@PAV123@U?$Hash@PAVConvexMesh@Gu@physx@@@shdfnd@3@UGetKey@?$HashSetBase@PAVConvexMesh@Gu@physx@@U?$Hash@PAVConvexMesh@Gu@physx@@@shdfnd@3@VAllocator@53@$00@internal@53@VAllocator@53@$00@internal@shdfnd@physx@@AAEXII@Z@4_NA 10188c78     GuConvexMesh.obj
 0003:00001c79       ?_ignore@?6??freeListAdd@?$HashBase@PAVTriangleMesh@Gu@physx@@PAV123@U?$Hash@PAVTriangleMesh@Gu@physx@@@shdfnd@3@UGetKey@?$HashSetBase@PAVTriangleMesh@Gu@physx@@U?$Hash@PAVTriangleMesh@Gu@physx@@@shdfnd@3@VAllocator@53@$00@internal@53@VAllocator@53@$00@internal@shdfnd@physx@@AAEXII@Z@4_NA 10188c79     GuConvexMesh.obj
 0003:00001ce0       ?boxVertexTable@physx@@3QBT__m128@@B 10188ce0     GuConvexSupportTable.obj
 0003:000022c0       ?_ignore@?2??getTrigSharedEdgeFlagsFromData@InternalTriangleMesh@physx@@QBEII@Z@4_NA 101892c0     GuSweepBoxBox.obj
 0003:000022c1       ?_ignore@?2??setTriangleAdjacency@InternalTriangleMesh@physx@@QAEXIII@Z@4_NA 101892c1     GuSweepBoxBox.obj
 0003:000022c2       ?_ignore@?2??getLocalBounds@TriangleMesh@Gu@physx@@UBE?AVPxBounds3@4@XZ@4_NA 101892c2     GuSweepBoxBox.obj
 0003:00002733       ?_ignore@?5??getInitIndex@Gu@physx@@YAIPIBII@Z@4_NA 10189733     GuSweepCapsuleTriangle.obj
 0003:00002734       ?_ignore@?4??shouldFlipNormal@Gu@physx@@YA_NABVPxVec3@3@_N100@Z@4_NA 10189734     GuSweepCapsuleTriangle.obj
 0003:00002933       ?_ignore@?2??toI8@shdfnd@physx@@YACI@Z@4_NA 10189933     GuEPA.obj
 0003:00002934       ?_ignore@?2??getSource@Edge@Gu@physx@@QBEIXZ@4_NA 10189934     GuEPA.obj
 0003:00002935       ?_ignore@?2??getTarget@Edge@Gu@physx@@QBEIXZ@4_NA 10189935     GuEPA.obj
 0003:00002936       ?_ignore@?2??Insert@EdgeBuffer@Gu@physx@@QAEPAVEdge@34@PIAVFacet@34@I@Z@4_NA 10189936     GuEPA.obj
 0003:00002937       ?_ignore@?2??Get@EdgeBuffer@Gu@physx@@QAEPAVEdge@34@I@Z@4_NA 10189937     GuEPA.obj
 0003:00002938       ?_ignore@?7??GJKCPairDoSimplex@Gu@physx@@YA?AT__m128@@PIAT4@00ABT4@AAI@Z@4_NA 10189938     GuEPA.obj
 0003:0000293b       ?_ignore@?4??silhouette@Facet@Gu@physx@@QAEXIABT__m128@@PIBT5@1AAVEdgeBuffer@34@AAV?$InlineDeferredIDPool@$0EA@@Cm@4@@Z@4_NA 1018993b     GuEPA.obj
 0003:0000293c       ?_ignore@?O@??silhouette@Facet@Gu@physx@@QAEXIABT__m128@@PIBT5@1AAVEdgeBuffer@34@AAV?$InlineDeferredIDPool@$0EA@@Cm@4@@Z@4_NA 1018993c     GuEPA.obj
 0003:00002943       ?_ignore@?2??pop@?$PriorityQueue@PAVFacet@Gu@physx@@$0EA@UFacetDistanceComparator@23@@Gu@physx@@QAEPAVFacet@34@XZ@4_NA 10189943     GuEPA.obj
 0003:00002944       ?_ignore@?7??pop@?$PriorityQueue@PAVFacet@Gu@physx@@$0EA@UFacetDistanceComparator@23@@Gu@physx@@QAEPAVFacet@34@XZ@4_NA 10189944     GuEPA.obj
 0003:00002945       ?_ignore@?8??pop@?$PriorityQueue@PAVFacet@Gu@physx@@$0EA@UFacetDistanceComparator@23@@Gu@physx@@QAEPAVFacet@34@XZ@4_NA 10189945     GuEPA.obj
 0003:00002946       ?_ignore@?9??pop@?$PriorityQueue@PAVFacet@Gu@physx@@$0EA@UFacetDistanceComparator@23@@Gu@physx@@QAEPAVFacet@34@XZ@4_NA 10189946     GuEPA.obj
 0003:00002947       ?_ignore@?2??push@?$PriorityQueue@PAVFacet@Gu@physx@@$0EA@UFacetDistanceComparator@23@@Gu@physx@@QAEXABQAVFacet@34@@Z@4_NA 10189947     GuEPA.obj
 0003:00002948       ?_ignore@?5??push@?$PriorityQueue@PAVFacet@Gu@physx@@$0EA@UFacetDistanceComparator@23@@Gu@physx@@QAEXABQAVFacet@34@@Z@4_NA 10189948     GuEPA.obj
 0003:00002949       ?_ignore@?2???A?$InlineFixedArray@I$0EA@@Cm@physx@@QAEAAII@Z@4_NA 10189949     GuEPA.obj
 0003:0000294a       ?_ignore@?2??popBack@?$InlineFixedArray@I$0EA@@Cm@physx@@QAEIXZ@4_NA 1018994a     GuEPA.obj
 0003:0000294b       ?_ignore@?2??pushBack@?$InlineFixedArray@I$0EA@@Cm@physx@@QAEXABI@Z@4_NA 1018994b     GuEPA.obj
 0003:00002a43       ?_ignore@?8??GJKCPairDoSimplexTesselation@Gu@physx@@YA?AT__m128@@PIAT4@00ABT4@11AAIAAT4@3@Z@4_NA 10189a43     GuGJKFallBack.obj
 0003:00002a44       ?_ignore@?2??pushSimplex@SimplexStack@Gu@physx@@QAEXPAT__m128@@00I@Z@4_NA 10189a44     GuGJKFallBack.obj
 0003:00002ac3       ?_ignore@?7??GJKCPairDoSimplex@Gu@physx@@YA?AT__m128@@PIAT4@00PIAH1ABT4@AAI@Z@4_NA 10189ac3     GuGJKPenetrationWrapper.obj
 0003:00002ac4       ?_ignore@?2??to8@shdfnd@physx@@YAEH@Z@4_NA 10189ac4     GuGJKPenetrationWrapper.obj
 0003:00002ac5       ?_ignore@?3??to8@shdfnd@physx@@YAEH@Z@4_NA 10189ac5     GuGJKPenetrationWrapper.obj
 0003:00002ac6       ?_ignore@?5??assignWarmStartValue@Gu@physx@@YAXPIAE0AAEPIAH2I@Z@4_NA 10189ac6     GuGJKPenetrationWrapper.obj
 0003:00002ac7       ?_ignore@?BC@???$gjkLocalPenetration@VCapsuleV@Gu@physx@@VBoxV@23@@Gu@physx@@YAIABVCapsuleV@12@ABVBoxV@12@ABT__m128@@AAT5@333PIAE4AAE_N@Z@4_NA 10189ac7     GuGJKPenetrationWrapper.obj
 0003:00002ac8       ?_ignore@?BK@???$gjkLocalPenetration@VCapsuleV@Gu@physx@@VBoxV@23@@Gu@physx@@YAIABVCapsuleV@12@ABVBoxV@12@ABT__m128@@AAT5@333PIAE4AAE_N@Z@4_NA 10189ac8     GuGJKPenetrationWrapper.obj
 0003:00002ac9       ?_ignore@?BO@???$gjkLocalPenetration@VCapsuleV@Gu@physx@@VBoxV@23@@Gu@physx@@YAIABVCapsuleV@12@ABVBoxV@12@ABT__m128@@AAT5@333PIAE4AAE_N@Z@4_NA 10189ac9     GuGJKPenetrationWrapper.obj
 0003:00002aca       ?_ignore@?BC@???$gjkLocalPenetration@VCapsuleV@Gu@physx@@VShrunkBoxV@23@@Gu@physx@@YAIABVCapsuleV@12@ABVShrunkBoxV@12@ABT__m128@@AAT5@333PIAE4AAE_N@Z@4_NA 10189aca     GuGJKPenetrationWrapper.obj
 0003:00002acb       ?_ignore@?BK@???$gjkLocalPenetration@VCapsuleV@Gu@physx@@VShrunkBoxV@23@@Gu@physx@@YAIABVCapsuleV@12@ABVShrunkBoxV@12@ABT__m128@@AAT5@333PIAE4AAE_N@Z@4_NA 10189acb     GuGJKPenetrationWrapper.obj
 0003:00002acc       ?_ignore@?BO@???$gjkLocalPenetration@VCapsuleV@Gu@physx@@VShrunkBoxV@23@@Gu@physx@@YAIABVCapsuleV@12@ABVShrunkBoxV@12@ABT__m128@@AAT5@333PIAE4AAE_N@Z@4_NA 10189acc     GuGJKPenetrationWrapper.obj
 0003:00002acd       ?_ignore@?BC@???$gjkLocalPenetration@VCapsuleV@Gu@physx@@VConvexHullV@23@@Gu@physx@@YAIABVCapsuleV@12@ABVConvexHullV@12@ABT__m128@@AAT5@333PIAE4AAE_N@Z@4_NA 10189acd     GuGJKPenetrationWrapper.obj
 0003:00002ace       ?_ignore@?BK@???$gjkLocalPenetration@VCapsuleV@Gu@physx@@VConvexHullV@23@@Gu@physx@@YAIABVCapsuleV@12@ABVConvexHullV@12@ABT__m128@@AAT5@333PIAE4AAE_N@Z@4_NA 10189ace     GuGJKPenetrationWrapper.obj
 0003:00002acf       ?_ignore@?BO@???$gjkLocalPenetration@VCapsuleV@Gu@physx@@VConvexHullV@23@@Gu@physx@@YAIABVCapsuleV@12@ABVConvexHullV@12@ABT__m128@@AAT5@333PIAE4AAE_N@Z@4_NA 10189acf     GuGJKPenetrationWrapper.obj
 0003:00002ad0       ?_ignore@?BC@???$gjkLocalPenetration@VCapsuleV@Gu@physx@@VShrunkConvexHullV@23@@Gu@physx@@YAIABVCapsuleV@12@ABVShrunkConvexHullV@12@ABT__m128@@AAT5@333PIAE4AAE_N@Z@4_NA 10189ad0     GuGJKPenetrationWrapper.obj
 0003:00002ad1       ?_ignore@?BK@???$gjkLocalPenetration@VCapsuleV@Gu@physx@@VShrunkConvexHullV@23@@Gu@physx@@YAIABVCapsuleV@12@ABVShrunkConvexHullV@12@ABT__m128@@AAT5@333PIAE4AAE_N@Z@4_NA 10189ad1     GuGJKPenetrationWrapper.obj
 0003:00002ad2       ?_ignore@?BO@???$gjkLocalPenetration@VCapsuleV@Gu@physx@@VShrunkConvexHullV@23@@Gu@physx@@YAIABVCapsuleV@12@ABVShrunkConvexHullV@12@ABT__m128@@AAT5@333PIAE4AAE_N@Z@4_NA 10189ad2     GuGJKPenetrationWrapper.obj
 0003:00002ad3       ?_ignore@?BC@???$gjkLocalPenetration@VCapsuleV@Gu@physx@@VConvexHullNoScaleV@23@@Gu@physx@@YAIABVCapsuleV@12@ABVConvexHullNoScaleV@12@ABT__m128@@AAT5@333PIAE4AAE_N@Z@4_NA 10189ad3     GuGJKPenetrationWrapper.obj
 0003:00002ad4       ?_ignore@?BK@???$gjkLocalPenetration@VCapsuleV@Gu@physx@@VConvexHullNoScaleV@23@@Gu@physx@@YAIABVCapsuleV@12@ABVConvexHullNoScaleV@12@ABT__m128@@AAT5@333PIAE4AAE_N@Z@4_NA 10189ad4     GuGJKPenetrationWrapper.obj
 0003:00002ad5       ?_ignore@?BO@???$gjkLocalPenetration@VCapsuleV@Gu@physx@@VConvexHullNoScaleV@23@@Gu@physx@@YAIABVCapsuleV@12@ABVConvexHullNoScaleV@12@ABT__m128@@AAT5@333PIAE4AAE_N@Z@4_NA 10189ad5     GuGJKPenetrationWrapper.obj
 0003:00002ad6       ?_ignore@?BC@???$gjkLocalPenetration@VCapsuleV@Gu@physx@@VShrunkConvexHullNoScaleV@23@@Gu@physx@@YAIABVCapsuleV@12@ABVShrunkConvexHullNoScaleV@12@ABT__m128@@AAT5@333PIAE4AAE_N@Z@4_NA 10189ad6     GuGJKPenetrationWrapper.obj
 0003:00002ad7       ?_ignore@?BK@???$gjkLocalPenetration@VCapsuleV@Gu@physx@@VShrunkConvexHullNoScaleV@23@@Gu@physx@@YAIABVCapsuleV@12@ABVShrunkConvexHullNoScaleV@12@ABT__m128@@AAT5@333PIAE4AAE_N@Z@4_NA 10189ad7     GuGJKPenetrationWrapper.obj
 0003:00002ad8       ?_ignore@?BO@???$gjkLocalPenetration@VCapsuleV@Gu@physx@@VShrunkConvexHullNoScaleV@23@@Gu@physx@@YAIABVCapsuleV@12@ABVShrunkConvexHullNoScaleV@12@ABT__m128@@AAT5@333PIAE4AAE_N@Z@4_NA 10189ad8     GuGJKPenetrationWrapper.obj
 0003:00002ad9       ?_ignore@?BC@???$gjkLocalPenetration@VTriangleV@Gu@physx@@VBoxV@23@@Gu@physx@@YAIABVTriangleV@12@ABVBoxV@12@ABT__m128@@AAT5@333PIAE4AAE_N@Z@4_NA 10189ad9     GuGJKPenetrationWrapper.obj
 0003:00002ada       ?_ignore@?BK@???$gjkLocalPenetration@VTriangleV@Gu@physx@@VBoxV@23@@Gu@physx@@YAIABVTriangleV@12@ABVBoxV@12@ABT__m128@@AAT5@333PIAE4AAE_N@Z@4_NA 10189ada     GuGJKPenetrationWrapper.obj
 0003:00002adb       ?_ignore@?BO@???$gjkLocalPenetration@VTriangleV@Gu@physx@@VBoxV@23@@Gu@physx@@YAIABVTriangleV@12@ABVBoxV@12@ABT__m128@@AAT5@333PIAE4AAE_N@Z@4_NA 10189adb     GuGJKPenetrationWrapper.obj
 0003:00002adc       ?_ignore@?BC@???$gjkLocalPenetration@VTriangleV@Gu@physx@@V123@@Gu@physx@@YAIABVTriangleV@12@0ABT__m128@@AAT4@222PIAE3AAE_N@Z@4_NA 10189adc     GuGJKPenetrationWrapper.obj
 0003:00002add       ?_ignore@?BK@???$gjkLocalPenetration@VTriangleV@Gu@physx@@V123@@Gu@physx@@YAIABVTriangleV@12@0ABT__m128@@AAT4@222PIAE3AAE_N@Z@4_NA 10189add     GuGJKPenetrationWrapper.obj
 0003:00002ade       ?_ignore@?BO@???$gjkLocalPenetration@VTriangleV@Gu@physx@@V123@@Gu@physx@@YAIABVTriangleV@12@0ABT__m128@@AAT4@222PIAE3AAE_N@Z@4_NA 10189ade     GuGJKPenetrationWrapper.obj
 0003:00002adf       ?_ignore@?BC@???$gjkLocalPenetration@VTriangleV@Gu@physx@@VConvexHullV@23@@Gu@physx@@YAIABVTriangleV@12@ABVConvexHullV@12@ABT__m128@@AAT5@333PIAE4AAE_N@Z@4_NA 10189adf     GuGJKPenetrationWrapper.obj
 0003:00002ae0       ?_ignore@?BK@???$gjkLocalPenetration@VTriangleV@Gu@physx@@VConvexHullV@23@@Gu@physx@@YAIABVTriangleV@12@ABVConvexHullV@12@ABT__m128@@AAT5@333PIAE4AAE_N@Z@4_NA 10189ae0     GuGJKPenetrationWrapper.obj
 0003:00002ae1       ?_ignore@?BO@???$gjkLocalPenetration@VTriangleV@Gu@physx@@VConvexHullV@23@@Gu@physx@@YAIABVTriangleV@12@ABVConvexHullV@12@ABT__m128@@AAT5@333PIAE4AAE_N@Z@4_NA 10189ae1     GuGJKPenetrationWrapper.obj
 0003:00002ae2       ?_ignore@?BC@???$gjkLocalPenetration@VTriangleV@Gu@physx@@VConvexHullNoScaleV@23@@Gu@physx@@YAIABVTriangleV@12@ABVConvexHullNoScaleV@12@ABT__m128@@AAT5@333PIAE4AAE_N@Z@4_NA 10189ae2     GuGJKPenetrationWrapper.obj
 0003:00002ae3       ?_ignore@?BK@???$gjkLocalPenetration@VTriangleV@Gu@physx@@VConvexHullNoScaleV@23@@Gu@physx@@YAIABVTriangleV@12@ABVConvexHullNoScaleV@12@ABT__m128@@AAT5@333PIAE4AAE_N@Z@4_NA 10189ae3     GuGJKPenetrationWrapper.obj
 0003:00002ae4       ?_ignore@?BO@???$gjkLocalPenetration@VTriangleV@Gu@physx@@VConvexHullNoScaleV@23@@Gu@physx@@YAIABVTriangleV@12@ABVConvexHullNoScaleV@12@ABT__m128@@AAT5@333PIAE4AAE_N@Z@4_NA 10189ae4     GuGJKPenetrationWrapper.obj
 0003:00002ae5       ?_ignore@?BC@???$gjkRelativePenetration@VBoxV@Gu@physx@@V123@@Gu@physx@@YAIABVBoxV@12@0ABVPsMatTransformV@aos@shdfnd@2@ABT__m128@@AAT7@333PIAE4AAE@Z@4_NA 10189ae5     GuGJKPenetrationWrapper.obj
 0003:00002ae6       ?_ignore@?BF@???$gjkRelativePenetration@VBoxV@Gu@physx@@V123@@Gu@physx@@YAIABVBoxV@12@0ABVPsMatTransformV@aos@shdfnd@2@ABT__m128@@AAT7@333PIAE4AAE@Z@4_NA 10189ae6     GuGJKPenetrationWrapper.obj
 0003:00002ae7       ?_ignore@?BJ@???$gjkRelativePenetration@VBoxV@Gu@physx@@V123@@Gu@physx@@YAIABVBoxV@12@0ABVPsMatTransformV@aos@shdfnd@2@ABT__m128@@AAT7@333PIAE4AAE@Z@4_NA 10189ae7     GuGJKPenetrationWrapper.obj
 0003:00002ae8       ?_ignore@?BC@???$gjkRelativePenetration@VBoxV@Gu@physx@@VConvexHullV@23@@Gu@physx@@YAIABVBoxV@12@ABVConvexHullV@12@ABVPsMatTransformV@aos@shdfnd@2@ABT__m128@@AAT8@444PIAE5AAE@Z@4_NA 10189ae8     GuGJKPenetrationWrapper.obj
 0003:00002ae9       ?_ignore@?BF@???$gjkRelativePenetration@VBoxV@Gu@physx@@VConvexHullV@23@@Gu@physx@@YAIABVBoxV@12@ABVConvexHullV@12@ABVPsMatTransformV@aos@shdfnd@2@ABT__m128@@AAT8@444PIAE5AAE@Z@4_NA 10189ae9     GuGJKPenetrationWrapper.obj
 0003:00002aea       ?_ignore@?BJ@???$gjkRelativePenetration@VBoxV@Gu@physx@@VConvexHullV@23@@Gu@physx@@YAIABVBoxV@12@ABVConvexHullV@12@ABVPsMatTransformV@aos@shdfnd@2@ABT__m128@@AAT8@444PIAE5AAE@Z@4_NA 10189aea     GuGJKPenetrationWrapper.obj
 0003:00002aeb       ?_ignore@?BC@???$gjkRelativePenetration@VShrunkBoxV@Gu@physx@@V123@@Gu@physx@@YAIABVShrunkBoxV@12@0ABVPsMatTransformV@aos@shdfnd@2@ABT__m128@@AAT7@333PIAE4AAE@Z@4_NA 10189aeb     GuGJKPenetrationWrapper.obj
 0003:00002aec       ?_ignore@?BF@???$gjkRelativePenetration@VShrunkBoxV@Gu@physx@@V123@@Gu@physx@@YAIABVShrunkBoxV@12@0ABVPsMatTransformV@aos@shdfnd@2@ABT__m128@@AAT7@333PIAE4AAE@Z@4_NA 10189aec     GuGJKPenetrationWrapper.obj
 0003:00002aed       ?_ignore@?BJ@???$gjkRelativePenetration@VShrunkBoxV@Gu@physx@@V123@@Gu@physx@@YAIABVShrunkBoxV@12@0ABVPsMatTransformV@aos@shdfnd@2@ABT__m128@@AAT7@333PIAE4AAE@Z@4_NA 10189aed     GuGJKPenetrationWrapper.obj
 0003:00002aee       ?_ignore@?BC@???$gjkRelativePenetration@VShrunkBoxV@Gu@physx@@VShrunkConvexHullV@23@@Gu@physx@@YAIABVShrunkBoxV@12@ABVShrunkConvexHullV@12@ABVPsMatTransformV@aos@shdfnd@2@ABT__m128@@AAT8@444PIAE5AAE@Z@4_NA 10189aee     GuGJKPenetrationWrapper.obj
 0003:00002aef       ?_ignore@?BF@???$gjkRelativePenetration@VShrunkBoxV@Gu@physx@@VShrunkConvexHullV@23@@Gu@physx@@YAIABVShrunkBoxV@12@ABVShrunkConvexHullV@12@ABVPsMatTransformV@aos@shdfnd@2@ABT__m128@@AAT8@444PIAE5AAE@Z@4_NA 10189aef     GuGJKPenetrationWrapper.obj
 0003:00002af0       ?_ignore@?BJ@???$gjkRelativePenetration@VShrunkBoxV@Gu@physx@@VShrunkConvexHullV@23@@Gu@physx@@YAIABVShrunkBoxV@12@ABVShrunkConvexHullV@12@ABVPsMatTransformV@aos@shdfnd@2@ABT__m128@@AAT8@444PIAE5AAE@Z@4_NA 10189af0     GuGJKPenetrationWrapper.obj
 0003:00002af1       ?_ignore@?BC@???$gjkRelativePenetration@VShrunkBoxV@Gu@physx@@VShrunkConvexHullNoScaleV@23@@Gu@physx@@YAIABVShrunkBoxV@12@ABVShrunkConvexHullNoScaleV@12@ABVPsMatTransformV@aos@shdfnd@2@ABT__m128@@AAT8@444PIAE5AAE@Z@4_NA 10189af1     GuGJKPenetrationWrapper.obj
 0003:00002af2       ?_ignore@?BF@???$gjkRelativePenetration@VShrunkBoxV@Gu@physx@@VShrunkConvexHullNoScaleV@23@@Gu@physx@@YAIABVShrunkBoxV@12@ABVShrunkConvexHullNoScaleV@12@ABVPsMatTransformV@aos@shdfnd@2@ABT__m128@@AAT8@444PIAE5AAE@Z@4_NA 10189af2     GuGJKPenetrationWrapper.obj
 0003:00002af3       ?_ignore@?BJ@???$gjkRelativePenetration@VShrunkBoxV@Gu@physx@@VShrunkConvexHullNoScaleV@23@@Gu@physx@@YAIABVShrunkBoxV@12@ABVShrunkConvexHullNoScaleV@12@ABVPsMatTransformV@aos@shdfnd@2@ABT__m128@@AAT8@444PIAE5AAE@Z@4_NA 10189af3     GuGJKPenetrationWrapper.obj
 0003:00002af4       ?_ignore@?BC@???$gjkRelativePenetration@VConvexHullV@Gu@physx@@V123@@Gu@physx@@YAIABVConvexHullV@12@0ABVPsMatTransformV@aos@shdfnd@2@ABT__m128@@AAT7@333PIAE4AAE@Z@4_NA 10189af4     GuGJKPenetrationWrapper.obj
 0003:00002af5       ?_ignore@?BF@???$gjkRelativePenetration@VConvexHullV@Gu@physx@@V123@@Gu@physx@@YAIABVConvexHullV@12@0ABVPsMatTransformV@aos@shdfnd@2@ABT__m128@@AAT7@333PIAE4AAE@Z@4_NA 10189af5     GuGJKPenetrationWrapper.obj
 0003:00002af6       ?_ignore@?BJ@???$gjkRelativePenetration@VConvexHullV@Gu@physx@@V123@@Gu@physx@@YAIABVConvexHullV@12@0ABVPsMatTransformV@aos@shdfnd@2@ABT__m128@@AAT7@333PIAE4AAE@Z@4_NA 10189af6     GuGJKPenetrationWrapper.obj
 0003:00002af7       ?_ignore@?BC@???$gjkRelativePenetration@VShrunkConvexHullV@Gu@physx@@V123@@Gu@physx@@YAIABVShrunkConvexHullV@12@0ABVPsMatTransformV@aos@shdfnd@2@ABT__m128@@AAT7@333PIAE4AAE@Z@4_NA 10189af7     GuGJKPenetrationWrapper.obj
 0003:00002af8       ?_ignore@?BF@???$gjkRelativePenetration@VShrunkConvexHullV@Gu@physx@@V123@@Gu@physx@@YAIABVShrunkConvexHullV@12@0ABVPsMatTransformV@aos@shdfnd@2@ABT__m128@@AAT7@333PIAE4AAE@Z@4_NA 10189af8     GuGJKPenetrationWrapper.obj
 0003:00002af9       ?_ignore@?BJ@???$gjkRelativePenetration@VShrunkConvexHullV@Gu@physx@@V123@@Gu@physx@@YAIABVShrunkConvexHullV@12@0ABVPsMatTransformV@aos@shdfnd@2@ABT__m128@@AAT7@333PIAE4AAE@Z@4_NA 10189af9     GuGJKPenetrationWrapper.obj
 0003:00002afa       ?_ignore@?BC@???$gjkRelativePenetration@VShrunkConvexHullV@Gu@physx@@VShrunkConvexHullNoScaleV@23@@Gu@physx@@YAIABVShrunkConvexHullV@12@ABVShrunkConvexHullNoScaleV@12@ABVPsMatTransformV@aos@shdfnd@2@ABT__m128@@AAT8@444PIAE5AAE@Z@4_NA 10189afa     GuGJKPenetrationWrapper.obj
 0003:00002afb       ?_ignore@?BF@???$gjkRelativePenetration@VShrunkConvexHullV@Gu@physx@@VShrunkConvexHullNoScaleV@23@@Gu@physx@@YAIABVShrunkConvexHullV@12@ABVShrunkConvexHullNoScaleV@12@ABVPsMatTransformV@aos@shdfnd@2@ABT__m128@@AAT8@444PIAE5AAE@Z@4_NA 10189afb     GuGJKPenetrationWrapper.obj
 0003:00002afc       ?_ignore@?BJ@???$gjkRelativePenetration@VShrunkConvexHullV@Gu@physx@@VShrunkConvexHullNoScaleV@23@@Gu@physx@@YAIABVShrunkConvexHullV@12@ABVShrunkConvexHullNoScaleV@12@ABVPsMatTransformV@aos@shdfnd@2@ABT__m128@@AAT8@444PIAE5AAE@Z@4_NA 10189afc     GuGJKPenetrationWrapper.obj
 0003:00002afd       ?_ignore@?BC@???$gjkRelativePenetration@VShrunkConvexHullNoScaleV@Gu@physx@@VShrunkConvexHullV@23@@Gu@physx@@YAIABVShrunkConvexHullNoScaleV@12@ABVShrunkConvexHullV@12@ABVPsMatTransformV@aos@shdfnd@2@ABT__m128@@AAT8@444PIAE5AAE@Z@4_NA 10189afd     GuGJKPenetrationWrapper.obj
 0003:00002afe       ?_ignore@?BF@???$gjkRelativePenetration@VShrunkConvexHullNoScaleV@Gu@physx@@VShrunkConvexHullV@23@@Gu@physx@@YAIABVShrunkConvexHullNoScaleV@12@ABVShrunkConvexHullV@12@ABVPsMatTransformV@aos@shdfnd@2@ABT__m128@@AAT8@444PIAE5AAE@Z@4_NA 10189afe     GuGJKPenetrationWrapper.obj
 0003:00002aff       ?_ignore@?BJ@???$gjkRelativePenetration@VShrunkConvexHullNoScaleV@Gu@physx@@VShrunkConvexHullV@23@@Gu@physx@@YAIABVShrunkConvexHullNoScaleV@12@ABVShrunkConvexHullV@12@ABVPsMatTransformV@aos@shdfnd@2@ABT__m128@@AAT8@444PIAE5AAE@Z@4_NA 10189aff     GuGJKPenetrationWrapper.obj
 0003:00002b00       ?_ignore@?BC@???$gjkRelativePenetration@VShrunkConvexHullNoScaleV@Gu@physx@@V123@@Gu@physx@@YAIABVShrunkConvexHullNoScaleV@12@0ABVPsMatTransformV@aos@shdfnd@2@ABT__m128@@AAT7@333PIAE4AAE@Z@4_NA 10189b00     GuGJKPenetrationWrapper.obj
 0003:00002b01       ?_ignore@?BF@???$gjkRelativePenetration@VShrunkConvexHullNoScaleV@Gu@physx@@V123@@Gu@physx@@YAIABVShrunkConvexHullNoScaleV@12@0ABVPsMatTransformV@aos@shdfnd@2@ABT__m128@@AAT7@333PIAE4AAE@Z@4_NA 10189b01     GuGJKPenetrationWrapper.obj
 0003:00002b02       ?_ignore@?BJ@???$gjkRelativePenetration@VShrunkConvexHullNoScaleV@Gu@physx@@V123@@Gu@physx@@YAIABVShrunkConvexHullNoScaleV@12@0ABVPsMatTransformV@aos@shdfnd@2@ABT__m128@@AAT7@333PIAE4AAE@Z@4_NA 10189b02     GuGJKPenetrationWrapper.obj
 0003:00002b03       ?_ignore@?BC@???$gjkRelativePenetration@VTriangleV@Gu@physx@@VBoxV@23@@Gu@physx@@YAIABVTriangleV@12@ABVBoxV@12@ABVPsMatTransformV@aos@shdfnd@2@ABT__m128@@AAT8@444PIAE5AAE@Z@4_NA 10189b03     GuGJKPenetrationWrapper.obj
 0003:00002b04       ?_ignore@?BF@???$gjkRelativePenetration@VTriangleV@Gu@physx@@VBoxV@23@@Gu@physx@@YAIABVTriangleV@12@ABVBoxV@12@ABVPsMatTransformV@aos@shdfnd@2@ABT__m128@@AAT8@444PIAE5AAE@Z@4_NA 10189b04     GuGJKPenetrationWrapper.obj
 0003:00002b05       ?_ignore@?BJ@???$gjkRelativePenetration@VTriangleV@Gu@physx@@VBoxV@23@@Gu@physx@@YAIABVTriangleV@12@ABVBoxV@12@ABVPsMatTransformV@aos@shdfnd@2@ABT__m128@@AAT8@444PIAE5AAE@Z@4_NA 10189b05     GuGJKPenetrationWrapper.obj
 0003:00002b06       ?_ignore@?BC@???$gjkRelativePenetration@VTriangleV@Gu@physx@@VCapsuleV@23@@Gu@physx@@YAIABVTriangleV@12@ABVCapsuleV@12@ABVPsMatTransformV@aos@shdfnd@2@ABT__m128@@AAT8@444PIAE5AAE@Z@4_NA 10189b06     GuGJKPenetrationWrapper.obj
 0003:00002b07       ?_ignore@?BF@???$gjkRelativePenetration@VTriangleV@Gu@physx@@VCapsuleV@23@@Gu@physx@@YAIABVTriangleV@12@ABVCapsuleV@12@ABVPsMatTransformV@aos@shdfnd@2@ABT__m128@@AAT8@444PIAE5AAE@Z@4_NA 10189b07     GuGJKPenetrationWrapper.obj
 0003:00002b08       ?_ignore@?BJ@???$gjkRelativePenetration@VTriangleV@Gu@physx@@VCapsuleV@23@@Gu@physx@@YAIABVTriangleV@12@ABVCapsuleV@12@ABVPsMatTransformV@aos@shdfnd@2@ABT__m128@@AAT8@444PIAE5AAE@Z@4_NA 10189b08     GuGJKPenetrationWrapper.obj
 0003:00002b09       ?_ignore@?BC@???$gjkRelativePenetration@VTriangleV@Gu@physx@@VConvexHullV@23@@Gu@physx@@YAIABVTriangleV@12@ABVConvexHullV@12@ABVPsMatTransformV@aos@shdfnd@2@ABT__m128@@AAT8@444PIAE5AAE@Z@4_NA 10189b09     GuGJKPenetrationWrapper.obj
 0003:00002b0a       ?_ignore@?BF@???$gjkRelativePenetration@VTriangleV@Gu@physx@@VConvexHullV@23@@Gu@physx@@YAIABVTriangleV@12@ABVConvexHullV@12@ABVPsMatTransformV@aos@shdfnd@2@ABT__m128@@AAT8@444PIAE5AAE@Z@4_NA 10189b0a     GuGJKPenetrationWrapper.obj
 0003:00002b0b       ?_ignore@?BJ@???$gjkRelativePenetration@VTriangleV@Gu@physx@@VConvexHullV@23@@Gu@physx@@YAIABVTriangleV@12@ABVConvexHullV@12@ABVPsMatTransformV@aos@shdfnd@2@ABT__m128@@AAT8@444PIAE5AAE@Z@4_NA 10189b0b     GuGJKPenetrationWrapper.obj
 0003:00002b0c       ?_ignore@?BC@???$gjkRelativePenetration@VCapsuleV@Gu@physx@@V123@@Gu@physx@@YAIABVCapsuleV@12@0ABVPsMatTransformV@aos@shdfnd@2@ABT__m128@@AAT7@333PIAE4AAE@Z@4_NA 10189b0c     GuGJKPenetrationWrapper.obj
 0003:00002b0d       ?_ignore@?BF@???$gjkRelativePenetration@VCapsuleV@Gu@physx@@V123@@Gu@physx@@YAIABVCapsuleV@12@0ABVPsMatTransformV@aos@shdfnd@2@ABT__m128@@AAT7@333PIAE4AAE@Z@4_NA 10189b0d     GuGJKPenetrationWrapper.obj
 0003:00002b0e       ?_ignore@?BJ@???$gjkRelativePenetration@VCapsuleV@Gu@physx@@V123@@Gu@physx@@YAIABVCapsuleV@12@0ABVPsMatTransformV@aos@shdfnd@2@ABT__m128@@AAT7@333PIAE4AAE@Z@4_NA 10189b0e     GuGJKPenetrationWrapper.obj
 0003:00002b0f       ?_ignore@?BC@???$gjkRelativePenetration@VCapsuleV@Gu@physx@@VBoxV@23@@Gu@physx@@YAIABVCapsuleV@12@ABVBoxV@12@ABVPsMatTransformV@aos@shdfnd@2@ABT__m128@@AAT8@444PIAE5AAE@Z@4_NA 10189b0f     GuGJKPenetrationWrapper.obj
 0003:00002b10       ?_ignore@?BF@???$gjkRelativePenetration@VCapsuleV@Gu@physx@@VBoxV@23@@Gu@physx@@YAIABVCapsuleV@12@ABVBoxV@12@ABVPsMatTransformV@aos@shdfnd@2@ABT__m128@@AAT8@444PIAE5AAE@Z@4_NA 10189b10     GuGJKPenetrationWrapper.obj
 0003:00002b11       ?_ignore@?BJ@???$gjkRelativePenetration@VCapsuleV@Gu@physx@@VBoxV@23@@Gu@physx@@YAIABVCapsuleV@12@ABVBoxV@12@ABVPsMatTransformV@aos@shdfnd@2@ABT__m128@@AAT8@444PIAE5AAE@Z@4_NA 10189b11     GuGJKPenetrationWrapper.obj
 0003:00002b12       ?_ignore@?BC@???$gjkRelativePenetration@VCapsuleV@Gu@physx@@VConvexHullV@23@@Gu@physx@@YAIABVCapsuleV@12@ABVConvexHullV@12@ABVPsMatTransformV@aos@shdfnd@2@ABT__m128@@AAT8@444PIAE5AAE@Z@4_NA 10189b12     GuGJKPenetrationWrapper.obj
 0003:00002b13       ?_ignore@?BF@???$gjkRelativePenetration@VCapsuleV@Gu@physx@@VConvexHullV@23@@Gu@physx@@YAIABVCapsuleV@12@ABVConvexHullV@12@ABVPsMatTransformV@aos@shdfnd@2@ABT__m128@@AAT8@444PIAE5AAE@Z@4_NA 10189b13     GuGJKPenetrationWrapper.obj
 0003:00002b14       ?_ignore@?BJ@???$gjkRelativePenetration@VCapsuleV@Gu@physx@@VConvexHullV@23@@Gu@physx@@YAIABVCapsuleV@12@ABVConvexHullV@12@ABVPsMatTransformV@aos@shdfnd@2@ABT__m128@@AAT8@444PIAE5AAE@Z@4_NA 10189b14     GuGJKPenetrationWrapper.obj
 0003:00002c93       ?_ignore@?4???$gjkRelative@VCapsuleV@Gu@physx@@VConvexHullV@23@@Gu@physx@@YAIABVCapsuleV@12@ABVConvexHullV@12@ABVPsMatTransformV@aos@shdfnd@2@AAT__m128@@333@Z@4_NA 10189c93     GuGJKWrapper.obj
 0003:00002c94       ?_ignore@?4???$gjkRelative@VCapsuleV@Gu@physx@@VBoxV@23@@Gu@physx@@YAIABVCapsuleV@12@ABVBoxV@12@ABVPsMatTransformV@aos@shdfnd@2@AAT__m128@@333@Z@4_NA 10189c94     GuGJKWrapper.obj
 0003:00002c95       ?_ignore@?4???$gjkRelative@VBoxV@Gu@physx@@V123@@Gu@physx@@YAIABVBoxV@12@0ABVPsMatTransformV@aos@shdfnd@2@AAT__m128@@222@Z@4_NA 10189c95     GuGJKWrapper.obj
 0003:00002c96       ?_ignore@?4???$gjkRelative@VBoxV@Gu@physx@@VConvexHullV@23@@Gu@physx@@YAIABVBoxV@12@ABVConvexHullV@12@ABVPsMatTransformV@aos@shdfnd@2@AAT__m128@@333@Z@4_NA 10189c96     GuGJKWrapper.obj
 0003:00002c97       ?_ignore@?4???$gjkRelative@VConvexHullV@Gu@physx@@V123@@Gu@physx@@YAIABVConvexHullV@12@0ABVPsMatTransformV@aos@shdfnd@2@AAT__m128@@222@Z@4_NA 10189c97     GuGJKWrapper.obj
 0003:00002c98       ?_ignore@?4???$gjkRelative@VTriangleV@Gu@physx@@VBoxV@23@@Gu@physx@@YAIABVTriangleV@12@ABVBoxV@12@ABVPsMatTransformV@aos@shdfnd@2@AAT__m128@@333@Z@4_NA 10189c98     GuGJKWrapper.obj
 0003:00002c99       ?_ignore@?4???$gjkRelative@VTriangleV@Gu@physx@@VConvexHullV@23@@Gu@physx@@YAIABVTriangleV@12@ABVConvexHullV@12@ABVPsMatTransformV@aos@shdfnd@2@AAT__m128@@333@Z@4_NA 10189c99     GuGJKWrapper.obj
 0003:00002c9a       ?_ignore@?4???$gjkLocal@VCapsuleV@Gu@physx@@VConvexHullV@23@@Gu@physx@@YAIABVCapsuleV@12@ABVConvexHullV@12@AAT__m128@@222@Z@4_NA 10189c9a     GuGJKWrapper.obj
 0003:00002c9b       ?_ignore@?4???$gjkLocal@VTriangleV@Gu@physx@@VBoxV@23@@Gu@physx@@YAIABVTriangleV@12@ABVBoxV@12@AAT__m128@@222@Z@4_NA 10189c9b     GuGJKWrapper.obj
 0003:00002c9c       ?_ignore@?4???$gjkLocal@VTriangleV@Gu@physx@@VConvexHullV@23@@Gu@physx@@YAIABVTriangleV@12@ABVConvexHullV@12@AAT__m128@@222@Z@4_NA 10189c9c     GuGJKWrapper.obj
 0003:00002c9d       ?_ignore@?BD@???$_gjkLocalRayCast@VTriangleV@Gu@physx@@VCapsuleV@23@@Gu@physx@@YA_NAAVTriangleV@12@AAVCapsuleV@12@ABT__m128@@22AAT5@33M@Z@4_NA 10189c9d     GuGJKWrapper.obj
 0003:00002c9e       ?_ignore@?BC@???$gjkLocalPenetration@VTriangleV@Gu@physx@@VCapsuleV@23@@Gu@physx@@YAIABVTriangleV@12@ABVCapsuleV@12@ABT__m128@@AAT5@333PIAE4AAE_N@Z@4_NA 10189c9e     GuGJKWrapper.obj
 0003:00002c9f       ?_ignore@?BK@???$gjkLocalPenetration@VTriangleV@Gu@physx@@VCapsuleV@23@@Gu@physx@@YAIABVTriangleV@12@ABVCapsuleV@12@ABT__m128@@AAT5@333PIAE4AAE_N@Z@4_NA 10189c9f     GuGJKWrapper.obj
 0003:00002ca0       ?_ignore@?BO@???$gjkLocalPenetration@VTriangleV@Gu@physx@@VCapsuleV@23@@Gu@physx@@YAIABVTriangleV@12@ABVCapsuleV@12@ABT__m128@@AAT5@333PIAE4AAE_N@Z@4_NA 10189ca0     GuGJKWrapper.obj
 0003:00002ca1       ?_ignore@?BD@???$_gjkLocalRayCast@VTriangleV@Gu@physx@@VBoxV@23@@Gu@physx@@YA_NAAVTriangleV@12@AAVBoxV@12@ABT__m128@@22AAT5@33M@Z@4_NA 10189ca1     GuGJKWrapper.obj
 0003:00002ca2       ?_ignore@?BC@???$gjkLocalPenetration@VTriangleV@Gu@physx@@VShrunkBoxV@23@@Gu@physx@@YAIABVTriangleV@12@ABVShrunkBoxV@12@ABT__m128@@AAT5@333PIAE4AAE_N@Z@4_NA 10189ca2     GuGJKWrapper.obj
 0003:00002ca3       ?_ignore@?BK@???$gjkLocalPenetration@VTriangleV@Gu@physx@@VShrunkBoxV@23@@Gu@physx@@YAIABVTriangleV@12@ABVShrunkBoxV@12@ABT__m128@@AAT5@333PIAE4AAE_N@Z@4_NA 10189ca3     GuGJKWrapper.obj
 0003:00002ca4       ?_ignore@?BO@???$gjkLocalPenetration@VTriangleV@Gu@physx@@VShrunkBoxV@23@@Gu@physx@@YAIABVTriangleV@12@ABVShrunkBoxV@12@ABT__m128@@AAT5@333PIAE4AAE_N@Z@4_NA 10189ca4     GuGJKWrapper.obj
 0003:00002ca5       ?_ignore@?BD@???$_gjkLocalRayCast@VTriangleV@Gu@physx@@VConvexHullV@23@@Gu@physx@@YA_NAAVTriangleV@12@AAVConvexHullV@12@ABT__m128@@22AAT5@33M@Z@4_NA 10189ca5     GuGJKWrapper.obj
 0003:00002ca6       ?_ignore@?BC@???$gjkLocalPenetration@VTriangleV@Gu@physx@@VShrunkConvexHullV@23@@Gu@physx@@YAIABVTriangleV@12@ABVShrunkConvexHullV@12@ABT__m128@@AAT5@333PIAE4AAE_N@Z@4_NA 10189ca6     GuGJKWrapper.obj
 0003:00002ca7       ?_ignore@?BK@???$gjkLocalPenetration@VTriangleV@Gu@physx@@VShrunkConvexHullV@23@@Gu@physx@@YAIABVTriangleV@12@ABVShrunkConvexHullV@12@ABT__m128@@AAT5@333PIAE4AAE_N@Z@4_NA 10189ca7     GuGJKWrapper.obj
 0003:00002ca8       ?_ignore@?BO@???$gjkLocalPenetration@VTriangleV@Gu@physx@@VShrunkConvexHullV@23@@Gu@physx@@YAIABVTriangleV@12@ABVShrunkConvexHullV@12@ABT__m128@@AAT5@333PIAE4AAE_N@Z@4_NA 10189ca8     GuGJKWrapper.obj
 0003:00002ca9       ?_ignore@?BD@???$_gjkLocalRayCast@VCapsuleV@Gu@physx@@VBoxV@23@@Gu@physx@@YA_NAAVCapsuleV@12@AAVBoxV@12@ABT__m128@@22AAT5@33M@Z@4_NA 10189ca9     GuGJKWrapper.obj
 0003:00002caa       ?_ignore@?BD@???$_gjkLocalRayCast@VCapsuleV@Gu@physx@@VConvexHullV@23@@Gu@physx@@YA_NAAVCapsuleV@12@AAVConvexHullV@12@ABT__m128@@22AAT5@33M@Z@4_NA 10189caa     GuGJKWrapper.obj
 0003:00002cab       ?_ignore@?BD@???$_gjkRelativeRayCast@VTriangleV@Gu@physx@@VBoxV@23@@Gu@physx@@YA_NAAVTriangleV@12@AAVBoxV@12@ABVPsMatTransformV@aos@shdfnd@2@ABT__m128@@33AAT8@44M@Z@4_NA 10189cab     GuGJKWrapper.obj
 0003:00002cac       ?_ignore@?BC@???$gjkRelativePenetration@VTriangleV@Gu@physx@@VShrunkBoxV@23@@Gu@physx@@YAIABVTriangleV@12@ABVShrunkBoxV@12@ABVPsMatTransformV@aos@shdfnd@2@ABT__m128@@AAT8@444PIAE5AAE@Z@4_NA 10189cac     GuGJKWrapper.obj
 0003:00002cad       ?_ignore@?BF@???$gjkRelativePenetration@VTriangleV@Gu@physx@@VShrunkBoxV@23@@Gu@physx@@YAIABVTriangleV@12@ABVShrunkBoxV@12@ABVPsMatTransformV@aos@shdfnd@2@ABT__m128@@AAT8@444PIAE5AAE@Z@4_NA 10189cad     GuGJKWrapper.obj
 0003:00002cae       ?_ignore@?BJ@???$gjkRelativePenetration@VTriangleV@Gu@physx@@VShrunkBoxV@23@@Gu@physx@@YAIABVTriangleV@12@ABVShrunkBoxV@12@ABVPsMatTransformV@aos@shdfnd@2@ABT__m128@@AAT8@444PIAE5AAE@Z@4_NA 10189cae     GuGJKWrapper.obj
 0003:00002caf       ?_ignore@?BD@???$_gjkRelativeRayCast@VTriangleV@Gu@physx@@VCapsuleV@23@@Gu@physx@@YA_NAAVTriangleV@12@AAVCapsuleV@12@ABVPsMatTransformV@aos@shdfnd@2@ABT__m128@@33AAT8@44M@Z@4_NA 10189caf     GuGJKWrapper.obj
 0003:00002cb0       ?_ignore@?BD@???$_gjkRelativeRayCast@VTriangleV@Gu@physx@@VConvexHullV@23@@Gu@physx@@YA_NAAVTriangleV@12@AAVConvexHullV@12@ABVPsMatTransformV@aos@shdfnd@2@ABT__m128@@33AAT8@44M@Z@4_NA 10189cb0     GuGJKWrapper.obj
 0003:00002cb1       ?_ignore@?BC@???$gjkRelativePenetration@VTriangleV@Gu@physx@@VShrunkConvexHullV@23@@Gu@physx@@YAIABVTriangleV@12@ABVShrunkConvexHullV@12@ABVPsMatTransformV@aos@shdfnd@2@ABT__m128@@AAT8@444PIAE5AAE@Z@4_NA 10189cb1     GuGJKWrapper.obj
 0003:00002cb2       ?_ignore@?BF@???$gjkRelativePenetration@VTriangleV@Gu@physx@@VShrunkConvexHullV@23@@Gu@physx@@YAIABVTriangleV@12@ABVShrunkConvexHullV@12@ABVPsMatTransformV@aos@shdfnd@2@ABT__m128@@AAT8@444PIAE5AAE@Z@4_NA 10189cb2     GuGJKWrapper.obj
 0003:00002cb3       ?_ignore@?BJ@???$gjkRelativePenetration@VTriangleV@Gu@physx@@VShrunkConvexHullV@23@@Gu@physx@@YAIABVTriangleV@12@ABVShrunkConvexHullV@12@ABVPsMatTransformV@aos@shdfnd@2@ABT__m128@@AAT8@444PIAE5AAE@Z@4_NA 10189cb3     GuGJKWrapper.obj
 0003:00002cb4       ?_ignore@?BD@???$_gjkRelativeRayCast@VCapsuleV@Gu@physx@@V123@@Gu@physx@@YA_NAAVCapsuleV@12@0ABVPsMatTransformV@aos@shdfnd@2@ABT__m128@@22AAT7@33M@Z@4_NA 10189cb4     GuGJKWrapper.obj
 0003:00002cb5       ?_ignore@?BD@???$_gjkRelativeRayCast@VCapsuleV@Gu@physx@@VBoxV@23@@Gu@physx@@YA_NAAVCapsuleV@12@AAVBoxV@12@ABVPsMatTransformV@aos@shdfnd@2@ABT__m128@@33AAT8@44M@Z@4_NA 10189cb5     GuGJKWrapper.obj
 0003:00002cb6       ?_ignore@?BC@???$gjkRelativePenetration@VCapsuleV@Gu@physx@@VShrunkBoxV@23@@Gu@physx@@YAIABVCapsuleV@12@ABVShrunkBoxV@12@ABVPsMatTransformV@aos@shdfnd@2@ABT__m128@@AAT8@444PIAE5AAE@Z@4_NA 10189cb6     GuGJKWrapper.obj
 0003:00002cb7       ?_ignore@?BF@???$gjkRelativePenetration@VCapsuleV@Gu@physx@@VShrunkBoxV@23@@Gu@physx@@YAIABVCapsuleV@12@ABVShrunkBoxV@12@ABVPsMatTransformV@aos@shdfnd@2@ABT__m128@@AAT8@444PIAE5AAE@Z@4_NA 10189cb7     GuGJKWrapper.obj
 0003:00002cb8       ?_ignore@?BJ@???$gjkRelativePenetration@VCapsuleV@Gu@physx@@VShrunkBoxV@23@@Gu@physx@@YAIABVCapsuleV@12@ABVShrunkBoxV@12@ABVPsMatTransformV@aos@shdfnd@2@ABT__m128@@AAT8@444PIAE5AAE@Z@4_NA 10189cb8     GuGJKWrapper.obj
 0003:00002cb9       ?_ignore@?BD@???$_gjkRelativeRayCast@VCapsuleV@Gu@physx@@VConvexHullV@23@@Gu@physx@@YA_NAAVCapsuleV@12@AAVConvexHullV@12@ABVPsMatTransformV@aos@shdfnd@2@ABT__m128@@33AAT8@44M@Z@4_NA 10189cb9     GuGJKWrapper.obj
 0003:00002cba       ?_ignore@?BC@???$gjkRelativePenetration@VCapsuleV@Gu@physx@@VShrunkConvexHullV@23@@Gu@physx@@YAIABVCapsuleV@12@ABVShrunkConvexHullV@12@ABVPsMatTransformV@aos@shdfnd@2@ABT__m128@@AAT8@444PIAE5AAE@Z@4_NA 10189cba     GuGJKWrapper.obj
 0003:00002cbb       ?_ignore@?BF@???$gjkRelativePenetration@VCapsuleV@Gu@physx@@VShrunkConvexHullV@23@@Gu@physx@@YAIABVCapsuleV@12@ABVShrunkConvexHullV@12@ABVPsMatTransformV@aos@shdfnd@2@ABT__m128@@AAT8@444PIAE5AAE@Z@4_NA 10189cbb     GuGJKWrapper.obj
 0003:00002cbc       ?_ignore@?BJ@???$gjkRelativePenetration@VCapsuleV@Gu@physx@@VShrunkConvexHullV@23@@Gu@physx@@YAIABVCapsuleV@12@ABVShrunkConvexHullV@12@ABVPsMatTransformV@aos@shdfnd@2@ABT__m128@@AAT8@444PIAE5AAE@Z@4_NA 10189cbc     GuGJKWrapper.obj
 0003:00002cbd       ?_ignore@?BD@???$_gjkRelativeRayCast@VBoxV@Gu@physx@@V123@@Gu@physx@@YA_NAAVBoxV@12@0ABVPsMatTransformV@aos@shdfnd@2@ABT__m128@@22AAT7@33M@Z@4_NA 10189cbd     GuGJKWrapper.obj
 0003:00002cbe       ?_ignore@?BD@???$_gjkRelativeRayCast@VBoxV@Gu@physx@@VConvexHullV@23@@Gu@physx@@YA_NAAVBoxV@12@AAVConvexHullV@12@ABVPsMatTransformV@aos@shdfnd@2@ABT__m128@@33AAT8@44M@Z@4_NA 10189cbe     GuGJKWrapper.obj
 0003:00002cbf       ?_ignore@?BD@???$_gjkRelativeRayCast@VConvexHullV@Gu@physx@@V123@@Gu@physx@@YA_NAAVConvexHullV@12@0ABVPsMatTransformV@aos@shdfnd@2@ABT__m128@@22AAT7@33M@Z@4_NA 10189cbf     GuGJKWrapper.obj
 0003:00002fb3       ?_ignore@?5???1?$RayRTreeCallback@$0A@$0A@@@UAE@XZ@4_NA 10189fb3     GuMidphase.obj
 0003:00002fb4       ?_ignore@?2??processResults@?$RayRTreeCallback@$0A@$0A@@@UAE_NIPAIAAM@Z@4_NA 10189fb4     GuMidphase.obj
 0003:00002fb5       ?_ignore@?3??processResults@?$RayRTreeCallback@$0A@$0A@@@UAE_NIPAIAAM@Z@4_NA 10189fb5     GuMidphase.obj
 0003:00002fb6       ?_ignore@?BM@??processResults@?$RayRTreeCallback@$0A@$0A@@@UAE_NIPAIAAM@Z@4_NA 10189fb6     GuMidphase.obj
 0003:00002fb7       ?_ignore@?2???0?$RayRTreeCallback@$0A@$0A@@@QAE@ABURTreeMidphaseData@Gu@physx@@AAU?$MeshHitCallback@UPxRaycastHit@physx@@@34@IPAI2ABVPxVec3@4@3M_NPBV64@@Z@4_NA 10189fb7     GuMidphase.obj
 0003:00002fb8       ?_ignore@?5???1?$RayRTreeCallback@$00$00@@UAE@XZ@4_NA 10189fb8     GuMidphase.obj
 0003:00002fb9       ?_ignore@?2??processResults@?$RayRTreeCallback@$00$00@@UAE_NIPAIAAM@Z@4_NA 10189fb9     GuMidphase.obj
 0003:00002fba       ?_ignore@?3??processResults@?$RayRTreeCallback@$00$00@@UAE_NIPAIAAM@Z@4_NA 10189fba     GuMidphase.obj
 0003:00002fbb       ?_ignore@?BM@??processResults@?$RayRTreeCallback@$00$00@@UAE_NIPAIAAM@Z@4_NA 10189fbb     GuMidphase.obj
 0003:00002fbc       ?_ignore@?2???0?$RayRTreeCallback@$00$00@@QAE@ABURTreeMidphaseData@Gu@physx@@AAU?$MeshHitCallback@UPxRaycastHit@physx@@@34@IPAI2ABVPxVec3@4@3M_NPBV64@@Z@4_NA 10189fbc     GuMidphase.obj
 0003:00002fbd       ?_ignore@?5???1?$RayRTreeCallback@$0A@$00@@UAE@XZ@4_NA 10189fbd     GuMidphase.obj
 0003:00002fbe       ?_ignore@?2??processResults@?$RayRTreeCallback@$0A@$00@@UAE_NIPAIAAM@Z@4_NA 10189fbe     GuMidphase.obj
 0003:00002fbf       ?_ignore@?3??processResults@?$RayRTreeCallback@$0A@$00@@UAE_NIPAIAAM@Z@4_NA 10189fbf     GuMidphase.obj
 0003:00002fc0       ?_ignore@?BM@??processResults@?$RayRTreeCallback@$0A@$00@@UAE_NIPAIAAM@Z@4_NA 10189fc0     GuMidphase.obj
 0003:00002fc1       ?_ignore@?2???0?$RayRTreeCallback@$0A@$00@@QAE@ABURTreeMidphaseData@Gu@physx@@AAU?$MeshHitCallback@UPxRaycastHit@physx@@@34@IPAI2ABVPxVec3@4@3M_NPBV64@@Z@4_NA 10189fc1     GuMidphase.obj
 0003:00002fc2       ?_ignore@?5???1?$RayRTreeCallback@$00$0A@@@UAE@XZ@4_NA 10189fc2     GuMidphase.obj
 0003:00002fc3       ?_ignore@?2??processResults@?$RayRTreeCallback@$00$0A@@@UAE_NIPAIAAM@Z@4_NA 10189fc3     GuMidphase.obj
 0003:00002fc4       ?_ignore@?3??processResults@?$RayRTreeCallback@$00$0A@@@UAE_NIPAIAAM@Z@4_NA 10189fc4     GuMidphase.obj
 0003:00002fc5       ?_ignore@?BM@??processResults@?$RayRTreeCallback@$00$0A@@@UAE_NIPAIAAM@Z@4_NA 10189fc5     GuMidphase.obj
 0003:00002fc6       ?_ignore@?2???0?$RayRTreeCallback@$00$0A@@@QAE@ABURTreeMidphaseData@Gu@physx@@AAU?$MeshHitCallback@UPxRaycastHit@physx@@@34@IPAI2ABVPxVec3@4@3M_NPBV64@@Z@4_NA 10189fc6     GuMidphase.obj
 0003:00002fc7       ?_ignore@?2??getInverse@PxTransform@physx@@QBE?AV23@XZ@4_NA 10189fc7     GuOverlapTestsMesh.obj
 0003:00003055       ?_ignore@?BG@??processHit@?$IntersectAnyVsMeshCallback@$00$0A@@@UAE_NABUPxRaycastHit@physx@@ABVPxVec3@4@11AAMPBI@Z@4_NA 1018a055     GuOverlapTestsMesh.obj
 0003:00003056       ?_ignore@?BG@??processHit@?$IntersectAnyVsMeshCallback@$00$00@@UAE_NABUPxRaycastHit@physx@@ABVPxVec3@4@11AAMPBI@Z@4_NA 1018a056     GuOverlapTestsMesh.obj
 0003:00003057       ?_ignore@?BG@??processHit@?$IntersectAnyVsMeshCallback@$0A@$0A@@@UAE_NABUPxRaycastHit@physx@@ABVPxVec3@4@11AAMPBI@Z@4_NA 1018a057     GuOverlapTestsMesh.obj
 0003:00003058       ?_ignore@?BG@??processHit@?$IntersectAnyVsMeshCallback@$0A@$00@@UAE_NABUPxRaycastHit@physx@@ABVPxVec3@4@11AAMPBI@Z@4_NA 1018a058     GuOverlapTestsMesh.obj
 0003:0000305f       ?_ignore@?2??getNode@RTreePage@Gu@physx@@QBEXIAAURTreeNodeQ@34@@Z@4_NA 1018a05f     GuRTree.obj
 0003:00003162       ?_ignore@?2???$traverseRay@$0A@@RTree@Gu@physx@@QBEXABVPxVec3@3@0IPAIPAUCallbackRaycast@123@PBV43@M@Z@4_NA 1018a162     GuRTreeQueries.obj
 0003:00003163       ?_ignore@?3???$traverseRay@$0A@@RTree@Gu@physx@@QBEXABVPxVec3@3@0IPAIPAUCallbackRaycast@123@PBV43@M@Z@4_NA 1018a163     GuRTreeQueries.obj
 0003:00003164       ?_ignore@?4???$traverseRay@$0A@@RTree@Gu@physx@@QBEXABVPxVec3@3@0IPAIPAUCallbackRaycast@123@PBV43@M@Z@4_NA 1018a164     GuRTreeQueries.obj
 0003:00003165       ?_ignore@?9???$traverseRay@$0A@@RTree@Gu@physx@@QBEXABVPxVec3@3@0IPAIPAUCallbackRaycast@123@PBV43@M@Z@4_NA 1018a165     GuRTreeQueries.obj
 0003:00003166       ?_ignore@?L@???$traverseRay@$0A@@RTree@Gu@physx@@QBEXABVPxVec3@3@0IPAIPAUCallbackRaycast@123@PBV43@M@Z@4_NA 1018a166     GuRTreeQueries.obj
 0003:00003167       ?_ignore@?BH@???$traverseRay@$0A@@RTree@Gu@physx@@QBEXABVPxVec3@3@0IPAIPAUCallbackRaycast@123@PBV43@M@Z@4_NA 1018a167     GuRTreeQueries.obj
 0003:00003168       ?_ignore@?2???$traverseRay@$00@RTree@Gu@physx@@QBEXABVPxVec3@3@0IPAIPAUCallbackRaycast@123@PBV43@M@Z@4_NA 1018a168     GuRTreeQueries.obj
 0003:00003169       ?_ignore@?3???$traverseRay@$00@RTree@Gu@physx@@QBEXABVPxVec3@3@0IPAIPAUCallbackRaycast@123@PBV43@M@Z@4_NA 1018a169     GuRTreeQueries.obj
 0003:0000316a       ?_ignore@?4???$traverseRay@$00@RTree@Gu@physx@@QBEXABVPxVec3@3@0IPAIPAUCallbackRaycast@123@PBV43@M@Z@4_NA 1018a16a     GuRTreeQueries.obj
 0003:0000316b       ?_ignore@?9???$traverseRay@$00@RTree@Gu@physx@@QBEXABVPxVec3@3@0IPAIPAUCallbackRaycast@123@PBV43@M@Z@4_NA 1018a16b     GuRTreeQueries.obj
 0003:0000316c       ?_ignore@?L@???$traverseRay@$00@RTree@Gu@physx@@QBEXABVPxVec3@3@0IPAIPAUCallbackRaycast@123@PBV43@M@Z@4_NA 1018a16c     GuRTreeQueries.obj
 0003:0000316d       ?_ignore@?BH@???$traverseRay@$00@RTree@Gu@physx@@QBEXABVPxVec3@3@0IPAIPAUCallbackRaycast@123@PBV43@M@Z@4_NA 1018a16d     GuRTreeQueries.obj
 0003:0000316e       ?_ignore@?2??rotateInv@PxTransform@physx@@QBE?AVPxVec3@3@ABV43@@Z@4_NA 1018a16e     GuSweepsMesh.obj
 0003:000031e3       ?_ignore@?2???0PxMeshScale@physx@@QAE@ABVPxVec3@2@ABVPxQuat@2@@Z@4_NA 1018a1e3     GuSweepsMesh.obj
 0003:000031e4       ?_ignore@?2??transformBounds@FastVertex2ShapeScaling@Cm@physx@@QBE?AVPxBounds3@4@ABV54@@Z@4_NA 1018a1e4     GuSweepsMesh.obj
 0003:000031e5       ?_ignore@?2???0PsTransformV@aos@shdfnd@physx@@QAE@ABT__m128@@0@Z@4_NA 1018a1e5     GuSweepsMesh.obj
 0003:000031e6       ?_ignore@?2??transform@PsTransformV@aos@shdfnd@physx@@QBE?AT__m128@@ABT6@@Z@4_NA 1018a1e6     GuSweepsMesh.obj
 0003:000031e7       ?_ignore@?2??rotate@PsTransformV@aos@shdfnd@physx@@QBE?AT__m128@@ABT6@@Z@4_NA 1018a1e7     GuSweepsMesh.obj
 0003:000031e8       ?_ignore@?2??rotateInv@PsTransformV@aos@shdfnd@physx@@QBE?AT__m128@@ABT6@@Z@4_NA 1018a1e8     GuSweepsMesh.obj
 0003:000031e9       ?_ignore@?2??transformInv@PsTransformV@aos@shdfnd@physx@@QBE?AV2345@ABV2345@@Z@4_NA 1018a1e9     GuSweepsMesh.obj
 0003:000031ea       ?_ignore@?3??transformInv@PsTransformV@aos@shdfnd@physx@@QBE?AV2345@ABV2345@@Z@4_NA 1018a1ea     GuSweepsMesh.obj
 0003:000031f3       ?_ignore@?2??isConvexVertex@HeightField@Gu@physx@@QBE_NIII@Z@4_NA 1018a1f3     GuHeightField.obj
 0003:000031f4       ?_ignore@?3??isConvexVertex@HeightField@Gu@physx@@QBE_NIII@Z@4_NA 1018a1f4     GuHeightField.obj
 0003:00003201       ?_ignore@?2??test@?$BitMapBase@VAllocator@shdfnd@physx@@@Cm@physx@@QBEHI@Z@4_NA 1018a201     GuHeightField.obj
 0003:00003202       ?_ignore@?2??set@?$BitMapBase@VAllocator@shdfnd@physx@@@Cm@physx@@QAEXI@Z@4_NA 1018a202     GuHeightField.obj
 0003:00003203       ?_ignore@?2??isConvexEdge@HeightField@Gu@physx@@QBE_NIIII@Z@4_NA 1018a203     GuHeightFieldUtil.obj
 0003:00003204       ?_ignore@?3??isConvexEdge@HeightField@Gu@physx@@QBE_NIIII@Z@4_NA 1018a204     GuHeightFieldUtil.obj
 0003:00003205       ?_ignore@?6??isConvexEdge@HeightField@Gu@physx@@QBE_NIIII@Z@4_NA 1018a205     GuHeightFieldUtil.obj
 0003:00003294       ?_ignore@?2???$PxClamp@H@physx@@YAHHHH@Z@4_NA 1018a294     GuHeightFieldUtil.obj
 0003:00003313       ?_ignore@?2??isInCache@EdgeCache@Gu@physx@@QAE_NEE@Z@4_NA 1018a313     GuOverlapTestsHF.obj
 0003:00003314       ?_ignore@?2??getInverse@PsTransformV@aos@shdfnd@physx@@QBE?AV2345@XZ@4_NA 1018a314     GuOverlapTestsHF.obj
 0003:00003326       ?_ignore@?L@???$traceSegment@UTriggerTraceSegmentCallback@Gu@physx@@$0A@$0A@$0A@@HeightFieldUtil@Gu@physx@@QBEXABVPxVec3@3@0PAUTriggerTraceSegmentCallback@23@PBV43@@Z@4_NA 1018a326     GuOverlapTestsHF.obj
 0003:00003327       ?_ignore@?BC@???$traceSegment@UTriggerTraceSegmentCallback@Gu@physx@@$0A@$0A@$0A@@HeightFieldUtil@Gu@physx@@QBEXABVPxVec3@3@0PAUTriggerTraceSegmentCallback@23@PBV43@@Z@4_NA 1018a327     GuOverlapTestsHF.obj
 0003:00003328       ?_ignore@?BH@???$traceSegment@UTriggerTraceSegmentCallback@Gu@physx@@$0A@$0A@$0A@@HeightFieldUtil@Gu@physx@@QBEXABVPxVec3@3@0PAUTriggerTraceSegmentCallback@23@PBV43@@Z@4_NA 1018a328     GuOverlapTestsHF.obj
 0003:00003329       ?_ignore@?BI@???$traceSegment@UTriggerTraceSegmentCallback@Gu@physx@@$0A@$0A@$0A@@HeightFieldUtil@Gu@physx@@QBEXABVPxVec3@3@0PAUTriggerTraceSegmentCallback@23@PBV43@@Z@4_NA 1018a329     GuOverlapTestsHF.obj
 0003:000033a7       ?_ignore@?L@???$traceSegment@UCapsuleTraceSegmentReport@@$0A@$0A@$00@HeightFieldUtil@Gu@physx@@QBEXABVPxVec3@3@0PAUCapsuleTraceSegmentReport@@PBV43@@Z@4_NA 1018a3a7     GuSweepsHF.obj
 0003:000033a8       ?_ignore@?BC@???$traceSegment@UCapsuleTraceSegmentReport@@$0A@$0A@$00@HeightFieldUtil@Gu@physx@@QBEXABVPxVec3@3@0PAUCapsuleTraceSegmentReport@@PBV43@@Z@4_NA 1018a3a8     GuSweepsHF.obj
 0003:000033a9       ?_ignore@?BH@???$traceSegment@UCapsuleTraceSegmentReport@@$0A@$0A@$00@HeightFieldUtil@Gu@physx@@QBEXABVPxVec3@3@0PAUCapsuleTraceSegmentReport@@PBV43@@Z@4_NA 1018a3a9     GuSweepsHF.obj
 0003:000033aa       ?_ignore@?BI@???$traceSegment@UCapsuleTraceSegmentReport@@$0A@$0A@$00@HeightFieldUtil@Gu@physx@@QBEXABVPxVec3@3@0PAUCapsuleTraceSegmentReport@@PBV43@@Z@4_NA 1018a3aa     GuSweepsHF.obj
 0003:000033ab       ?_ignore@?L@???$traceSegment@VConvexVsHeightfieldSweep@@$0A@$0A@$00@HeightFieldUtil@Gu@physx@@QBEXABVPxVec3@3@0PAVConvexVsHeightfieldSweep@@PBV43@@Z@4_NA 1018a3ab     GuSweepsHF.obj
 0003:000033ac       ?_ignore@?BC@???$traceSegment@VConvexVsHeightfieldSweep@@$0A@$0A@$00@HeightFieldUtil@Gu@physx@@QBEXABVPxVec3@3@0PAVConvexVsHeightfieldSweep@@PBV43@@Z@4_NA 1018a3ac     GuSweepsHF.obj
 0003:000033ad       ?_ignore@?BH@???$traceSegment@VConvexVsHeightfieldSweep@@$0A@$0A@$00@HeightFieldUtil@Gu@physx@@QBEXABVPxVec3@3@0PAVConvexVsHeightfieldSweep@@PBV43@@Z@4_NA 1018a3ad     GuSweepsHF.obj
 0003:000033ae       ?_ignore@?BI@???$traceSegment@VConvexVsHeightfieldSweep@@$0A@$0A@$00@HeightFieldUtil@Gu@physx@@QBEXABVPxVec3@3@0PAVConvexVsHeightfieldSweep@@PBV43@@Z@4_NA 1018a3ae     GuSweepsHF.obj
 0003:000033af       ?_ignore@?L@???$traceSegment@UBoxTraceSegmentReport@@$0A@$0A@$00@HeightFieldUtil@Gu@physx@@QBEXABVPxVec3@3@0PAUBoxTraceSegmentReport@@PBV43@@Z@4_NA 1018a3af     GuSweepsHF.obj
 0003:000033b0       ?_ignore@?BC@???$traceSegment@UBoxTraceSegmentReport@@$0A@$0A@$00@HeightFieldUtil@Gu@physx@@QBEXABVPxVec3@3@0PAUBoxTraceSegmentReport@@PBV43@@Z@4_NA 1018a3b0     GuSweepsHF.obj
 0003:000033b1       ?_ignore@?BH@???$traceSegment@UBoxTraceSegmentReport@@$0A@$0A@$00@HeightFieldUtil@Gu@physx@@QBEXABVPxVec3@3@0PAUBoxTraceSegmentReport@@PBV43@@Z@4_NA 1018a3b1     GuSweepsHF.obj
 0003:000033b2       ?_ignore@?BI@???$traceSegment@UBoxTraceSegmentReport@@$0A@$0A@$00@HeightFieldUtil@Gu@physx@@QBEXABVPxVec3@3@0PAUBoxTraceSegmentReport@@PBV43@@Z@4_NA 1018a3b2     GuSweepsHF.obj
 0003:00003433       ?_ignore@?2??invalidate_BoxConvex@PersistentContactManifold@Gu@physx@@QAEIABVPsTransformV@aos@shdfnd@4@ABT__m128@@@Z@4_NA 1018a433     GuPCMContactBoxBox.obj
 0003:00003434       ?_ignore@?2??getManifold@Cache@Gu@physx@@QAEAAVPersistentContactManifold@34@XZ@4_NA 1018a434     GuPCMContactBoxBox.obj
 0003:00003533       ?_ignore@?2??transformInv@PsTransformV@aos@shdfnd@physx@@QBE?AT__m128@@ABT6@@Z@4_NA 1018a533     GuPCMContactCapsuleBox.obj
 0003:00003534       ?_ignore@?2??invalidate_SphereCapsule@PersistentContactManifold@Gu@physx@@QAEIABVPsTransformV@aos@shdfnd@4@ABT__m128@@@Z@4_NA 1018a534     GuPCMContactCapsuleBox.obj
 0003:00003633       ?_ignore@?4??refreshManifold@MultiplePersistentContactManifold@Gu@physx@@QAEXABVPsMatTransformV@aos@shdfnd@4@ABT__m128@@1@Z@4_NA 1018a633     GuPCMContactCapsuleHeightField.obj
 0003:00003634       ?_ignore@?2??getMultipleManifold@Cache@Gu@physx@@QAEAAVMultiplePersistentContactManifold@34@XZ@4_NA 1018a634     GuPCMContactCapsuleHeightField.obj
 0003:00003635       ?_ignore@?M@??onEvent@?$PCMHeightfieldContactGenerationCallback@UPCMCapsuleVsHeightfieldContactGenerationCallback@physx@@@Gu@physx@@UAE_NIPAI@Z@4_NA 1018a635     GuPCMContactCapsuleHeightField.obj
 0003:00003636       ?_ignore@?N@??onEvent@?$PCMHeightfieldContactGenerationCallback@UPCMCapsuleVsHeightfieldContactGenerationCallback@physx@@@Gu@physx@@UAE_NIPAI@Z@4_NA 1018a636     GuPCMContactCapsuleHeightField.obj
 0003:00003637       ?_ignore@?BF@??onEvent@?$PCMHeightfieldContactGenerationCallback@UPCMCapsuleVsHeightfieldContactGenerationCallback@physx@@@Gu@physx@@UAE_NIPAI@Z@4_NA 1018a637     GuPCMContactCapsuleHeightField.obj
 0003:00003638       ?_ignore@?2??addTriangle@?$TriangleCache@$0BA@@Gu@physx@@QAEXPBVPxVec3@4@PBIIE@Z@4_NA 1018a638     GuPCMContactCapsuleHeightField.obj
 0003:00003834       ?_ignore@?M@??onEvent@?$PCMHeightfieldContactGenerationCallback@UPCMConvexVsHeightfieldContactGenerationCallback@physx@@@Gu@physx@@UAE_NIPAI@Z@4_NA 1018a834     GuPCMContactConvexHeightField.obj
 0003:00003835       ?_ignore@?N@??onEvent@?$PCMHeightfieldContactGenerationCallback@UPCMConvexVsHeightfieldContactGenerationCallback@physx@@@Gu@physx@@UAE_NIPAI@Z@4_NA 1018a835     GuPCMContactConvexHeightField.obj
 0003:00003836       ?_ignore@?BF@??onEvent@?$PCMHeightfieldContactGenerationCallback@UPCMConvexVsHeightfieldContactGenerationCallback@physx@@@Gu@physx@@UAE_NIPAI@Z@4_NA 1018a836     GuPCMContactConvexHeightField.obj
 0003:00003bb3       ?_ignore@?2??getContactPoint@PersistentContactManifold@Gu@physx@@QAEAAVPersistentContact@34@I@Z@4_NA 1018abb3     GuPCMContactSphereConvex.obj
 0003:00003c33       ?_ignore@?M@??onEvent@?$PCMHeightfieldContactGenerationCallback@UPCMSphereVsHeightfieldContactGenerationCallback@physx@@@Gu@physx@@UAE_NIPAI@Z@4_NA 1018ac33     GuPCMContactSphereHeightField.obj
 0003:00003c34       ?_ignore@?N@??onEvent@?$PCMHeightfieldContactGenerationCallback@UPCMSphereVsHeightfieldContactGenerationCallback@physx@@@Gu@physx@@UAE_NIPAI@Z@4_NA 1018ac34     GuPCMContactSphereHeightField.obj
 0003:00003c35       ?_ignore@?BF@??onEvent@?$PCMHeightfieldContactGenerationCallback@UPCMSphereVsHeightfieldContactGenerationCallback@physx@@@Gu@physx@@UAE_NIPAI@Z@4_NA 1018ac35     GuPCMContactSphereHeightField.obj
 0003:00003e33       ?_ignore@?2??getContactPoint@SinglePersistentContactManifold@Gu@physx@@QAEAAVMeshPersistentContact@34@I@Z@4_NA 1018ae33     GuPersistentContactManifold.obj
 0003:00003e34       ?_ignore@?2??getManifold@MultiplePersistentContactManifold@Gu@physx@@QAEPAVSinglePersistentContactManifold@34@I@Z@4_NA 1018ae34     GuPersistentContactManifold.obj
 0003:00003ec4       ?_ignore@?2??intersects@PxBounds3@physx@@QBE_NABV23@@Z@4_NA 1018aec4     GuBoxPruning.obj
 0003:00003ec5       ?_ignore@?2??growAndPushBack@?$Array@IVNamedAllocator@shdfnd@physx@@@shdfnd@physx@@IAEAAIABI@Z@4_NA 1018aec5     GuBoxPruning.obj
 0003:00004049       ?_ignore@?2???$checkType@UPxConvexMeshGeometryLL@physx@@@physx@@YAXABVGeometryUnion@Gu@1@@Z@4_NA 1018b049     GuGeometryUnion.obj
 0003:0000404a       ?_ignore@?2???$checkType@UPxTriangleMeshGeometryLL@physx@@@physx@@YAXABVGeometryUnion@Gu@1@@Z@4_NA 1018b04a     GuGeometryUnion.obj
 0003:0000404b       ?_ignore@?2???$checkType@UPxHeightFieldGeometryLL@physx@@@physx@@YAXABVGeometryUnion@Gu@1@@Z@4_NA 1018b04b     GuGeometryUnion.obj
 0003:0000404c       ?_ignore@?2??include@PxBounds3@physx@@QAEXABVPxVec3@3@@Z@4_NA 1018b04c     GuGeomUtilsInternal.obj
 0003:000040c7       ?_ignore@?2??replaceWithLast@?$Array@PAVGuMeshFactoryListener@physx@@VNamedAllocator@shdfnd@2@@shdfnd@physx@@QAEXI@Z@4_NA 1018b0c7     GuMeshFactory.obj
 0003:000040c8       ?_ignore@?2???A?$Array@PAVGuMeshFactoryListener@physx@@VNamedAllocator@shdfnd@2@@shdfnd@physx@@QAEAAPAVGuMeshFactoryListener@3@I@Z@4_NA 1018b0c8     GuMeshFactory.obj
 0003:000040c9       ?_ignore@?3??replaceWithLast@?$HashBase@PAVHeightField@Gu@physx@@PAV123@U?$Hash@PAVHeightField@Gu@physx@@@shdfnd@3@UGetKey@?$HashSetBase@PAVHeightField@Gu@physx@@U?$Hash@PAVHeightField@Gu@physx@@@shdfnd@3@VAllocator@53@$00@internal@53@VAllocator@53@$00@internal@shdfnd@physx@@AAEXI@Z@4_NA 1018b0c9     GuMeshFactory.obj
 0003:000040ca       ?_ignore@?5??freeListAdd@?$HashBase@PAVHeightField@Gu@physx@@PAV123@U?$Hash@PAVHeightField@Gu@physx@@@shdfnd@3@UGetKey@?$HashSetBase@PAVHeightField@Gu@physx@@U?$Hash@PAVHeightField@Gu@physx@@@shdfnd@3@VAllocator@53@$00@internal@53@VAllocator@53@$00@internal@shdfnd@physx@@AAEXI@Z@4_NA 1018b0ca     GuMeshFactory.obj
 0003:000040cb       ?_ignore@?3??replaceWithLast@?$HashBase@PAVConvexMesh@Gu@physx@@PAV123@U?$Hash@PAVConvexMesh@Gu@physx@@@shdfnd@3@UGetKey@?$HashSetBase@PAVConvexMesh@Gu@physx@@U?$Hash@PAVConvexMesh@Gu@physx@@@shdfnd@3@VAllocator@53@$00@internal@53@VAllocator@53@$00@internal@shdfnd@physx@@AAEXI@Z@4_NA 1018b0cb     GuMeshFactory.obj
 0003:000040cc       ?_ignore@?5??freeListAdd@?$HashBase@PAVConvexMesh@Gu@physx@@PAV123@U?$Hash@PAVConvexMesh@Gu@physx@@@shdfnd@3@UGetKey@?$HashSetBase@PAVConvexMesh@Gu@physx@@U?$Hash@PAVConvexMesh@Gu@physx@@@shdfnd@3@VAllocator@53@$00@internal@53@VAllocator@53@$00@internal@shdfnd@physx@@AAEXI@Z@4_NA 1018b0cc     GuMeshFactory.obj
 0003:000040cd       ?_ignore@?3??replaceWithLast@?$HashBase@PAVTriangleMesh@Gu@physx@@PAV123@U?$Hash@PAVTriangleMesh@Gu@physx@@@shdfnd@3@UGetKey@?$HashSetBase@PAVTriangleMesh@Gu@physx@@U?$Hash@PAVTriangleMesh@Gu@physx@@@shdfnd@3@VAllocator@53@$00@internal@53@VAllocator@53@$00@internal@shdfnd@physx@@AAEXI@Z@4_NA 1018b0cd     GuMeshFactory.obj
 0003:000040ce       ?_ignore@?5??freeListAdd@?$HashBase@PAVTriangleMesh@Gu@physx@@PAV123@U?$Hash@PAVTriangleMesh@Gu@physx@@@shdfnd@3@UGetKey@?$HashSetBase@PAVTriangleMesh@Gu@physx@@U?$Hash@PAVTriangleMesh@Gu@physx@@@shdfnd@3@VAllocator@53@$00@internal@53@VAllocator@53@$00@internal@shdfnd@physx@@AAEXI@Z@4_NA 1018b0ce     GuMeshFactory.obj
 0003:000040cf       ?_ignore@?2??growAndPushBack@?$Array@PAVGuMeshFactoryListener@physx@@VNamedAllocator@shdfnd@2@@shdfnd@physx@@IAEAAPAVGuMeshFactoryListener@4@ABQAV54@@Z@4_NA 1018b0cf     GuMeshFactory.obj
 0003:000040d0       ?_ignore@?2??grow@?$HashBase@PAVHeightField@Gu@physx@@PAV123@U?$Hash@PAVHeightField@Gu@physx@@@shdfnd@3@UGetKey@?$HashSetBase@PAVHeightField@Gu@physx@@U?$Hash@PAVHeightField@Gu@physx@@@shdfnd@3@VAllocator@53@$00@internal@53@VAllocator@53@$00@internal@shdfnd@physx@@AAEXXZ@4_NA 1018b0d0     GuMeshFactory.obj
 0003:000040d1       ?_ignore@?2??freeListGetNext@?$HashBase@PAVHeightField@Gu@physx@@PAV123@U?$Hash@PAVHeightField@Gu@physx@@@shdfnd@3@UGetKey@?$HashSetBase@PAVHeightField@Gu@physx@@U?$Hash@PAVHeightField@Gu@physx@@@shdfnd@3@VAllocator@53@$00@internal@53@VAllocator@53@$00@internal@shdfnd@physx@@AAEIXZ@4_NA 1018b0d1     GuMeshFactory.obj
 0003:000040d2       ?_ignore@?6??freeListGetNext@?$HashBase@PAVHeightField@Gu@physx@@PAV123@U?$Hash@PAVHeightField@Gu@physx@@@shdfnd@3@UGetKey@?$HashSetBase@PAVHeightField@Gu@physx@@U?$Hash@PAVHeightField@Gu@physx@@@shdfnd@3@VAllocator@53@$00@internal@53@VAllocator@53@$00@internal@shdfnd@physx@@AAEIXZ@4_NA 1018b0d2     GuMeshFactory.obj
 0003:000040d3       ?_ignore@?2??grow@?$HashBase@PAVConvexMesh@Gu@physx@@PAV123@U?$Hash@PAVConvexMesh@Gu@physx@@@shdfnd@3@UGetKey@?$HashSetBase@PAVConvexMesh@Gu@physx@@U?$Hash@PAVConvexMesh@Gu@physx@@@shdfnd@3@VAllocator@53@$00@internal@53@VAllocator@53@$00@internal@shdfnd@physx@@AAEXXZ@4_NA 1018b0d3     GuMeshFactory.obj
 0003:000040d4       ?_ignore@?2??freeListGetNext@?$HashBase@PAVConvexMesh@Gu@physx@@PAV123@U?$Hash@PAVConvexMesh@Gu@physx@@@shdfnd@3@UGetKey@?$HashSetBase@PAVConvexMesh@Gu@physx@@U?$Hash@PAVConvexMesh@Gu@physx@@@shdfnd@3@VAllocator@53@$00@internal@53@VAllocator@53@$00@internal@shdfnd@physx@@AAEIXZ@4_NA 1018b0d4     GuMeshFactory.obj
 0003:000040d5       ?_ignore@?6??freeListGetNext@?$HashBase@PAVConvexMesh@Gu@physx@@PAV123@U?$Hash@PAVConvexMesh@Gu@physx@@@shdfnd@3@UGetKey@?$HashSetBase@PAVConvexMesh@Gu@physx@@U?$Hash@PAVConvexMesh@Gu@physx@@@shdfnd@3@VAllocator@53@$00@internal@53@VAllocator@53@$00@internal@shdfnd@physx@@AAEIXZ@4_NA 1018b0d5     GuMeshFactory.obj
 0003:000040d6       ?_ignore@?2??grow@?$HashBase@PAVTriangleMesh@Gu@physx@@PAV123@U?$Hash@PAVTriangleMesh@Gu@physx@@@shdfnd@3@UGetKey@?$HashSetBase@PAVTriangleMesh@Gu@physx@@U?$Hash@PAVTriangleMesh@Gu@physx@@@shdfnd@3@VAllocator@53@$00@internal@53@VAllocator@53@$00@internal@shdfnd@physx@@AAEXXZ@4_NA 1018b0d6     GuMeshFactory.obj
 0003:000040d7       ?_ignore@?2??freeListGetNext@?$HashBase@PAVTriangleMesh@Gu@physx@@PAV123@U?$Hash@PAVTriangleMesh@Gu@physx@@@shdfnd@3@UGetKey@?$HashSetBase@PAVTriangleMesh@Gu@physx@@U?$Hash@PAVTriangleMesh@Gu@physx@@@shdfnd@3@VAllocator@53@$00@internal@53@VAllocator@53@$00@internal@shdfnd@physx@@AAEIXZ@4_NA 1018b0d7     GuMeshFactory.obj
 0003:000040d8       ?_ignore@?6??freeListGetNext@?$HashBase@PAVTriangleMesh@Gu@physx@@PAV123@U?$Hash@PAVTriangleMesh@Gu@physx@@@shdfnd@3@UGetKey@?$HashSetBase@PAVTriangleMesh@Gu@physx@@U?$Hash@PAVTriangleMesh@Gu@physx@@@shdfnd@3@VAllocator@53@$00@internal@53@VAllocator@53@$00@internal@shdfnd@physx@@AAEIXZ@4_NA 1018b0d8     GuMeshFactory.obj
 0003:0000418e       ?_ignore@?2??transform@PxTransform@physx@@QBE?AV23@ABV23@@Z@4_NA 1018b18e     GuOverlapTests.obj
 0003:0000418f       ?_ignore@?3??transform@PxTransform@physx@@QBE?AV23@ABV23@@Z@4_NA 1018b18f     GuOverlapTests.obj
 0003:000042c3       ?_ignore@?L@???$traceSegment@VRayCastCallback@Gu@physx@@$0A@$0A@$0A@@HeightFieldUtil@Gu@physx@@QBEXABVPxVec3@3@0PAVRayCastCallback@23@PBV43@@Z@4_NA 1018b2c3     GuRaycastTests.obj
 0003:000042c4       ?_ignore@?BC@???$traceSegment@VRayCastCallback@Gu@physx@@$0A@$0A@$0A@@HeightFieldUtil@Gu@physx@@QBEXABVPxVec3@3@0PAVRayCastCallback@23@PBV43@@Z@4_NA 1018b2c4     GuRaycastTests.obj
 0003:000042c5       ?_ignore@?BH@???$traceSegment@VRayCastCallback@Gu@physx@@$0A@$0A@$0A@@HeightFieldUtil@Gu@physx@@QBEXABVPxVec3@3@0PAVRayCastCallback@23@PBV43@@Z@4_NA 1018b2c5     GuRaycastTests.obj
 0003:000042c6       ?_ignore@?BI@???$traceSegment@VRayCastCallback@Gu@physx@@$0A@$0A@$0A@@HeightFieldUtil@Gu@physx@@QBEXABVPxVec3@3@0PAVRayCastCallback@23@PBV43@@Z@4_NA 1018b2c6     GuRaycastTests.obj
 0003:00004448       ?__type_info_root_node@@3U__type_info_node@@A 1018b448     MSVCRTD:tncleanup.obj
 0003:00004454       ___scrt_current_native_startup_state 1018b454     MSVCRTD:utility.obj
 0003:00004458       ___scrt_native_startup_lock 1018b458     MSVCRTD:utility.obj
 0003:0000448c       ___isa_available           1018b48c     MSVCRTD:_cpu_disp_.obj
 0003:00004490       ___favor                   1018b490     MSVCRTD:_cpu_disp_.obj
 0003:00004498       ___scrt_debugger_hook_flag 1018b498     MSVCRTD:utility_desktop.obj
 0003:000044a0       ?_OptionsStorage@?1??__local_stdio_scanf_options@@9@4_KA 1018b4a0     MSVCRTD:default_local_stdio_options.obj
 0003:00004874       ___dyn_tls_init_callback   1018b874     <common>
 0004:00000000       __imp__CloseHandle@4       1018c000     kernel32:KERNEL32.dll
 0004:00000004       __imp__MapViewOfFile@20    1018c004     kernel32:KERNEL32.dll
 0004:00000008       __imp__UnmapViewOfFile@4   1018c008     kernel32:KERNEL32.dll
 0004:0000000c       __imp__CreateFileMappingA@24 1018c00c     kernel32:KERNEL32.dll
 0004:00000010       __imp__OpenFileMappingA@12 1018c010     kernel32:KERNEL32.dll
 0004:00000014       __imp__FreeLibrary@4       1018c014     kernel32:KERNEL32.dll
 0004:00000018       __imp__GetProcAddress@8    1018c018     kernel32:KERNEL32.dll
 0004:0000001c       __imp__LoadLibraryA@4      1018c01c     kernel32:KERNEL32.dll
 0004:00000020       __imp__InitializeCriticalSection@4 1018c020     kernel32:KERNEL32.dll
 0004:00000024       __imp__EnterCriticalSection@4 1018c024     kernel32:KERNEL32.dll
 0004:00000028       __imp__LeaveCriticalSection@4 1018c028     kernel32:KERNEL32.dll
 0004:0000002c       __imp__TryEnterCriticalSection@4 1018c02c     kernel32:KERNEL32.dll
 0004:00000030       __imp__DeleteCriticalSection@4 1018c030     kernel32:KERNEL32.dll
 0004:00000034       __imp__GetCurrentThread@0  1018c034     kernel32:KERNEL32.dll
 0004:00000038       __imp__GetCurrentThreadId@0 1018c038     kernel32:KERNEL32.dll
 0004:0000003c       __imp__OutputDebugStringA@4 1018c03c     kernel32:KERNEL32.dll
 0004:00000040       __imp__InitializeSListHead@4 1018c040     kernel32:KERNEL32.dll
 0004:00000044       __imp__InterlockedPopEntrySList@4 1018c044     kernel32:KERNEL32.dll
 0004:00000048       __imp__InterlockedPushEntrySList@8 1018c048     kernel32:KERNEL32.dll
 0004:0000004c       __imp__InterlockedFlushSList@4 1018c04c     kernel32:KERNEL32.dll
 0004:00000050       __imp__SetEvent@4          1018c050     kernel32:KERNEL32.dll
 0004:00000054       __imp__ResetEvent@4        1018c054     kernel32:KERNEL32.dll
 0004:00000058       __imp__WaitForSingleObject@8 1018c058     kernel32:KERNEL32.dll
 0004:0000005c       __imp__CreateEventA@16     1018c05c     kernel32:KERNEL32.dll
 0004:00000060       __imp__RaiseException@16   1018c060     kernel32:KERNEL32.dll
 0004:00000064       __imp__GetLastError@0      1018c064     kernel32:KERNEL32.dll
 0004:00000068       __imp__Sleep@4             1018c068     kernel32:KERNEL32.dll
 0004:0000006c       __imp__SwitchToThread@0    1018c06c     kernel32:KERNEL32.dll
 0004:00000070       __imp__CreateThread@24     1018c070     kernel32:KERNEL32.dll
 0004:00000074       __imp__SetThreadPriority@8 1018c074     kernel32:KERNEL32.dll
 0004:00000078       __imp__GetThreadPriority@4 1018c078     kernel32:KERNEL32.dll
 0004:0000007c       __imp__ExitThread@4        1018c07c     kernel32:KERNEL32.dll
 0004:00000080       __imp__TerminateThread@8   1018c080     kernel32:KERNEL32.dll
 0004:00000084       __imp__ResumeThread@4      1018c084     kernel32:KERNEL32.dll
 0004:00000088       __imp__TlsAlloc@0          1018c088     kernel32:KERNEL32.dll
 0004:0000008c       __imp__TlsGetValue@4       1018c08c     kernel32:KERNEL32.dll
 0004:00000090       __imp__TlsSetValue@8       1018c090     kernel32:KERNEL32.dll
 0004:00000094       __imp__TlsFree@4           1018c094     kernel32:KERNEL32.dll
 0004:00000098       __imp__GetModuleHandleA@4  1018c098     kernel32:KERNEL32.dll
 0004:0000009c       __imp__SetThreadAffinityMask@8 1018c09c     kernel32:KERNEL32.dll
 0004:000000a0       __imp__QueryPerformanceCounter@4 1018c0a0     kernel32:KERNEL32.dll
 0004:000000a4       __imp__QueryPerformanceFrequency@4 1018c0a4     kernel32:KERNEL32.dll
 0004:000000a8       __imp__GetCurrentProcess@0 1018c0a8     kernel32:KERNEL32.dll
 0004:000000ac       __imp__VirtualQuery@12     1018c0ac     kernel32:KERNEL32.dll
 0004:000000b0       __imp__GetProcessHeap@0    1018c0b0     kernel32:KERNEL32.dll
 0004:000000b4       __imp__HeapFree@12         1018c0b4     kernel32:KERNEL32.dll
 0004:000000b8       __imp__HeapAlloc@12        1018c0b8     kernel32:KERNEL32.dll
 0004:000000bc       __imp__WideCharToMultiByte@32 1018c0bc     kernel32:KERNEL32.dll
 0004:000000c0       __imp__MultiByteToWideChar@24 1018c0c0     kernel32:KERNEL32.dll
 0004:000000c4       __imp__DisableThreadLibraryCalls@4 1018c0c4     kernel32:KERNEL32.dll
 0004:000000c8       __imp__GetSystemTimeAsFileTime@4 1018c0c8     kernel32:KERNEL32.dll
 0004:000000cc       __imp__GetCurrentProcessId@0 1018c0cc     kernel32:KERNEL32.dll
 0004:000000d0       __imp__GetModuleHandleW@4  1018c0d0     kernel32:KERNEL32.dll
 0004:000000d4       __imp__GetStartupInfoW@4   1018c0d4     kernel32:KERNEL32.dll
 0004:000000d8       __imp__SetUnhandledExceptionFilter@4 1018c0d8     kernel32:KERNEL32.dll
 0004:000000dc       __imp__UnhandledExceptionFilter@4 1018c0dc     kernel32:KERNEL32.dll
 0004:000000e0       __imp__IsDebuggerPresent@0 1018c0e0     kernel32:KERNEL32.dll
 0004:000000e4       __imp__IsProcessorFeaturePresent@4 1018c0e4     kernel32:KERNEL32.dll
 0004:000000e8       __imp__TerminateProcess@8  1018c0e8     kernel32:KERNEL32.dll
 0004:000000ec       \177KERNEL32_NULL_THUNK_DATA 1018c0ec     kernel32:KERNEL32.dll
 0004:00000144       __imp__strstr              1018c144     vcruntimed:VCRUNTIME140D.dll
 0004:00000148       __imp____vcrt_LoadLibraryExW 1018c148     vcruntimed:VCRUNTIME140D.dll
 0004:0000014c       __imp____vcrt_GetModuleHandleW 1018c14c     vcruntimed:VCRUNTIME140D.dll
 0004:00000150       __imp____vcrt_GetModuleFileNameW 1018c150     vcruntimed:VCRUNTIME140D.dll
 0004:00000154       __imp___CxxThrowException@8 1018c154     vcruntimed:VCRUNTIME140D.dll
 0004:00000158       __imp____std_exception_destroy 1018c158     vcruntimed:VCRUNTIME140D.dll
 0004:0000015c       __imp___purecall           1018c15c     vcruntimed:VCRUNTIME140D.dll
 0004:00000160       __imp____std_type_info_name 1018c160     vcruntimed:VCRUNTIME140D.dll
 0004:00000164       __imp__memcpy              1018c164     vcruntimed:VCRUNTIME140D.dll
 0004:00000168       __imp__memset              1018c168     vcruntimed:VCRUNTIME140D.dll
 0004:0000016c       __imp___except_handler3    1018c16c     vcruntimed:VCRUNTIME140D.dll
 0004:00000170       __imp__memmove             1018c170     vcruntimed:VCRUNTIME140D.dll
 0004:00000174       __imp__strchr              1018c174     vcruntimed:VCRUNTIME140D.dll
 0004:00000178       __imp____std_exception_copy 1018c178     vcruntimed:VCRUNTIME140D.dll
 0004:0000017c       __imp____std_type_info_destroy_list 1018c17c     vcruntimed:VCRUNTIME140D.dll
 0004:00000180       __imp___except_handler4_common 1018c180     vcruntimed:VCRUNTIME140D.dll
 0004:00000184       \177VCRUNTIME140D_NULL_THUNK_DATA 1018c184     vcruntimed:VCRUNTIME140D.dll
 0004:000001bc       __imp__WSASendDisconnect@8 1018c1bc     Ws2_32:WS2_32.dll
 0004:000001c0       __imp__WSAGetLastError@0   1018c1c0     Ws2_32:WS2_32.dll
 0004:000001c4       __imp__WSACleanup@0        1018c1c4     Ws2_32:WS2_32.dll
 0004:000001c8       __imp__WSAStartup@8        1018c1c8     Ws2_32:WS2_32.dll
 0004:000001cc       __imp__gethostbyaddr@12    1018c1cc     Ws2_32:WS2_32.dll
 0004:000001d0       __imp____WSAFDIsSet@8      1018c1d0     Ws2_32:WS2_32.dll
 0004:000001d4       __imp__accept@12           1018c1d4     Ws2_32:WS2_32.dll
 0004:000001d8       __imp__bind@12             1018c1d8     Ws2_32:WS2_32.dll
 0004:000001dc       __imp__closesocket@4       1018c1dc     Ws2_32:WS2_32.dll
 0004:000001e0       __imp__connect@12          1018c1e0     Ws2_32:WS2_32.dll
 0004:000001e4       __imp__ioctlsocket@12      1018c1e4     Ws2_32:WS2_32.dll
 0004:000001e8       __imp__getsockopt@20       1018c1e8     Ws2_32:WS2_32.dll
 0004:000001ec       __imp__htonl@4             1018c1ec     Ws2_32:WS2_32.dll
 0004:000001f0       __imp__htons@4             1018c1f0     Ws2_32:WS2_32.dll
 0004:000001f4       __imp__inet_addr@4         1018c1f4     Ws2_32:WS2_32.dll
 0004:000001f8       __imp__listen@8            1018c1f8     Ws2_32:WS2_32.dll
 0004:000001fc       __imp__recv@16             1018c1fc     Ws2_32:WS2_32.dll
 0004:00000200       __imp__select@20           1018c200     Ws2_32:WS2_32.dll
 0004:00000204       __imp__send@16             1018c204     Ws2_32:WS2_32.dll
 0004:00000208       __imp__setsockopt@20       1018c208     Ws2_32:WS2_32.dll
 0004:0000020c       __imp__socket@12           1018c20c     Ws2_32:WS2_32.dll
 0004:00000210       __imp__gethostbyname@4     1018c210     Ws2_32:WS2_32.dll
 0004:00000214       \177WS2_32_NULL_THUNK_DATA 1018c214     Ws2_32:WS2_32.dll
 0004:00000250       __imp__sin                 1018c250     ucrtd:ucrtbased.dll
 0004:00000254       __imp__sqrt                1018c254     ucrtd:ucrtbased.dll
 0004:00000258       __imp___fpclass            1018c258     ucrtd:ucrtbased.dll
 0004:0000025c       __imp__fabs                1018c25c     ucrtd:ucrtbased.dll
 0004:00000260       __imp____acrt_iob_func     1018c260     ucrtd:ucrtbased.dll
 0004:00000264       __imp____stdio_common_vfprintf 1018c264     ucrtd:ucrtbased.dll
 0004:00000268       __imp__ceil                1018c268     ucrtd:ucrtbased.dll
 0004:0000026c       __imp__floor               1018c26c     ucrtd:ucrtbased.dll
 0004:00000270       __imp___CrtDbgReportW      1018c270     ucrtd:ucrtbased.dll
 0004:00000274       __imp___free_dbg           1018c274     ucrtd:ucrtbased.dll
 0004:00000278       __imp___except1            1018c278     ucrtd:ucrtbased.dll
 0004:0000027c       __imp___seh_filter_dll     1018c27c     ucrtd:ucrtbased.dll
 0004:00000280       __imp___configure_narrow_argv 1018c280     ucrtd:ucrtbased.dll
 0004:00000284       __imp___initialize_narrow_environment 1018c284     ucrtd:ucrtbased.dll
 0004:00000288       __imp___initialize_onexit_table 1018c288     ucrtd:ucrtbased.dll
 0004:0000028c       __imp___register_onexit_function 1018c28c     ucrtd:ucrtbased.dll
 0004:00000290       __imp___execute_onexit_table 1018c290     ucrtd:ucrtbased.dll
 0004:00000294       __imp___crt_atexit         1018c294     ucrtd:ucrtbased.dll
 0004:00000298       __imp___crt_at_quick_exit  1018c298     ucrtd:ucrtbased.dll
 0004:0000029c       __imp___cexit              1018c29c     ucrtd:ucrtbased.dll
 0004:000002a0       __imp___initterm           1018c2a0     ucrtd:ucrtbased.dll
 0004:000002a4       __imp___initterm_e         1018c2a4     ucrtd:ucrtbased.dll
 0004:000002a8       __imp__terminate           1018c2a8     ucrtd:ucrtbased.dll
 0004:000002ac       __imp___callnewh           1018c2ac     ucrtd:ucrtbased.dll
 0004:000002b0       __imp__malloc              1018c2b0     ucrtd:ucrtbased.dll
 0004:000002b4       __imp___wmakepath_s        1018c2b4     ucrtd:ucrtbased.dll
 0004:000002b8       __imp___wsplitpath_s       1018c2b8     ucrtd:ucrtbased.dll
 0004:000002bc       __imp__wcscpy_s            1018c2bc     ucrtd:ucrtbased.dll
 0004:000002c0       __imp__cos                 1018c2c0     ucrtd:ucrtbased.dll
 0004:000002c4       __imp__atan2               1018c2c4     ucrtd:ucrtbased.dll
 0004:000002c8       __imp__asin                1018c2c8     ucrtd:ucrtbased.dll
 0004:000002cc       __imp__tolower             1018c2cc     ucrtd:ucrtbased.dll
 0004:000002d0       __imp__strncmp             1018c2d0     ucrtd:ucrtbased.dll
 0004:000002d4       __imp__strlen              1018c2d4     ucrtd:ucrtbased.dll
 0004:000002d8       __imp__strcmp              1018c2d8     ucrtd:ucrtbased.dll
 0004:000002dc       __imp___wassert            1018c2dc     ucrtd:ucrtbased.dll
 0004:000002e0       __imp___CrtSetReportMode   1018c2e0     ucrtd:ucrtbased.dll
 0004:000002e4       __imp___CrtDbgReport       1018c2e4     ucrtd:ucrtbased.dll
 0004:000002e8       __imp____stdio_common_vsprintf 1018c2e8     ucrtd:ucrtbased.dll
 0004:000002ec       __imp____stdio_common_vsprintf_s 1018c2ec     ucrtd:ucrtbased.dll
 0004:000002f0       __imp__puts                1018c2f0     ucrtd:ucrtbased.dll
 0004:000002f4       __imp____control87_2       1018c2f4     ucrtd:ucrtbased.dll
 0004:000002f8       __imp___controlfp_s        1018c2f8     ucrtd:ucrtbased.dll
 0004:000002fc       __imp___clearfp            1018c2fc     ucrtd:ucrtbased.dll
 0004:00000300       __imp__strnlen             1018c300     ucrtd:ucrtbased.dll
 0004:00000304       \177ucrtbased_NULL_THUNK_DATA 1018c304     ucrtd:ucrtbased.dll
 0004:00000354       __IMPORT_DESCRIPTOR_KERNEL32 1018c354     kernel32:KERNEL32.dll
 0004:00000368       __IMPORT_DESCRIPTOR_WS2_32 1018c368     Ws2_32:WS2_32.dll
 0004:0000037c       __IMPORT_DESCRIPTOR_VCRUNTIME140D 1018c37c     vcruntimed:VCRUNTIME140D.dll
 0004:00000390       __IMPORT_DESCRIPTOR_ucrtbased 1018c390     ucrtd:ucrtbased.dll
 0004:000003a4       __NULL_IMPORT_DESCRIPTOR   1018c3a4     kernel32:KERNEL32.dll
 0006:00000000       ___guard_check_icall_fptr  1018f000     MSVCRTD:guard_support.obj
