 PhysX3CharacterKinematic_x86

 Timestamp is 55b9b939 (Wed Jul 29 22:42:17 2015)

 Preferred load address is 10000000

 Start         Length     Name                   Class
 0001:00000000 00000134H .text$di                CODE
 0001:00000140 00023de4H .text$mn                CODE
 0002:00000000 00000110H .idata$5                DATA
 0002:00000110 00000004H .CRT$XCA                DATA
 0002:00000114 00000030H .CRT$XCU                DATA
 0002:00000144 00000004H .CRT$XCZ                DATA
 0002:00000148 00000004H .CRT$XIA                DATA
 0002:0000014c 00000004H .CRT$XIAA               DATA
 0002:00000150 00000004H .CRT$XIC                DATA
 0002:00000154 00000004H .CRT$XIZ                DATA
 0002:00000160 00000ed8H .rdata                  DATA
 0002:00001038 00000084H .rdata$debug            DATA
 0002:000010bc 00000048H .rdata$r                DATA
 0002:00001110 00000004H .rdata$sxdata           DATA
 0002:00001114 00000004H .rtc$IAA                DATA
 0002:00001118 00000004H .rtc$IZZ                DATA
 0002:0000111c 00000004H .rtc$TAA                DATA
 0002:00001120 00000004H .rtc$TZZ                DATA
 0002:00001128 000000a4H .xdata$x                DATA
 0002:000011d0 000001e8H .edata                  DATA
 0002:000013b8 0000003cH .idata$2                DATA
 0002:000013f4 00000014H .idata$3                DATA
 0002:00001408 00000110H .idata$4                DATA
 0002:00001518 00000c00H .idata$6                DATA
 0003:00000000 0000009cH .data                   DATA
 0003:000000a0 000002e4H .data$r                 DATA
 0003:00000390 00000404H .bss                    DATA
 0004:00000000 000000a0H .rsrc$01                DATA
 0004:000000a0 00000500H .rsrc$02                DATA

  Address         Publics by Value              Rva+Base       Lib:Object

 0000:00000000       __except_list              00000000     <absolute>
 0000:00000000       ___guard_fids_table        00000000     <absolute>
 0000:00000000       ___guard_flags             00000000     <absolute>
 0000:00000000       ___guard_fids_count        00000000     <absolute>
 0000:00000001       ___safe_se_handler_count   00000001     <absolute>
 0000:00009876       __fltused                  00009876     <absolute>
 0000:00009876       __ldused                   00009876     <absolute>
 0000:00000000       ___ImageBase               10000000     <linker-defined>
 0001:00000140       ??0BoxController@Cct@physx@@QAE@ABVPxControllerDesc@2@AAVPxPhysics@2@PAVPxScene@2@@Z 10001140 f   CctBoxController.obj
 0001:000001f0       ??1BoxController@Cct@physx@@UAE@XZ 100011f0 f   CctBoxController.obj
 0001:00000210       ?getWorldBox@BoxController@Cct@physx@@UBE_NAAUPxExtendedBounds3@3@@Z 10001210 f   CctBoxController.obj
 0001:000002c0       ?setFootPosition@BoxController@Cct@physx@@UAE_NABUPxExtendedVec3@3@@Z 100012c0 f   CctBoxController.obj
 0001:00000340       ?getFootPosition@BoxController@Cct@physx@@UBE?AUPxExtendedVec3@3@XZ 10001340 f   CctBoxController.obj
 0001:000003c0       ?invalidateCache@BoxController@Cct@physx@@UAEXXZ 100013c0 f   CctBoxController.obj
 0001:000003d0       ?resize@BoxController@Cct@physx@@UAEXM@Z 100013d0 f   CctBoxController.obj
 0001:00000470       ?getHalfHeight@BoxController@Cct@physx@@UBEMXZ 10001470 f   CctBoxController.obj
 0001:00000480       ?getHalfSideExtent@BoxController@Cct@physx@@UBEMXZ 10001480 f   CctBoxController.obj
 0001:00000490       ?getHalfForwardExtent@BoxController@Cct@physx@@UBEMXZ 10001490 f   CctBoxController.obj
 0001:000004a0       ?setHalfHeight@BoxController@Cct@physx@@UAE_NM@Z 100014a0 f   CctBoxController.obj
 0001:000004d0       ?setHalfSideExtent@BoxController@Cct@physx@@UAE_NM@Z 100014d0 f   CctBoxController.obj
 0001:00000500       ?setHalfForwardExtent@BoxController@Cct@physx@@UAE_NM@Z 10001500 f   CctBoxController.obj
 0001:00000530       ?updateKinematicProxy@BoxController@Cct@physx@@QAE_NXZ 10001530 f   CctBoxController.obj
 0001:000005d0       ?getOBB@BoxController@Cct@physx@@QBEXAAVPxExtendedBox@3@@Z 100015d0 f   CctBoxController.obj
 0001:000006e0       ??0PxBoxController@physx@@IAE@XZ 100016e0 f i CctBoxController.obj
 0001:000006f0       ??0PxBoxGeometry@physx@@QAE@XZ 100016f0 f i CctBoxController.obj
 0001:00000710       ??0PxController@physx@@IAE@XZ 10001710 f i CctBoxController.obj
 0001:00000720       ??0PxExtendedBounds3@physx@@QAE@XZ 10001720 f i CctBoxController.obj
 0001:00000730       ??0PxExtendedVec3@physx@@QAE@NNN@Z 10001730 f i CctBoxController.obj
 0001:00000760       ??0PxExtendedVec3@physx@@QAE@XZ 10001760 f i CctBoxController.obj
 0001:00000770       ??0PxGeometry@physx@@IAE@W4Enum@PxGeometryType@1@@Z 10001770 f i CctBoxController.obj
 0001:00000780       ??0PxVec3@physx@@QAE@ABV01@@Z 10001780 f i CctBoxController.obj
 0001:000007a0       ??0PxVec3@physx@@QAE@MMM@Z 100017a0 f i CctBoxController.obj
 0001:000007d0       ??1PxBoxController@physx@@MAE@XZ 100017d0 f i CctBoxController.obj
 0001:000007e0       ??1PxController@physx@@MAE@XZ 100017e0 f i CctBoxController.obj
 0001:000007f0       ??3UserAllocated@shdfnd@physx@@SAXPAX@Z 100017f0 f i CctBoxController.obj
 0001:00000810       ??4PxQuat@physx@@QAEAAV01@ABV01@@Z 10001810 f i CctBoxController.obj
 0001:00000840       ??4PxVec3@physx@@QAEAAV01@ABV01@@Z 10001840 f i CctBoxController.obj
 0001:00000860       ??DPxVec3@physx@@QBE?AV01@M@Z 10001860 f i CctBoxController.obj
 0001:000008a0       ??GPxExtendedVec3@physx@@QBE?AVPxVec3@1@ABU01@@Z 100018a0 f i CctBoxController.obj
 0001:000008f0       ??HPxExtendedVec3@physx@@QBE?AU01@ABU01@@Z 100018f0 f i CctBoxController.obj
 0001:00000930       ??XPxExtendedVec3@physx@@QAEAAU01@ABM@Z 10001930 f i CctBoxController.obj
 0001:00000970       ??XPxVec3@physx@@QAEAAV01@M@Z 10001970 f i CctBoxController.obj
 0001:000009b0       ??YPxExtendedVec3@physx@@QAEAAU01@ABVPxVec3@1@@Z 100019b0 f i CctBoxController.obj
 0001:000009f0       ??ZPxExtendedVec3@physx@@QAEAAU01@ABVPxVec3@1@@Z 100019f0 f i CctBoxController.obj
 0001:00000a3b       ??_EBoxController@Cct@physx@@W7AEPAXI@Z 10001a3b f i CctBoxController.obj
 0001:00000a50       ??_GBoxController@Cct@physx@@UAEPAXI@Z 10001a50 f i CctBoxController.obj
 0001:00000a50       ??_EBoxController@Cct@physx@@UAEPAXI@Z 10001a50 f i CctBoxController.obj
 0001:00000a90       ??_GPxBoxController@physx@@MAEPAXI@Z 10001a90 f i CctBoxController.obj
 0001:00000a90       ??_EPxBoxController@physx@@MAEPAXI@Z 10001a90 f i CctBoxController.obj
 0001:00000ac0       ??_EPxController@physx@@MAEPAXI@Z 10001ac0 f i CctBoxController.obj
 0001:00000ac0       ??_GPxController@physx@@MAEPAXI@Z 10001ac0 f i CctBoxController.obj
 0001:00000af0       ??_H@YGXPAXIHP6EPAX0@Z@Z   10001af0 f i CctBoxController.obj
 0001:00000b20       ?getActor@BoxController@Cct@physx@@UBEPAVPxRigidDynamic@3@XZ 10001b20 f i CctBoxController.obj
 0001:00000b30       ?getCenter@physx@@YAXABUPxExtendedBounds3@1@AAUPxExtendedVec3@1@@Z 10001b30 f i CctBoxController.obj
 0001:00000b90       ?getContactOffset@BoxController@Cct@physx@@UBEMXZ 10001b90 f i CctBoxController.obj
 0001:00000ba0       ?getExtents@physx@@YAXABUPxExtendedBounds3@1@AAVPxVec3@1@@Z 10001ba0 f i CctBoxController.obj
 0001:00000c00       ?getHalfHeightInternal@BoxController@Cct@physx@@UBEMXZ 10001c00 f i CctBoxController.obj
 0001:00000c10       ?getNonWalkableMode@BoxController@Cct@physx@@UBE?AW4Enum@PxControllerNonWalkableMode@3@XZ 10001c10 f i CctBoxController.obj
 0001:00000c20       ?getPosition@BoxController@Cct@physx@@UBEABUPxExtendedVec3@3@XZ 10001c20 f i CctBoxController.obj
 0001:00000c30       ?getPxController@BoxController@Cct@physx@@UAEPAVPxController@3@XZ 10001c30 f i CctBoxController.obj
 0001:00000c40       ?getScene@BoxController@Cct@physx@@UAEPAVPxScene@3@XZ 10001c40 f i CctBoxController.obj
 0001:00000c50       ?getSlopeLimit@BoxController@Cct@physx@@UBEMXZ 10001c50 f i CctBoxController.obj
 0001:00000c60       ?getState@BoxController@Cct@physx@@UBEXAAUPxControllerState@3@@Z 10001c60 f i CctBoxController.obj
 0001:00000c70       ?getStats@BoxController@Cct@physx@@UBEXAAUPxControllerStats@3@@Z 10001c70 f i CctBoxController.obj
 0001:00000c80       ?getStepOffset@BoxController@Cct@physx@@UBEMXZ 10001c80 f i CctBoxController.obj
 0001:00000c90       ?getType@BoxController@Cct@physx@@UBE?AW4Enum@PxControllerShapeType@3@XZ 10001c90 f i CctBoxController.obj
 0001:00000ca0       ?getUpDirection@BoxController@Cct@physx@@UBE?AVPxVec3@3@XZ 10001ca0 f i CctBoxController.obj
 0001:00000cc0       ?getUserData@BoxController@Cct@physx@@UBEPAXXZ 10001cc0 f i CctBoxController.obj
 0001:00000cd0       ?release@BoxController@Cct@physx@@UAEXXZ 10001cd0 f i CctBoxController.obj
 0001:00000ce0       ?setCenterExtents@physx@@YAXAAUPxExtendedBounds3@1@ABUPxExtendedVec3@1@ABVPxVec3@1@@Z 10001ce0 f i CctBoxController.obj
 0001:00000d90       ?setContactOffset@BoxController@Cct@physx@@UAEXM@Z 10001d90 f i CctBoxController.obj
 0001:00000db0       ?setNonWalkableMode@BoxController@Cct@physx@@UAEXW4Enum@PxControllerNonWalkableMode@3@@Z 10001db0 f i CctBoxController.obj
 0001:00000dc0       ?setPosition@BoxController@Cct@physx@@UAE_NABUPxExtendedVec3@3@@Z 10001dc0 f i CctBoxController.obj
 0001:00000dd0       ?setSlopeLimit@BoxController@Cct@physx@@UAEXM@Z 10001dd0 f i CctBoxController.obj
 0001:00000df0       ?setStepOffset@BoxController@Cct@physx@@UAEXM@Z 10001df0 f i CctBoxController.obj
 0001:00000e10       ?setUpDirection@BoxController@Cct@physx@@UAEXABVPxVec3@3@@Z 10001e10 f i CctBoxController.obj
 0001:00000e20       ?setUserData@BoxController@Cct@physx@@UAEXPAX@Z 10001e20 f i CctBoxController.obj
 0001:00000e30       ??0CapsuleController@Cct@physx@@QAE@ABVPxControllerDesc@2@AAVPxPhysics@2@PAVPxScene@2@@Z 10001e30 f   CctCapsuleController.obj
 0001:00000ed0       ??1CapsuleController@Cct@physx@@UAE@XZ 10001ed0 f   CctCapsuleController.obj
 0001:00000ef0       ?getWorldBox@CapsuleController@Cct@physx@@UBE_NAAUPxExtendedBounds3@3@@Z 10001ef0 f   CctCapsuleController.obj
 0001:00000fb0       ?setFootPosition@CapsuleController@Cct@physx@@UAE_NABUPxExtendedVec3@3@@Z 10001fb0 f   CctCapsuleController.obj
 0001:00001040       ?getFootPosition@CapsuleController@Cct@physx@@UBE?AUPxExtendedVec3@3@XZ 10002040 f   CctCapsuleController.obj
 0001:000010d0       ?invalidateCache@CapsuleController@Cct@physx@@UAEXXZ 100020d0 f   CctCapsuleController.obj
 0001:000010e0       ?resize@CapsuleController@Cct@physx@@UAEXM@Z 100020e0 f   CctCapsuleController.obj
 0001:000011a0       ?getClimbingMode@CapsuleController@Cct@physx@@UBE?AW4Enum@PxCapsuleClimbingMode@3@XZ 100021a0 f   CctCapsuleController.obj
 0001:000011b0       ?setRadius@CapsuleController@Cct@physx@@UAE_NM@Z 100021b0 f   CctCapsuleController.obj
 0001:00001230       ?setHeight@CapsuleController@Cct@physx@@UAE_NM@Z 10002230 f   CctCapsuleController.obj
 0001:000012b0       ?setClimbingMode@CapsuleController@Cct@physx@@UAE_NW4Enum@PxCapsuleClimbingMode@3@@Z 100022b0 f   CctCapsuleController.obj
 0001:000012d0       ?getCapsule@CapsuleController@Cct@physx@@QBEXAAUPxExtendedCapsule@3@@Z 100022d0 f   CctCapsuleController.obj
 0001:000013d0       ??0PxCapsuleController@physx@@IAE@XZ 100023d0 f i CctCapsuleController.obj
 0001:000013e0       ??0PxCapsuleGeometry@physx@@QAE@XZ 100023e0 f i CctCapsuleController.obj
 0001:00001400       ??1PxCapsuleController@physx@@MAE@XZ 10002400 f i CctCapsuleController.obj
 0001:00001407       ??_ECapsuleController@Cct@physx@@W7AEPAXI@Z 10002407 f i CctCapsuleController.obj
 0001:00001410       ??_GCapsuleController@Cct@physx@@UAEPAXI@Z 10002410 f i CctCapsuleController.obj
 0001:00001410       ??_ECapsuleController@Cct@physx@@UAEPAXI@Z 10002410 f i CctCapsuleController.obj
 0001:00001450       ??_EPxCapsuleController@physx@@MAEPAXI@Z 10002450 f i CctCapsuleController.obj
 0001:00001450       ??_GPxCapsuleController@physx@@MAEPAXI@Z 10002450 f i CctCapsuleController.obj
 0001:00001480       ?getActor@CapsuleController@Cct@physx@@UBEPAVPxRigidDynamic@3@XZ 10002480 f i CctCapsuleController.obj
 0001:00001490       ?getContactOffset@CapsuleController@Cct@physx@@UBEMXZ 10002490 f i CctCapsuleController.obj
 0001:000014a0       ?getHalfHeightInternal@CapsuleController@Cct@physx@@UBEMXZ 100024a0 f i CctCapsuleController.obj
 0001:000014c0       ?getHeight@CapsuleController@Cct@physx@@UBEMXZ 100024c0 f i CctCapsuleController.obj
 0001:000014d0       ?getNonWalkableMode@CapsuleController@Cct@physx@@UBE?AW4Enum@PxControllerNonWalkableMode@3@XZ 100024d0 f i CctCapsuleController.obj
 0001:000014e0       ?getPosition@CapsuleController@Cct@physx@@UBEABUPxExtendedVec3@3@XZ 100024e0 f i CctCapsuleController.obj
 0001:000014f0       ?getPxController@CapsuleController@Cct@physx@@UAEPAVPxController@3@XZ 100024f0 f i CctCapsuleController.obj
 0001:00001500       ?getRadius@CapsuleController@Cct@physx@@UBEMXZ 10002500 f i CctCapsuleController.obj
 0001:00001510       ?getScene@CapsuleController@Cct@physx@@UAEPAVPxScene@3@XZ 10002510 f i CctCapsuleController.obj
 0001:00001520       ?getSlopeLimit@CapsuleController@Cct@physx@@UBEMXZ 10002520 f i CctCapsuleController.obj
 0001:00001530       ?getState@CapsuleController@Cct@physx@@UBEXAAUPxControllerState@3@@Z 10002530 f i CctCapsuleController.obj
 0001:00001540       ?getStats@CapsuleController@Cct@physx@@UBEXAAUPxControllerStats@3@@Z 10002540 f i CctCapsuleController.obj
 0001:00001550       ?getStepOffset@CapsuleController@Cct@physx@@UBEMXZ 10002550 f i CctCapsuleController.obj
 0001:00001560       ?getType@CapsuleController@Cct@physx@@UBE?AW4Enum@PxControllerShapeType@3@XZ 10002560 f i CctCapsuleController.obj
 0001:00001570       ?getUpDirection@CapsuleController@Cct@physx@@UBE?AVPxVec3@3@XZ 10002570 f i CctCapsuleController.obj
 0001:00001590       ?getUserData@CapsuleController@Cct@physx@@UBEPAXXZ 10002590 f i CctCapsuleController.obj
 0001:000015a0       ?release@CapsuleController@Cct@physx@@UAEXXZ 100025a0 f i CctCapsuleController.obj
 0001:000015b0       ?setContactOffset@CapsuleController@Cct@physx@@UAEXM@Z 100025b0 f i CctCapsuleController.obj
 0001:000015d0       ?setNonWalkableMode@CapsuleController@Cct@physx@@UAEXW4Enum@PxControllerNonWalkableMode@3@@Z 100025d0 f i CctCapsuleController.obj
 0001:000015e0       ?setPosition@CapsuleController@Cct@physx@@UAE_NABUPxExtendedVec3@3@@Z 100025e0 f i CctCapsuleController.obj
 0001:000015f0       ?setSlopeLimit@CapsuleController@Cct@physx@@UAEXM@Z 100025f0 f i CctCapsuleController.obj
 0001:00001610       ?setStepOffset@CapsuleController@Cct@physx@@UAEXM@Z 10002610 f i CctCapsuleController.obj
 0001:00001630       ?setUpDirection@CapsuleController@Cct@physx@@UAEXABVPxVec3@3@@Z 10002630 f i CctCapsuleController.obj
 0001:00001640       ?setUserData@CapsuleController@Cct@physx@@UAEXPAX@Z 10002640 f i CctCapsuleController.obj
 0001:00001660       ??0CCTParams@Cct@physx@@QAE@XZ 10002660 f   CctCharacterController.obj
 0001:000016d0       ??0SweepTest@Cct@physx@@QAE@XZ 100026d0 f   CctCharacterController.obj
 0001:00001830       ??1SweepTest@Cct@physx@@QAE@XZ 10002830 f   CctCharacterController.obj
 0001:000018a0       ?moveCharacter@SweepTest@Cct@physx@@QAE?AV?$PxFlags@W4Enum@PxControllerCollisionFlag@physx@@E@3@PBUInternalCBData_FindTouchedGeom@23@PBUInternalCBData_OnHit@23@AAVSweptVolume@23@ABVPxVec3@3@ABUUserObstacles@23@MABVPxControllerFilters@3@_N6@Z 100028a0 f   CctCharacterController.obj
 0001:00002180       ?doSweepTest@SweepTest@Cct@physx@@QAE_NPBUInternalCBData_FindTouchedGeom@23@PBUInternalCBData_OnHit@23@ABUUserObstacles@23@AAVSweptVolume@23@ABVPxVec3@3@4IPAIMABVPxControllerFilters@3@W4SweepPass@23@@Z 10003180 f   CctCharacterController.obj
 0001:00003210       ?findTouchedObstacles@SweepTest@Cct@physx@@QAEXABUUserObstacles@23@ABUPxExtendedBounds3@3@@Z 10004210 f   CctCharacterController.obj
 0001:00003980       ?voidTestCache@SweepTest@Cct@physx@@QAEXXZ 10004980 f   CctCharacterController.obj
 0001:000039c0       ?onRelease@SweepTest@Cct@physx@@QAEXABVPxBase@3@@Z 100049c0 f   CctCharacterController.obj
 0001:00003a60       ?onObstacleRemoved@SweepTest@Cct@physx@@QAEXI@Z 10004a60 f   CctCharacterController.obj
 0001:00003a80       ?onObstacleUpdated@SweepTest@Cct@physx@@QAEXIPBVPxObstacleContext@3@ABVPxVec3@3@1M@Z 10004a80 f   CctCharacterController.obj
 0001:00003c80       ?onObstacleAdded@SweepTest@Cct@physx@@QAEXIPBVPxObstacleContext@3@ABVPxVec3@3@1M@Z 10004c80 f   CctCharacterController.obj
 0001:00003ec0       ?onOriginShift@SweepTest@Cct@physx@@QAEXABVPxVec3@3@@Z 10004ec0 f   CctCharacterController.obj
 0001:00004060       ?updateTouchedGeoms@SweepTest@Cct@physx@@AAEXPBUInternalCBData_FindTouchedGeom@23@ABUUserObstacles@23@ABUPxExtendedBounds3@3@ABVPxControllerFilters@3@ABVPxVec3@3@@Z 10005060 f   CctCharacterController.obj
 0001:00004720       ?findTouchedObject@Controller@Cct@physx@@IAEXABVPxControllerFilters@3@PBVPxObstacleContext@3@ABVPxVec3@3@@Z 10005720 f   CctCharacterController.obj
 0001:00004e10       ?rideOnTouchedObject@Controller@Cct@physx@@IAE_NAAVSweptVolume@23@ABVPxVec3@3@AAV53@PBVPxObstacleContext@3@@Z 10005e10 f   CctCharacterController.obj
 0001:000053a0       ?move@Controller@Cct@physx@@IAE?AV?$PxFlags@W4Enum@PxControllerCollisionFlag@physx@@E@3@AAVSweptVolume@23@ABVPxVec3@3@MMABVPxControllerFilters@3@PBVPxObstacleContext@3@_N@Z 100063a0 f   CctCharacterController.obj
 0001:00006140       ?filterTouchedShape@Controller@Cct@physx@@IAE_NABVPxControllerFilters@3@@Z 10007140 f   CctCharacterController.obj
 0001:000087c0       ?move@BoxController@Cct@physx@@UAE?AV?$PxFlags@W4Enum@PxControllerCollisionFlag@physx@@E@3@ABVPxVec3@3@MMABVPxControllerFilters@3@PBVPxObstacleContext@3@@Z 100097c0 f   CctCharacterController.obj
 0001:00008890       ?move@CapsuleController@Cct@physx@@UAE?AV?$PxFlags@W4Enum@PxControllerCollisionFlag@physx@@E@3@ABVPxVec3@3@MMABVPxControllerFilters@3@PBVPxObstacleContext@3@@Z 10009890 f   CctCharacterController.obj
 0001:00008970       ??$PX_UNUSED@I@@YAXABI@Z   10009970 f i CctCharacterController.obj
 0001:00008980       ??$PX_UNUSED@PBUPxRaycastHit@physx@@@@YAXABQBUPxRaycastHit@physx@@@Z 10009980 f i CctCharacterController.obj
 0001:00008990       ??$PX_UNUSED@W4PxIDENTITY@physx@@@@YAXABW4PxIDENTITY@physx@@@Z 10009990 f i CctCharacterController.obj
 0001:000089a0       ??$PxMax@N@physx@@YANNN@Z  100099a0 f i CctCharacterController.obj
 0001:000089d0       ??$PxMin@N@physx@@YANNN@Z  100099d0 f i CctCharacterController.obj
 0001:00008a00       ??$PxUnionCast@PBVPxGeometry@physx@@PAY03$$CBE@physx@@YAPBVPxGeometry@0@PAY03$$CBE@Z 10009a00 f i CctCharacterController.obj
 0001:00008a10       ??$reserve@IV?$ReflectionAllocator@I@shdfnd@physx@@@Cct@physx@@YAPAIAAV?$Array@IV?$ReflectionAllocator@I@shdfnd@physx@@@shdfnd@1@I@Z 10009a10 f i CctCharacterController.obj
 0001:00008a40       ??0?$Array@IV?$ReflectionAllocator@I@shdfnd@physx@@@shdfnd@physx@@QAE@ABV?$ReflectionAllocator@I@12@@Z 10009a40 f i CctCharacterController.obj
 0001:00008a60       ??0?$Array@VPxTriangle@physx@@V?$ReflectionAllocator@VPxTriangle@physx@@@shdfnd@2@@shdfnd@physx@@QAE@ABV?$ReflectionAllocator@VPxTriangle@physx@@@12@@Z 10009a60 f i CctCharacterController.obj
 0001:00008a80       ??0?$PxFlags@W4Enum@PxControllerCollisionFlag@physx@@E@physx@@QAE@ABV01@@Z 10009a80 f i CctCharacterController.obj
 0001:00008a90       ??0?$PxFlags@W4Enum@PxControllerCollisionFlag@physx@@E@physx@@QAE@E@Z 10009a90 f i CctCharacterController.obj
 0001:00008aa0       ??0?$PxFlags@W4Enum@PxHitFlag@physx@@G@physx@@QAE@ABV01@@Z 10009aa0 f i CctCharacterController.obj
 0001:00008ac0       ??0?$PxFlags@W4Enum@PxHitFlag@physx@@G@physx@@QAE@G@Z 10009ac0 f i CctCharacterController.obj
 0001:00008ad0       ??0?$PxFlags@W4Enum@PxHitFlag@physx@@G@physx@@QAE@W4Enum@PxHitFlag@1@@Z 10009ad0 f i CctCharacterController.obj
 0001:00008ae0       ??0?$PxFlags@W4Enum@PxQueryFlag@physx@@G@physx@@QAE@ABV01@@Z 10009ae0 f i CctCharacterController.obj
 0001:00008b00       ??0?$PxFlags@W4Enum@PxQueryFlag@physx@@G@physx@@QAE@W4Enum@PxQueryFlag@1@@Z 10009b00 f i CctCharacterController.obj
 0001:00008b10       ??0?$PxFlags@W4Enum@PxQueryFlag@physx@@G@physx@@QAE@XZ 10009b10 f i CctCharacterController.obj
 0001:00008b20       ??0?$PxFlags@W4Enum@PxShapeFlag@physx@@E@physx@@QAE@ABV01@@Z 10009b20 f i CctCharacterController.obj
 0001:00008b30       ??0?$PxHitBuffer@UPxRaycastHit@physx@@@physx@@QAE@PAUPxRaycastHit@1@I@Z 10009b30 f i CctCharacterController.obj
 0001:00008b90       ??0?$PxHitCallback@UPxRaycastHit@physx@@@physx@@QAE@PAUPxRaycastHit@1@I@Z 10009b90 f i CctCharacterController.obj
 0001:00008bf0       ??0?$ReflectionAllocator@I@shdfnd@physx@@QAE@ABV012@@Z 10009bf0 f i CctCharacterController.obj
 0001:00008c00       ??0?$ReflectionAllocator@I@shdfnd@physx@@QAE@PBD@Z 10009c00 f i CctCharacterController.obj
 0001:00008c10       ??0?$ReflectionAllocator@VPxTriangle@physx@@@shdfnd@physx@@QAE@ABV012@@Z 10009c10 f i CctCharacterController.obj
 0001:00008c20       ??0?$ReflectionAllocator@VPxTriangle@physx@@@shdfnd@physx@@QAE@PBD@Z 10009c20 f i CctCharacterController.obj
 0001:00008c30       ??0CCTFilter@Cct@physx@@QAE@XZ 10009c30 f i CctCharacterController.obj
 0001:00008c50       ??0ControllerFilter@@QAE@XZ 10009c50 f i CctCharacterController.obj
 0001:00008c60       ??0DebugBox@Cm@physx@@QAE@ABVPxBounds3@2@_N@Z 10009c60 f i CctCharacterController.obj
 0001:00008ca0       ??0DebugBox@Cm@physx@@QAE@ABVPxVec3@2@_N@Z 10009ca0 f i CctCharacterController.obj
 0001:00008cf0       ??0Matrix34@Cm@physx@@QAE@XZ 10009cf0 f i CctCharacterController.obj
 0001:00008d00       ??0PxActorShape@physx@@QAE@XZ 10009d00 f i CctCharacterController.obj
 0001:00008d10       ??0PxBounds3@physx@@QAE@ABVPxVec3@1@0@Z 10009d10 f i CctCharacterController.obj
 0001:00008d50       ??0PxBoxGeometry@physx@@QAE@VPxVec3@1@@Z 10009d50 f i CctCharacterController.obj
 0001:00008d80       ??0PxCapsuleGeometry@physx@@QAE@MM@Z 10009d80 f i CctCharacterController.obj
 0001:00008db0       ??0PxControllerManager@physx@@IAE@XZ 10009db0 f i CctCharacterController.obj
 0001:00008dc0       ??0PxControllerManager@physx@@QAE@ABV01@@Z 10009dc0 f i CctCharacterController.obj
 0001:00008dd0       ??0PxExtendedBox@physx@@QAE@ABV01@@Z 10009dd0 f i CctCharacterController.obj
 0001:00008e20       ??0PxExtendedBox@physx@@QAE@XZ 10009e20 f i CctCharacterController.obj
 0001:00008e30       ??0PxExtendedCapsule@physx@@QAE@XZ 10009e30 f i CctCharacterController.obj
 0001:00008e40       ??0PxExtendedSegment@physx@@QAE@XZ 10009e40 f i CctCharacterController.obj
 0001:00008e50       ??0PxFilterData@physx@@QAE@XZ 10009e50 f i CctCharacterController.obj
 0001:00008e70       ??0PxLocationHit@physx@@QAE@XZ 10009e70 f i CctCharacterController.obj
 0001:00008eb0       ??0PxMat33@physx@@QAE@ABV01@@Z 10009eb0 f i CctCharacterController.obj
 0001:00008ef0       ??0PxMat33@physx@@QAE@ABVPxQuat@1@@Z 10009ef0 f i CctCharacterController.obj
 0001:00009030       ??0PxMat33@physx@@QAE@W4PxIDENTITY@1@@Z 1000a030 f i CctCharacterController.obj
 0001:00009080       ??0PxQuat@physx@@QAE@ABV01@@Z 1000a080 f i CctCharacterController.obj
 0001:000090b0       ??0PxQuat@physx@@QAE@MMMM@Z 1000a0b0 f i CctCharacterController.obj
 0001:000090e0       ??0PxQuat@physx@@QAE@W4PxIDENTITY@1@@Z 1000a0e0 f i CctCharacterController.obj
 0001:00009100       ??0PxQuat@physx@@QAE@XZ    1000a100 f i CctCharacterController.obj
 0001:00009110       ??0PxQueryFilterCallback@physx@@QAE@XZ 1000a110 f i CctCharacterController.obj
 0001:00009120       ??0PxQueryFilterData@physx@@QAE@ABUPxFilterData@1@V?$PxFlags@W4Enum@PxQueryFlag@physx@@G@1@@Z 1000a120 f i CctCharacterController.obj
 0001:00009140       ??0PxQueryHit@physx@@QAE@XZ 1000a140 f i CctCharacterController.obj
 0001:00009160       ??0PxRaycastHit@physx@@QAE@XZ 1000a160 f i CctCharacterController.obj
 0001:000091a0       ??0PxSphereGeometry@physx@@QAE@XZ 1000a1a0 f i CctCharacterController.obj
 0001:000091b0       ??0PxSweepHit@physx@@QAE@XZ 1000a1b0 f i CctCharacterController.obj
 0001:000091f0       ??0PxTransform@physx@@QAE@ABVPxVec3@1@ABVPxQuat@1@@Z 1000a1f0 f i CctCharacterController.obj
 0001:00009230       ??0PxTransform@physx@@QAE@XZ 1000a230 f i CctCharacterController.obj
 0001:00009240       ??0PxVec3@physx@@QAE@M@Z   1000a240 f i CctCharacterController.obj
 0001:00009260       ??0PxVec3@physx@@QAE@XZ    1000a260 f i CctCharacterController.obj
 0001:00009270       ??0SIMDGuard@shdfnd@physx@@QAE@XZ 1000a270 f i CctCharacterController.obj
 0001:00009290       ??0SweptContact@Cct@physx@@QAE@XZ 1000a290 f i CctCharacterController.obj
 0001:000092a0       ??1?$Array@IV?$ReflectionAllocator@I@shdfnd@physx@@@shdfnd@physx@@QAE@XZ 1000a2a0 f i CctCharacterController.obj
 0001:000092d0       ??1?$Array@VPxTriangle@physx@@V?$ReflectionAllocator@VPxTriangle@physx@@@shdfnd@2@@shdfnd@physx@@QAE@XZ 1000a2d0 f i CctCharacterController.obj
 0001:00009300       ??1?$PxHitBuffer@UPxRaycastHit@physx@@@physx@@UAE@XZ 1000a300 f i CctCharacterController.obj
 0001:00009310       ??1?$PxHitCallback@UPxRaycastHit@physx@@@physx@@UAE@XZ 1000a310 f i CctCharacterController.obj
 0001:00009320       ??1ControllerFilter@@UAE@XZ 1000a320 f i CctCharacterController.obj
 0001:00009330       ??1PxControllerManager@physx@@MAE@XZ 1000a330 f i CctCharacterController.obj
 0001:00009340       ??1PxExtendedBox@physx@@QAE@XZ 1000a340 f i CctCharacterController.obj
 0001:00009350       ??1PxQueryFilterCallback@physx@@UAE@XZ 1000a350 f i CctCharacterController.obj
 0001:00009360       ??1PxTriangle@physx@@QAE@XZ 1000a360 f i CctCharacterController.obj
 0001:00009370       ??1SIMDGuard@shdfnd@physx@@QAE@XZ 1000a370 f i CctCharacterController.obj
 0001:00009390       ??2@YAPAXIPAX@Z            1000a390 f i CctCharacterController.obj
 0001:000093a0       ??4?$PxFlags@W4Enum@PxControllerCollisionFlag@physx@@E@physx@@QAEAAV01@ABV01@@Z 1000a3a0 f i CctCharacterController.obj
 0001:000093b0       ??4?$PxFlags@W4Enum@PxHitFlag@physx@@G@physx@@QAEAAV01@ABV01@@Z 1000a3b0 f i CctCharacterController.obj
 0001:000093d0       ??4?$PxFlags@W4Enum@PxQueryFlag@physx@@G@physx@@QAEAAV01@ABV01@@Z 1000a3d0 f i CctCharacterController.obj
 0001:000093f0       ??4CCTParams@Cct@physx@@QAEAAU012@ABU012@@Z 1000a3f0 f i CctCharacterController.obj
 0001:00009480       ??4PxControllerManager@physx@@QAEAAV01@ABV01@@Z 1000a480 f i CctCharacterController.obj
 0001:00009490       ??4PxExtendedBox@physx@@QAEAAV01@ABV01@@Z 1000a490 f i CctCharacterController.obj
 0001:000094e0       ??4PxLocationHit@physx@@QAEAAU01@ABU01@@Z 1000a4e0 f i CctCharacterController.obj
 0001:00009530       ??4PxRaycastHit@physx@@QAEAAU01@ABU01@@Z 1000a530 f i CctCharacterController.obj
 0001:000095a0       ??4PxTransform@physx@@QAEAAV01@ABV01@@Z 1000a5a0 f i CctCharacterController.obj
 0001:000095e0       ??4SweptContact@Cct@physx@@QAEAAU012@ABU012@@Z 1000a5e0 f i CctCharacterController.obj
 0001:00009630       ??A?$Array@IV?$ReflectionAllocator@I@shdfnd@physx@@@shdfnd@physx@@QBEABII@Z 1000a630 f i CctCharacterController.obj
 0001:00009640       ??A?$Array@UInternalBoxObstacle@ObstacleContext@Cct@physx@@V?$ReflectionAllocator@UInternalBoxObstacle@ObstacleContext@Cct@physx@@@shdfnd@4@@shdfnd@physx@@QBEABUInternalBoxObstacle@ObstacleContext@Cct@2@I@Z 1000a640 f i CctCharacterController.obj
 0001:00009660       ??A?$Array@UInternalCapsuleObstacle@ObstacleContext@Cct@physx@@V?$ReflectionAllocator@UInternalCapsuleObstacle@ObstacleContext@Cct@physx@@@shdfnd@4@@shdfnd@physx@@QBEABUInternalCapsuleObstacle@ObstacleContext@Cct@2@I@Z 1000a660 f i CctCharacterController.obj
 0001:00009670       ??A?$Array@VPxTriangle@physx@@V?$ReflectionAllocator@VPxTriangle@physx@@@shdfnd@2@@shdfnd@physx@@QAEAAVPxTriangle@2@I@Z 1000a670 f i CctCharacterController.obj
 0001:00009690       ??A?$Array@VPxTriangle@physx@@V?$ReflectionAllocator@VPxTriangle@physx@@@shdfnd@2@@shdfnd@physx@@QBEABVPxTriangle@2@I@Z 1000a690 f i CctCharacterController.obj
 0001:000096b0       ??B?$PxFlags@W4Enum@PxControllerBehaviorFlag@physx@@E@physx@@QBEIXZ 1000a6b0 f i CctCharacterController.obj
 0001:000096c0       ??B?$PxFlags@W4Enum@PxControllerDebugRenderFlag@physx@@I@physx@@QBEIXZ 1000a6c0 f i CctCharacterController.obj
 0001:000096d0       ??B?$PxFlags@W4Enum@PxQueryFlag@physx@@G@physx@@QBE_NXZ 1000a6d0 f i CctCharacterController.obj
 0001:000096e0       ??B?$PxFlags@W4Enum@PxShapeFlag@physx@@E@physx@@QBE_NXZ 1000a6e0 f i CctCharacterController.obj
 0001:000096f0       ??DPxQuat@physx@@QBE?AV01@ABV01@@Z 1000a6f0 f i CctCharacterController.obj
 0001:000097d0       ??DPxTransform@physx@@QBE?AV01@ABV01@@Z 1000a7d0 f i CctCharacterController.obj
 0001:00009a00       ??GPxVec3@physx@@QBE?AV01@ABV01@@Z 1000aa00 f i CctCharacterController.obj
 0001:00009a40       ??GPxVec3@physx@@QBE?AV01@XZ 1000aa40 f i CctCharacterController.obj
 0001:00009a80       ??HPxVec3@physx@@QBE?AV01@ABV01@@Z 1000aa80 f i CctCharacterController.obj
 0001:00009ac0       ??I?$PxFlags@W4Enum@PxQueryFlag@physx@@G@physx@@QBE?AV01@W4Enum@PxQueryFlag@1@@Z 1000aac0 f i CctCharacterController.obj
 0001:00009ae0       ??I?$PxFlags@W4Enum@PxShapeFlag@physx@@E@physx@@QBE?AV01@W4Enum@PxShapeFlag@1@@Z 1000aae0 f i CctCharacterController.obj
 0001:00009b00       ??R?$Hash@PAVPxShape@physx@@@shdfnd@physx@@QBEIABQAVPxShape@2@@Z 1000ab00 f i CctCharacterController.obj
 0001:00009b40       ??R?$Hash@PAVPxShape@physx@@@shdfnd@physx@@QBE_NABQAVPxShape@2@0@Z 1000ab40 f i CctCharacterController.obj
 0001:00009b60       ??RGetKey@?$HashSetBase@PAVPxShape@physx@@U?$Hash@PAVPxShape@physx@@@shdfnd@2@VAllocator@42@$0A@@internal@shdfnd@physx@@QAEABQAVPxShape@4@ABQAV54@@Z 1000ab60 f i CctCharacterController.obj
 0001:00009b70       ??U?$PxFlags@W4Enum@PxHitFlag@physx@@G@physx@@QBE?AV01@W4Enum@PxHitFlag@1@@Z 1000ab70 f i CctCharacterController.obj
 0001:00009b90       ??U?$PxFlags@W4Enum@PxQueryFlag@physx@@G@physx@@QBE?AV01@W4Enum@PxQueryFlag@1@@Z 1000ab90 f i CctCharacterController.obj
 0001:00009bb0       ??Uphysx@@YA?AV?$PxFlags@W4Enum@PxHitFlag@physx@@G@0@W4Enum@PxHitFlag@0@0@Z 1000abb0 f i CctCharacterController.obj
 0001:00009bd0       ??Uphysx@@YA?AV?$PxFlags@W4Enum@PxQueryFlag@physx@@G@0@W4Enum@PxQueryFlag@0@0@Z 1000abd0 f i CctCharacterController.obj
 0001:00009bf0       ??YPxVec3@physx@@QAEAAV01@ABV01@@Z 1000abf0 f i CctCharacterController.obj
 0001:00009c30       ??ZPxVec3@physx@@QAEAAV01@ABV01@@Z 1000ac30 f i CctCharacterController.obj
 0001:00009c70       ??_0PxVec3@physx@@QAEAAV01@M@Z 1000ac70 f i CctCharacterController.obj
 0001:00009cb0       ??_5?$PxFlags@W4Enum@PxControllerCollisionFlag@physx@@E@physx@@QAEAAV01@W4Enum@PxControllerCollisionFlag@1@@Z 1000acb0 f i CctCharacterController.obj
 0001:00009cc0       ??_5?$PxFlags@W4Enum@PxHitFlag@physx@@G@physx@@QAEAAV01@W4Enum@PxHitFlag@1@@Z 1000acc0 f i CctCharacterController.obj
 0001:00009cd0       ??_5?$PxFlags@W4Enum@PxQueryFlag@physx@@G@physx@@QAEAAV01@W4Enum@PxQueryFlag@1@@Z 1000acd0 f i CctCharacterController.obj
 0001:00009ce0       ??_EPxControllerManager@physx@@MAEPAXI@Z 1000ace0 f i CctCharacterController.obj
 0001:00009d40       ??_G?$PxHitBuffer@UPxRaycastHit@physx@@@physx@@UAEPAXI@Z 1000ad40 f i CctCharacterController.obj
 0001:00009d40       ??_E?$PxHitBuffer@UPxRaycastHit@physx@@@physx@@UAEPAXI@Z 1000ad40 f i CctCharacterController.obj
 0001:00009d70       ??_E?$PxHitCallback@UPxRaycastHit@physx@@@physx@@UAEPAXI@Z 1000ad70 f i CctCharacterController.obj
 0001:00009d70       ??_G?$PxHitCallback@UPxRaycastHit@physx@@@physx@@UAEPAXI@Z 1000ad70 f i CctCharacterController.obj
 0001:00009da0       ??_GControllerFilter@@UAEPAXI@Z 1000ada0 f i CctCharacterController.obj
 0001:00009da0       ??_EControllerFilter@@UAEPAXI@Z 1000ada0 f i CctCharacterController.obj
 0001:00009dd0       ??_GPxControllerManager@physx@@MAEPAXI@Z 1000add0 f i CctCharacterController.obj
 0001:00009e00       ??_GPxExtendedBox@physx@@QAEPAXI@Z 1000ae00 f i CctCharacterController.obj
 0001:00009e20       ??_GPxQueryFilterCallback@physx@@UAEPAXI@Z 1000ae20 f i CctCharacterController.obj
 0001:00009e20       ??_EPxQueryFilterCallback@physx@@UAEPAXI@Z 1000ae20 f i CctCharacterController.obj
 0001:00009e50       ??_GPxTriangle@physx@@QAEPAXI@Z 1000ae50 f i CctCharacterController.obj
 0001:00009e70       ??_I@YGXPAXIHP6EX0@Z@Z     1000ae70 f i CctCharacterController.obj
 0001:00009eb0       ?FLoad@aos@shdfnd@physx@@YA?AT__m128@@M@Z 1000aeb0 f i CctCharacterController.obj
 0001:00009ec0       ?PxAbs@physx@@YAMM@Z       1000aec0 f i CctCharacterController.obj
 0001:00009ee0       ?PxRecipSqrt@physx@@YAMM@Z 1000aee0 f i CctCharacterController.obj
 0001:00009f10       ?PxSqrt@physx@@YAMM@Z      1000af10 f i CctCharacterController.obj
 0001:00009f30       ?PxSqrt@physx@@YANN@Z      1000af30 f i CctCharacterController.obj
 0001:00009f50       ?V3Load@aos@shdfnd@physx@@YA?AT__m128@@M@Z 1000af50 f i CctCharacterController.obj
 0001:00009f70       ?V4Load@aos@shdfnd@physx@@YA?AT__m128@@M@Z 1000af70 f i CctCharacterController.obj
 0001:00009f80       ?abs@intrinsics@physx@@YAMM@Z 1000af80 f i CctCharacterController.obj
 0001:00009fa0       ?add@physx@@YAXAAUPxExtendedBounds3@1@ABU21@@Z 1000afa0 f i CctCharacterController.obj
 0001:0000a020       ?allocate@?$Array@IV?$ReflectionAllocator@I@shdfnd@physx@@@shdfnd@physx@@IAEPAII@Z 1000b020 f i CctCharacterController.obj
 0001:0000a090       ?allocate@?$Array@PBXV?$ReflectionAllocator@PBX@shdfnd@physx@@@shdfnd@physx@@IAEPAPBXI@Z 1000b090 f i CctCharacterController.obj
 0001:0000a100       ?allocate@?$Array@UPxExtendedCapsule@physx@@V?$ReflectionAllocator@UPxExtendedCapsule@physx@@@shdfnd@2@@shdfnd@physx@@IAEPAUPxExtendedCapsule@3@I@Z 1000b100 f i CctCharacterController.obj
 0001:0000a180       ?allocate@?$Array@VPxExtendedBox@physx@@V?$ReflectionAllocator@VPxExtendedBox@physx@@@shdfnd@2@@shdfnd@physx@@IAEPAVPxExtendedBox@3@I@Z 1000b180 f i CctCharacterController.obj
 0001:0000a200       ?allocate@?$ReflectionAllocator@I@shdfnd@physx@@QAEPAXIPBDH@Z 1000b200 f i CctCharacterController.obj
 0001:0000a260       ?allocate@?$ReflectionAllocator@PBX@shdfnd@physx@@QAEPAXIPBDH@Z 1000b260 f i CctCharacterController.obj
 0001:0000a2c0       ?allocate@?$ReflectionAllocator@UPxExtendedCapsule@physx@@@shdfnd@physx@@QAEPAXIPBDH@Z 1000b2c0 f i CctCharacterController.obj
 0001:0000a320       ?allocate@?$ReflectionAllocator@VPxExtendedBox@physx@@@shdfnd@physx@@QAEPAXIPBDH@Z 1000b320 f i CctCharacterController.obj
 0001:0000a380       ?any@PxGeometryHolder@physx@@QBEABVPxGeometry@2@XZ 1000b380 f i CctCharacterController.obj
 0001:0000a390       ?begin@?$Array@IV?$ReflectionAllocator@I@shdfnd@physx@@@shdfnd@physx@@QAEPAIXZ 1000b390 f i CctCharacterController.obj
 0001:0000a3a0       ?begin@?$Array@IV?$ReflectionAllocator@I@shdfnd@physx@@@shdfnd@physx@@QBEPBIXZ 1000b3a0 f i CctCharacterController.obj
 0001:0000a3b0       ?begin@?$Array@PBXV?$ReflectionAllocator@PBX@shdfnd@physx@@@shdfnd@physx@@QAEPAPBXXZ 1000b3b0 f i CctCharacterController.obj
 0001:0000a3c0       ?begin@?$Array@UPxExtendedCapsule@physx@@V?$ReflectionAllocator@UPxExtendedCapsule@physx@@@shdfnd@2@@shdfnd@physx@@QAEPAUPxExtendedCapsule@3@XZ 1000b3c0 f i CctCharacterController.obj
 0001:0000a3d0       ?begin@?$Array@VPxExtendedBox@physx@@V?$ReflectionAllocator@VPxExtendedBox@physx@@@shdfnd@2@@shdfnd@physx@@QAEPAVPxExtendedBox@3@XZ 1000b3d0 f i CctCharacterController.obj
 0001:0000a3e0       ?capacity@?$Array@IV?$ReflectionAllocator@I@shdfnd@physx@@@shdfnd@physx@@QBEIXZ 1000b3e0 f i CctCharacterController.obj
 0001:0000a3f0       ?capacity@?$Array@PBXV?$ReflectionAllocator@PBX@shdfnd@physx@@@shdfnd@physx@@QBEIXZ 1000b3f0 f i CctCharacterController.obj
 0001:0000a400       ?capacity@?$Array@UPxExtendedCapsule@physx@@V?$ReflectionAllocator@UPxExtendedCapsule@physx@@@shdfnd@2@@shdfnd@physx@@QBEIXZ 1000b400 f i CctCharacterController.obj
 0001:0000a410       ?capacity@?$Array@VPxExtendedBox@physx@@V?$ReflectionAllocator@VPxExtendedBox@physx@@@shdfnd@2@@shdfnd@physx@@QBEIXZ 1000b410 f i CctCharacterController.obj
 0001:0000a420       ?capacity@?$Array@VPxTriangle@physx@@V?$ReflectionAllocator@VPxTriangle@physx@@@shdfnd@2@@shdfnd@physx@@QBEIXZ 1000b420 f i CctCharacterController.obj
 0001:0000a430       ?capacityIncrement@?$Array@PBXV?$ReflectionAllocator@PBX@shdfnd@physx@@@shdfnd@physx@@IBEIXZ 1000b430 f i CctCharacterController.obj
 0001:0000a450       ?capacityIncrement@?$Array@UPxExtendedCapsule@physx@@V?$ReflectionAllocator@UPxExtendedCapsule@physx@@@shdfnd@2@@shdfnd@physx@@IBEIXZ 1000b450 f i CctCharacterController.obj
 0001:0000a470       ?capacityIncrement@?$Array@VPxExtendedBox@physx@@V?$ReflectionAllocator@VPxExtendedBox@physx@@@shdfnd@2@@shdfnd@physx@@IBEIXZ 1000b470 f i CctCharacterController.obj
 0001:0000a490       ?clear@?$Array@IV?$ReflectionAllocator@I@shdfnd@physx@@@shdfnd@physx@@QAEXXZ 1000b490 f i CctCharacterController.obj
 0001:0000a4a0       ?clear@?$Array@VPxTriangle@physx@@V?$ReflectionAllocator@VPxTriangle@physx@@@shdfnd@2@@shdfnd@physx@@QAEXXZ 1000b4a0 f i CctCharacterController.obj
 0001:0000a4b0       ?contains@?$HashSetBase@PAVPxShape@physx@@U?$Hash@PAVPxShape@physx@@@shdfnd@2@VAllocator@42@$0A@@internal@shdfnd@physx@@QBE_NABQAVPxShape@4@@Z 1000b4b0 f i CctCharacterController.obj
 0001:0000a4d0       ?copy@?$Array@IV?$ReflectionAllocator@I@shdfnd@physx@@@shdfnd@physx@@KAXPAI0PBI@Z 1000b4d0 f i CctCharacterController.obj
 0001:0000a500       ?copy@?$Array@PBXV?$ReflectionAllocator@PBX@shdfnd@physx@@@shdfnd@physx@@KAXPAPBX0PBQBX@Z 1000b500 f i CctCharacterController.obj
 0001:0000a530       ?copy@?$Array@UPxExtendedCapsule@physx@@V?$ReflectionAllocator@UPxExtendedCapsule@physx@@@shdfnd@2@@shdfnd@physx@@KAXPAUPxExtendedCapsule@3@0PBU43@@Z 1000b530 f i CctCharacterController.obj
 0001:0000a580       ?copy@?$Array@VPxExtendedBox@physx@@V?$ReflectionAllocator@VPxExtendedBox@physx@@@shdfnd@2@@shdfnd@physx@@KAXPAVPxExtendedBox@3@0PBV43@@Z 1000b580 f i CctCharacterController.obj
 0001:0000a600       ?createController@PxControllerManager@physx@@UAEPAVPxController@2@AAVPxPhysics@2@PAVPxScene@2@ABVPxControllerDesc@2@@Z 1000b600 f i CctCharacterController.obj
 0001:0000a640       ?cross@PxVec3@physx@@QBE?AV12@ABV12@@Z 1000b640 f i CctCharacterController.obj
 0001:0000a6b0       ?deallocate@?$Array@IV?$ReflectionAllocator@I@shdfnd@physx@@@shdfnd@physx@@IAEXPAX@Z 1000b6b0 f i CctCharacterController.obj
 0001:0000a6d0       ?deallocate@?$Array@PBXV?$ReflectionAllocator@PBX@shdfnd@physx@@@shdfnd@physx@@IAEXPAX@Z 1000b6d0 f i CctCharacterController.obj
 0001:0000a6f0       ?deallocate@?$Array@UPxExtendedCapsule@physx@@V?$ReflectionAllocator@UPxExtendedCapsule@physx@@@shdfnd@2@@shdfnd@physx@@IAEXPAX@Z 1000b6f0 f i CctCharacterController.obj
 0001:0000a710       ?deallocate@?$Array@VPxExtendedBox@physx@@V?$ReflectionAllocator@VPxExtendedBox@physx@@@shdfnd@2@@shdfnd@physx@@IAEXPAX@Z 1000b710 f i CctCharacterController.obj
 0001:0000a730       ?deallocate@?$Array@VPxTriangle@physx@@V?$ReflectionAllocator@VPxTriangle@physx@@@shdfnd@2@@shdfnd@physx@@IAEXPAX@Z 1000b730 f i CctCharacterController.obj
 0001:0000a750       ?deallocate@?$ReflectionAllocator@I@shdfnd@physx@@QAEXPAX@Z 1000b750 f i CctCharacterController.obj
 0001:0000a770       ?deallocate@?$ReflectionAllocator@PBX@shdfnd@physx@@QAEXPAX@Z 1000b770 f i CctCharacterController.obj
 0001:0000a790       ?deallocate@?$ReflectionAllocator@UPxExtendedCapsule@physx@@@shdfnd@physx@@QAEXPAX@Z 1000b790 f i CctCharacterController.obj
 0001:0000a7b0       ?deallocate@?$ReflectionAllocator@VPxExtendedBox@physx@@@shdfnd@physx@@QAEXPAX@Z 1000b7b0 f i CctCharacterController.obj
 0001:0000a7d0       ?deallocate@?$ReflectionAllocator@VPxTriangle@physx@@@shdfnd@physx@@QAEXPAX@Z 1000b7d0 f i CctCharacterController.obj
 0001:0000a7f0       ?decomposeVector@shdfnd@physx@@YAXAAVPxVec3@2@0ABV32@1@Z 1000b7f0 f i CctCharacterController.obj
 0001:0000a880       ?destroy@?$Array@IV?$ReflectionAllocator@I@shdfnd@physx@@@shdfnd@physx@@KAXPAI0@Z 1000b880 f i CctCharacterController.obj
 0001:0000a890       ?destroy@?$Array@PBXV?$ReflectionAllocator@PBX@shdfnd@physx@@@shdfnd@physx@@KAXPAPBX0@Z 1000b890 f i CctCharacterController.obj
 0001:0000a8a0       ?destroy@?$Array@UPxExtendedCapsule@physx@@V?$ReflectionAllocator@UPxExtendedCapsule@physx@@@shdfnd@2@@shdfnd@physx@@KAXPAUPxExtendedCapsule@3@0@Z 1000b8a0 f i CctCharacterController.obj
 0001:0000a8b0       ?destroy@?$Array@VPxExtendedBox@physx@@V?$ReflectionAllocator@VPxExtendedBox@physx@@@shdfnd@2@@shdfnd@physx@@KAXPAVPxExtendedBox@3@0@Z 1000b8b0 f i CctCharacterController.obj
 0001:0000a8c0       ?destroy@?$Array@VPxTriangle@physx@@V?$ReflectionAllocator@VPxTriangle@physx@@@shdfnd@2@@shdfnd@physx@@KAXPAVPxTriangle@3@0@Z 1000b8c0 f i CctCharacterController.obj
 0001:0000a8d0       ?distance@physx@@YANABUPxExtendedVec3@1@0@Z 1000b8d0 f i CctCharacterController.obj
 0001:0000a920       ?dot@PxVec3@physx@@QBEMABV12@@Z 1000b920 f i CctCharacterController.obj
 0001:0000a940       ?encodeUserObject@Cct@physx@@YAIIW4UserObjectType@12@@Z 1000b940 f i CctCharacterController.obj
 0001:0000a960       ?end@?$Array@IV?$ReflectionAllocator@I@shdfnd@physx@@@shdfnd@physx@@QAEPAIXZ 1000b960 f i CctCharacterController.obj
 0001:0000a970       ?end@?$Array@IV?$ReflectionAllocator@I@shdfnd@physx@@@shdfnd@physx@@QBEPBIXZ 1000b970 f i CctCharacterController.obj
 0001:0000a980       ?fabs@@YAMM@Z              1000b980 f i CctCharacterController.obj
 0001:0000a9a0       ?finalizeQuery@?$PxHitCallback@UPxRaycastHit@physx@@@physx@@UAEXXZ 1000b9a0 f i CctCharacterController.obj
 0001:0000a9b0       ?find@?$HashBase@PAVPxShape@physx@@PAV12@U?$Hash@PAVPxShape@physx@@@shdfnd@2@UGetKey@?$HashSetBase@PAVPxShape@physx@@U?$Hash@PAVPxShape@physx@@@shdfnd@2@VAllocator@42@$0A@@internal@42@VAllocator@42@$0A@@internal@shdfnd@physx@@QBEPBQAVPxShape@4@ABQAV54@@Z 1000b9b0 f i CctCharacterController.obj
 0001:0000aa40       ?forceSize_Unsafe@?$Array@IV?$ReflectionAllocator@I@shdfnd@physx@@@shdfnd@physx@@QAEXI@Z 1000ba40 f i CctCharacterController.obj
 0001:0000aa50       ?forceSize_Unsafe@?$Array@VPxTriangle@physx@@V?$ReflectionAllocator@VPxTriangle@physx@@@shdfnd@2@@shdfnd@physx@@QAEXI@Z 1000ba50 f i CctCharacterController.obj
 0001:0000aa60       ?getAnyHit@?$PxHitBuffer@UPxRaycastHit@physx@@@physx@@QBEABUPxRaycastHit@2@I@Z 1000ba60 f i CctCharacterController.obj
 0001:0000aa80       ?getBasisVector0@PxQuat@physx@@QBE?AVPxVec3@2@XZ 1000ba80 f i CctCharacterController.obj
 0001:0000ab00       ?getCenter@PxBounds3@physx@@QBE?AVPxVec3@2@XZ 1000bb00 f i CctCharacterController.obj
 0001:0000ab50       ?getConcreteType@PxBase@physx@@QBEGXZ 1000bb50 f i CctCharacterController.obj
 0001:0000ab60       ?getDimensions@PxBounds3@physx@@QBE?AVPxVec3@2@XZ 1000bb60 f i CctCharacterController.obj
 0001:0000aba0       ?getExtents@PxBounds3@physx@@QBE?AVPxVec3@2@XZ 1000bba0 f i CctCharacterController.obj
 0001:0000abf0       ?getGlobalPose@PxShapeExt@physx@@SA?AVPxTransform@2@ABVPxShape@2@ABVPxRigidActor@2@@Z 1000bbf0 f i CctCharacterController.obj
 0001:0000ae30       ?getName@?$ReflectionAllocator@I@shdfnd@physx@@CAPBDXZ 1000be30 f i CctCharacterController.obj
 0001:0000ae60       ?getName@?$ReflectionAllocator@PBX@shdfnd@physx@@CAPBDXZ 1000be60 f i CctCharacterController.obj
 0001:0000ae90       ?getName@?$ReflectionAllocator@UPxExtendedCapsule@physx@@@shdfnd@physx@@CAPBDXZ 1000be90 f i CctCharacterController.obj
 0001:0000aec0       ?getName@?$ReflectionAllocator@VPxExtendedBox@physx@@@shdfnd@physx@@CAPBDXZ 1000bec0 f i CctCharacterController.obj
 0001:0000aef0       ?getNbTouches@?$PxHitBuffer@UPxRaycastHit@physx@@@physx@@QBEIXZ 1000bef0 f i CctCharacterController.obj
 0001:0000af00       ?getNormalized@PxVec3@physx@@QBE?AV12@XZ 1000bf00 f i CctCharacterController.obj
 0001:0000afa0       ?getShapeGlobalPose@physx@@YA?AVPxTransform@1@ABVPxShape@1@ABVPxRigidActor@1@@Z 1000bfa0 f i CctCharacterController.obj
 0001:0000b1e0       ?getTouches@?$PxHitBuffer@UPxRaycastHit@physx@@@physx@@QBEPBUPxRaycastHit@2@XZ 1000c1e0 f i CctCharacterController.obj
 0001:0000b1f0       ?getType@SweptVolume@Cct@physx@@QBE?AW4Enum@SweptVolumeType@23@XZ 1000c1f0 f i CctCharacterController.obj
 0001:0000b200       ?grow@?$Array@IV?$ReflectionAllocator@I@shdfnd@physx@@@shdfnd@physx@@IAEXI@Z 1000c200 f i CctCharacterController.obj
 0001:0000b210       ?growAndPushBack@?$Array@PBXV?$ReflectionAllocator@PBX@shdfnd@physx@@@shdfnd@physx@@IAEAAPBXABQBX@Z 1000c210 f i CctCharacterController.obj
 0001:0000b2a0       ?growAndPushBack@?$Array@UPxExtendedCapsule@physx@@V?$ReflectionAllocator@UPxExtendedCapsule@physx@@@shdfnd@2@@shdfnd@physx@@IAEAAUPxExtendedCapsule@3@ABU43@@Z 1000c2a0 f i CctCharacterController.obj
 0001:0000b360       ?growAndPushBack@?$Array@VPxExtendedBox@physx@@V?$ReflectionAllocator@VPxExtendedBox@physx@@@shdfnd@2@@shdfnd@physx@@IAEAAVPxExtendedBox@3@ABV43@@Z 1000c360 f i CctCharacterController.obj
 0001:0000b430       ?hash@?$HashBase@PAVPxShape@physx@@PAV12@U?$Hash@PAVPxShape@physx@@@shdfnd@2@UGetKey@?$HashSetBase@PAVPxShape@physx@@U?$Hash@PAVPxShape@physx@@@shdfnd@2@VAllocator@42@$0A@@internal@42@VAllocator@42@$0A@@internal@shdfnd@physx@@ABEIABQAVPxShape@4@@Z 1000c430 f i CctCharacterController.obj
 0001:0000b470       ?hash@?$HashBase@PAVPxShape@physx@@PAV12@U?$Hash@PAVPxShape@physx@@@shdfnd@2@UGetKey@?$HashSetBase@PAVPxShape@physx@@U?$Hash@PAVPxShape@physx@@@shdfnd@2@VAllocator@42@$0A@@internal@42@VAllocator@42@$0A@@internal@shdfnd@physx@@ABEIABQAVPxShape@4@I@Z 1000c470 f i CctCharacterController.obj
 0001:0000b4b0       ?hash@shdfnd@physx@@YAII@Z 1000c4b0 f i CctCharacterController.obj
 0001:0000b4f0       ?hash@shdfnd@physx@@YAIPBX@Z 1000c4f0 f i CctCharacterController.obj
 0001:0000b530       ?intersectOBBAABB@Gu@physx@@YA_NABVBox@12@ABVPxBounds3@2@@Z 1000c530 f i CctCharacterController.obj
 0001:0000b600       ?isAlmostZero@shdfnd@physx@@YA_NABVPxVec3@2@@Z 1000c600 f i CctCharacterController.obj
 0001:0000b650       ?isInUserMemory@?$Array@IV?$ReflectionAllocator@I@shdfnd@physx@@@shdfnd@physx@@QBEIXZ 1000c650 f i CctCharacterController.obj
 0001:0000b660       ?isInUserMemory@?$Array@PBXV?$ReflectionAllocator@PBX@shdfnd@physx@@@shdfnd@physx@@QBEIXZ 1000c660 f i CctCharacterController.obj
 0001:0000b670       ?isInUserMemory@?$Array@UPxExtendedCapsule@physx@@V?$ReflectionAllocator@UPxExtendedCapsule@physx@@@shdfnd@2@@shdfnd@physx@@QBEIXZ 1000c670 f i CctCharacterController.obj
 0001:0000b680       ?isInUserMemory@?$Array@VPxExtendedBox@physx@@V?$ReflectionAllocator@VPxExtendedBox@physx@@@shdfnd@2@@shdfnd@physx@@QBEIXZ 1000c680 f i CctCharacterController.obj
 0001:0000b690       ?isInUserMemory@?$Array@VPxTriangle@physx@@V?$ReflectionAllocator@VPxTriangle@physx@@@shdfnd@2@@shdfnd@physx@@QBEIXZ 1000c690 f i CctCharacterController.obj
 0001:0000b6a0       ?isInside@PxExtendedBounds3@physx@@QBE_NABU12@@Z 1000c6a0 f i CctCharacterController.obj
 0001:0000b700       ?isZero@PxVec3@physx@@QBE_NXZ 1000c700 f i CctCharacterController.obj
 0001:0000b740       ?magnitude@PxVec3@physx@@QBEMXZ 1000c740 f i CctCharacterController.obj
 0001:0000b780       ?magnitudeSquared@PxVec3@physx@@QBEMXZ 1000c780 f i CctCharacterController.obj
 0001:0000b7c0       ?maximum@PxExtendedVec3@physx@@QAEXABU12@@Z 1000c7c0 f i CctCharacterController.obj
 0001:0000b800       ?minimum@PxExtendedVec3@physx@@QAEXABU12@@Z 1000c800 f i CctCharacterController.obj
 0001:0000b850       ?normal@PxTriangle@physx@@QBEXAAVPxVec3@2@@Z 1000c850 f i CctCharacterController.obj
 0001:0000b930       ?normalize@PxVec3@physx@@QAEMXZ 1000c930 f i CctCharacterController.obj
 0001:0000b9a0       ?postFilter@ControllerFilter@@UAE?AW4Enum@PxQueryHitType@physx@@ABUPxFilterData@4@ABUPxQueryHit@4@@Z 1000c9a0 f i CctCharacterController.obj
 0001:0000b9c0       ?preFilter@ControllerFilter@@UAE?AW4Enum@PxQueryHitType@physx@@ABUPxFilterData@4@PBVPxShape@4@PBVPxRigidActor@4@AAV?$PxFlags@W4Enum@PxHitFlag@physx@@G@4@@Z 1000c9c0 f i CctCharacterController.obj
 0001:0000ba20       ?processTouches@?$PxHitBuffer@UPxRaycastHit@physx@@@physx@@MAE_NPBUPxRaycastHit@2@I@Z 1000ca20 f i CctCharacterController.obj
 0001:0000ba30       ?pushBack@?$Array@PBXV?$ReflectionAllocator@PBX@shdfnd@physx@@@shdfnd@physx@@QAEAAPBXABQBX@Z 1000ca30 f i CctCharacterController.obj
 0001:0000ba70       ?pushBack@?$Array@UPxExtendedCapsule@physx@@V?$ReflectionAllocator@UPxExtendedCapsule@physx@@@shdfnd@2@@shdfnd@physx@@QAEAAUPxExtendedCapsule@3@ABU43@@Z 1000ca70 f i CctCharacterController.obj
 0001:0000baf0       ?pushBack@?$Array@VPxExtendedBox@physx@@V?$ReflectionAllocator@VPxExtendedBox@physx@@@shdfnd@2@@shdfnd@physx@@QAEAAVPxExtendedBox@3@ABV43@@Z 1000caf0 f i CctCharacterController.obj
 0001:0000bb80       ?recipSqrt@intrinsics@physx@@YAMM@Z 1000cb80 f i CctCharacterController.obj
 0001:0000bbb0       ?recreate@?$Array@IV?$ReflectionAllocator@I@shdfnd@physx@@@shdfnd@physx@@IAEXI@Z 1000cbb0 f i CctCharacterController.obj
 0001:0000bc10       ?reserve@?$Array@IV?$ReflectionAllocator@I@shdfnd@physx@@@shdfnd@physx@@QAEXI@Z 1000cc10 f i CctCharacterController.obj
 0001:0000bc30       ?resetStats@SweepTest@Cct@physx@@QAEXXZ 1000cc30 f i CctCharacterController.obj
 0001:0000bc40       ?resizeUninitialized@?$Array@IV?$ReflectionAllocator@I@shdfnd@physx@@@shdfnd@physx@@QAEXI@Z 1000cc40 f i CctCharacterController.obj
 0001:0000bc70       ?rotate@PxQuat@physx@@QBE?BVPxVec3@2@ABV32@@Z 1000cc70 f i CctCharacterController.obj
 0001:0000bd90       ?rotateInv@PxQuat@physx@@QBE?BVPxVec3@2@ABV32@@Z 1000cd90 f i CctCharacterController.obj
 0001:0000beb0       ?selectMax@intrinsics@physx@@YAMMM@Z 1000ceb0 f i CctCharacterController.obj
 0001:0000bee0       ?selectMin@intrinsics@physx@@YAMMM@Z 1000cee0 f i CctCharacterController.obj
 0001:0000bf10       ?set@PxExtendedBounds3@physx@@QAEXNNNNNN@Z 1000cf10 f i CctCharacterController.obj
 0001:0000bf60       ?set@PxExtendedVec3@physx@@QAEXNNN@Z 1000cf60 f i CctCharacterController.obj
 0001:0000bf90       ?setEmpty@PxExtendedBounds3@physx@@QAEXXZ 1000cf90 f i CctCharacterController.obj
 0001:0000bfb0       ?setWorldPos@SweptContact@Cct@physx@@QAEXABVPxVec3@3@ABUPxExtendedVec3@3@@Z 1000cfb0 f i CctCharacterController.obj
 0001:0000bff0       ?size@?$Array@IV?$ReflectionAllocator@I@shdfnd@physx@@@shdfnd@physx@@QBEIXZ 1000cff0 f i CctCharacterController.obj
 0001:0000c000       ?size@?$Array@UInternalBoxObstacle@ObstacleContext@Cct@physx@@V?$ReflectionAllocator@UInternalBoxObstacle@ObstacleContext@Cct@physx@@@shdfnd@4@@shdfnd@physx@@QBEIXZ 1000d000 f i CctCharacterController.obj
 0001:0000c010       ?size@?$Array@UInternalCapsuleObstacle@ObstacleContext@Cct@physx@@V?$ReflectionAllocator@UInternalCapsuleObstacle@ObstacleContext@Cct@physx@@@shdfnd@4@@shdfnd@physx@@QBEIXZ 1000d010 f i CctCharacterController.obj
 0001:0000c020       ?size@?$Array@UPxExtendedCapsule@physx@@V?$ReflectionAllocator@UPxExtendedCapsule@physx@@@shdfnd@2@@shdfnd@physx@@QBEIXZ 1000d020 f i CctCharacterController.obj
 0001:0000c030       ?size@?$Array@VPxExtendedBox@physx@@V?$ReflectionAllocator@VPxExtendedBox@physx@@@shdfnd@2@@shdfnd@physx@@QBEIXZ 1000d030 f i CctCharacterController.obj
 0001:0000c040       ?size@?$Array@VPxTriangle@physx@@V?$ReflectionAllocator@VPxTriangle@physx@@@shdfnd@2@@shdfnd@physx@@QBEIXZ 1000d040 f i CctCharacterController.obj
 0001:0000c050       ?sqrt@intrinsics@physx@@YAMM@Z 1000d050 f i CctCharacterController.obj
 0001:0000c070       ?testSlope@physx@@YA_NABVPxVec3@1@0M@Z 1000d070 f i CctCharacterController.obj
 0001:0000c0c0       ?toVec3@physx@@YA?AVPxVec3@1@ABUPxExtendedVec3@1@@Z 1000d0c0 f i CctCharacterController.obj
 0001:0000c100       ?transform@PxTransform@physx@@QBE?AV12@ABV12@@Z 1000d100 f i CctCharacterController.obj
 0001:0000c330       ?transform@PxTransform@physx@@QBE?AVPxVec3@2@ABV32@@Z 1000d330 f i CctCharacterController.obj
 0001:0000c470       ?transformInv@PxTransform@physx@@QBE?AVPxVec3@2@ABV32@@Z 1000d470 f i CctCharacterController.obj
 0001:0000c5a0       _fabsf                     1000d5a0 f i CctCharacterController.obj
 0001:0000c5c0       _sqrtf                     1000d5c0 f i CctCharacterController.obj
 0001:0000c620       ?getSceneTimestamp@Cct@physx@@YAIPBUInternalCBData_FindTouchedGeom@12@@Z 1000d620 f   CctCharacterControllerCallbacks.obj
 0001:0000c640       ?findTouchedGeometry@Cct@physx@@YAXPBUInternalCBData_FindTouchedGeom@12@ABUPxExtendedBounds3@2@AAV?$Array@VPxTriangle@physx@@V?$ReflectionAllocator@VPxTriangle@physx@@@shdfnd@2@@shdfnd@2@AAV?$Array@IV?$ReflectionAllocator@I@shdfnd@physx@@@62@3ABVCCTFilter@12@ABUCCTParams@12@AAG@Z 1000d640 f   CctCharacterControllerCallbacks.obj
 0001:0000ccc0       ?shapeHitCallback@Cct@physx@@YAIPBUInternalCBData_OnHit@12@ABUSweptContact@12@ABVPxVec3@2@M@Z 1000dcc0 f   CctCharacterControllerCallbacks.obj
 0001:0000cd90       ?userHitCallback@Cct@physx@@YAIPBUInternalCBData_OnHit@12@ABUSweptContact@12@ABVPxVec3@2@M@Z 1000dd90 f   CctCharacterControllerCallbacks.obj
 0001:000118c0       ??$PX_UNUSED@PBUPxOverlapHit@physx@@@@YAXABQBUPxOverlapHit@physx@@@Z 100128c0 f i CctCharacterControllerCallbacks.obj
 0001:000118d0       ??$reserve@VPxTriangle@physx@@V?$ReflectionAllocator@VPxTriangle@physx@@@shdfnd@2@@Cct@physx@@YAPAVPxTriangle@1@AAV?$Array@VPxTriangle@physx@@V?$ReflectionAllocator@VPxTriangle@physx@@@shdfnd@2@@shdfnd@1@I@Z 100128d0 f i CctCharacterControllerCallbacks.obj
 0001:00011900       ??0?$PxFlags@W4Enum@PxMeshGeometryFlag@physx@@E@physx@@QAE@E@Z 10012900 f i CctCharacterControllerCallbacks.obj
 0001:00011910       ??0?$PxFlags@W4Enum@PxMeshGeometryFlag@physx@@E@physx@@QAE@XZ 10012910 f i CctCharacterControllerCallbacks.obj
 0001:00011920       ??0?$PxHitBuffer@UPxOverlapHit@physx@@@physx@@QAE@PAUPxOverlapHit@1@I@Z 10012920 f i CctCharacterControllerCallbacks.obj
 0001:00011960       ??0?$PxHitCallback@UPxOverlapHit@physx@@@physx@@QAE@PAUPxOverlapHit@1@I@Z 10012960 f i CctCharacterControllerCallbacks.obj
 0001:000119a0       ??0?$PxPadding@$02@physx@@QAE@XZ 100129a0 f i CctCharacterControllerCallbacks.obj
 0001:000119b0       ??0PxControllerHit@physx@@QAE@XZ 100129b0 f i CctCharacterControllerCallbacks.obj
 0001:000119c0       ??0PxControllerObstacleHit@physx@@QAE@XZ 100129c0 f i CctCharacterControllerCallbacks.obj
 0001:000119d0       ??0PxControllerShapeHit@physx@@QAE@XZ 100129d0 f i CctCharacterControllerCallbacks.obj
 0001:000119e0       ??0PxControllersHit@physx@@QAE@XZ 100129e0 f i CctCharacterControllerCallbacks.obj
 0001:000119f0       ??0PxConvexMeshGeometry@physx@@QAE@XZ 100129f0 f i CctCharacterControllerCallbacks.obj
 0001:00011a40       ??0PxExtendedSphere@physx@@QAE@XZ 10012a40 f i CctCharacterControllerCallbacks.obj
 0001:00011a50       ??0PxHeightFieldGeometry@physx@@QAE@XZ 10012a50 f i CctCharacterControllerCallbacks.obj
 0001:00011a90       ??0PxMat33@physx@@QAE@ABVPxVec3@1@00@Z 10012a90 f i CctCharacterControllerCallbacks.obj
 0001:00011ae0       ??0PxMat44@physx@@QAE@ABVPxMat33@1@ABVPxVec3@1@@Z 10012ae0 f i CctCharacterControllerCallbacks.obj
 0001:00011b60       ??0PxMeshScale@physx@@QAE@M@Z 10012b60 f i CctCharacterControllerCallbacks.obj
 0001:00011ba0       ??0PxMeshScale@physx@@QAE@XZ 10012ba0 f i CctCharacterControllerCallbacks.obj
 0001:00011be0       ??0PxOverlapHit@physx@@QAE@XZ 10012be0 f i CctCharacterControllerCallbacks.obj
 0001:00011c00       ??0PxPlane@physx@@QAE@ABVPxVec3@1@M@Z 10012c00 f i CctCharacterControllerCallbacks.obj
 0001:00011c30       ??0PxPlane@physx@@QAE@MMMM@Z 10012c30 f i CctCharacterControllerCallbacks.obj
 0001:00011c60       ??0PxQueryFilterData@physx@@QAE@ABU01@@Z 10012c60 f i CctCharacterControllerCallbacks.obj
 0001:00011c90       ??0PxQueryFilterData@physx@@QAE@V?$PxFlags@W4Enum@PxQueryFlag@physx@@G@1@@Z 10012c90 f i CctCharacterControllerCallbacks.obj
 0001:00011cc0       ??0PxTransform@physx@@QAE@ABVPxVec3@1@@Z 10012cc0 f i CctCharacterControllerCallbacks.obj
 0001:00011d00       ??0PxTriangle@physx@@QAE@ABV01@@Z 10012d00 f i CctCharacterControllerCallbacks.obj
 0001:00011d40       ??0PxTriangle@physx@@QAE@ABVPxVec3@1@00@Z 10012d40 f i CctCharacterControllerCallbacks.obj
 0001:00011d90       ??0PxTriangle@physx@@QAE@XZ 10012d90 f i CctCharacterControllerCallbacks.obj
 0001:00011da0       ??0PxTriangleMeshGeometry@physx@@QAE@XZ 10012da0 f i CctCharacterControllerCallbacks.obj
 0001:00011df0       ??0PxVec4@physx@@QAE@ABVPxVec3@1@M@Z 10012df0 f i CctCharacterControllerCallbacks.obj
 0001:00011e20       ??0PxVec4@physx@@QAE@MMMM@Z 10012e20 f i CctCharacterControllerCallbacks.obj
 0001:00011e50       ??0TessParams@@QAE@XZ      10012e50 f i CctCharacterControllerCallbacks.obj
 0001:00011e60       ??1?$PxHitBuffer@UPxOverlapHit@physx@@@physx@@UAE@XZ 10012e60 f i CctCharacterControllerCallbacks.obj
 0001:00011e70       ??1?$PxHitCallback@UPxOverlapHit@physx@@@physx@@UAE@XZ 10012e70 f i CctCharacterControllerCallbacks.obj
 0001:00011e80       ??1PxExtendedSphere@physx@@QAE@XZ 10012e80 f i CctCharacterControllerCallbacks.obj
 0001:00011e90       ??APxVec3@physx@@QBEABMH@Z 10012e90 f i CctCharacterControllerCallbacks.obj
 0001:00011ea0       ??DPxMat33@physx@@QBE?AV01@ABV01@@Z 10012ea0 f i CctCharacterControllerCallbacks.obj
 0001:000120f0       ??DPxVec4@physx@@QBE?AV01@M@Z 100130f0 f i CctCharacterControllerCallbacks.obj
 0001:00012110       ??HPxVec4@physx@@QBE?AV01@ABV01@@Z 10013110 f i CctCharacterControllerCallbacks.obj
 0001:00012160       ??_G?$PxHitBuffer@UPxOverlapHit@physx@@@physx@@UAEPAXI@Z 10013160 f i CctCharacterControllerCallbacks.obj
 0001:00012160       ??_E?$PxHitBuffer@UPxOverlapHit@physx@@@physx@@UAEPAXI@Z 10013160 f i CctCharacterControllerCallbacks.obj
 0001:00012190       ??_E?$PxHitCallback@UPxOverlapHit@physx@@@physx@@UAEPAXI@Z 10013190 f i CctCharacterControllerCallbacks.obj
 0001:00012190       ??_G?$PxHitCallback@UPxOverlapHit@physx@@@physx@@UAEPAXI@Z 10013190 f i CctCharacterControllerCallbacks.obj
 0001:000121c0       ?PxPlaneEquationFromTransform@physx@@YA?AVPxPlane@1@ABVPxTransform@1@@Z 100131c0 f i CctCharacterControllerCallbacks.obj
 0001:00012300       ?allocate@?$Array@VPxTriangle@physx@@V?$ReflectionAllocator@VPxTriangle@physx@@@shdfnd@2@@shdfnd@physx@@IAEPAVPxTriangle@3@I@Z 10013300 f i CctCharacterControllerCallbacks.obj
 0001:00012370       ?allocate@?$ReflectionAllocator@VPxTriangle@physx@@@shdfnd@physx@@QAEPAXIPBDH@Z 10013370 f i CctCharacterControllerCallbacks.obj
 0001:000123d0       ?begin@?$Array@VPxTriangle@physx@@V?$ReflectionAllocator@VPxTriangle@physx@@@shdfnd@2@@shdfnd@physx@@QAEPAVPxTriangle@3@XZ 100133d0 f i CctCharacterControllerCallbacks.obj
 0001:000123e0       ?capacityIncrement@?$Array@IV?$ReflectionAllocator@I@shdfnd@physx@@@shdfnd@physx@@IBEIXZ 100133e0 f i CctCharacterControllerCallbacks.obj
 0001:00012400       ?capacityIncrement@?$Array@VPxTriangle@physx@@V?$ReflectionAllocator@VPxTriangle@physx@@@shdfnd@2@@shdfnd@physx@@IBEIXZ 10013400 f i CctCharacterControllerCallbacks.obj
 0001:00012420       ?centerExtents@PxBounds3@physx@@SA?AV12@ABVPxVec3@2@0@Z 10013420 f i CctCharacterControllerCallbacks.obj
 0001:00012490       ?computeBasis@shdfnd@physx@@YAXABVPxVec3@2@AAV32@1@Z 10013490 f i CctCharacterControllerCallbacks.obj
 0001:000125a0       ?copy@?$Array@VPxTriangle@physx@@V?$ReflectionAllocator@VPxTriangle@physx@@@shdfnd@2@@shdfnd@physx@@KAXPAVPxTriangle@3@0PBV43@@Z 100135a0 f i CctCharacterControllerCallbacks.obj
 0001:00012610       ?decodeIndex@Cct@physx@@YAII@Z 10013610 f i CctCharacterControllerCallbacks.obj
 0001:00012620       ?decodeType@Cct@physx@@YA?AW4UserObjectType@12@I@Z 10013620 f i CctCharacterControllerCallbacks.obj
 0001:00012630       ?distance@PxPlane@physx@@QBEMABVPxVec3@2@@Z 10013630 f i CctCharacterControllerCallbacks.obj
 0001:00012670       ?finalizeQuery@?$PxHitCallback@UPxOverlapHit@physx@@@physx@@UAEXXZ 10013670 f i CctCharacterControllerCallbacks.obj
 0001:00012680       ?getAnyHit@?$PxHitBuffer@UPxOverlapHit@physx@@@physx@@QBEABUPxOverlapHit@2@I@Z 10013680 f i CctCharacterControllerCallbacks.obj
 0001:000126a0       ?getName@?$ReflectionAllocator@VPxTriangle@physx@@@shdfnd@physx@@CAPBDXZ 100136a0 f i CctCharacterControllerCallbacks.obj
 0001:000126d0       ?getNbAnyHits@?$PxHitBuffer@UPxOverlapHit@physx@@@physx@@QBEIXZ 100136d0 f i CctCharacterControllerCallbacks.obj
 0001:000126e0       ?getNbTouches@?$PxHitBuffer@UPxOverlapHit@physx@@@physx@@QBEIXZ 100136e0 f i CctCharacterControllerCallbacks.obj
 0001:000126f0       ?getPosition@PxMat44@physx@@QBE?AVPxVec3@2@XZ 100136f0 f i CctCharacterControllerCallbacks.obj
 0001:00012710       ?getResults@PxMeshOverlapUtil@physx@@QBEPBIXZ 10013710 f i CctCharacterControllerCallbacks.obj
 0001:00012720       ?getTouches@?$PxHitBuffer@UPxOverlapHit@physx@@@physx@@QBEPBUPxOverlapHit@2@XZ 10013720 f i CctCharacterControllerCallbacks.obj
 0001:00012730       ?getTranspose@PxMat33@physx@@QBE?AV12@XZ 10013730 f i CctCharacterControllerCallbacks.obj
 0001:000127b0       ?getXYZ@PxVec4@physx@@QBE?AVPxVec3@2@XZ 100137b0 f i CctCharacterControllerCallbacks.obj
 0001:000127d0       ?grow@?$Array@VPxTriangle@physx@@V?$ReflectionAllocator@VPxTriangle@physx@@@shdfnd@2@@shdfnd@physx@@IAEXI@Z 100137d0 f i CctCharacterControllerCallbacks.obj
 0001:000127e0       ?growAndPushBack@?$Array@IV?$ReflectionAllocator@I@shdfnd@physx@@@shdfnd@physx@@IAEAAIABI@Z 100137e0 f i CctCharacterControllerCallbacks.obj
 0001:00012870       ?growAndPushBack@?$Array@VPxTriangle@physx@@V?$ReflectionAllocator@VPxTriangle@physx@@@shdfnd@2@@shdfnd@physx@@IAEAAVPxTriangle@3@ABV43@@Z 10013870 f i CctCharacterControllerCallbacks.obj
 0001:00012930       ?processTouches@?$PxHitBuffer@UPxOverlapHit@physx@@@physx@@MAE_NPBUPxOverlapHit@2@I@Z 10013930 f i CctCharacterControllerCallbacks.obj
 0001:00012940       ?project@PxPlane@physx@@QBE?AVPxVec3@2@ABV32@@Z 10013940 f i CctCharacterControllerCallbacks.obj
 0001:000129c0       ?pushBack@?$Array@IV?$ReflectionAllocator@I@shdfnd@physx@@@shdfnd@physx@@QAEAAIABI@Z 100139c0 f i CctCharacterControllerCallbacks.obj
 0001:00012a00       ?pushBack@?$Array@VPxTriangle@physx@@V?$ReflectionAllocator@VPxTriangle@physx@@@shdfnd@2@@shdfnd@physx@@QAEAAVPxTriangle@3@ABV43@@Z 10013a00 f i CctCharacterControllerCallbacks.obj
 0001:00012a80       ?recreate@?$Array@VPxTriangle@physx@@V?$ReflectionAllocator@VPxTriangle@physx@@@shdfnd@2@@shdfnd@physx@@IAEXI@Z 10013a80 f i CctCharacterControllerCallbacks.obj
 0001:00012ae0       ?reserve@?$Array@VPxTriangle@physx@@V?$ReflectionAllocator@VPxTriangle@physx@@@shdfnd@2@@shdfnd@physx@@QAEXI@Z 10013ae0 f i CctCharacterControllerCallbacks.obj
 0001:00012b00       ?resizeUninitialized@?$Array@VPxTriangle@physx@@V?$ReflectionAllocator@VPxTriangle@physx@@@shdfnd@2@@shdfnd@physx@@QAEXI@Z 10013b00 f i CctCharacterControllerCallbacks.obj
 0001:00012b30       ?rotate@PxMat44@physx@@QBE?BVPxVec3@2@ABV32@@Z 10013b30 f i CctCharacterControllerCallbacks.obj
 0001:00012bd0       ?rotate@PxMat44@physx@@QBE?BVPxVec4@2@ABV32@@Z 10013bd0 f i CctCharacterControllerCallbacks.obj
 0001:00012cb0       ?rotate@PxTransform@physx@@QBE?AVPxVec3@2@ABV32@@Z 10013cb0 f i CctCharacterControllerCallbacks.obj
 0001:00012dd0       ?toMat33@PxMeshScale@physx@@QBE?AVPxMat33@2@XZ 10013dd0 f i CctCharacterControllerCallbacks.obj
 0001:00013140       ?transform@PxMat33@physx@@QBE?AVPxVec3@2@ABV32@@Z 10014140 f i CctCharacterControllerCallbacks.obj
 0001:000131e0       ?transform@PxTransform@physx@@QBE?AVPxPlane@2@ABV32@@Z 100141e0 f i CctCharacterControllerCallbacks.obj
 0001:00013380       _PxCreateControllerManager 10014380 f   CctCharacterControllerManager.obj
 0001:000133f0       ??0CharacterControllerManager@Cct@physx@@QAE@AAVPxScene@2@@Z 100143f0 f   CctCharacterControllerManager.obj
 0001:00013500       ??1CharacterControllerManager@Cct@physx@@UAE@XZ 10014500 f   CctCharacterControllerManager.obj
 0001:00013600       ?release@CharacterControllerManager@Cct@physx@@UAEXXZ 10014600 f   CctCharacterControllerManager.obj
 0001:000136e0       ?getScene@CharacterControllerManager@Cct@physx@@UBEAAVPxScene@3@XZ 100146e0 f   CctCharacterControllerManager.obj
 0001:000136f0       ?getNbControllers@CharacterControllerManager@Cct@physx@@UBEIXZ 100146f0 f   CctCharacterControllerManager.obj
 0001:00013700       ?getController@CharacterControllerManager@Cct@physx@@UAEPAVPxController@3@I@Z 10014700 f   CctCharacterControllerManager.obj
 0001:00013740       ?createController@CharacterControllerManager@Cct@physx@@UAEPAVPxController@3@ABVPxControllerDesc@3@@Z 10014740 f   CctCharacterControllerManager.obj
 0001:000138e0       ?purgeControllers@CharacterControllerManager@Cct@physx@@UAEXXZ 100148e0 f   CctCharacterControllerManager.obj
 0001:00013990       ?getRenderBuffer@CharacterControllerManager@Cct@physx@@UAEAAVPxRenderBuffer@3@XZ 10014990 f   CctCharacterControllerManager.obj
 0001:00013a00       ?setDebugRenderingFlags@CharacterControllerManager@Cct@physx@@UAEXV?$PxFlags@W4Enum@PxControllerDebugRenderFlag@physx@@I@3@@Z 10014a00 f   CctCharacterControllerManager.obj
 0001:00013a30       ?getNbObstacleContexts@CharacterControllerManager@Cct@physx@@UBEIXZ 10014a30 f   CctCharacterControllerManager.obj
 0001:00013a40       ?getObstacleContext@CharacterControllerManager@Cct@physx@@UAEPAVPxObstacleContext@3@I@Z 10014a40 f   CctCharacterControllerManager.obj
 0001:00013a80       ?createObstacleContext@CharacterControllerManager@Cct@physx@@UAEPAVPxObstacleContext@3@XZ 10014a80 f   CctCharacterControllerManager.obj
 0001:00013b20       ?computeInteractions@CharacterControllerManager@Cct@physx@@UAEXMPAVPxControllerFilterCallback@3@@Z 10014b20 f   CctCharacterControllerManager.obj
 0001:00013cd0       ?setTessellation@CharacterControllerManager@Cct@physx@@UAEX_NM@Z 10014cd0 f   CctCharacterControllerManager.obj
 0001:00013cf0       ?setOverlapRecoveryModule@CharacterControllerManager@Cct@physx@@UAEX_N@Z 10014cf0 f   CctCharacterControllerManager.obj
 0001:00013d00       ?setPreciseSweeps@CharacterControllerManager@Cct@physx@@UAEX_N@Z 10014d00 f   CctCharacterControllerManager.obj
 0001:00013d10       ?setPreventVerticalSlidingAgainstCeiling@CharacterControllerManager@Cct@physx@@UAEX_N@Z 10014d10 f   CctCharacterControllerManager.obj
 0001:00013d20       ?shiftOrigin@CharacterControllerManager@Cct@physx@@UAEXABVPxVec3@3@@Z 10014d20 f   CctCharacterControllerManager.obj
 0001:00013db0       ?onObstacleRemoved@CharacterControllerManager@Cct@physx@@QBEXI@Z 10014db0 f   CctCharacterControllerManager.obj
 0001:00013de0       ?onObstacleUpdated@CharacterControllerManager@Cct@physx@@QBEXIPBVPxObstacleContext@3@@Z 10014de0 f   CctCharacterControllerManager.obj
 0001:00013eb0       ?onObstacleAdded@CharacterControllerManager@Cct@physx@@QBEXIPBVPxObstacleContext@3@@Z 10014eb0 f   CctCharacterControllerManager.obj
 0001:00013f80       ?releaseController@CharacterControllerManager@Cct@physx@@QAEXAAVPxController@3@@Z 10014f80 f   CctCharacterControllerManager.obj
 0001:00014010       ?getControllers@CharacterControllerManager@Cct@physx@@QAEPAPAVController@23@XZ 10015010 f   CctCharacterControllerManager.obj
 0001:00014020       ?releaseObstacleContext@CharacterControllerManager@Cct@physx@@QAEXAAVObstacleContext@23@@Z 10015020 f   CctCharacterControllerManager.obj
 0001:00014070       ?resetObstaclesBuffers@CharacterControllerManager@Cct@physx@@QAEXXZ 10015070 f   CctCharacterControllerManager.obj
 0001:00015280       ??$?2V?$ReflectionAllocator@VBoxController@Cct@physx@@@shdfnd@physx@@@UserAllocated@shdfnd@physx@@SAPAXIV?$ReflectionAllocator@VBoxController@Cct@physx@@@12@PBDH@Z 10016280 f i CctCharacterControllerManager.obj
 0001:000152e0       ??$?2V?$ReflectionAllocator@VCapsuleController@Cct@physx@@@shdfnd@physx@@@UserAllocated@shdfnd@physx@@SAPAXIV?$ReflectionAllocator@VCapsuleController@Cct@physx@@@12@PBDH@Z 100162e0 f i CctCharacterControllerManager.obj
 0001:00015340       ??$?2V?$ReflectionAllocator@VCharacterControllerManager@Cct@physx@@@shdfnd@physx@@@UserAllocated@shdfnd@physx@@SAPAXIV?$ReflectionAllocator@VCharacterControllerManager@Cct@physx@@@12@PBDH@Z 10016340 f i CctCharacterControllerManager.obj
 0001:000153a0       ??$?2V?$ReflectionAllocator@VObstacleContext@Cct@physx@@@shdfnd@physx@@@UserAllocated@shdfnd@physx@@SAPAXIV?$ReflectionAllocator@VObstacleContext@Cct@physx@@@12@PBDH@Z 100163a0 f i CctCharacterControllerManager.obj
 0001:00015400       ??$?2V?$ReflectionAllocator@VRenderBuffer@Cm@physx@@@shdfnd@physx@@@UserAllocated@shdfnd@physx@@SAPAXIV?$ReflectionAllocator@VRenderBuffer@Cm@physx@@@12@PBDH@Z 10016400 f i CctCharacterControllerManager.obj
 0001:00015460       ??$append@UPxDebugLine@physx@@@RenderBuffer@Cm@physx@@AAEXAAV?$Array@UPxDebugLine@physx@@V?$ReflectionAllocator@UPxDebugLine@physx@@@shdfnd@2@@shdfnd@2@PBUPxDebugLine@2@I@Z 10016460 f i CctCharacterControllerManager.obj
 0001:00015510       ??$append@UPxDebugPoint@physx@@@RenderBuffer@Cm@physx@@AAEXAAV?$Array@UPxDebugPoint@physx@@V?$ReflectionAllocator@UPxDebugPoint@physx@@@shdfnd@2@@shdfnd@2@PBUPxDebugPoint@2@I@Z 10016510 f i CctCharacterControllerManager.obj
 0001:00015590       ??$append@UPxDebugText@physx@@@RenderBuffer@Cm@physx@@AAEXAAV?$Array@UPxDebugText@physx@@V?$ReflectionAllocator@UPxDebugText@physx@@@shdfnd@2@@shdfnd@2@PBUPxDebugText@2@I@Z 10016590 f i CctCharacterControllerManager.obj
 0001:00015630       ??$append@UPxDebugTriangle@physx@@@RenderBuffer@Cm@physx@@AAEXAAV?$Array@UPxDebugTriangle@physx@@V?$ReflectionAllocator@UPxDebugTriangle@physx@@@shdfnd@2@@shdfnd@2@PBUPxDebugTriangle@2@I@Z 10016630 f i CctCharacterControllerManager.obj
 0001:00015700       ??$resetOrClear@V?$Array@PBXV?$ReflectionAllocator@PBX@shdfnd@physx@@@shdfnd@physx@@@@YAXAAV?$Array@PBXV?$ReflectionAllocator@PBX@shdfnd@physx@@@shdfnd@physx@@@Z 10016700 f i CctCharacterControllerManager.obj
 0001:00015750       ??$resetOrClear@V?$Array@UPxExtendedCapsule@physx@@V?$ReflectionAllocator@UPxExtendedCapsule@physx@@@shdfnd@2@@shdfnd@physx@@@@YAXAAV?$Array@UPxExtendedCapsule@physx@@V?$ReflectionAllocator@UPxExtendedCapsule@physx@@@shdfnd@2@@shdfnd@physx@@@Z 10016750 f i CctCharacterControllerManager.obj
 0001:000157a0       ??$resetOrClear@V?$Array@VPxExtendedBox@physx@@V?$ReflectionAllocator@VPxExtendedBox@physx@@@shdfnd@2@@shdfnd@physx@@@@YAXAAV?$Array@VPxExtendedBox@physx@@V?$ReflectionAllocator@VPxExtendedBox@physx@@@shdfnd@2@@shdfnd@physx@@@Z 100167a0 f i CctCharacterControllerManager.obj
 0001:000157f0       ??$swap@PAVController@Cct@physx@@@shdfnd@physx@@YAXAAPAVController@Cct@1@0@Z 100167f0 f i CctCharacterControllerManager.obj
 0001:00015810       ??0?$Array@DV?$ReflectionAllocator@D@shdfnd@physx@@@shdfnd@physx@@QAE@ABV?$ReflectionAllocator@D@12@@Z 10016810 f i CctCharacterControllerManager.obj
 0001:00015830       ??0?$Array@PAVController@Cct@physx@@V?$ReflectionAllocator@PAVController@Cct@physx@@@shdfnd@3@@shdfnd@physx@@QAE@ABV?$ReflectionAllocator@PAVController@Cct@physx@@@12@@Z 10016830 f i CctCharacterControllerManager.obj
 0001:00015850       ??0?$Array@PAVObstacleContext@Cct@physx@@V?$ReflectionAllocator@PAVObstacleContext@Cct@physx@@@shdfnd@3@@shdfnd@physx@@QAE@ABV?$ReflectionAllocator@PAVObstacleContext@Cct@physx@@@12@@Z 10016850 f i CctCharacterControllerManager.obj
 0001:00015870       ??0?$Array@PBXV?$ReflectionAllocator@PBX@shdfnd@physx@@@shdfnd@physx@@QAE@ABV?$ReflectionAllocator@PBX@12@@Z 10016870 f i CctCharacterControllerManager.obj
 0001:00015890       ??0?$Array@UPxDebugLine@physx@@V?$ReflectionAllocator@UPxDebugLine@physx@@@shdfnd@2@@shdfnd@physx@@QAE@ABV?$ReflectionAllocator@UPxDebugLine@physx@@@12@@Z 10016890 f i CctCharacterControllerManager.obj
 0001:000158b0       ??0?$Array@UPxDebugPoint@physx@@V?$ReflectionAllocator@UPxDebugPoint@physx@@@shdfnd@2@@shdfnd@physx@@QAE@ABV?$ReflectionAllocator@UPxDebugPoint@physx@@@12@@Z 100168b0 f i CctCharacterControllerManager.obj
 0001:000158d0       ??0?$Array@UPxDebugText@physx@@V?$ReflectionAllocator@UPxDebugText@physx@@@shdfnd@2@@shdfnd@physx@@QAE@ABV?$ReflectionAllocator@UPxDebugText@physx@@@12@@Z 100168d0 f i CctCharacterControllerManager.obj
 0001:000158f0       ??0?$Array@UPxDebugTriangle@physx@@V?$ReflectionAllocator@UPxDebugTriangle@physx@@@shdfnd@2@@shdfnd@physx@@QAE@ABV?$ReflectionAllocator@UPxDebugTriangle@physx@@@12@@Z 100168f0 f i CctCharacterControllerManager.obj
 0001:00015910       ??0?$Array@UPxExtendedCapsule@physx@@V?$ReflectionAllocator@UPxExtendedCapsule@physx@@@shdfnd@2@@shdfnd@physx@@QAE@ABV?$ReflectionAllocator@UPxExtendedCapsule@physx@@@12@@Z 10016910 f i CctCharacterControllerManager.obj
 0001:00015930       ??0?$Array@VPxExtendedBox@physx@@V?$ReflectionAllocator@VPxExtendedBox@physx@@@shdfnd@2@@shdfnd@physx@@QAE@ABV?$ReflectionAllocator@VPxExtendedBox@physx@@@12@@Z 10016930 f i CctCharacterControllerManager.obj
 0001:00015950       ??0?$HashBase@PAVPxShape@physx@@PAV12@U?$Hash@PAVPxShape@physx@@@shdfnd@2@UGetKey@?$HashSetBase@PAVPxShape@physx@@U?$Hash@PAVPxShape@physx@@@shdfnd@2@VAllocator@42@$0A@@internal@42@VAllocator@42@$0A@@internal@shdfnd@physx@@QAE@IM@Z 10016950 f i CctCharacterControllerManager.obj
 0001:000159c0       ??0?$HashSet@PAVPxShape@physx@@U?$Hash@PAVPxShape@physx@@@shdfnd@2@VAllocator@42@@shdfnd@physx@@QAE@IM@Z 100169c0 f i CctCharacterControllerManager.obj
 0001:00015a30       ??0?$HashSetBase@PAVPxShape@physx@@U?$Hash@PAVPxShape@physx@@@shdfnd@2@VAllocator@42@$0A@@internal@shdfnd@physx@@QAE@IM@Z 10016a30 f i CctCharacterControllerManager.obj
 0001:00015aa0       ??0?$PxFlags@W4Enum@PxControllerDebugRenderFlag@physx@@I@physx@@QAE@I@Z 10016aa0 f i CctCharacterControllerManager.obj
 0001:00015ab0       ??0?$ReflectionAllocator@D@shdfnd@physx@@QAE@ABV012@@Z 10016ab0 f i CctCharacterControllerManager.obj
 0001:00015ac0       ??0?$ReflectionAllocator@D@shdfnd@physx@@QAE@PBD@Z 10016ac0 f i CctCharacterControllerManager.obj
 0001:00015ad0       ??0?$ReflectionAllocator@PAVController@Cct@physx@@@shdfnd@physx@@QAE@ABV012@@Z 10016ad0 f i CctCharacterControllerManager.obj
 0001:00015ae0       ??0?$ReflectionAllocator@PAVController@Cct@physx@@@shdfnd@physx@@QAE@PBD@Z 10016ae0 f i CctCharacterControllerManager.obj
 0001:00015af0       ??0?$ReflectionAllocator@PAVObstacleContext@Cct@physx@@@shdfnd@physx@@QAE@ABV012@@Z 10016af0 f i CctCharacterControllerManager.obj
 0001:00015b00       ??0?$ReflectionAllocator@PAVObstacleContext@Cct@physx@@@shdfnd@physx@@QAE@PBD@Z 10016b00 f i CctCharacterControllerManager.obj
 0001:00015b10       ??0?$ReflectionAllocator@PBX@shdfnd@physx@@QAE@ABV012@@Z 10016b10 f i CctCharacterControllerManager.obj
 0001:00015b20       ??0?$ReflectionAllocator@PBX@shdfnd@physx@@QAE@PBD@Z 10016b20 f i CctCharacterControllerManager.obj
 0001:00015b30       ??0?$ReflectionAllocator@UPxDebugLine@physx@@@shdfnd@physx@@QAE@ABV012@@Z 10016b30 f i CctCharacterControllerManager.obj
 0001:00015b40       ??0?$ReflectionAllocator@UPxDebugLine@physx@@@shdfnd@physx@@QAE@PBD@Z 10016b40 f i CctCharacterControllerManager.obj
 0001:00015b50       ??0?$ReflectionAllocator@UPxDebugPoint@physx@@@shdfnd@physx@@QAE@ABV012@@Z 10016b50 f i CctCharacterControllerManager.obj
 0001:00015b60       ??0?$ReflectionAllocator@UPxDebugPoint@physx@@@shdfnd@physx@@QAE@PBD@Z 10016b60 f i CctCharacterControllerManager.obj
 0001:00015b70       ??0?$ReflectionAllocator@UPxDebugText@physx@@@shdfnd@physx@@QAE@ABV012@@Z 10016b70 f i CctCharacterControllerManager.obj
 0001:00015b80       ??0?$ReflectionAllocator@UPxDebugText@physx@@@shdfnd@physx@@QAE@PBD@Z 10016b80 f i CctCharacterControllerManager.obj
 0001:00015b90       ??0?$ReflectionAllocator@UPxDebugTriangle@physx@@@shdfnd@physx@@QAE@ABV012@@Z 10016b90 f i CctCharacterControllerManager.obj
 0001:00015ba0       ??0?$ReflectionAllocator@UPxDebugTriangle@physx@@@shdfnd@physx@@QAE@PBD@Z 10016ba0 f i CctCharacterControllerManager.obj
 0001:00015bb0       ??0?$ReflectionAllocator@UPxExtendedCapsule@physx@@@shdfnd@physx@@QAE@ABV012@@Z 10016bb0 f i CctCharacterControllerManager.obj
 0001:00015bc0       ??0?$ReflectionAllocator@UPxExtendedCapsule@physx@@@shdfnd@physx@@QAE@PBD@Z 10016bc0 f i CctCharacterControllerManager.obj
 0001:00015bd0       ??0?$ReflectionAllocator@VBoxController@Cct@physx@@@shdfnd@physx@@QAE@PBD@Z 10016bd0 f i CctCharacterControllerManager.obj
 0001:00015be0       ??0?$ReflectionAllocator@VCapsuleController@Cct@physx@@@shdfnd@physx@@QAE@PBD@Z 10016be0 f i CctCharacterControllerManager.obj
 0001:00015bf0       ??0?$ReflectionAllocator@VCharacterControllerManager@Cct@physx@@@shdfnd@physx@@QAE@PBD@Z 10016bf0 f i CctCharacterControllerManager.obj
 0001:00015c00       ??0?$ReflectionAllocator@VObstacleContext@Cct@physx@@@shdfnd@physx@@QAE@PBD@Z 10016c00 f i CctCharacterControllerManager.obj
 0001:00015c10       ??0?$ReflectionAllocator@VPxExtendedBox@physx@@@shdfnd@physx@@QAE@ABV012@@Z 10016c10 f i CctCharacterControllerManager.obj
 0001:00015c20       ??0?$ReflectionAllocator@VPxExtendedBox@physx@@@shdfnd@physx@@QAE@PBD@Z 10016c20 f i CctCharacterControllerManager.obj
 0001:00015c30       ??0?$ReflectionAllocator@VRenderBuffer@Cm@physx@@@shdfnd@physx@@QAE@PBD@Z 10016c30 f i CctCharacterControllerManager.obj
 0001:00015c40       ??0Axes@Gu@physx@@QAE@W4AxisOrder@12@@Z 10016c40 f i CctCharacterControllerManager.obj
 0001:00015c70       ??0PxDebugLine@physx@@QAE@ABU01@@Z 10016c70 f i CctCharacterControllerManager.obj
 0001:00015cb0       ??0PxDebugPoint@physx@@QAE@ABU01@@Z 10016cb0 f i CctCharacterControllerManager.obj
 0001:00015ce0       ??0PxDebugText@physx@@QAE@ABU01@@Z 10016ce0 f i CctCharacterControllerManager.obj
 0001:00015d10       ??0PxDebugTriangle@physx@@QAE@ABU01@@Z 10016d10 f i CctCharacterControllerManager.obj
 0001:00015d70       ??0PxRenderBuffer@physx@@QAE@XZ 10016d70 f i CctCharacterControllerManager.obj
 0001:00015d80       ??0RenderBuffer@Cm@physx@@QAE@XZ 10016d80 f i CctCharacterControllerManager.obj
 0001:00015e00       ??1?$Array@DV?$ReflectionAllocator@D@shdfnd@physx@@@shdfnd@physx@@QAE@XZ 10016e00 f i CctCharacterControllerManager.obj
 0001:00015e30       ??1?$Array@PAVController@Cct@physx@@V?$ReflectionAllocator@PAVController@Cct@physx@@@shdfnd@3@@shdfnd@physx@@QAE@XZ 10016e30 f i CctCharacterControllerManager.obj
 0001:00015e60       ??1?$Array@PAVObstacleContext@Cct@physx@@V?$ReflectionAllocator@PAVObstacleContext@Cct@physx@@@shdfnd@3@@shdfnd@physx@@QAE@XZ 10016e60 f i CctCharacterControllerManager.obj
 0001:00015e90       ??1?$Array@PBXV?$ReflectionAllocator@PBX@shdfnd@physx@@@shdfnd@physx@@QAE@XZ 10016e90 f i CctCharacterControllerManager.obj
 0001:00015ec0       ??1?$Array@UPxDebugLine@physx@@V?$ReflectionAllocator@UPxDebugLine@physx@@@shdfnd@2@@shdfnd@physx@@QAE@XZ 10016ec0 f i CctCharacterControllerManager.obj
 0001:00015ef0       ??1?$Array@UPxDebugPoint@physx@@V?$ReflectionAllocator@UPxDebugPoint@physx@@@shdfnd@2@@shdfnd@physx@@QAE@XZ 10016ef0 f i CctCharacterControllerManager.obj
 0001:00015f20       ??1?$Array@UPxDebugText@physx@@V?$ReflectionAllocator@UPxDebugText@physx@@@shdfnd@2@@shdfnd@physx@@QAE@XZ 10016f20 f i CctCharacterControllerManager.obj
 0001:00015f50       ??1?$Array@UPxDebugTriangle@physx@@V?$ReflectionAllocator@UPxDebugTriangle@physx@@@shdfnd@2@@shdfnd@physx@@QAE@XZ 10016f50 f i CctCharacterControllerManager.obj
 0001:00015f80       ??1?$Array@UPxExtendedCapsule@physx@@V?$ReflectionAllocator@UPxExtendedCapsule@physx@@@shdfnd@2@@shdfnd@physx@@QAE@XZ 10016f80 f i CctCharacterControllerManager.obj
 0001:00015fb0       ??1?$Array@VPxExtendedBox@physx@@V?$ReflectionAllocator@VPxExtendedBox@physx@@@shdfnd@2@@shdfnd@physx@@QAE@XZ 10016fb0 f i CctCharacterControllerManager.obj
 0001:00015fe0       ??1?$HashBase@PAVPxShape@physx@@PAV12@U?$Hash@PAVPxShape@physx@@@shdfnd@2@UGetKey@?$HashSetBase@PAVPxShape@physx@@U?$Hash@PAVPxShape@physx@@@shdfnd@2@VAllocator@42@$0A@@internal@42@VAllocator@42@$0A@@internal@shdfnd@physx@@QAE@XZ 10016fe0 f i CctCharacterControllerManager.obj
 0001:00015ff0       ??1?$HashSet@PAVPxShape@physx@@U?$Hash@PAVPxShape@physx@@@shdfnd@2@VAllocator@42@@shdfnd@physx@@QAE@XZ 10016ff0 f i CctCharacterControllerManager.obj
 0001:00016000       ??1?$HashSetBase@PAVPxShape@physx@@U?$Hash@PAVPxShape@physx@@@shdfnd@2@VAllocator@42@$0A@@internal@shdfnd@physx@@QAE@XZ 10017000 f i CctCharacterControllerManager.obj
 0001:00016010       ??1Axes@Gu@physx@@QAE@XZ   10017010 f i CctCharacterControllerManager.obj
 0001:00016020       ??1PxRenderBuffer@physx@@UAE@XZ 10017020 f i CctCharacterControllerManager.obj
 0001:00016030       ??1RenderBuffer@Cm@physx@@UAE@XZ 10017030 f i CctCharacterControllerManager.obj
 0001:000160e0       ??4?$PxFlags@W4Enum@PxControllerDebugRenderFlag@physx@@I@physx@@QAEAAV01@ABV01@@Z 100170e0 f i CctCharacterControllerManager.obj
 0001:000160f0       ??4PxBounds3@physx@@QAEAAV01@ABV01@@Z 100170f0 f i CctCharacterControllerManager.obj
 0001:00016120       ??A?$Array@PAVController@Cct@physx@@V?$ReflectionAllocator@PAVController@Cct@physx@@@shdfnd@3@@shdfnd@physx@@QAEAAPAVController@Cct@2@I@Z 10017120 f i CctCharacterControllerManager.obj
 0001:00016130       ??A?$Array@PAVController@Cct@physx@@V?$ReflectionAllocator@PAVController@Cct@physx@@@shdfnd@3@@shdfnd@physx@@QBEABQAVController@Cct@2@I@Z 10017130 f i CctCharacterControllerManager.obj
 0001:00016140       ??A?$Array@PAVObstacleContext@Cct@physx@@V?$ReflectionAllocator@PAVObstacleContext@Cct@physx@@@shdfnd@3@@shdfnd@physx@@QAEAAPAVObstacleContext@Cct@2@I@Z 10017140 f i CctCharacterControllerManager.obj
 0001:00016150       ??A?$Array@UPxDebugLine@physx@@V?$ReflectionAllocator@UPxDebugLine@physx@@@shdfnd@2@@shdfnd@physx@@QAEAAUPxDebugLine@2@I@Z 10017150 f i CctCharacterControllerManager.obj
 0001:00016160       ??A?$Array@UPxDebugPoint@physx@@V?$ReflectionAllocator@UPxDebugPoint@physx@@@shdfnd@2@@shdfnd@physx@@QAEAAUPxDebugPoint@2@I@Z 10017160 f i CctCharacterControllerManager.obj
 0001:00016170       ??A?$Array@UPxDebugText@physx@@V?$ReflectionAllocator@UPxDebugText@physx@@@shdfnd@2@@shdfnd@physx@@QAEAAUPxDebugText@2@I@Z 10017170 f i CctCharacterControllerManager.obj
 0001:00016190       ??A?$Array@UPxDebugTriangle@physx@@V?$ReflectionAllocator@UPxDebugTriangle@physx@@@shdfnd@2@@shdfnd@physx@@QAEAAUPxDebugTriangle@2@I@Z 10017190 f i CctCharacterControllerManager.obj
 0001:000161b0       ??APxMat33@physx@@QBEABVPxVec3@1@H@Z 100171b0 f i CctCharacterControllerManager.obj
 0001:000161c0       ??APxMat33@physx@@QBEABVPxVec3@1@I@Z 100171c0 f i CctCharacterControllerManager.obj
 0001:000161d0       ??APxVec3@physx@@QBEABMI@Z 100171d0 f i CctCharacterControllerManager.obj
 0001:000161e0       ??B?$PxFlags@W4Enum@PxControllerDebugRenderFlag@physx@@I@physx@@QBE_NXZ 100171e0 f i CctCharacterControllerManager.obj
 0001:000161f0       ??_GCharacterControllerManager@Cct@physx@@UAEPAXI@Z 100171f0 f i CctCharacterControllerManager.obj
 0001:000161f0       ??_ECharacterControllerManager@Cct@physx@@UAEPAXI@Z 100171f0 f i CctCharacterControllerManager.obj
 0001:00016220       ??_GPxRenderBuffer@physx@@UAEPAXI@Z 10017220 f i CctCharacterControllerManager.obj
 0001:00016220       ??_EPxRenderBuffer@physx@@UAEPAXI@Z 10017220 f i CctCharacterControllerManager.obj
 0001:00016250       ??_ERenderBuffer@Cm@physx@@UAEPAXI@Z 10017250 f i CctCharacterControllerManager.obj
 0001:00016250       ??_GRenderBuffer@Cm@physx@@UAEPAXI@Z 10017250 f i CctCharacterControllerManager.obj
 0001:00016280       ?PxMemCopy@physx@@YAPAXPIAXPIBXI@Z 10017280 f i CctCharacterControllerManager.obj
 0001:00016290       ?PxMemSet@physx@@YAPAXPIAXHI@Z 10017290 f i CctCharacterControllerManager.obj
 0001:000162a0       ?allocate@?$Array@PAVController@Cct@physx@@V?$ReflectionAllocator@PAVController@Cct@physx@@@shdfnd@3@@shdfnd@physx@@IAEPAPAVController@Cct@3@I@Z 100172a0 f i CctCharacterControllerManager.obj
 0001:00016310       ?allocate@?$Array@PAVObstacleContext@Cct@physx@@V?$ReflectionAllocator@PAVObstacleContext@Cct@physx@@@shdfnd@3@@shdfnd@physx@@IAEPAPAVObstacleContext@Cct@3@I@Z 10017310 f i CctCharacterControllerManager.obj
 0001:00016380       ?allocate@?$Array@UPxDebugLine@physx@@V?$ReflectionAllocator@UPxDebugLine@physx@@@shdfnd@2@@shdfnd@physx@@IAEPAUPxDebugLine@3@I@Z 10017380 f i CctCharacterControllerManager.obj
 0001:000163f0       ?allocate@?$Array@UPxDebugPoint@physx@@V?$ReflectionAllocator@UPxDebugPoint@physx@@@shdfnd@2@@shdfnd@physx@@IAEPAUPxDebugPoint@3@I@Z 100173f0 f i CctCharacterControllerManager.obj
 0001:00016460       ?allocate@?$Array@UPxDebugText@physx@@V?$ReflectionAllocator@UPxDebugText@physx@@@shdfnd@2@@shdfnd@physx@@IAEPAUPxDebugText@3@I@Z 10017460 f i CctCharacterControllerManager.obj
 0001:000164d0       ?allocate@?$Array@UPxDebugTriangle@physx@@V?$ReflectionAllocator@UPxDebugTriangle@physx@@@shdfnd@2@@shdfnd@physx@@IAEPAUPxDebugTriangle@3@I@Z 100174d0 f i CctCharacterControllerManager.obj
 0001:00016540       ?allocate@?$ReflectionAllocator@PAVController@Cct@physx@@@shdfnd@physx@@QAEPAXIPBDH@Z 10017540 f i CctCharacterControllerManager.obj
 0001:000165a0       ?allocate@?$ReflectionAllocator@PAVObstacleContext@Cct@physx@@@shdfnd@physx@@QAEPAXIPBDH@Z 100175a0 f i CctCharacterControllerManager.obj
 0001:00016600       ?allocate@?$ReflectionAllocator@UPxDebugLine@physx@@@shdfnd@physx@@QAEPAXIPBDH@Z 10017600 f i CctCharacterControllerManager.obj
 0001:00016660       ?allocate@?$ReflectionAllocator@UPxDebugPoint@physx@@@shdfnd@physx@@QAEPAXIPBDH@Z 10017660 f i CctCharacterControllerManager.obj
 0001:000166c0       ?allocate@?$ReflectionAllocator@UPxDebugText@physx@@@shdfnd@physx@@QAEPAXIPBDH@Z 100176c0 f i CctCharacterControllerManager.obj
 0001:00016720       ?allocate@?$ReflectionAllocator@UPxDebugTriangle@physx@@@shdfnd@physx@@QAEPAXIPBDH@Z 10017720 f i CctCharacterControllerManager.obj
 0001:00016780       ?allocate@?$ReflectionAllocator@VBoxController@Cct@physx@@@shdfnd@physx@@QAEPAXIPBDH@Z 10017780 f i CctCharacterControllerManager.obj
 0001:000167e0       ?allocate@?$ReflectionAllocator@VCapsuleController@Cct@physx@@@shdfnd@physx@@QAEPAXIPBDH@Z 100177e0 f i CctCharacterControllerManager.obj
 0001:00016840       ?allocate@?$ReflectionAllocator@VCharacterControllerManager@Cct@physx@@@shdfnd@physx@@QAEPAXIPBDH@Z 10017840 f i CctCharacterControllerManager.obj
 0001:000168a0       ?allocate@?$ReflectionAllocator@VObstacleContext@Cct@physx@@@shdfnd@physx@@QAEPAXIPBDH@Z 100178a0 f i CctCharacterControllerManager.obj
 0001:00016900       ?allocate@?$ReflectionAllocator@VRenderBuffer@Cm@physx@@@shdfnd@physx@@QAEPAXIPBDH@Z 10017900 f i CctCharacterControllerManager.obj
 0001:00016960       ?append@RenderBuffer@Cm@physx@@UAEXABVPxRenderBuffer@3@@Z 10017960 f i CctCharacterControllerManager.obj
 0001:000169e0       ?begin@?$Array@PAVController@Cct@physx@@V?$ReflectionAllocator@PAVController@Cct@physx@@@shdfnd@3@@shdfnd@physx@@QAEPAPAVController@Cct@3@XZ 100179e0 f i CctCharacterControllerManager.obj
 0001:000169f0       ?begin@?$Array@UPxDebugLine@physx@@V?$ReflectionAllocator@UPxDebugLine@physx@@@shdfnd@2@@shdfnd@physx@@QBEPBUPxDebugLine@3@XZ 100179f0 f i CctCharacterControllerManager.obj
 0001:00016a00       ?begin@?$Array@UPxDebugPoint@physx@@V?$ReflectionAllocator@UPxDebugPoint@physx@@@shdfnd@2@@shdfnd@physx@@QBEPBUPxDebugPoint@3@XZ 10017a00 f i CctCharacterControllerManager.obj
 0001:00016a10       ?begin@?$Array@UPxDebugText@physx@@V?$ReflectionAllocator@UPxDebugText@physx@@@shdfnd@2@@shdfnd@physx@@QBEPBUPxDebugText@3@XZ 10017a10 f i CctCharacterControllerManager.obj
 0001:00016a20       ?begin@?$Array@UPxDebugTriangle@physx@@V?$ReflectionAllocator@UPxDebugTriangle@physx@@@shdfnd@2@@shdfnd@physx@@QBEPBUPxDebugTriangle@3@XZ 10017a20 f i CctCharacterControllerManager.obj
 0001:00016a30       ?capacity@?$Array@DV?$ReflectionAllocator@D@shdfnd@physx@@@shdfnd@physx@@QBEIXZ 10017a30 f i CctCharacterControllerManager.obj
 0001:00016a40       ?capacity@?$Array@PAVController@Cct@physx@@V?$ReflectionAllocator@PAVController@Cct@physx@@@shdfnd@3@@shdfnd@physx@@QBEIXZ 10017a40 f i CctCharacterControllerManager.obj
 0001:00016a50       ?capacity@?$Array@PAVObstacleContext@Cct@physx@@V?$ReflectionAllocator@PAVObstacleContext@Cct@physx@@@shdfnd@3@@shdfnd@physx@@QBEIXZ 10017a50 f i CctCharacterControllerManager.obj
 0001:00016a60       ?capacity@?$Array@UPxDebugLine@physx@@V?$ReflectionAllocator@UPxDebugLine@physx@@@shdfnd@2@@shdfnd@physx@@QBEIXZ 10017a60 f i CctCharacterControllerManager.obj
 0001:00016a70       ?capacity@?$Array@UPxDebugPoint@physx@@V?$ReflectionAllocator@UPxDebugPoint@physx@@@shdfnd@2@@shdfnd@physx@@QBEIXZ 10017a70 f i CctCharacterControllerManager.obj
 0001:00016a80       ?capacity@?$Array@UPxDebugText@physx@@V?$ReflectionAllocator@UPxDebugText@physx@@@shdfnd@2@@shdfnd@physx@@QBEIXZ 10017a80 f i CctCharacterControllerManager.obj
 0001:00016a90       ?capacity@?$Array@UPxDebugTriangle@physx@@V?$ReflectionAllocator@UPxDebugTriangle@physx@@@shdfnd@2@@shdfnd@physx@@QBEIXZ 10017a90 f i CctCharacterControllerManager.obj
 0001:00016aa0       ?capacityIncrement@?$Array@PAVController@Cct@physx@@V?$ReflectionAllocator@PAVController@Cct@physx@@@shdfnd@3@@shdfnd@physx@@IBEIXZ 10017aa0 f i CctCharacterControllerManager.obj
 0001:00016ac0       ?capacityIncrement@?$Array@PAVObstacleContext@Cct@physx@@V?$ReflectionAllocator@PAVObstacleContext@Cct@physx@@@shdfnd@3@@shdfnd@physx@@IBEIXZ 10017ac0 f i CctCharacterControllerManager.obj
 0001:00016ae0       ?capacityIncrement@?$Array@UPxDebugLine@physx@@V?$ReflectionAllocator@UPxDebugLine@physx@@@shdfnd@2@@shdfnd@physx@@IBEIXZ 10017ae0 f i CctCharacterControllerManager.obj
 0001:00016b00       ?capacityIncrement@?$Array@UPxDebugPoint@physx@@V?$ReflectionAllocator@UPxDebugPoint@physx@@@shdfnd@2@@shdfnd@physx@@IBEIXZ 10017b00 f i CctCharacterControllerManager.obj
 0001:00016b20       ?capacityIncrement@?$Array@UPxDebugText@physx@@V?$ReflectionAllocator@UPxDebugText@physx@@@shdfnd@2@@shdfnd@physx@@IBEIXZ 10017b20 f i CctCharacterControllerManager.obj
 0001:00016b40       ?capacityIncrement@?$Array@UPxDebugTriangle@physx@@V?$ReflectionAllocator@UPxDebugTriangle@physx@@@shdfnd@2@@shdfnd@physx@@IBEIXZ 10017b40 f i CctCharacterControllerManager.obj
 0001:00016b60       ?clear@?$Array@DV?$ReflectionAllocator@D@shdfnd@physx@@@shdfnd@physx@@QAEXXZ 10017b60 f i CctCharacterControllerManager.obj
 0001:00016b70       ?clear@?$Array@PBXV?$ReflectionAllocator@PBX@shdfnd@physx@@@shdfnd@physx@@QAEXXZ 10017b70 f i CctCharacterControllerManager.obj
 0001:00016b80       ?clear@?$Array@UPxDebugLine@physx@@V?$ReflectionAllocator@UPxDebugLine@physx@@@shdfnd@2@@shdfnd@physx@@QAEXXZ 10017b80 f i CctCharacterControllerManager.obj
 0001:00016b90       ?clear@?$Array@UPxDebugPoint@physx@@V?$ReflectionAllocator@UPxDebugPoint@physx@@@shdfnd@2@@shdfnd@physx@@QAEXXZ 10017b90 f i CctCharacterControllerManager.obj
 0001:00016ba0       ?clear@?$Array@UPxDebugText@physx@@V?$ReflectionAllocator@UPxDebugText@physx@@@shdfnd@2@@shdfnd@physx@@QAEXXZ 10017ba0 f i CctCharacterControllerManager.obj
 0001:00016bb0       ?clear@?$Array@UPxDebugTriangle@physx@@V?$ReflectionAllocator@UPxDebugTriangle@physx@@@shdfnd@2@@shdfnd@physx@@QAEXXZ 10017bb0 f i CctCharacterControllerManager.obj
 0001:00016bc0       ?clear@?$Array@UPxExtendedCapsule@physx@@V?$ReflectionAllocator@UPxExtendedCapsule@physx@@@shdfnd@2@@shdfnd@physx@@QAEXXZ 10017bc0 f i CctCharacterControllerManager.obj
 0001:00016bd0       ?clear@?$Array@VPxExtendedBox@physx@@V?$ReflectionAllocator@VPxExtendedBox@physx@@@shdfnd@2@@shdfnd@physx@@QAEXXZ 10017bd0 f i CctCharacterControllerManager.obj
 0001:00016be0       ?clear@RenderBuffer@Cm@physx@@UAEXXZ 10017be0 f i CctCharacterControllerManager.obj
 0001:00016c10       ?copy@?$Array@PAVController@Cct@physx@@V?$ReflectionAllocator@PAVController@Cct@physx@@@shdfnd@3@@shdfnd@physx@@KAXPAPAVController@Cct@3@0PBQAV453@@Z 10017c10 f i CctCharacterControllerManager.obj
 0001:00016c40       ?copy@?$Array@PAVObstacleContext@Cct@physx@@V?$ReflectionAllocator@PAVObstacleContext@Cct@physx@@@shdfnd@3@@shdfnd@physx@@KAXPAPAVObstacleContext@Cct@3@0PBQAV453@@Z 10017c40 f i CctCharacterControllerManager.obj
 0001:00016c70       ?copy@?$Array@UPxDebugLine@physx@@V?$ReflectionAllocator@UPxDebugLine@physx@@@shdfnd@2@@shdfnd@physx@@KAXPAUPxDebugLine@3@0PBU43@@Z 10017c70 f i CctCharacterControllerManager.obj
 0001:00016ce0       ?copy@?$Array@UPxDebugPoint@physx@@V?$ReflectionAllocator@UPxDebugPoint@physx@@@shdfnd@2@@shdfnd@physx@@KAXPAUPxDebugPoint@3@0PBU43@@Z 10017ce0 f i CctCharacterControllerManager.obj
 0001:00016d30       ?copy@?$Array@UPxDebugText@physx@@V?$ReflectionAllocator@UPxDebugText@physx@@@shdfnd@2@@shdfnd@physx@@KAXPAUPxDebugText@3@0PBU43@@Z 10017d30 f i CctCharacterControllerManager.obj
 0001:00016d90       ?copy@?$Array@UPxDebugTriangle@physx@@V?$ReflectionAllocator@UPxDebugTriangle@physx@@@shdfnd@2@@shdfnd@physx@@KAXPAUPxDebugTriangle@3@0PBU43@@Z 10017d90 f i CctCharacterControllerManager.obj
 0001:00016e10       ?create@?$Array@PBXV?$ReflectionAllocator@PBX@shdfnd@physx@@@shdfnd@physx@@KAXPAPBX0ABQBX@Z 10017e10 f i CctCharacterControllerManager.obj
 0001:00016e40       ?create@?$Array@UPxExtendedCapsule@physx@@V?$ReflectionAllocator@UPxExtendedCapsule@physx@@@shdfnd@2@@shdfnd@physx@@KAXPAUPxExtendedCapsule@3@0ABU43@@Z 10017e40 f i CctCharacterControllerManager.obj
 0001:00016e90       ?create@?$Array@VPxExtendedBox@physx@@V?$ReflectionAllocator@VPxExtendedBox@physx@@@shdfnd@2@@shdfnd@physx@@KAXPAVPxExtendedBox@3@0ABV43@@Z 10017e90 f i CctCharacterControllerManager.obj
 0001:00016f00       ?create@?$HashBase@PAVPxShape@physx@@PAV12@U?$Hash@PAVPxShape@physx@@@shdfnd@2@UGetKey@?$HashSetBase@PAVPxShape@physx@@U?$Hash@PAVPxShape@physx@@@shdfnd@2@VAllocator@42@$0A@@internal@42@VAllocator@42@$0A@@internal@shdfnd@physx@@QAEPAPAVPxShape@4@ABQAV54@AA_N@Z 10017f00 f i CctCharacterControllerManager.obj
 0001:00017030       ?createController@CharacterControllerManager@Cct@physx@@UAEPAVPxController@3@AAVPxPhysics@3@PAVPxScene@3@ABVPxControllerDesc@3@@Z 10018030 f i CctCharacterControllerManager.obj
 0001:00017070       ?deallocate@?$Array@DV?$ReflectionAllocator@D@shdfnd@physx@@@shdfnd@physx@@IAEXPAX@Z 10018070 f i CctCharacterControllerManager.obj
 0001:00017090       ?deallocate@?$Array@PAVController@Cct@physx@@V?$ReflectionAllocator@PAVController@Cct@physx@@@shdfnd@3@@shdfnd@physx@@IAEXPAX@Z 10018090 f i CctCharacterControllerManager.obj
 0001:000170b0       ?deallocate@?$Array@PAVObstacleContext@Cct@physx@@V?$ReflectionAllocator@PAVObstacleContext@Cct@physx@@@shdfnd@3@@shdfnd@physx@@IAEXPAX@Z 100180b0 f i CctCharacterControllerManager.obj
 0001:000170d0       ?deallocate@?$Array@UPxDebugLine@physx@@V?$ReflectionAllocator@UPxDebugLine@physx@@@shdfnd@2@@shdfnd@physx@@IAEXPAX@Z 100180d0 f i CctCharacterControllerManager.obj
 0001:000170f0       ?deallocate@?$Array@UPxDebugPoint@physx@@V?$ReflectionAllocator@UPxDebugPoint@physx@@@shdfnd@2@@shdfnd@physx@@IAEXPAX@Z 100180f0 f i CctCharacterControllerManager.obj
 0001:00017110       ?deallocate@?$Array@UPxDebugText@physx@@V?$ReflectionAllocator@UPxDebugText@physx@@@shdfnd@2@@shdfnd@physx@@IAEXPAX@Z 10018110 f i CctCharacterControllerManager.obj
 0001:00017130       ?deallocate@?$Array@UPxDebugTriangle@physx@@V?$ReflectionAllocator@UPxDebugTriangle@physx@@@shdfnd@2@@shdfnd@physx@@IAEXPAX@Z 10018130 f i CctCharacterControllerManager.obj
 0001:00017150       ?deallocate@?$ReflectionAllocator@D@shdfnd@physx@@QAEXPAX@Z 10018150 f i CctCharacterControllerManager.obj
 0001:00017170       ?deallocate@?$ReflectionAllocator@PAVController@Cct@physx@@@shdfnd@physx@@QAEXPAX@Z 10018170 f i CctCharacterControllerManager.obj
 0001:00017190       ?deallocate@?$ReflectionAllocator@PAVObstacleContext@Cct@physx@@@shdfnd@physx@@QAEXPAX@Z 10018190 f i CctCharacterControllerManager.obj
 0001:000171b0       ?deallocate@?$ReflectionAllocator@UPxDebugLine@physx@@@shdfnd@physx@@QAEXPAX@Z 100181b0 f i CctCharacterControllerManager.obj
 0001:000171d0       ?deallocate@?$ReflectionAllocator@UPxDebugPoint@physx@@@shdfnd@physx@@QAEXPAX@Z 100181d0 f i CctCharacterControllerManager.obj
 0001:000171f0       ?deallocate@?$ReflectionAllocator@UPxDebugText@physx@@@shdfnd@physx@@QAEXPAX@Z 100181f0 f i CctCharacterControllerManager.obj
 0001:00017210       ?deallocate@?$ReflectionAllocator@UPxDebugTriangle@physx@@@shdfnd@physx@@QAEXPAX@Z 10018210 f i CctCharacterControllerManager.obj
 0001:00017230       ?destroy@?$Array@DV?$ReflectionAllocator@D@shdfnd@physx@@@shdfnd@physx@@KAXPAD0@Z 10018230 f i CctCharacterControllerManager.obj
 0001:00017240       ?destroy@?$Array@PAVController@Cct@physx@@V?$ReflectionAllocator@PAVController@Cct@physx@@@shdfnd@3@@shdfnd@physx@@KAXPAPAVController@Cct@3@0@Z 10018240 f i CctCharacterControllerManager.obj
 0001:00017250       ?destroy@?$Array@PAVObstacleContext@Cct@physx@@V?$ReflectionAllocator@PAVObstacleContext@Cct@physx@@@shdfnd@3@@shdfnd@physx@@KAXPAPAVObstacleContext@Cct@3@0@Z 10018250 f i CctCharacterControllerManager.obj
 0001:00017260       ?destroy@?$Array@UPxDebugLine@physx@@V?$ReflectionAllocator@UPxDebugLine@physx@@@shdfnd@2@@shdfnd@physx@@KAXPAUPxDebugLine@3@0@Z 10018260 f i CctCharacterControllerManager.obj
 0001:00017270       ?destroy@?$Array@UPxDebugPoint@physx@@V?$ReflectionAllocator@UPxDebugPoint@physx@@@shdfnd@2@@shdfnd@physx@@KAXPAUPxDebugPoint@3@0@Z 10018270 f i CctCharacterControllerManager.obj
 0001:00017280       ?destroy@?$Array@UPxDebugText@physx@@V?$ReflectionAllocator@UPxDebugText@physx@@@shdfnd@2@@shdfnd@physx@@KAXPAUPxDebugText@3@0@Z 10018280 f i CctCharacterControllerManager.obj
 0001:00017290       ?destroy@?$Array@UPxDebugTriangle@physx@@V?$ReflectionAllocator@UPxDebugTriangle@physx@@@shdfnd@2@@shdfnd@physx@@KAXPAUPxDebugTriangle@3@0@Z 10018290 f i CctCharacterControllerManager.obj
 0001:000172a0       ?destroy@?$HashBase@PAVPxShape@physx@@PAV12@U?$Hash@PAVPxShape@physx@@@shdfnd@2@UGetKey@?$HashSetBase@PAVPxShape@physx@@U?$Hash@PAVPxShape@physx@@@shdfnd@2@VAllocator@42@$0A@@internal@42@VAllocator@42@$0A@@internal@shdfnd@physx@@AAEXXZ 100182a0 f i CctCharacterControllerManager.obj
 0001:000172e0       ?erase@?$HashBase@PAVPxShape@physx@@PAV12@U?$Hash@PAVPxShape@physx@@@shdfnd@2@UGetKey@?$HashSetBase@PAVPxShape@physx@@U?$Hash@PAVPxShape@physx@@@shdfnd@2@VAllocator@42@$0A@@internal@42@VAllocator@42@$0A@@internal@shdfnd@physx@@QAE_NABQAVPxShape@4@@Z 100182e0 f i CctCharacterControllerManager.obj
 0001:00017390       ?erase@?$HashSetBase@PAVPxShape@physx@@U?$Hash@PAVPxShape@physx@@@shdfnd@2@VAllocator@42@$0A@@internal@shdfnd@physx@@QAE_NABQAVPxShape@4@@Z 10018390 f i CctCharacterControllerManager.obj
 0001:000173a0       ?findAndReplaceWithLast@?$Array@PAVObstacleContext@Cct@physx@@V?$ReflectionAllocator@PAVObstacleContext@Cct@physx@@@shdfnd@3@@shdfnd@physx@@QAE_NABQAVObstacleContext@Cct@3@@Z 100183a0 f i CctCharacterControllerManager.obj
 0001:000173f0       ?freeListAdd@?$HashBase@PAVPxShape@physx@@PAV12@U?$Hash@PAVPxShape@physx@@@shdfnd@2@UGetKey@?$HashSetBase@PAVPxShape@physx@@U?$Hash@PAVPxShape@physx@@@shdfnd@2@VAllocator@42@$0A@@internal@42@VAllocator@42@$0A@@internal@shdfnd@physx@@AAEXI@Z 100183f0 f i CctCharacterControllerManager.obj
 0001:00017410       ?freeListAdd@?$HashBase@PAVPxShape@physx@@PAV12@U?$Hash@PAVPxShape@physx@@@shdfnd@2@UGetKey@?$HashSetBase@PAVPxShape@physx@@U?$Hash@PAVPxShape@physx@@@shdfnd@2@VAllocator@42@$0A@@internal@42@VAllocator@42@$0A@@internal@shdfnd@physx@@AAEXII@Z 10018410 f i CctCharacterControllerManager.obj
 0001:00017450       ?freeListEmpty@?$HashBase@PAVPxShape@physx@@PAV12@U?$Hash@PAVPxShape@physx@@@shdfnd@2@UGetKey@?$HashSetBase@PAVPxShape@physx@@U?$Hash@PAVPxShape@physx@@@shdfnd@2@VAllocator@42@$0A@@internal@42@VAllocator@42@$0A@@internal@shdfnd@physx@@ABE_NXZ 10018450 f i CctCharacterControllerManager.obj
 0001:00017460       ?freeListGetNext@?$HashBase@PAVPxShape@physx@@PAV12@U?$Hash@PAVPxShape@physx@@@shdfnd@2@UGetKey@?$HashSetBase@PAVPxShape@physx@@U?$Hash@PAVPxShape@physx@@@shdfnd@2@VAllocator@42@$0A@@internal@42@VAllocator@42@$0A@@internal@shdfnd@physx@@AAEIXZ 10018460 f i CctCharacterControllerManager.obj
 0001:00017470       ?getFoundation@shdfnd@physx@@YAAAVFoundation@12@XZ 10018470 f i CctCharacterControllerManager.obj
 0001:00017480       ?getLines@RenderBuffer@Cm@physx@@UBEPBUPxDebugLine@3@XZ 10018480 f i CctCharacterControllerManager.obj
 0001:00017490       ?getName@?$ReflectionAllocator@PAVController@Cct@physx@@@shdfnd@physx@@CAPBDXZ 10018490 f i CctCharacterControllerManager.obj
 0001:000174c0       ?getName@?$ReflectionAllocator@PAVObstacleContext@Cct@physx@@@shdfnd@physx@@CAPBDXZ 100184c0 f i CctCharacterControllerManager.obj
 0001:000174f0       ?getName@?$ReflectionAllocator@UPxDebugLine@physx@@@shdfnd@physx@@CAPBDXZ 100184f0 f i CctCharacterControllerManager.obj
 0001:00017520       ?getName@?$ReflectionAllocator@UPxDebugPoint@physx@@@shdfnd@physx@@CAPBDXZ 10018520 f i CctCharacterControllerManager.obj
 0001:00017550       ?getName@?$ReflectionAllocator@UPxDebugText@physx@@@shdfnd@physx@@CAPBDXZ 10018550 f i CctCharacterControllerManager.obj
 0001:00017580       ?getName@?$ReflectionAllocator@UPxDebugTriangle@physx@@@shdfnd@physx@@CAPBDXZ 10018580 f i CctCharacterControllerManager.obj
 0001:000175b0       ?getName@?$ReflectionAllocator@VBoxController@Cct@physx@@@shdfnd@physx@@CAPBDXZ 100185b0 f i CctCharacterControllerManager.obj
 0001:000175e0       ?getName@?$ReflectionAllocator@VCapsuleController@Cct@physx@@@shdfnd@physx@@CAPBDXZ 100185e0 f i CctCharacterControllerManager.obj
 0001:00017610       ?getName@?$ReflectionAllocator@VCharacterControllerManager@Cct@physx@@@shdfnd@physx@@CAPBDXZ 10018610 f i CctCharacterControllerManager.obj
 0001:00017640       ?getName@?$ReflectionAllocator@VObstacleContext@Cct@physx@@@shdfnd@physx@@CAPBDXZ 10018640 f i CctCharacterControllerManager.obj
 0001:00017670       ?getName@?$ReflectionAllocator@VRenderBuffer@Cm@physx@@@shdfnd@physx@@CAPBDXZ 10018670 f i CctCharacterControllerManager.obj
 0001:000176a0       ?getNbLines@RenderBuffer@Cm@physx@@UBEIXZ 100186a0 f i CctCharacterControllerManager.obj
 0001:000176b0       ?getNbPoints@RenderBuffer@Cm@physx@@UBEIXZ 100186b0 f i CctCharacterControllerManager.obj
 0001:000176c0       ?getNbTexts@RenderBuffer@Cm@physx@@UBEIXZ 100186c0 f i CctCharacterControllerManager.obj
 0001:000176d0       ?getNbTriangles@RenderBuffer@Cm@physx@@UBEIXZ 100186d0 f i CctCharacterControllerManager.obj
 0001:000176e0       ?getPoints@RenderBuffer@Cm@physx@@UBEPBUPxDebugPoint@3@XZ 100186e0 f i CctCharacterControllerManager.obj
 0001:000176f0       ?getTexts@RenderBuffer@Cm@physx@@UBEPBUPxDebugText@3@XZ 100186f0 f i CctCharacterControllerManager.obj
 0001:00017700       ?getTriangles@RenderBuffer@Cm@physx@@UBEPBUPxDebugTriangle@3@XZ 10018700 f i CctCharacterControllerManager.obj
 0001:00017710       ?getType@PxControllerDesc@physx@@QBE?AW4Enum@PxControllerShapeType@2@XZ 10018710 f i CctCharacterControllerManager.obj
 0001:00017720       ?grow@?$Array@PBXV?$ReflectionAllocator@PBX@shdfnd@physx@@@shdfnd@physx@@IAEXI@Z 10018720 f i CctCharacterControllerManager.obj
 0001:00017730       ?grow@?$Array@UPxDebugLine@physx@@V?$ReflectionAllocator@UPxDebugLine@physx@@@shdfnd@2@@shdfnd@physx@@IAEXI@Z 10018730 f i CctCharacterControllerManager.obj
 0001:00017740       ?grow@?$Array@UPxDebugPoint@physx@@V?$ReflectionAllocator@UPxDebugPoint@physx@@@shdfnd@2@@shdfnd@physx@@IAEXI@Z 10018740 f i CctCharacterControllerManager.obj
 0001:00017750       ?grow@?$Array@UPxDebugText@physx@@V?$ReflectionAllocator@UPxDebugText@physx@@@shdfnd@2@@shdfnd@physx@@IAEXI@Z 10018750 f i CctCharacterControllerManager.obj
 0001:00017760       ?grow@?$Array@UPxDebugTriangle@physx@@V?$ReflectionAllocator@UPxDebugTriangle@physx@@@shdfnd@2@@shdfnd@physx@@IAEXI@Z 10018760 f i CctCharacterControllerManager.obj
 0001:00017770       ?grow@?$Array@UPxExtendedCapsule@physx@@V?$ReflectionAllocator@UPxExtendedCapsule@physx@@@shdfnd@2@@shdfnd@physx@@IAEXI@Z 10018770 f i CctCharacterControllerManager.obj
 0001:00017780       ?grow@?$Array@VPxExtendedBox@physx@@V?$ReflectionAllocator@VPxExtendedBox@physx@@@shdfnd@2@@shdfnd@physx@@IAEXI@Z 10018780 f i CctCharacterControllerManager.obj
 0001:00017790       ?grow@?$HashBase@PAVPxShape@physx@@PAV12@U?$Hash@PAVPxShape@physx@@@shdfnd@2@UGetKey@?$HashSetBase@PAVPxShape@physx@@U?$Hash@PAVPxShape@physx@@@shdfnd@2@VAllocator@42@$0A@@internal@42@VAllocator@42@$0A@@internal@shdfnd@physx@@AAEXXZ 10018790 f i CctCharacterControllerManager.obj
 0001:000177b0       ?growAndPushBack@?$Array@PAVController@Cct@physx@@V?$ReflectionAllocator@PAVController@Cct@physx@@@shdfnd@3@@shdfnd@physx@@IAEAAPAVController@Cct@3@ABQAV453@@Z 100187b0 f i CctCharacterControllerManager.obj
 0001:00017840       ?growAndPushBack@?$Array@PAVObstacleContext@Cct@physx@@V?$ReflectionAllocator@PAVObstacleContext@Cct@physx@@@shdfnd@3@@shdfnd@physx@@IAEAAPAVObstacleContext@Cct@3@ABQAV453@@Z 10018840 f i CctCharacterControllerManager.obj
 0001:000178d0       ?growAndPushBack@?$Array@UPxDebugLine@physx@@V?$ReflectionAllocator@UPxDebugLine@physx@@@shdfnd@2@@shdfnd@physx@@IAEAAUPxDebugLine@3@ABU43@@Z 100188d0 f i CctCharacterControllerManager.obj
 0001:00017980       ?growAndPushBack@?$Array@UPxDebugPoint@physx@@V?$ReflectionAllocator@UPxDebugPoint@physx@@@shdfnd@2@@shdfnd@physx@@IAEAAUPxDebugPoint@3@ABU43@@Z 10018980 f i CctCharacterControllerManager.obj
 0001:00017a20       ?growAndPushBack@?$Array@UPxDebugText@physx@@V?$ReflectionAllocator@UPxDebugText@physx@@@shdfnd@2@@shdfnd@physx@@IAEAAUPxDebugText@3@ABU43@@Z 10018a20 f i CctCharacterControllerManager.obj
 0001:00017ad0       ?growAndPushBack@?$Array@UPxDebugTriangle@physx@@V?$ReflectionAllocator@UPxDebugTriangle@physx@@@shdfnd@2@@shdfnd@physx@@IAEAAUPxDebugTriangle@3@ABU43@@Z 10018ad0 f i CctCharacterControllerManager.obj
 0001:00017ba0       ?init@?$HashBase@PAVPxShape@physx@@PAV12@U?$Hash@PAVPxShape@physx@@@shdfnd@2@UGetKey@?$HashSetBase@PAVPxShape@physx@@U?$Hash@PAVPxShape@physx@@@shdfnd@2@VAllocator@42@$0A@@internal@42@VAllocator@42@$0A@@internal@shdfnd@physx@@AAEXIM@Z 10018ba0 f i CctCharacterControllerManager.obj
 0001:00017c00       ?insert@?$HashSetBase@PAVPxShape@physx@@U?$Hash@PAVPxShape@physx@@@shdfnd@2@VAllocator@42@$0A@@internal@shdfnd@physx@@QAE_NABQAVPxShape@4@@Z 10018c00 f i CctCharacterControllerManager.obj
 0001:00017c30       ?isInUserMemory@?$Array@DV?$ReflectionAllocator@D@shdfnd@physx@@@shdfnd@physx@@QBEIXZ 10018c30 f i CctCharacterControllerManager.obj
 0001:00017c40       ?isInUserMemory@?$Array@PAVController@Cct@physx@@V?$ReflectionAllocator@PAVController@Cct@physx@@@shdfnd@3@@shdfnd@physx@@QBEIXZ 10018c40 f i CctCharacterControllerManager.obj
 0001:00017c50       ?isInUserMemory@?$Array@PAVObstacleContext@Cct@physx@@V?$ReflectionAllocator@PAVObstacleContext@Cct@physx@@@shdfnd@3@@shdfnd@physx@@QBEIXZ 10018c50 f i CctCharacterControllerManager.obj
 0001:00017c60       ?isInUserMemory@?$Array@UPxDebugLine@physx@@V?$ReflectionAllocator@UPxDebugLine@physx@@@shdfnd@2@@shdfnd@physx@@QBEIXZ 10018c60 f i CctCharacterControllerManager.obj
 0001:00017c70       ?isInUserMemory@?$Array@UPxDebugPoint@physx@@V?$ReflectionAllocator@UPxDebugPoint@physx@@@shdfnd@2@@shdfnd@physx@@QBEIXZ 10018c70 f i CctCharacterControllerManager.obj
 0001:00017c80       ?isInUserMemory@?$Array@UPxDebugText@physx@@V?$ReflectionAllocator@UPxDebugText@physx@@@shdfnd@2@@shdfnd@physx@@QBEIXZ 10018c80 f i CctCharacterControllerManager.obj
 0001:00017c90       ?isInUserMemory@?$Array@UPxDebugTriangle@physx@@V?$ReflectionAllocator@UPxDebugTriangle@physx@@@shdfnd@2@@shdfnd@physx@@QBEIXZ 10018c90 f i CctCharacterControllerManager.obj
 0001:00017ca0       ?isPowerOfTwo@shdfnd@physx@@YA_NI@Z 10018ca0 f i CctCharacterControllerManager.obj
 0001:00017cc0       ?memCopy@intrinsics@physx@@YAPAXPIAXPIBXI@Z 10018cc0 f i CctCharacterControllerManager.obj
 0001:00017cd0       ?memSet@intrinsics@physx@@YAPAXPIAXHI@Z 10018cd0 f i CctCharacterControllerManager.obj
 0001:00017ce0       ?nextPowerOfTwo@shdfnd@physx@@YAII@Z 10018ce0 f i CctCharacterControllerManager.obj
 0001:00017d10       ?pushBack@?$Array@PAVController@Cct@physx@@V?$ReflectionAllocator@PAVController@Cct@physx@@@shdfnd@3@@shdfnd@physx@@QAEAAPAVController@Cct@3@ABQAV453@@Z 10018d10 f i CctCharacterControllerManager.obj
 0001:00017d50       ?pushBack@?$Array@PAVObstacleContext@Cct@physx@@V?$ReflectionAllocator@PAVObstacleContext@Cct@physx@@@shdfnd@3@@shdfnd@physx@@QAEAAPAVObstacleContext@Cct@3@ABQAV453@@Z 10018d50 f i CctCharacterControllerManager.obj
 0001:00017d90       ?pushBack@?$Array@UPxDebugLine@physx@@V?$ReflectionAllocator@UPxDebugLine@physx@@@shdfnd@2@@shdfnd@physx@@QAEAAUPxDebugLine@3@ABU43@@Z 10018d90 f i CctCharacterControllerManager.obj
 0001:00017e00       ?pushBack@?$Array@UPxDebugPoint@physx@@V?$ReflectionAllocator@UPxDebugPoint@physx@@@shdfnd@2@@shdfnd@physx@@QAEAAUPxDebugPoint@3@ABU43@@Z 10018e00 f i CctCharacterControllerManager.obj
 0001:00017e60       ?pushBack@?$Array@UPxDebugText@physx@@V?$ReflectionAllocator@UPxDebugText@physx@@@shdfnd@2@@shdfnd@physx@@QAEAAUPxDebugText@3@ABU43@@Z 10018e60 f i CctCharacterControllerManager.obj
 0001:00017ed0       ?pushBack@?$Array@UPxDebugTriangle@physx@@V?$ReflectionAllocator@UPxDebugTriangle@physx@@@shdfnd@2@@shdfnd@physx@@QAEAAUPxDebugTriangle@3@ABU43@@Z 10018ed0 f i CctCharacterControllerManager.obj
 0001:00017f20       ?recreate@?$Array@PBXV?$ReflectionAllocator@PBX@shdfnd@physx@@@shdfnd@physx@@IAEXI@Z 10018f20 f i CctCharacterControllerManager.obj
 0001:00017f80       ?recreate@?$Array@UPxDebugLine@physx@@V?$ReflectionAllocator@UPxDebugLine@physx@@@shdfnd@2@@shdfnd@physx@@IAEXI@Z 10018f80 f i CctCharacterControllerManager.obj
 0001:00017fe0       ?recreate@?$Array@UPxDebugPoint@physx@@V?$ReflectionAllocator@UPxDebugPoint@physx@@@shdfnd@2@@shdfnd@physx@@IAEXI@Z 10018fe0 f i CctCharacterControllerManager.obj
 0001:00018040       ?recreate@?$Array@UPxDebugText@physx@@V?$ReflectionAllocator@UPxDebugText@physx@@@shdfnd@2@@shdfnd@physx@@IAEXI@Z 10019040 f i CctCharacterControllerManager.obj
 0001:000180a0       ?recreate@?$Array@UPxDebugTriangle@physx@@V?$ReflectionAllocator@UPxDebugTriangle@physx@@@shdfnd@2@@shdfnd@physx@@IAEXI@Z 100190a0 f i CctCharacterControllerManager.obj
 0001:00018100       ?recreate@?$Array@UPxExtendedCapsule@physx@@V?$ReflectionAllocator@UPxExtendedCapsule@physx@@@shdfnd@2@@shdfnd@physx@@IAEXI@Z 10019100 f i CctCharacterControllerManager.obj
 0001:00018160       ?recreate@?$Array@VPxExtendedBox@physx@@V?$ReflectionAllocator@VPxExtendedBox@physx@@@shdfnd@2@@shdfnd@physx@@IAEXI@Z 10019160 f i CctCharacterControllerManager.obj
 0001:000181c0       ?replaceWithLast@?$Array@PAVController@Cct@physx@@V?$ReflectionAllocator@PAVController@Cct@physx@@@shdfnd@3@@shdfnd@physx@@QAEXI@Z 100191c0 f i CctCharacterControllerManager.obj
 0001:000181e0       ?replaceWithLast@?$Array@PAVObstacleContext@Cct@physx@@V?$ReflectionAllocator@PAVObstacleContext@Cct@physx@@@shdfnd@3@@shdfnd@physx@@QAEXI@Z 100191e0 f i CctCharacterControllerManager.obj
 0001:00018200       ?replaceWithLast@?$HashBase@PAVPxShape@physx@@PAV12@U?$Hash@PAVPxShape@physx@@@shdfnd@2@UGetKey@?$HashSetBase@PAVPxShape@physx@@U?$Hash@PAVPxShape@physx@@@shdfnd@2@VAllocator@42@$0A@@internal@42@VAllocator@42@$0A@@internal@shdfnd@physx@@AAEXI@Z 10019200 f i CctCharacterControllerManager.obj
 0001:00018290       ?reserve@?$Array@PBXV?$ReflectionAllocator@PBX@shdfnd@physx@@@shdfnd@physx@@QAEXI@Z 10019290 f i CctCharacterControllerManager.obj
 0001:000182b0       ?reserve@?$Array@UPxDebugLine@physx@@V?$ReflectionAllocator@UPxDebugLine@physx@@@shdfnd@2@@shdfnd@physx@@QAEXI@Z 100192b0 f i CctCharacterControllerManager.obj
 0001:000182d0       ?reserve@?$Array@UPxDebugPoint@physx@@V?$ReflectionAllocator@UPxDebugPoint@physx@@@shdfnd@2@@shdfnd@physx@@QAEXI@Z 100192d0 f i CctCharacterControllerManager.obj
 0001:000182f0       ?reserve@?$Array@UPxDebugText@physx@@V?$ReflectionAllocator@UPxDebugText@physx@@@shdfnd@2@@shdfnd@physx@@QAEXI@Z 100192f0 f i CctCharacterControllerManager.obj
 0001:00018310       ?reserve@?$Array@UPxDebugTriangle@physx@@V?$ReflectionAllocator@UPxDebugTriangle@physx@@@shdfnd@2@@shdfnd@physx@@QAEXI@Z 10019310 f i CctCharacterControllerManager.obj
 0001:00018330       ?reserve@?$Array@UPxExtendedCapsule@physx@@V?$ReflectionAllocator@UPxExtendedCapsule@physx@@@shdfnd@2@@shdfnd@physx@@QAEXI@Z 10019330 f i CctCharacterControllerManager.obj
 0001:00018350       ?reserve@?$Array@VPxExtendedBox@physx@@V?$ReflectionAllocator@VPxExtendedBox@physx@@@shdfnd@2@@shdfnd@physx@@QAEXI@Z 10019350 f i CctCharacterControllerManager.obj
 0001:00018370       ?reserve@?$HashBase@PAVPxShape@physx@@PAV12@U?$Hash@PAVPxShape@physx@@@shdfnd@2@UGetKey@?$HashSetBase@PAVPxShape@physx@@U?$Hash@PAVPxShape@physx@@@shdfnd@2@VAllocator@42@$0A@@internal@42@VAllocator@42@$0A@@internal@shdfnd@physx@@QAEXI@Z 10019370 f i CctCharacterControllerManager.obj
 0001:00018390       ?reserveInternal@?$HashBase@PAVPxShape@physx@@PAV12@U?$Hash@PAVPxShape@physx@@@shdfnd@2@UGetKey@?$HashSetBase@PAVPxShape@physx@@U?$Hash@PAVPxShape@physx@@@shdfnd@2@VAllocator@42@$0A@@internal@42@VAllocator@42@$0A@@internal@shdfnd@physx@@AAEXI@Z 10019390 f i CctCharacterControllerManager.obj
 0001:000185f0       ?reset@?$Array@PBXV?$ReflectionAllocator@PBX@shdfnd@physx@@@shdfnd@physx@@QAEXXZ 100195f0 f i CctCharacterControllerManager.obj
 0001:00018620       ?reset@?$Array@UPxExtendedCapsule@physx@@V?$ReflectionAllocator@UPxExtendedCapsule@physx@@@shdfnd@2@@shdfnd@physx@@QAEXXZ 10019620 f i CctCharacterControllerManager.obj
 0001:00018650       ?reset@?$Array@VPxExtendedBox@physx@@V?$ReflectionAllocator@VPxExtendedBox@physx@@@shdfnd@2@@shdfnd@physx@@QAEXXZ 10019650 f i CctCharacterControllerManager.obj
 0001:00018680       ?resize@?$Array@PBXV?$ReflectionAllocator@PBX@shdfnd@physx@@@shdfnd@physx@@QAEXIABQBX@Z 10019680 f i CctCharacterControllerManager.obj
 0001:000186d0       ?resize@?$Array@UPxExtendedCapsule@physx@@V?$ReflectionAllocator@UPxExtendedCapsule@physx@@@shdfnd@2@@shdfnd@physx@@QAEXIABUPxExtendedCapsule@3@@Z 100196d0 f i CctCharacterControllerManager.obj
 0001:00018720       ?resize@?$Array@VPxExtendedBox@physx@@V?$ReflectionAllocator@VPxExtendedBox@physx@@@shdfnd@2@@shdfnd@physx@@QAEXIABVPxExtendedBox@3@@Z 10019720 f i CctCharacterControllerManager.obj
 0001:00018770       ?shift@RenderBuffer@Cm@physx@@QAEXABVPxVec3@3@@Z 10019770 f i CctCharacterControllerManager.obj
 0001:00018930       ?shrink@?$Array@PBXV?$ReflectionAllocator@PBX@shdfnd@physx@@@shdfnd@physx@@QAEXXZ 10019930 f i CctCharacterControllerManager.obj
 0001:00018940       ?shrink@?$Array@UPxExtendedCapsule@physx@@V?$ReflectionAllocator@UPxExtendedCapsule@physx@@@shdfnd@2@@shdfnd@physx@@QAEXXZ 10019940 f i CctCharacterControllerManager.obj
 0001:00018950       ?shrink@?$Array@VPxExtendedBox@physx@@V?$ReflectionAllocator@VPxExtendedBox@physx@@@shdfnd@2@@shdfnd@physx@@QAEXXZ 10019950 f i CctCharacterControllerManager.obj
 0001:00018960       ?size@?$Array@PAVController@Cct@physx@@V?$ReflectionAllocator@PAVController@Cct@physx@@@shdfnd@3@@shdfnd@physx@@QBEIXZ 10019960 f i CctCharacterControllerManager.obj
 0001:00018970       ?size@?$Array@PAVObstacleContext@Cct@physx@@V?$ReflectionAllocator@PAVObstacleContext@Cct@physx@@@shdfnd@3@@shdfnd@physx@@QBEIXZ 10019970 f i CctCharacterControllerManager.obj
 0001:00018980       ?size@?$Array@PBXV?$ReflectionAllocator@PBX@shdfnd@physx@@@shdfnd@physx@@QBEIXZ 10019980 f i CctCharacterControllerManager.obj
 0001:00018990       ?size@?$Array@UPxDebugLine@physx@@V?$ReflectionAllocator@UPxDebugLine@physx@@@shdfnd@2@@shdfnd@physx@@QBEIXZ 10019990 f i CctCharacterControllerManager.obj
 0001:000189a0       ?size@?$Array@UPxDebugPoint@physx@@V?$ReflectionAllocator@UPxDebugPoint@physx@@@shdfnd@2@@shdfnd@physx@@QBEIXZ 100199a0 f i CctCharacterControllerManager.obj
 0001:000189b0       ?size@?$Array@UPxDebugText@physx@@V?$ReflectionAllocator@UPxDebugText@physx@@@shdfnd@2@@shdfnd@physx@@QBEIXZ 100199b0 f i CctCharacterControllerManager.obj
 0001:000189c0       ?size@?$Array@UPxDebugTriangle@physx@@V?$ReflectionAllocator@UPxDebugTriangle@physx@@@shdfnd@2@@shdfnd@physx@@QBEIXZ 100199c0 f i CctCharacterControllerManager.obj
 0001:000189d0       ??0Controller@Cct@physx@@QAE@ABVPxControllerDesc@2@PAVPxScene@2@@Z 100199d0 f   CctController.obj
 0001:00018b60       ??1Controller@Cct@physx@@UAE@XZ 10019b60 f   CctController.obj
 0001:00018bb0       ?releaseInternal@Controller@Cct@physx@@QAEXXZ 10019bb0 f   CctController.obj
 0001:00018bd0       ?getInternalState@Controller@Cct@physx@@QBEXAAUPxControllerState@3@@Z 10019bd0 f   CctController.obj
 0001:00018c50       ?getInternalStats@Controller@Cct@physx@@QBEXAAUPxControllerStats@3@@Z 10019c50 f   CctController.obj
 0001:00018c90       ?onRelease@Controller@Cct@physx@@UAEXPBVPxBase@3@PAXW4Enum@PxDeletionEventFlag@3@@Z 10019c90 f   CctController.obj
 0001:00018cb0       ?onOriginShift@Controller@Cct@physx@@QAEXABVPxVec3@3@@Z 10019cb0 f   CctController.obj
 0001:00018d20       ?setUpDirectionInternal@Controller@Cct@physx@@IAEXABVPxVec3@3@@Z 10019d20 f   CctController.obj
 0001:00018da0       ?getKineShape@Controller@Cct@physx@@IBEPAVPxShape@3@XZ 10019da0 f   CctController.obj
 0001:00018dd0       ?createProxyActor@Controller@Cct@physx@@IAE_NAAVPxPhysics@3@ABVPxGeometry@3@ABVPxMaterial@3@@Z 10019dd0 f   CctController.obj
 0001:00018ea0       ?setPos@Controller@Cct@physx@@IAE_NABUPxExtendedVec3@3@@Z 10019ea0 f   CctController.obj
 0001:00018f30       ??$PX_UNUSED@W4Enum@PxDeletionEventFlag@physx@@@@YAXABW4Enum@PxDeletionEventFlag@physx@@@Z 10019f30 f i CctController.obj
 0001:00018f40       ??0?$PxFlags@W4Enum@PxDeletionEventFlag@physx@@E@physx@@QAE@W4Enum@PxDeletionEventFlag@1@@Z 10019f40 f i CctController.obj
 0001:00018f50       ??0?$PxFlags@W4Enum@PxShapeFlag@physx@@E@physx@@QAE@W4Enum@PxShapeFlag@1@@Z 10019f50 f i CctController.obj
 0001:00018f60       ??0PxDeletionListener@physx@@IAE@XZ 10019f60 f i CctController.obj
 0001:00018f70       ??1PxDeletionListener@physx@@MAE@XZ 10019f70 f i CctController.obj
 0001:00018f80       ??8PxVec3@physx@@QBE_NABV01@@Z 10019f80 f i CctController.obj
 0001:00018fc0       ??B?$PxFlags@W4Enum@PxControllerCollisionFlag@physx@@E@physx@@QBEIXZ 10019fc0 f i CctController.obj
 0001:00018fd0       ??U?$PxFlags@W4Enum@PxShapeFlag@physx@@E@physx@@QBE?AV01@W4Enum@PxShapeFlag@1@@Z 10019fd0 f i CctController.obj
 0001:00018ff0       ??Uphysx@@YA?AV?$PxFlags@W4Enum@PxShapeFlag@physx@@E@0@W4Enum@PxShapeFlag@0@0@Z 10019ff0 f i CctController.obj
 0001:00019000       ??_5?$PxFlags@W4Enum@PxShapeFlag@physx@@E@physx@@QAEAAV01@W4Enum@PxShapeFlag@1@@Z 1001a000 f i CctController.obj
 0001:00019010       ??_GController@Cct@physx@@UAEPAXI@Z 1001a010 f i CctController.obj
 0001:00019010       ??_EController@Cct@physx@@UAEPAXI@Z 1001a010 f i CctController.obj
 0001:00019070       ??_GPxDeletionListener@physx@@MAEPAXI@Z 1001a070 f i CctController.obj
 0001:00019070       ??_EPxDeletionListener@physx@@MAEPAXI@Z 1001a070 f i CctController.obj
 0001:000190a0       ?createShape@PxRigidActor@physx@@QAEPAVPxShape@2@ABVPxGeometry@2@ABVPxMaterial@2@V?$PxFlags@W4Enum@PxShapeFlag@physx@@E@2@@Z 1001a0a0 f i CctController.obj
 0001:000190d0       ?getNormalized@PxQuat@physx@@QBE?AV12@XZ 1001a0d0 f i CctController.obj
 0001:00019150       ?magnitude@PxQuat@physx@@QBEMXZ 1001a150 f i CctController.obj
 0001:000191a0       ?magnitudeSquared@PxQuat@physx@@QBEMXZ 1001a1a0 f i CctController.obj
 0001:000191e0       ?rotationArc@shdfnd@physx@@YA?AVPxQuat@2@ABVPxVec3@2@0@Z 1001a1e0 f i CctController.obj
 0001:000193e0       ??0HandleManager@Cct@physx@@QAE@XZ 1001a3e0 f   CctObstacleContext.obj
 0001:000194a0       ??1HandleManager@Cct@physx@@QAE@XZ 1001a4a0 f   CctObstacleContext.obj
 0001:00019510       ?Add@HandleManager@Cct@physx@@QAEIPAX@Z 1001a510 f   CctObstacleContext.obj
 0001:000196d0       ?Remove@HandleManager@Cct@physx@@QAEXI@Z 1001a6d0 f   CctObstacleContext.obj
 0001:00019780       ?GetObject@HandleManager@Cct@physx@@QBEPAXI@Z 1001a780 f   CctObstacleContext.obj
 0001:000197d0       ?UpdateObject@HandleManager@Cct@physx@@QAE_NIPAX@Z 1001a7d0 f   CctObstacleContext.obj
 0001:00019830       ?SetupLists@HandleManager@Cct@physx@@AAE_NPAPAXPAG11@Z 1001a830 f   CctObstacleContext.obj
 0001:000198a0       ??0ObstacleContext@Cct@physx@@QAE@AAVCharacterControllerManager@12@@Z 1001a8a0 f   CctObstacleContext.obj
 0001:000198f0       ??1ObstacleContext@Cct@physx@@UAE@XZ 1001a8f0 f   CctObstacleContext.obj
 0001:000199b0       ?release@ObstacleContext@Cct@physx@@UAEXXZ 1001a9b0 f   CctObstacleContext.obj
 0001:000199c0       ?getControllerManager@ObstacleContext@Cct@physx@@UBEAAVPxControllerManager@3@XZ 1001a9c0 f   CctObstacleContext.obj
 0001:000199d0       ?addObstacle@ObstacleContext@Cct@physx@@UAEIABVPxObstacle@3@@Z 1001a9d0 f   CctObstacleContext.obj
 0001:00019b70       ?removeObstacle@ObstacleContext@Cct@physx@@UAE_NI@Z 1001ab70 f   CctObstacleContext.obj
 0001:00019d10       ?updateObstacle@ObstacleContext@Cct@physx@@UAE_NIABVPxObstacle@3@@Z 1001ad10 f   CctObstacleContext.obj
 0001:00019de0       ?getNbObstacles@ObstacleContext@Cct@physx@@UBEIXZ 1001ade0 f   CctObstacleContext.obj
 0001:00019df0       ?getObstacle@ObstacleContext@Cct@physx@@UBEPBVPxObstacle@3@I@Z 1001adf0 f   CctObstacleContext.obj
 0001:00019e30       ?getObstacleByHandle@ObstacleContext@Cct@physx@@UBEPBVPxObstacle@3@I@Z 1001ae30 f   CctObstacleContext.obj
 0001:00019ec0       ?raycastSingle@ObstacleContext@Cct@physx@@QBEPBVPxObstacle@3@AAUPxRaycastHit@3@ABVPxVec3@3@1MAAI@Z 1001aec0 f   CctObstacleContext.obj
 0001:0001a1c0       ?raycastSingle@ObstacleContext@Cct@physx@@QBEPBVPxObstacle@3@AAUPxRaycastHit@3@ABIABVPxVec3@3@2M@Z 1001b1c0 f   CctObstacleContext.obj
 0001:0001a370       ?onOriginShift@ObstacleContext@Cct@physx@@QAEXABVPxVec3@3@@Z 1001b370 f   CctObstacleContext.obj
 0001:0001a560       ??$PX_UNUSED@_N@@YAXAB_N@Z 1001b560 f i CctObstacleContext.obj
 0001:0001a570       ??0?$Array@UInternalBoxObstacle@ObstacleContext@Cct@physx@@V?$ReflectionAllocator@UInternalBoxObstacle@ObstacleContext@Cct@physx@@@shdfnd@4@@shdfnd@physx@@QAE@ABV?$ReflectionAllocator@UInternalBoxObstacle@ObstacleContext@Cct@physx@@@12@@Z 1001b570 f i CctObstacleContext.obj
 0001:0001a590       ??0?$Array@UInternalCapsuleObstacle@ObstacleContext@Cct@physx@@V?$ReflectionAllocator@UInternalCapsuleObstacle@ObstacleContext@Cct@physx@@@shdfnd@4@@shdfnd@physx@@QAE@ABV?$ReflectionAllocator@UInternalCapsuleObstacle@ObstacleContext@Cct@physx@@@12@@Z 1001b590 f i CctObstacleContext.obj
 0001:0001a5b0       ??0?$ReflectionAllocator@UInternalBoxObstacle@ObstacleContext@Cct@physx@@@shdfnd@physx@@QAE@ABV012@@Z 1001b5b0 f i CctObstacleContext.obj
 0001:0001a5c0       ??0?$ReflectionAllocator@UInternalBoxObstacle@ObstacleContext@Cct@physx@@@shdfnd@physx@@QAE@PBD@Z 1001b5c0 f i CctObstacleContext.obj
 0001:0001a5d0       ??0?$ReflectionAllocator@UInternalCapsuleObstacle@ObstacleContext@Cct@physx@@@shdfnd@physx@@QAE@ABV012@@Z 1001b5d0 f i CctObstacleContext.obj
 0001:0001a5e0       ??0?$ReflectionAllocator@UInternalCapsuleObstacle@ObstacleContext@Cct@physx@@@shdfnd@physx@@QAE@PBD@Z 1001b5e0 f i CctObstacleContext.obj
 0001:0001a5f0       ??0InternalBoxObstacle@ObstacleContext@Cct@physx@@QAE@ABU0123@@Z 1001b5f0 f i CctObstacleContext.obj
 0001:0001a650       ??0InternalBoxObstacle@ObstacleContext@Cct@physx@@QAE@IABVPxBoxObstacle@3@@Z 1001b650 f i CctObstacleContext.obj
 0001:0001a6b0       ??0InternalCapsuleObstacle@ObstacleContext@Cct@physx@@QAE@ABU0123@@Z 1001b6b0 f i CctObstacleContext.obj
 0001:0001a710       ??0InternalCapsuleObstacle@ObstacleContext@Cct@physx@@QAE@IABVPxCapsuleObstacle@3@@Z 1001b710 f i CctObstacleContext.obj
 0001:0001a770       ??0PxBoxObstacle@physx@@QAE@ABV01@@Z 1001b770 f i CctObstacleContext.obj
 0001:0001a7d0       ??0PxCapsuleObstacle@physx@@QAE@ABV01@@Z 1001b7d0 f i CctObstacleContext.obj
 0001:0001a820       ??0PxObstacle@physx@@QAE@ABV01@@Z 1001b820 f i CctObstacleContext.obj
 0001:0001a870       ??0PxObstacleContext@physx@@QAE@XZ 1001b870 f i CctObstacleContext.obj
 0001:0001a880       ??1?$Array@UInternalBoxObstacle@ObstacleContext@Cct@physx@@V?$ReflectionAllocator@UInternalBoxObstacle@ObstacleContext@Cct@physx@@@shdfnd@4@@shdfnd@physx@@QAE@XZ 1001b880 f i CctObstacleContext.obj
 0001:0001a8b0       ??1?$Array@UInternalCapsuleObstacle@ObstacleContext@Cct@physx@@V?$ReflectionAllocator@UInternalCapsuleObstacle@ObstacleContext@Cct@physx@@@shdfnd@4@@shdfnd@physx@@QAE@XZ 1001b8b0 f i CctObstacleContext.obj
 0001:0001a8e0       ??1InternalBoxObstacle@ObstacleContext@Cct@physx@@QAE@XZ 1001b8e0 f i CctObstacleContext.obj
 0001:0001a8f0       ??1InternalCapsuleObstacle@ObstacleContext@Cct@physx@@QAE@XZ 1001b8f0 f i CctObstacleContext.obj
 0001:0001a900       ??1PxBoxObstacle@physx@@QAE@XZ 1001b900 f i CctObstacleContext.obj
 0001:0001a910       ??1PxCapsuleObstacle@physx@@QAE@XZ 1001b910 f i CctObstacleContext.obj
 0001:0001a920       ??1PxObstacle@physx@@IAE@XZ 1001b920 f i CctObstacleContext.obj
 0001:0001a930       ??1PxObstacleContext@physx@@UAE@XZ 1001b930 f i CctObstacleContext.obj
 0001:0001a940       ??4InternalBoxObstacle@ObstacleContext@Cct@physx@@QAEAAU0123@ABU0123@@Z 1001b940 f i CctObstacleContext.obj
 0001:0001a9a0       ??4InternalCapsuleObstacle@ObstacleContext@Cct@physx@@QAEAAU0123@ABU0123@@Z 1001b9a0 f i CctObstacleContext.obj
 0001:0001aa00       ??4PxBoxObstacle@physx@@QAEAAV01@ABV01@@Z 1001ba00 f i CctObstacleContext.obj
 0001:0001aa60       ??4PxCapsuleObstacle@physx@@QAEAAV01@ABV01@@Z 1001ba60 f i CctObstacleContext.obj
 0001:0001aab0       ??4PxObstacle@physx@@QAEAAV01@ABV01@@Z 1001bab0 f i CctObstacleContext.obj
 0001:0001ab00       ??A?$Array@UInternalBoxObstacle@ObstacleContext@Cct@physx@@V?$ReflectionAllocator@UInternalBoxObstacle@ObstacleContext@Cct@physx@@@shdfnd@4@@shdfnd@physx@@QAEAAUInternalBoxObstacle@ObstacleContext@Cct@2@I@Z 1001bb00 f i CctObstacleContext.obj
 0001:0001ab20       ??A?$Array@UInternalCapsuleObstacle@ObstacleContext@Cct@physx@@V?$ReflectionAllocator@UInternalCapsuleObstacle@ObstacleContext@Cct@physx@@@shdfnd@4@@shdfnd@physx@@QAEAAUInternalCapsuleObstacle@ObstacleContext@Cct@2@I@Z 1001bb20 f i CctObstacleContext.obj
 0001:0001ab30       ??_GInternalBoxObstacle@ObstacleContext@Cct@physx@@QAEPAXI@Z 1001bb30 f i CctObstacleContext.obj
 0001:0001ab50       ??_GInternalCapsuleObstacle@ObstacleContext@Cct@physx@@QAEPAXI@Z 1001bb50 f i CctObstacleContext.obj
 0001:0001ab70       ??_GObstacleContext@Cct@physx@@UAEPAXI@Z 1001bb70 f i CctObstacleContext.obj
 0001:0001ab70       ??_EObstacleContext@Cct@physx@@UAEPAXI@Z 1001bb70 f i CctObstacleContext.obj
 0001:0001aba0       ??_GPxObstacleContext@physx@@UAEPAXI@Z 1001bba0 f i CctObstacleContext.obj
 0001:0001aba0       ??_EPxObstacleContext@physx@@UAEPAXI@Z 1001bba0 f i CctObstacleContext.obj
 0001:0001abd0       ?PxMemZero@physx@@YAPAXPIAXI@Z 1001bbd0 f i CctObstacleContext.obj
 0001:0001abf0       ?allocate@?$Array@UInternalBoxObstacle@ObstacleContext@Cct@physx@@V?$ReflectionAllocator@UInternalBoxObstacle@ObstacleContext@Cct@physx@@@shdfnd@4@@shdfnd@physx@@IAEPAUInternalBoxObstacle@ObstacleContext@Cct@3@I@Z 1001bbf0 f i CctObstacleContext.obj
 0001:0001ac60       ?allocate@?$Array@UInternalCapsuleObstacle@ObstacleContext@Cct@physx@@V?$ReflectionAllocator@UInternalCapsuleObstacle@ObstacleContext@Cct@physx@@@shdfnd@4@@shdfnd@physx@@IAEPAUInternalCapsuleObstacle@ObstacleContext@Cct@3@I@Z 1001bc60 f i CctObstacleContext.obj
 0001:0001acd0       ?allocate@?$ReflectionAllocator@UInternalBoxObstacle@ObstacleContext@Cct@physx@@@shdfnd@physx@@QAEPAXIPBDH@Z 1001bcd0 f i CctObstacleContext.obj
 0001:0001ad30       ?allocate@?$ReflectionAllocator@UInternalCapsuleObstacle@ObstacleContext@Cct@physx@@@shdfnd@physx@@QAEPAXIPBDH@Z 1001bd30 f i CctObstacleContext.obj
 0001:0001ad90       ?capacity@?$Array@UInternalBoxObstacle@ObstacleContext@Cct@physx@@V?$ReflectionAllocator@UInternalBoxObstacle@ObstacleContext@Cct@physx@@@shdfnd@4@@shdfnd@physx@@QBEIXZ 1001bd90 f i CctObstacleContext.obj
 0001:0001ada0       ?capacity@?$Array@UInternalCapsuleObstacle@ObstacleContext@Cct@physx@@V?$ReflectionAllocator@UInternalCapsuleObstacle@ObstacleContext@Cct@physx@@@shdfnd@4@@shdfnd@physx@@QBEIXZ 1001bda0 f i CctObstacleContext.obj
 0001:0001adb0       ?capacityIncrement@?$Array@UInternalBoxObstacle@ObstacleContext@Cct@physx@@V?$ReflectionAllocator@UInternalBoxObstacle@ObstacleContext@Cct@physx@@@shdfnd@4@@shdfnd@physx@@IBEIXZ 1001bdb0 f i CctObstacleContext.obj
 0001:0001add0       ?capacityIncrement@?$Array@UInternalCapsuleObstacle@ObstacleContext@Cct@physx@@V?$ReflectionAllocator@UInternalCapsuleObstacle@ObstacleContext@Cct@physx@@@shdfnd@4@@shdfnd@physx@@IBEIXZ 1001bdd0 f i CctObstacleContext.obj
 0001:0001adf0       ?copy@?$Array@UInternalBoxObstacle@ObstacleContext@Cct@physx@@V?$ReflectionAllocator@UInternalBoxObstacle@ObstacleContext@Cct@physx@@@shdfnd@4@@shdfnd@physx@@KAXPAUInternalBoxObstacle@ObstacleContext@Cct@3@0PBU4563@@Z 1001bdf0 f i CctObstacleContext.obj
 0001:0001ae80       ?copy@?$Array@UInternalCapsuleObstacle@ObstacleContext@Cct@physx@@V?$ReflectionAllocator@UInternalCapsuleObstacle@ObstacleContext@Cct@physx@@@shdfnd@4@@shdfnd@physx@@KAXPAUInternalCapsuleObstacle@ObstacleContext@Cct@3@0PBU4563@@Z 1001be80 f i CctObstacleContext.obj
 0001:0001af10       ?deallocate@?$Array@UInternalBoxObstacle@ObstacleContext@Cct@physx@@V?$ReflectionAllocator@UInternalBoxObstacle@ObstacleContext@Cct@physx@@@shdfnd@4@@shdfnd@physx@@IAEXPAX@Z 1001bf10 f i CctObstacleContext.obj
 0001:0001af30       ?deallocate@?$Array@UInternalCapsuleObstacle@ObstacleContext@Cct@physx@@V?$ReflectionAllocator@UInternalCapsuleObstacle@ObstacleContext@Cct@physx@@@shdfnd@4@@shdfnd@physx@@IAEXPAX@Z 1001bf30 f i CctObstacleContext.obj
 0001:0001af50       ?deallocate@?$ReflectionAllocator@UInternalBoxObstacle@ObstacleContext@Cct@physx@@@shdfnd@physx@@QAEXPAX@Z 1001bf50 f i CctObstacleContext.obj
 0001:0001af70       ?deallocate@?$ReflectionAllocator@UInternalCapsuleObstacle@ObstacleContext@Cct@physx@@@shdfnd@physx@@QAEXPAX@Z 1001bf70 f i CctObstacleContext.obj
 0001:0001af90       ?destroy@?$Array@UInternalBoxObstacle@ObstacleContext@Cct@physx@@V?$ReflectionAllocator@UInternalBoxObstacle@ObstacleContext@Cct@physx@@@shdfnd@4@@shdfnd@physx@@KAXPAUInternalBoxObstacle@ObstacleContext@Cct@3@0@Z 1001bf90 f i CctObstacleContext.obj
 0001:0001afa0       ?destroy@?$Array@UInternalCapsuleObstacle@ObstacleContext@Cct@physx@@V?$ReflectionAllocator@UInternalCapsuleObstacle@ObstacleContext@Cct@physx@@@shdfnd@4@@shdfnd@physx@@KAXPAUInternalCapsuleObstacle@ObstacleContext@Cct@3@0@Z 1001bfa0 f i CctObstacleContext.obj
 0001:0001afb0       ?getName@?$ReflectionAllocator@UInternalBoxObstacle@ObstacleContext@Cct@physx@@@shdfnd@physx@@CAPBDXZ 1001bfb0 f i CctObstacleContext.obj
 0001:0001aff0       ?getName@?$ReflectionAllocator@UInternalCapsuleObstacle@ObstacleContext@Cct@physx@@@shdfnd@physx@@CAPBDXZ 1001bff0 f i CctObstacleContext.obj
 0001:0001b020       ?getType@PxObstacle@physx@@QBE?AW4Enum@PxGeometryType@2@XZ 1001c020 f i CctObstacleContext.obj
 0001:0001b030       ?growAndPushBack@?$Array@UInternalBoxObstacle@ObstacleContext@Cct@physx@@V?$ReflectionAllocator@UInternalBoxObstacle@ObstacleContext@Cct@physx@@@shdfnd@4@@shdfnd@physx@@IAEAAUInternalBoxObstacle@ObstacleContext@Cct@3@ABU4563@@Z 1001c030 f i CctObstacleContext.obj
 0001:0001b100       ?growAndPushBack@?$Array@UInternalCapsuleObstacle@ObstacleContext@Cct@physx@@V?$ReflectionAllocator@UInternalCapsuleObstacle@ObstacleContext@Cct@physx@@@shdfnd@4@@shdfnd@physx@@IAEAAUInternalCapsuleObstacle@ObstacleContext@Cct@3@ABU4563@@Z 1001c100 f i CctObstacleContext.obj
 0001:0001b1d0       ?isInUserMemory@?$Array@UInternalBoxObstacle@ObstacleContext@Cct@physx@@V?$ReflectionAllocator@UInternalBoxObstacle@ObstacleContext@Cct@physx@@@shdfnd@4@@shdfnd@physx@@QBEIXZ 1001c1d0 f i CctObstacleContext.obj
 0001:0001b1e0       ?isInUserMemory@?$Array@UInternalCapsuleObstacle@ObstacleContext@Cct@physx@@V?$ReflectionAllocator@UInternalCapsuleObstacle@ObstacleContext@Cct@physx@@@shdfnd@4@@shdfnd@physx@@QBEIXZ 1001c1e0 f i CctObstacleContext.obj
 0001:0001b1f0       ?memZero@intrinsics@physx@@YAPAXPIAXI@Z 1001c1f0 f i CctObstacleContext.obj
 0001:0001b210       ?pushBack@?$Array@UInternalBoxObstacle@ObstacleContext@Cct@physx@@V?$ReflectionAllocator@UInternalBoxObstacle@ObstacleContext@Cct@physx@@@shdfnd@4@@shdfnd@physx@@QAEAAUInternalBoxObstacle@ObstacleContext@Cct@3@ABU4563@@Z 1001c210 f i CctObstacleContext.obj
 0001:0001b260       ?pushBack@?$Array@UInternalCapsuleObstacle@ObstacleContext@Cct@physx@@V?$ReflectionAllocator@UInternalCapsuleObstacle@ObstacleContext@Cct@physx@@@shdfnd@4@@shdfnd@physx@@QAEAAUInternalCapsuleObstacle@ObstacleContext@Cct@3@ABU4563@@Z 1001c260 f i CctObstacleContext.obj
 0001:0001b2b0       ?replaceWithLast@?$Array@UInternalBoxObstacle@ObstacleContext@Cct@physx@@V?$ReflectionAllocator@UInternalBoxObstacle@ObstacleContext@Cct@physx@@@shdfnd@4@@shdfnd@physx@@QAEXI@Z 1001c2b0 f i CctObstacleContext.obj
 0001:0001b330       ?replaceWithLast@?$Array@UInternalCapsuleObstacle@ObstacleContext@Cct@physx@@V?$ReflectionAllocator@UInternalCapsuleObstacle@ObstacleContext@Cct@physx@@@shdfnd@4@@shdfnd@physx@@QAEXI@Z 1001c330 f i CctObstacleContext.obj
 0001:0001b3a0       ?to16@shdfnd@physx@@YAGI@Z 1001c3a0 f i CctObstacleContext.obj
 0001:0001b3b0       ??0SweptBox@Cct@physx@@QAE@XZ 1001c3b0 f   CctSweptBox.obj
 0001:0001b3d0       ??1SweptBox@Cct@physx@@UAE@XZ 1001c3d0 f   CctSweptBox.obj
 0001:0001b3e0       ?computeTemporalBox@SweptBox@Cct@physx@@UBEXABVSweepTest@23@AAUPxExtendedBounds3@3@ABUPxExtendedVec3@3@ABVPxVec3@3@@Z 1001c3e0 f   CctSweptBox.obj
 0001:0001b450       ??$PxMax@M@physx@@YAMMM@Z  1001c450 f i CctSweptBox.obj
 0001:0001b480       ??_ESweptBox@Cct@physx@@UAEPAXI@Z 1001c480 f i CctSweptBox.obj
 0001:0001b480       ??_GSweptBox@Cct@physx@@UAEPAXI@Z 1001c480 f i CctSweptBox.obj
 0001:0001b4b0       ??0SweptCapsule@Cct@physx@@QAE@XZ 1001c4b0 f   CctSweptCapsule.obj
 0001:0001b4d0       ??1SweptCapsule@Cct@physx@@UAE@XZ 1001c4d0 f   CctSweptCapsule.obj
 0001:0001b4e0       ?computeTemporalBox@SweptCapsule@Cct@physx@@UBEXABVSweepTest@23@AAUPxExtendedBounds3@3@ABUPxExtendedVec3@3@ABVPxVec3@3@@Z 1001c4e0 f   CctSweptCapsule.obj
 0001:0001b540       ??_ESweptCapsule@Cct@physx@@UAEPAXI@Z 1001c540 f i CctSweptCapsule.obj
 0001:0001b540       ??_GSweptCapsule@Cct@physx@@UAEPAXI@Z 1001c540 f i CctSweptCapsule.obj
 0001:0001b570       ??0SweptVolume@Cct@physx@@QAE@XZ 1001c570 f   CctSweptVolume.obj
 0001:0001b580       ??1SweptVolume@Cct@physx@@UAE@XZ 1001c580 f   CctSweptVolume.obj
 0001:0001b590       ?computeTemporalBox@Cct@physx@@YAXAAUPxExtendedBounds3@2@MMMMABVPxVec3@2@ABUPxExtendedVec3@2@1@Z 1001c590 f   CctSweptVolume.obj
 0001:0001b920       ??_ESweptVolume@Cct@physx@@UAEPAXI@Z 1001c920 f i CctSweptVolume.obj
 0001:0001b920       ??_GSweptVolume@Cct@physx@@UAEPAXI@Z 1001c920 f i CctSweptVolume.obj
 0001:0001b942       ?deallocate@Allocator@shdfnd@physx@@QAEXPAX@Z 1001c942 f   PhysX3Common_x86:PhysX3Common_x86.dll
 0001:0001b948       _PxGetFoundation           1001c948 f   PhysX3Common_x86:PhysX3Common_x86.dll
 0001:0001b94e       ?PxTransformFromSegment@physx@@YA?AVPxTransform@1@ABVPxVec3@1@0PAM@Z 1001c94e f   PhysX3Common_x86:PhysX3Common_x86.dll
 0001:0001b954       ?sweep@PxGeometryQuery@physx@@SA_NABVPxVec3@2@MABVPxGeometry@2@ABVPxTransform@2@12AAUPxSweepHit@2@V?$PxFlags@W4Enum@PxHitFlag@physx@@G@2@M@Z 1001c954 f   PhysX3Common_x86:PhysX3Common_x86.dll
 0001:0001b95a       ?computePenetration@PxGeometryQuery@physx@@SA_NAAVPxVec3@2@AAMABVPxGeometry@2@ABVPxTransform@2@23@Z 1001c95a f   PhysX3Common_x86:PhysX3Common_x86.dll
 0001:0001b960       ?getAllocator@shdfnd@physx@@YAAAVPxAllocatorCallback@2@XZ 1001c960 f   PhysX3Common_x86:PhysX3Common_x86.dll
 0001:0001b966       ??0RenderOutput@Cm@physx@@QAE@AAVRenderBuffer@12@@Z 1001c966 f   PhysX3Common_x86:PhysX3Common_x86.dll
 0001:0001b96c       ??6RenderOutput@Cm@physx@@QAEAAV012@I@Z 1001c96c f   PhysX3Common_x86:PhysX3Common_x86.dll
 0001:0001b972       ??6RenderOutput@Cm@physx@@QAEAAV012@ABVPxTransform@2@@Z 1001c972 f   PhysX3Common_x86:PhysX3Common_x86.dll
 0001:0001b978       ?outputCapsule@RenderOutput@Cm@physx@@QAEAAV123@MMABVMatrix34@23@@Z 1001c978 f   PhysX3Common_x86:PhysX3Common_x86.dll
 0001:0001b97e       ??6Cm@physx@@YAAAVRenderOutput@01@AAV201@ABUDebugBox@01@@Z 1001c97e f   PhysX3Common_x86:PhysX3Common_x86.dll
 0001:0001b984       ?intersectOBBOBB@Gu@physx@@YA_NABVPxVec3@2@0ABVPxMat33@2@001_N@Z 1001c984 f   PhysX3Common_x86:PhysX3Common_x86.dll
 0001:0001b98a       ?distanceSegmentBoxSquared@Gu@physx@@YAMABVPxVec3@2@000ABVPxMat33@2@PAMPAV32@@Z 1001c98a f   PhysX3Common_x86:PhysX3Common_x86.dll
 0001:0001b990       ?sweep@PxMeshQuery@physx@@SA_NABVPxVec3@2@MABVPxGeometry@2@ABVPxTransform@2@IPBVPxTriangle@2@AAUPxSweepHit@2@V?$PxFlags@W4Enum@PxHitFlag@physx@@G@2@PBIM_N@Z 1001c990 f   PhysX3Common_x86:PhysX3Common_x86.dll
 0001:0001b996       ?getTriangle@PxMeshQuery@physx@@SAXABVPxTriangleMeshGeometry@2@ABVPxTransform@2@IAAVPxTriangle@2@PAI3@Z 1001c996 f   PhysX3Common_x86:PhysX3Common_x86.dll
 0001:0001b99c       ?getTriangle@PxMeshQuery@physx@@SAXABVPxHeightFieldGeometry@2@ABVPxTransform@2@IAAVPxTriangle@2@PAI3@Z 1001c99c f   PhysX3Common_x86:PhysX3Common_x86.dll
 0001:0001b9a2       ??6RenderOutput@Cm@physx@@QAEAAV012@W4Primitive@012@@Z 1001c9a2 f   PhysX3Common_x86:PhysX3Common_x86.dll
 0001:0001b9a8       ??6RenderOutput@Cm@physx@@QAEAAV012@VPxVec3@2@@Z 1001c9a8 f   PhysX3Common_x86:PhysX3Common_x86.dll
 0001:0001b9ae       ?intersectTriangleBox@Gu@physx@@YAHABVPxVec3@2@0000@Z 1001c9ae f   PhysX3Common_x86:PhysX3Common_x86.dll
 0001:0001b9b4       ?allocate@Allocator@shdfnd@physx@@QAEPAXIPBDH@Z 1001c9b4 f   PhysX3Common_x86:PhysX3Common_x86.dll
 0001:0001b9ba       ?getInstance@Foundation@shdfnd@physx@@SAAAV123@XZ 1001c9ba f   PhysX3Common_x86:PhysX3Common_x86.dll
 0001:0001b9c0       ?incRefCount@Foundation@shdfnd@physx@@SAXXZ 1001c9c0 f   PhysX3Common_x86:PhysX3Common_x86.dll
 0001:0001b9c6       ?decRefCount@Foundation@shdfnd@physx@@SAXXZ 1001c9c6 f   PhysX3Common_x86:PhysX3Common_x86.dll
 0001:0001b9cc       ?error@Foundation@shdfnd@physx@@QAAXW4Enum@PxErrorCode@3@PBDH1ZZ 1001c9cc f   PhysX3Common_x86:PhysX3Common_x86.dll
 0001:0001b9d2       ?CompleteBoxPruning@Gu@physx@@YA_NPBVPxBounds3@2@IAAV?$Array@IV?$ReflectionAllocator@I@shdfnd@physx@@@shdfnd@2@ABVAxes@12@@Z 1001c9d2 f   PhysX3Common_x86:PhysX3Common_x86.dll
 0001:0001b9d8       ?distanceSegmentSegmentSquaredOLD@Gu@physx@@YAMABVPxVec3@2@000PAM1@Z 1001c9d8 f   PhysX3Common_x86:PhysX3Common_x86.dll
 0001:0001b9de       ?GetRaycastFuncTable@Gu@physx@@YAAAY06P6AIABVPxGeometry@2@ABVPxTransform@2@ABVPxVec3@2@2MV?$PxFlags@W4Enum@PxHitFlag@physx@@G@2@IPIAUPxRaycastHit@2@_NP6A_NAAU72@PAX@Z7@ZXZ 1001c9de f   PhysX3Common_x86:PhysX3Common_x86.dll
 0001:0001b9f0       ??0PxMeshOverlapUtil@physx@@QAE@XZ 1001c9f0 f   PhysX3Extensions:ExtTriangleMeshExt.obj
 0001:0001ba10       ??1PxMeshOverlapUtil@physx@@QAE@XZ 1001ca10 f   PhysX3Extensions:ExtTriangleMeshExt.obj
 0001:0001ba30       ?findOverlap@PxMeshOverlapUtil@physx@@QAEIABVPxGeometry@2@ABVPxTransform@2@ABVPxTriangleMeshGeometry@2@1@Z 1001ca30 f   PhysX3Extensions:ExtTriangleMeshExt.obj
 0001:0001baf0       ?findOverlap@PxMeshOverlapUtil@physx@@QAEIABVPxGeometry@2@ABVPxTransform@2@ABVPxHeightFieldGeometry@2@1@Z 1001caf0 f   PhysX3Extensions:ExtTriangleMeshExt.obj
 0001:0001bb80       ?PxComputeMeshPenetration@physx@@YA?AVPxVec3@1@IABVPxGeometry@1@ABVPxTransform@1@ABVPxTriangleMeshGeometry@1@1AAI@Z 1001cb80 f   PhysX3Extensions:ExtTriangleMeshExt.obj
 0001:0001bc60       ?PxComputeHeightFieldPenetration@physx@@YA?AVPxVec3@1@IABVPxGeometry@1@ABVPxTransform@1@ABVPxHeightFieldGeometry@1@1AAI@Z 1001cc60 f   PhysX3Extensions:ExtTriangleMeshExt.obj
 0001:0001bd40       ??0PxTransform@physx@@QAE@ABV01@@Z 1001cd40 f i PhysX3Extensions:ExtTriangleMeshExt.obj
 0001:0001bd90       ?updateMassAndInertia@PxRigidBodyExt@physx@@SA_NAAVPxRigidBody@2@PBMIPBVPxVec3@2@_N@Z 1001cd90 f   PhysX3Extensions:ExtRigidBodyExt.obj
 0001:0001bdb0       ?updateMassAndInertia@PxRigidBodyExt@physx@@SA_NAAVPxRigidBody@2@MPBVPxVec3@2@_N@Z 1001cdb0 f   PhysX3Extensions:ExtRigidBodyExt.obj
 0001:0001bdd0       ?setMassAndUpdateInertia@PxRigidBodyExt@physx@@SA_NAAVPxRigidBody@2@PBMIPBVPxVec3@2@_N@Z 1001cdd0 f   PhysX3Extensions:ExtRigidBodyExt.obj
 0001:0001bdf0       ?setMassAndUpdateInertia@PxRigidBodyExt@physx@@SA_NAAVPxRigidBody@2@MPBVPxVec3@2@_N@Z 1001cdf0 f   PhysX3Extensions:ExtRigidBodyExt.obj
 0001:0001be10       ?addForceAtPos@PxRigidBodyExt@physx@@SAXAAVPxRigidBody@2@ABVPxVec3@2@1W4Enum@PxForceMode@2@_N@Z 1001ce10 f   PhysX3Extensions:ExtRigidBodyExt.obj
 0001:0001be20       ?addForceAtLocalPos@PxRigidBodyExt@physx@@SAXAAVPxRigidBody@2@ABVPxVec3@2@1W4Enum@PxForceMode@2@_N@Z 1001ce20 f   PhysX3Extensions:ExtRigidBodyExt.obj
 0001:0001bf80       ?addLocalForceAtPos@PxRigidBodyExt@physx@@SAXAAVPxRigidBody@2@ABVPxVec3@2@1W4Enum@PxForceMode@2@_N@Z 1001cf80 f   PhysX3Extensions:ExtRigidBodyExt.obj
 0001:0001c0d0       ?addLocalForceAtLocalPos@PxRigidBodyExt@physx@@SAXAAVPxRigidBody@2@ABVPxVec3@2@1W4Enum@PxForceMode@2@_N@Z 1001d0d0 f   PhysX3Extensions:ExtRigidBodyExt.obj
 0001:0001c310       ?getVelocityAtPos@PxRigidBodyExt@physx@@SA?AVPxVec3@2@ABVPxRigidBody@2@ABV32@@Z 1001d310 f   PhysX3Extensions:ExtRigidBodyExt.obj
 0001:0001c510       ?getLocalVelocityAtLocalPos@PxRigidBodyExt@physx@@SA?AVPxVec3@2@ABVPxRigidBody@2@ABV32@@Z 1001d510 f   PhysX3Extensions:ExtRigidBodyExt.obj
 0001:0001c820       ?getVelocityAtOffset@PxRigidBodyExt@physx@@SA?AVPxVec3@2@ABVPxRigidBody@2@ABV32@@Z 1001d820 f   PhysX3Extensions:ExtRigidBodyExt.obj
 0001:0001ca00       ?linearSweepSingle@PxRigidBodyExt@physx@@SA_NAAVPxRigidBody@2@AAVPxScene@2@ABVPxVec3@2@MV?$PxFlags@W4Enum@PxHitFlag@physx@@G@2@AAUPxSweepHit@2@AAIABUPxQueryFilterData@2@PAVPxQueryFilterCallback@2@PBUPxQueryCache@2@M@Z 1001da00 f   PhysX3Extensions:ExtRigidBodyExt.obj
 0001:0001ce10       ?linearSweepMultiple@PxRigidBodyExt@physx@@SAIAAVPxRigidBody@2@AAVPxScene@2@ABVPxVec3@2@MV?$PxFlags@W4Enum@PxHitFlag@physx@@G@2@PAUPxSweepHit@2@PAIIAAU72@AAHAA_NABUPxQueryFilterData@2@PAVPxQueryFilterCallback@2@PBUPxQueryCache@2@M@Z 1001de10 f   PhysX3Extensions:ExtRigidBodyExt.obj
 0001:0001d390       ?computeVelocityDeltaFromImpulse@PxRigidBodyExt@physx@@SAXABVPxRigidBody@2@ABVPxVec3@2@1AAV42@2@Z 1001e390 f   PhysX3Extensions:ExtRigidBodyExt.obj
 0001:0001d7e0       ?computeVelocityDeltaFromImpulse@PxRigidBodyExt@physx@@SAXABVPxRigidBody@2@ABVPxTransform@2@ABVPxVec3@2@2MMAAV52@3@Z 1001e7e0 f   PhysX3Extensions:ExtRigidBodyExt.obj
 0001:0001dcb0       ?computeLinearAngularImpulse@PxRigidBodyExt@physx@@SAXABVPxRigidBody@2@ABVPxTransform@2@ABVPxVec3@2@2MMAAV52@3@Z 1001ecb0 f   PhysX3Extensions:ExtRigidBodyExt.obj
 0001:0001de90       ??0InertiaTensorComputer@Ext@physx@@QAE@_N@Z 1001ee90 f   PhysX3Extensions:ExtRigidBodyExt.obj
 0001:0001deb0       ??0InertiaTensorComputer@Ext@physx@@QAE@ABVPxMat33@2@ABVPxVec3@2@M@Z 1001eeb0 f   PhysX3Extensions:ExtRigidBodyExt.obj
 0001:0001df20       ??1InertiaTensorComputer@Ext@physx@@QAE@XZ 1001ef20 f   PhysX3Extensions:ExtRigidBodyExt.obj
 0001:0001df30       ?translate@InertiaTensorComputer@Ext@physx@@QAEXABVPxVec3@3@@Z 1001ef30 f   PhysX3Extensions:ExtRigidBodyExt.obj
 0001:0001e530       ?setBox@InertiaTensorComputer@Ext@physx@@QAEXABVPxVec3@3@@Z 1001f530 f   PhysX3Extensions:ExtRigidBodyExt.obj
 0001:0001e610       ?setSphere@InertiaTensorComputer@Ext@physx@@QAEXM@Z 1001f610 f   PhysX3Extensions:ExtRigidBodyExt.obj
 0001:0001e6a0       ?setCylinder@InertiaTensorComputer@Ext@physx@@QAEXHMM@Z 1001f6a0 f   PhysX3Extensions:ExtRigidBodyExt.obj
 0001:0001e7a0       ?setCapsule@InertiaTensorComputer@Ext@physx@@QAEXHMM@Z 1001f7a0 f   PhysX3Extensions:ExtRigidBodyExt.obj
 0001:0001e910       ?setEllipsoid@InertiaTensorComputer@Ext@physx@@QAEXMMM@Z 1001f910 f   PhysX3Extensions:ExtRigidBodyExt.obj
 0001:0001e9e0       ?computeSphereMass@Ext@physx@@YAMMM@Z 1001f9e0 f   PhysX3Extensions:ExtRigidBodyExt.obj
 0001:0001ea10       ?computeSphereDensity@Ext@physx@@YAMMM@Z 1001fa10 f   PhysX3Extensions:ExtRigidBodyExt.obj
 0001:0001ea40       ?computeBoxMass@Ext@physx@@YAMABVPxVec3@2@M@Z 1001fa40 f   PhysX3Extensions:ExtRigidBodyExt.obj
 0001:0001eab0       ?computeBoxDensity@Ext@physx@@YAMABVPxVec3@2@M@Z 1001fab0 f   PhysX3Extensions:ExtRigidBodyExt.obj
 0001:0001eb20       ?computeEllipsoidMass@Ext@physx@@YAMABVPxVec3@2@M@Z 1001fb20 f   PhysX3Extensions:ExtRigidBodyExt.obj
 0001:0001eb90       ?computeEllipsoidDensity@Ext@physx@@YAMABVPxVec3@2@M@Z 1001fb90 f   PhysX3Extensions:ExtRigidBodyExt.obj
 0001:0001ec00       ?computeCylinderMass@Ext@physx@@YAMMMM@Z 1001fc00 f   PhysX3Extensions:ExtRigidBodyExt.obj
 0001:0001ec40       ?computeCylinderDensity@Ext@physx@@YAMMMM@Z 1001fc40 f   PhysX3Extensions:ExtRigidBodyExt.obj
 0001:0001ec80       ?computeCapsuleMass@Ext@physx@@YAMMMM@Z 1001fc80 f   PhysX3Extensions:ExtRigidBodyExt.obj
 0001:0001ecd0       ?computeCapsuleDensity@Ext@physx@@YAMMMM@Z 1001fcd0 f   PhysX3Extensions:ExtRigidBodyExt.obj
 0001:0001ed30       ?computeConeMass@Ext@physx@@YAMMMM@Z 1001fd30 f   PhysX3Extensions:ExtRigidBodyExt.obj
 0001:0001ed70       ?computeConeDensity@Ext@physx@@YAMMMM@Z 1001fd70 f   PhysX3Extensions:ExtRigidBodyExt.obj
 0001:0001edb0       ?computeBoxInertiaTensor@Ext@physx@@YAXAAVPxVec3@2@MMMM@Z 1001fdb0 f   PhysX3Extensions:ExtRigidBodyExt.obj
 0001:0001ee10       ?computeSphereInertiaTensor@Ext@physx@@YAXAAVPxVec3@2@MM_N@Z 1001fe10 f   PhysX3Extensions:ExtRigidBodyExt.obj
 0001:000202d0       ??$PX_UNUSED@PBUPxSweepHit@physx@@@@YAXABQBUPxSweepHit@physx@@@Z 100212d0 f i PhysX3Extensions:ExtRigidBodyExt.obj
 0001:000202e0       ??$PX_UNUSED@W4PxZERO@physx@@@@YAXABW4PxZERO@physx@@@Z 100212e0 f i PhysX3Extensions:ExtRigidBodyExt.obj
 0001:000202f0       ??$PxUnionCast@PAVPxGeometry@physx@@PAY03E@physx@@YAPAVPxGeometry@0@PAY03E@Z 100212f0 f i PhysX3Extensions:ExtRigidBodyExt.obj
 0001:00020300       ??0?$Array@PAVPxShape@physx@@V?$InlineAllocator@$0EA@V?$ReflectionAllocator@PAVPxShape@physx@@@shdfnd@physx@@@shdfnd@2@@shdfnd@physx@@QAE@ABV?$InlineAllocator@$0EA@V?$ReflectionAllocator@PAVPxShape@physx@@@shdfnd@physx@@@12@@Z 10021300 f i PhysX3Extensions:ExtRigidBodyExt.obj
 0001:00020320       ??0?$InlineAllocator@$0EA@V?$ReflectionAllocator@PAVPxShape@physx@@@shdfnd@physx@@@shdfnd@physx@@QAE@ABV012@@Z 10021320 f i PhysX3Extensions:ExtRigidBodyExt.obj
 0001:00020330       ??0?$InlineAllocator@$0EA@V?$ReflectionAllocator@PAVPxShape@physx@@@shdfnd@physx@@@shdfnd@physx@@QAE@ABV?$ReflectionAllocator@PAVPxShape@physx@@@12@@Z 10021330 f i PhysX3Extensions:ExtRigidBodyExt.obj
 0001:00020340       ??0?$InlineArray@PAVPxShape@physx@@$0BA@V?$ReflectionAllocator@PAVPxShape@physx@@@shdfnd@2@@shdfnd@physx@@QAE@ABV?$ReflectionAllocator@PAVPxShape@physx@@@12@@Z 10021340 f i PhysX3Extensions:ExtRigidBodyExt.obj
 0001:00020380       ??0?$PxHitBuffer@UPxSweepHit@physx@@@physx@@QAE@PAUPxSweepHit@1@I@Z 10021380 f i PhysX3Extensions:ExtRigidBodyExt.obj
 0001:000203e0       ??0?$PxHitCallback@UPxSweepHit@physx@@@physx@@QAE@PAUPxSweepHit@1@I@Z 100213e0 f i PhysX3Extensions:ExtRigidBodyExt.obj
 0001:00020440       ??0?$ReflectionAllocator@PAVPxShape@physx@@@shdfnd@physx@@QAE@ABV012@@Z 10021440 f i PhysX3Extensions:ExtRigidBodyExt.obj
 0001:00020450       ??0?$ReflectionAllocator@PAVPxShape@physx@@@shdfnd@physx@@QAE@PBD@Z 10021450 f i PhysX3Extensions:ExtRigidBodyExt.obj
 0001:00020460       ??0PxMat33@physx@@QAE@W4PxZERO@1@@Z 10021460 f i PhysX3Extensions:ExtRigidBodyExt.obj
 0001:000204b0       ??0PxMat33@physx@@QAE@XZ   100214b0 f i PhysX3Extensions:ExtRigidBodyExt.obj
 0001:000204c0       ??0PxQueryFilterData@physx@@QAE@XZ 100214c0 f i PhysX3Extensions:ExtRigidBodyExt.obj
 0001:000204f0       ??1?$Array@PAVPxShape@physx@@V?$InlineAllocator@$0EA@V?$ReflectionAllocator@PAVPxShape@physx@@@shdfnd@physx@@@shdfnd@2@@shdfnd@physx@@QAE@XZ 100214f0 f i PhysX3Extensions:ExtRigidBodyExt.obj
 0001:00020520       ??1?$InlineArray@PAVPxShape@physx@@$0BA@V?$ReflectionAllocator@PAVPxShape@physx@@@shdfnd@2@@shdfnd@physx@@QAE@XZ 10021520 f i PhysX3Extensions:ExtRigidBodyExt.obj
 0001:00020550       ??1?$PxHitBuffer@UPxSweepHit@physx@@@physx@@UAE@XZ 10021550 f i PhysX3Extensions:ExtRigidBodyExt.obj
 0001:00020560       ??1?$PxHitCallback@UPxSweepHit@physx@@@physx@@UAE@XZ 10021560 f i PhysX3Extensions:ExtRigidBodyExt.obj
 0001:00020570       ??4InertiaTensorComputer@Ext@physx@@QAEAAV012@ABV012@@Z 10021570 f i PhysX3Extensions:ExtRigidBodyExt.obj
 0001:000205d0       ??4PxMat33@physx@@QAEAAV01@ABV01@@Z 100215d0 f i PhysX3Extensions:ExtRigidBodyExt.obj
 0001:00020610       ??4PxSweepHit@physx@@QAEAAU01@ABU01@@Z 10021610 f i PhysX3Extensions:ExtRigidBodyExt.obj
 0001:00020670       ??A?$Array@PAVPxShape@physx@@V?$InlineAllocator@$0EA@V?$ReflectionAllocator@PAVPxShape@physx@@@shdfnd@physx@@@shdfnd@2@@shdfnd@physx@@QAEAAPAVPxShape@2@I@Z 10021670 f i PhysX3Extensions:ExtRigidBodyExt.obj
 0001:00020680       ??APxMat33@physx@@QAEAAVPxVec3@1@H@Z 10021680 f i PhysX3Extensions:ExtRigidBodyExt.obj
 0001:00020690       ??APxMat33@physx@@QAEAAVPxVec3@1@I@Z 10021690 f i PhysX3Extensions:ExtRigidBodyExt.obj
 0001:000206a0       ??APxVec3@physx@@QAEAAMH@Z 100216a0 f i PhysX3Extensions:ExtRigidBodyExt.obj
 0001:000206b0       ??APxVec3@physx@@QAEAAMI@Z 100216b0 f i PhysX3Extensions:ExtRigidBodyExt.obj
 0001:000206c0       ??DPxMat33@physx@@QBE?AV01@M@Z 100216c0 f i PhysX3Extensions:ExtRigidBodyExt.obj
 0001:00020740       ??DPxMat33@physx@@QBE?AVPxVec3@1@ABV21@@Z 10021740 f i PhysX3Extensions:ExtRigidBodyExt.obj
 0001:000207e0       ??GPxMat33@physx@@QBE?AV01@ABV01@@Z 100217e0 f i PhysX3Extensions:ExtRigidBodyExt.obj
 0001:00020880       ??KPxVec3@physx@@QBE?AV01@M@Z 10021880 f i PhysX3Extensions:ExtRigidBodyExt.obj
 0001:000208c0       ??RPxMat33@physx@@QAEAAMII@Z 100218c0 f i PhysX3Extensions:ExtRigidBodyExt.obj
 0001:000208e0       ??RPxMat33@physx@@QBEMII@Z 100218e0 f i PhysX3Extensions:ExtRigidBodyExt.obj
 0001:00020900       ??XPxMat33@physx@@QAEAAV01@M@Z 10021900 f i PhysX3Extensions:ExtRigidBodyExt.obj
 0001:00020940       ??YPxMat33@physx@@QAEAAV01@ABV01@@Z 10021940 f i PhysX3Extensions:ExtRigidBodyExt.obj
 0001:000209d0       ??_E?$PxHitBuffer@UPxSweepHit@physx@@@physx@@UAEPAXI@Z 100219d0 f i PhysX3Extensions:ExtRigidBodyExt.obj
 0001:000209d0       ??_G?$PxHitBuffer@UPxSweepHit@physx@@@physx@@UAEPAXI@Z 100219d0 f i PhysX3Extensions:ExtRigidBodyExt.obj
 0001:00020a00       ??_E?$PxHitCallback@UPxSweepHit@physx@@@physx@@UAEPAXI@Z 10021a00 f i PhysX3Extensions:ExtRigidBodyExt.obj
 0001:00020a00       ??_G?$PxHitCallback@UPxSweepHit@physx@@@physx@@UAEPAXI@Z 10021a00 f i PhysX3Extensions:ExtRigidBodyExt.obj
 0001:00020a30       ?PxIsFinite@physx@@YA_NM@Z 10021a30 f i PhysX3Extensions:ExtRigidBodyExt.obj
 0001:00020a60       ?add@InertiaTensorComputer@Ext@physx@@QAEXABV123@@Z 10021a60 f i PhysX3Extensions:ExtRigidBodyExt.obj
 0001:00020b80       ?addForceAtPosInternal@@YAXAAVPxRigidBody@physx@@ABVPxVec3@2@1W4Enum@PxForceMode@2@_N@Z 10021b80 f i PhysX3Extensions:ExtRigidBodyExt.obj
 0001:00020d90       ?allocate@?$Array@PAVPxShape@physx@@V?$InlineAllocator@$0EA@V?$ReflectionAllocator@PAVPxShape@physx@@@shdfnd@physx@@@shdfnd@2@@shdfnd@physx@@IAEPAPAVPxShape@3@I@Z 10021d90 f i PhysX3Extensions:ExtRigidBodyExt.obj
 0001:00020dc0       ?allocate@?$InlineAllocator@$0EA@V?$ReflectionAllocator@PAVPxShape@physx@@@shdfnd@physx@@@shdfnd@physx@@QAEPAXIPBDH@Z 10021dc0 f i PhysX3Extensions:ExtRigidBodyExt.obj
 0001:00020e30       ?allocate@?$ReflectionAllocator@PAVPxShape@physx@@@shdfnd@physx@@QAEPAXIPBDH@Z 10021e30 f i PhysX3Extensions:ExtRigidBodyExt.obj
 0001:00020e90       ?any@PxGeometryHolder@physx@@QAEAAVPxGeometry@2@XZ 10021e90 f i PhysX3Extensions:ExtRigidBodyExt.obj
 0001:00020ea0       ?basisExtent@PxBounds3@physx@@SA?AV12@ABVPxVec3@2@ABVPxMat33@2@0@Z 10021ea0 f i PhysX3Extensions:ExtRigidBodyExt.obj
 0001:00020fc0       ?begin@?$Array@PAVPxShape@physx@@V?$InlineAllocator@$0EA@V?$ReflectionAllocator@PAVPxShape@physx@@@shdfnd@physx@@@shdfnd@2@@shdfnd@physx@@QAEPAPAVPxShape@3@XZ 10021fc0 f i PhysX3Extensions:ExtRigidBodyExt.obj
 0001:00020fd0       ?capacity@?$Array@PAVPxShape@physx@@V?$InlineAllocator@$0EA@V?$ReflectionAllocator@PAVPxShape@physx@@@shdfnd@physx@@@shdfnd@2@@shdfnd@physx@@QBEIXZ 10021fd0 f i PhysX3Extensions:ExtRigidBodyExt.obj
 0001:00020fe0       ?center@InertiaTensorComputer@Ext@physx@@QAEXXZ 10021fe0 f i PhysX3Extensions:ExtRigidBodyExt.obj
 0001:00021030       ?computeBoxRatio@Ext@physx@@YAMABVPxVec3@2@@Z 10022030 f i PhysX3Extensions:ExtRigidBodyExt.obj
 0001:000210a0       ?computeCapsuleRatio@Ext@physx@@YAMMM@Z 100220a0 f i PhysX3Extensions:ExtRigidBodyExt.obj
 0001:000210f0       ?computeConeRatio@Ext@physx@@YAMMM@Z 100220f0 f i PhysX3Extensions:ExtRigidBodyExt.obj
 0001:00021130       ?computeCylinderRatio@Ext@physx@@YAMMM@Z 10022130 f i PhysX3Extensions:ExtRigidBodyExt.obj
 0001:00021160       ?computeEllipsoidRatio@Ext@physx@@YAMABVPxVec3@2@@Z 10022160 f i PhysX3Extensions:ExtRigidBodyExt.obj
 0001:000211d0       ?computeSphereRatio@Ext@physx@@YAMM@Z 100221d0 f i PhysX3Extensions:ExtRigidBodyExt.obj
 0001:00021200       ?copy@?$Array@PAVPxShape@physx@@V?$InlineAllocator@$0EA@V?$ReflectionAllocator@PAVPxShape@physx@@@shdfnd@physx@@@shdfnd@2@@shdfnd@physx@@KAXPAPAVPxShape@3@0PBQAV43@@Z 10022200 f i PhysX3Extensions:ExtRigidBodyExt.obj
 0001:00021230       ?create@?$Array@PAVPxShape@physx@@V?$InlineAllocator@$0EA@V?$ReflectionAllocator@PAVPxShape@physx@@@shdfnd@physx@@@shdfnd@2@@shdfnd@physx@@KAXPAPAVPxShape@3@0ABQAV43@@Z 10022230 f i PhysX3Extensions:ExtRigidBodyExt.obj
 0001:00021260       ?createDiagonal@PxMat33@physx@@SA?AV12@ABVPxVec3@2@@Z 10022260 f i PhysX3Extensions:ExtRigidBodyExt.obj
 0001:000212b0       ?deallocate@?$Array@PAVPxShape@physx@@V?$InlineAllocator@$0EA@V?$ReflectionAllocator@PAVPxShape@physx@@@shdfnd@physx@@@shdfnd@2@@shdfnd@physx@@IAEXPAX@Z 100222b0 f i PhysX3Extensions:ExtRigidBodyExt.obj
 0001:000212e0       ?deallocate@?$InlineAllocator@$0EA@V?$ReflectionAllocator@PAVPxShape@physx@@@shdfnd@physx@@@shdfnd@physx@@QAEXPAX@Z 100222e0 f i PhysX3Extensions:ExtRigidBodyExt.obj
 0001:00021310       ?deallocate@?$ReflectionAllocator@PAVPxShape@physx@@@shdfnd@physx@@QAEXPAX@Z 10022310 f i PhysX3Extensions:ExtRigidBodyExt.obj
 0001:00021330       ?destroy@?$Array@PAVPxShape@physx@@V?$InlineAllocator@$0EA@V?$ReflectionAllocator@PAVPxShape@physx@@@shdfnd@physx@@@shdfnd@2@@shdfnd@physx@@KAXPAPAVPxShape@3@0@Z 10022330 f i PhysX3Extensions:ExtRigidBodyExt.obj
 0001:00021340       ?finalizeQuery@?$PxHitCallback@UPxSweepHit@physx@@@physx@@UAEXXZ 10022340 f i PhysX3Extensions:ExtRigidBodyExt.obj
 0001:00021350       ?getCenterOfMass@InertiaTensorComputer@Ext@physx@@QBE?AVPxVec3@3@XZ 10022350 f i PhysX3Extensions:ExtRigidBodyExt.obj
 0001:00021370       ?getConjugate@PxQuat@physx@@QBE?AV12@XZ 10022370 f i PhysX3Extensions:ExtRigidBodyExt.obj
 0001:000213b0       ?getInertia@InertiaTensorComputer@Ext@physx@@QBE?AVPxMat33@3@XZ 100223b0 f i PhysX3Extensions:ExtRigidBodyExt.obj
 0001:00021400       ?getInverse@PxTransform@physx@@QBE?AV12@XZ 10022400 f i PhysX3Extensions:ExtRigidBodyExt.obj
 0001:00021580       ?getMass@InertiaTensorComputer@Ext@physx@@QBEMXZ 10022580 f i PhysX3Extensions:ExtRigidBodyExt.obj
 0001:00021590       ?getName@?$ReflectionAllocator@PAVPxShape@physx@@@shdfnd@physx@@CAPBDXZ 10022590 f i PhysX3Extensions:ExtRigidBodyExt.obj
 0001:000215c0       ?getNbTouches@?$PxHitBuffer@UPxSweepHit@physx@@@physx@@QBEIXZ 100225c0 f i PhysX3Extensions:ExtRigidBodyExt.obj
 0001:000215d0       ?getVelocityAtPosInternal@@YA?AVPxVec3@physx@@ABVPxRigidBody@2@ABV12@@Z 100225d0 f i PhysX3Extensions:ExtRigidBodyExt.obj
 0001:00021670       ?grow@?$Array@PAVPxShape@physx@@V?$InlineAllocator@$0EA@V?$ReflectionAllocator@PAVPxShape@physx@@@shdfnd@physx@@@shdfnd@2@@shdfnd@physx@@IAEXI@Z 10022670 f i PhysX3Extensions:ExtRigidBodyExt.obj
 0001:00021680       ?isFinite@intrinsics@physx@@YA_NM@Z 10022680 f i PhysX3Extensions:ExtRigidBodyExt.obj
 0001:000216b0       ?isIdentity@PxMeshScale@physx@@QBE_NXZ 100226b0 f i PhysX3Extensions:ExtRigidBodyExt.obj
 0001:000216f0       ?isInUserMemory@?$Array@PAVPxShape@physx@@V?$InlineAllocator@$0EA@V?$ReflectionAllocator@PAVPxShape@physx@@@shdfnd@physx@@@shdfnd@2@@shdfnd@physx@@QBEIXZ 100226f0 f i PhysX3Extensions:ExtRigidBodyExt.obj
 0001:00021700       ?multiply@PxVec3@physx@@QBE?AV12@ABV12@@Z 10022700 f i PhysX3Extensions:ExtRigidBodyExt.obj
 0001:00021740       ?processTouches@?$PxHitBuffer@UPxSweepHit@physx@@@physx@@MAE_NPBUPxSweepHit@2@I@Z 10022740 f i PhysX3Extensions:ExtRigidBodyExt.obj
 0001:00021750       ?recreate@?$Array@PAVPxShape@physx@@V?$InlineAllocator@$0EA@V?$ReflectionAllocator@PAVPxShape@physx@@@shdfnd@physx@@@shdfnd@2@@shdfnd@physx@@IAEXI@Z 10022750 f i PhysX3Extensions:ExtRigidBodyExt.obj
 0001:000217f0       ?reserve@?$Array@PAVPxShape@physx@@V?$InlineAllocator@$0EA@V?$ReflectionAllocator@PAVPxShape@physx@@@shdfnd@physx@@@shdfnd@2@@shdfnd@physx@@QAEXI@Z 100227f0 f i PhysX3Extensions:ExtRigidBodyExt.obj
 0001:00021810       ?resize@?$Array@PAVPxShape@physx@@V?$InlineAllocator@$0EA@V?$ReflectionAllocator@PAVPxShape@physx@@@shdfnd@physx@@@shdfnd@2@@shdfnd@physx@@QAEXIABQAVPxShape@3@@Z 10022810 f i PhysX3Extensions:ExtRigidBodyExt.obj
 0001:00021860       ?rotate@InertiaTensorComputer@Ext@physx@@QAEXABVPxMat33@3@@Z 10022860 f i PhysX3Extensions:ExtRigidBodyExt.obj
 0001:00021cc0       ?rotateInertia@MassProps@Ext@physx@@SA?AVPxMat33@3@ABV43@ABVPxQuat@3@@Z 10022cc0 f i PhysX3Extensions:ExtRigidBodyExt.obj
 0001:00022180       ?scaleDensity@InertiaTensorComputer@Ext@physx@@QAEXM@Z 10023180 f i PhysX3Extensions:ExtRigidBodyExt.obj
 0001:000221c0       ?scaleInertia@MassProps@Ext@physx@@SA?AVPxMat33@3@ABV43@ABVPxQuat@3@ABVPxVec3@3@@Z 100231c0 f i PhysX3Extensions:ExtRigidBodyExt.obj
 0001:00022350       ?setBox@InertiaTensorComputer@Ext@physx@@QAEXABVPxVec3@3@PBVPxTransform@3@@Z 10023350 f i PhysX3Extensions:ExtRigidBodyExt.obj
 0001:000224a0       ?setCapsule@InertiaTensorComputer@Ext@physx@@QAEXHMMPBVPxTransform@3@@Z 100234a0 f i PhysX3Extensions:ExtRigidBodyExt.obj
 0001:00022610       ?setDiagonal@InertiaTensorComputer@Ext@physx@@QAEXMABVPxVec3@3@@Z 10023610 f i PhysX3Extensions:ExtRigidBodyExt.obj
 0001:00022680       ?setSphere@InertiaTensorComputer@Ext@physx@@QAEXMPBVPxTransform@3@@Z 10023680 f i PhysX3Extensions:ExtRigidBodyExt.obj
 0001:00022850       ?size@?$Array@PAVPxShape@physx@@V?$InlineAllocator@$0EA@V?$ReflectionAllocator@PAVPxShape@physx@@@shdfnd@physx@@@shdfnd@2@@shdfnd@physx@@QBEIXZ 10023850 f i PhysX3Extensions:ExtRigidBodyExt.obj
 0001:00022860       ?transform@InertiaTensorComputer@Ext@physx@@QAEXABVPxTransform@3@@Z 10023860 f i PhysX3Extensions:ExtRigidBodyExt.obj
 0001:000229a0       ?transformFast@PxBounds3@physx@@SA?AV12@ABVPxTransform@2@ABV12@@Z 100239a0 f i PhysX3Extensions:ExtRigidBodyExt.obj
 0001:00022d40       ?volume@Ext@physx@@YAMABVPxVec3@2@@Z 10023d40 f i PhysX3Extensions:ExtRigidBodyExt.obj
 0001:00022db0       ?zero@InertiaTensorComputer@Ext@physx@@QAEXXZ 10023db0 f i PhysX3Extensions:ExtRigidBodyExt.obj
 0001:00022e0c       __purecall                 10023e0c f   MSVCRT:MSVCR120.dll
 0001:00022e12       ??3@YAXPAX@Z               10023e12 f   MSVCRT:MSVCR120.dll
 0001:00022e20       ?name@type_info@@QBEPBDPAU__type_info_node@@@Z 10023e20 f   MSVCRT:MSVCR120.dll
 0001:00022e26       ??_V@YAXPAX@Z              10023e26 f   MSVCRT:MSVCR120.dll
 0001:00022e2c       ___clean_type_info_names   10023e2c f   MSVCRT:tncleanup.obj
 0001:00022e38       ??0type_info@@AAE@ABV0@@Z  10023e38 f   MSVCRT:ti_inst.obj
 0001:00022e43       ??4type_info@@AAEAAV0@ABV0@@Z 10023e43 f   MSVCRT:ti_inst.obj
 0001:00022e48       ??_Etype_info@@UAEPAXI@Z   10023e48 f i MSVCRT:ti_inst.obj
 0001:00022ea0       __alloca_probe_16          10023ea0 f   MSVCRT:alloca16.obj
 0001:00022eb6       __alloca_probe_8           10023eb6     MSVCRT:alloca16.obj
 0001:00022ed0       __ftoui3                   10023ed0 f   MSVCRT:ftol3.obj
 0001:00022edf       __ftoul3                   10023edf f   MSVCRT:ftol3.obj
 0001:00022eee       __ftol3                    10023eee f   MSVCRT:ftol3.obj
 0001:00022efb       __ftol3_NaN                10023efb f   MSVCRT:ftol3.obj
 0001:00022f13       __ftol3_work               10023f13 f   MSVCRT:ftol3.obj
 0001:00022f99       __ftol3_common             10023f99 f   MSVCRT:ftol3.obj
 0001:0002305b       __ftol3_arg_error          1002405b f   MSVCRT:ftol3.obj
 0001:0002306d       __ftol3_except             1002406d f   MSVCRT:ftol3.obj
 0001:000230b1       __dtoui3                   100240b1 f   MSVCRT:ftol3.obj
 0001:000230c0       __dtoul3                   100240c0 f   MSVCRT:ftol3.obj
 0001:000230cf       __dtol3                    100240cf f   MSVCRT:ftol3.obj
 0001:000230dc       __dtol3_NaN                100240dc f   MSVCRT:ftol3.obj
 0001:000230f9       __dtol3_work               100240f9 f   MSVCRT:ftol3.obj
 0001:000231de       __ultod3                   100241de f   MSVCRT:ftol3.obj
 0001:0002326f       __ltod3                    1002426f f   MSVCRT:ftol3.obj
 0001:0002329e       _memcpy                    1002429e f   MSVCRT:MSVCR120.dll
 0001:000232a4       _memset                    100242a4 f   MSVCRT:MSVCR120.dll
 0001:000232f6       _NtCurrentTeb              100242f6 f i MSVCRT:crtdll.obj
 0001:000232fd       __CRT_INIT@12              100242fd f   MSVCRT:crtdll.obj
 0001:000234f4       __DllMainCRTStartup@12     100244f4 f   MSVCRT:crtdll.obj
 0001:0002364a       __fpclass                  1002464a f   MSVCRT:MSVCR120.dll
 0001:00023650       ___clean_type_info_names_internal 10024650 f   MSVCRT:MSVCR120.dll
 0001:00023656       ??_M@YGXPAXIHP6EX0@Z@Z     10024656 f   MSVCRT:ehvecdtr.obj
 0001:000236de       ?__ArrayUnwind@@YGXPAXIHP6EX0@Z@Z 100246de f   MSVCRT:ehvecdtr.obj
 0001:0002373c       ??1type_info@@UAE@XZ       1002473c f   MSVCRT:MSVCR120.dll
 0001:00023750       __alloca_probe             10024750 f   MSVCRT:chkstk.obj
 0001:00023750       __chkstk                   10024750 f   MSVCRT:chkstk.obj
 0001:0002377c       __except1                  1002477c f   MSVCRT:MSVCR120.dll
 0001:00023782       ___CppXcptFilter           10024782 f   MSVCRT:MSVCR120.dll
 0001:00023788       __amsg_exit                10024788 f   MSVCRT:MSVCR120.dll
 0001:00023790       __FindPESection            10024790 f   MSVCRT:pesect.obj
 0001:000237e0       __IsNonwritableInCurrentImage 100247e0 f   MSVCRT:pesect.obj
 0001:000238a0       __ValidateImageBase        100248a0 f   MSVCRT:pesect.obj
 0001:000238d1       ___atonexitinit            100248d1 f   MSVCRT:atonexit.obj
 0001:0002390d       __onexit                   1002490d f   MSVCRT:atonexit.obj
 0001:000239b6       _atexit                    100249b6 f   MSVCRT:atonexit.obj
 0001:000239cc       _free                      100249cc f   MSVCRT:MSVCR120.dll
 0001:000239d2       ___security_init_cookie    100249d2 f   MSVCRT:gs_support.obj
 0001:00023a6e       _DllMain@12                10024a6e f   MSVCRT:dllmain.obj
 0001:00023a90       __malloc_crt               10024a90 f   MSVCRT:MSVCR120.dll
 0001:00023a96       __RTC_Initialize           10024a96 f   MSVCRT:initsect.obj
 0001:00023ab6       __RTC_Terminate            10024ab6 f   MSVCRT:initsect.obj
 0001:00023ad6       __initterm                 10024ad6 f   MSVCRT:MSVCR120.dll
 0001:00023adc       __initterm_e               10024adc f   MSVCRT:MSVCR120.dll
 0001:00023af0       __SEH_prolog4              10024af0 f   MSVCRT:sehprolg4.obj
 0001:00023b35       __SEH_epilog4              10024b35 f   MSVCRT:sehprolg4.obj
 0001:00023b49       __except_handler4          10024b49 f   MSVCRT:chandler4gs.obj
 0001:00023b6c       ?terminate@@YAXXZ          10024b6c f   MSVCRT:MSVCR120.dll
 0001:00023b72       __lock                     10024b72 f   MSVCRT:MSVCR120.dll
 0001:00023b78       __unlock                   10024b78 f   MSVCRT:MSVCR120.dll
 0001:00023b7e       __calloc_crt               10024b7e f   MSVCRT:MSVCR120.dll
 0001:00023b84       ___dllonexit               10024b84 f   MSVCRT:MSVCR120.dll
 0001:00023b8a       @__security_check_cookie@4 10024b8a f   MSVCRT:secchk.obj
 0001:00023b9a       __except_handler4_common   10024b9a f   MSVCRT:MSVCR120.dll
 0001:00023ba0       ___raise_securityfailure   10024ba0 f   MSVCRT:gs_report.obj
 0001:00023bdd       ___report_gsfailure        10024bdd f   MSVCRT:gs_report.obj
 0001:00023cd8       ___report_rangecheckfailure 10024cd8 f   MSVCRT:gs_report.obj
 0001:00023ce4       ___report_securityfailure  10024ce4 f   MSVCRT:gs_report.obj
 0001:00023db4       ___report_securityfailureEx 10024db4 f   MSVCRT:gs_report.obj
 0001:00023eca       __crt_debugger_hook        10024eca f   MSVCRT:MSVCR120.dll
 0001:00023ed0       ___crtUnhandledException   10024ed0 f   MSVCRT:MSVCR120.dll
 0001:00023ed6       ___crtTerminateProcess     10024ed6 f   MSVCRT:MSVCR120.dll
 0001:00023edc       _EncodePointer@4           10024edc f   kernel32:KERNEL32.dll
 0001:00023ee2       _DecodePointer@4           10024ee2 f   kernel32:KERNEL32.dll
 0001:00023ee8       _QueryPerformanceCounter@4 10024ee8 f   kernel32:KERNEL32.dll
 0001:00023eee       _GetCurrentProcessId@0     10024eee f   kernel32:KERNEL32.dll
 0001:00023ef4       _GetCurrentThreadId@0      10024ef4 f   kernel32:KERNEL32.dll
 0001:00023efa       _GetSystemTimeAsFileTime@4 10024efa f   kernel32:KERNEL32.dll
 0001:00023f00       _DisableThreadLibraryCalls@4 10024f00 f   kernel32:KERNEL32.dll
 0001:00023f06       _IsDebuggerPresent@0       10024f06 f   kernel32:KERNEL32.dll
 0001:00023f0c       _IsProcessorFeaturePresent@4 10024f0c f   kernel32:KERNEL32.dll
 0001:00023f12       ?findOverlapTriangleMesh@PxMeshQuery@physx@@SAIABVPxGeometry@2@ABVPxTransform@2@ABVPxTriangleMeshGeometry@2@1PAIIIAA_N@Z 10024f12 f   PhysX3Common_x86:PhysX3Common_x86.dll
 0001:00023f18       ?findOverlapHeightField@PxMeshQuery@physx@@SAIABVPxGeometry@2@ABVPxTransform@2@ABVPxHeightFieldGeometry@2@1PAIIIAA_N@Z 10024f18 f   PhysX3Common_x86:PhysX3Common_x86.dll
 0001:00023f1e       ?PxDiagonalize@physx@@YA?AVPxVec3@1@ABVPxMat33@1@AAVPxQuat@1@@Z 10024f1e f   PhysX3Common_x86:PhysX3Common_x86.dll
 0002:00000000       __imp__IsProcessorFeaturePresent@4 10025000     kernel32:KERNEL32.dll
 0002:00000004       __imp__IsDebuggerPresent@0 10025004     kernel32:KERNEL32.dll
 0002:00000008       __imp__DisableThreadLibraryCalls@4 10025008     kernel32:KERNEL32.dll
 0002:0000000c       __imp__GetSystemTimeAsFileTime@4 1002500c     kernel32:KERNEL32.dll
 0002:00000010       __imp__GetCurrentThreadId@0 10025010     kernel32:KERNEL32.dll
 0002:00000014       __imp__GetCurrentProcessId@0 10025014     kernel32:KERNEL32.dll
 0002:00000018       __imp__QueryPerformanceCounter@4 10025018     kernel32:KERNEL32.dll
 0002:0000001c       __imp__DecodePointer@4     1002501c     kernel32:KERNEL32.dll
 0002:00000020       __imp__EncodePointer@4     10025020     kernel32:KERNEL32.dll
 0002:00000024       \177KERNEL32_NULL_THUNK_DATA 10025024     kernel32:KERNEL32.dll
 0002:00000028       __imp____crtTerminateProcess 10025028     MSVCRT:MSVCR120.dll
 0002:0000002c       __imp____crtUnhandledException 1002502c     MSVCRT:MSVCR120.dll
 0002:00000030       __imp___crt_debugger_hook  10025030     MSVCRT:MSVCR120.dll
 0002:00000034       __imp___except_handler4_common 10025034     MSVCRT:MSVCR120.dll
 0002:00000038       __imp___onexit             10025038     MSVCRT:MSVCR120.dll
 0002:0000003c       __imp____dllonexit         1002503c     MSVCRT:MSVCR120.dll
 0002:00000040       __imp___calloc_crt         10025040     MSVCRT:MSVCR120.dll
 0002:00000044       __imp___unlock             10025044     MSVCRT:MSVCR120.dll
 0002:00000048       __imp___lock               10025048     MSVCRT:MSVCR120.dll
 0002:0000004c       __imp_?terminate@@YAXXZ    1002504c     MSVCRT:MSVCR120.dll
 0002:00000050       __imp___initterm_e         10025050     MSVCRT:MSVCR120.dll
 0002:00000054       __imp___initterm           10025054     MSVCRT:MSVCR120.dll
 0002:00000058       __imp___malloc_crt         10025058     MSVCRT:MSVCR120.dll
 0002:0000005c       __imp__free                1002505c     MSVCRT:MSVCR120.dll
 0002:00000060       __imp___amsg_exit          10025060     MSVCRT:MSVCR120.dll
 0002:00000064       __imp____CppXcptFilter     10025064     MSVCRT:MSVCR120.dll
 0002:00000068       __imp___except1            10025068     MSVCRT:MSVCR120.dll
 0002:0000006c       __imp___purecall           1002506c     MSVCRT:MSVCR120.dll
 0002:00000070       __imp_??3@YAXPAX@Z         10025070     MSVCRT:MSVCR120.dll
 0002:00000074       __imp_?name@type_info@@QBEPBDPAU__type_info_node@@@Z 10025074     MSVCRT:MSVCR120.dll
 0002:00000078       __imp_??_V@YAXPAX@Z        10025078     MSVCRT:MSVCR120.dll
 0002:0000007c       __imp__memcpy              1002507c     MSVCRT:MSVCR120.dll
 0002:00000080       __imp__memset              10025080     MSVCRT:MSVCR120.dll
 0002:00000084       __imp_??1type_info@@UAE@XZ 10025084     MSVCRT:MSVCR120.dll
 0002:00000088       __imp____clean_type_info_names_internal 10025088     MSVCRT:MSVCR120.dll
 0002:0000008c       __imp___fpclass            1002508c     MSVCRT:MSVCR120.dll
 0002:00000090       \177MSVCR120_NULL_THUNK_DATA 10025090     MSVCRT:MSVCR120.dll
 0002:00000094       __imp_?GetRaycastFuncTable@Gu@physx@@YAAAY06P6AIABVPxGeometry@2@ABVPxTransform@2@ABVPxVec3@2@2MV?$PxFlags@W4Enum@PxHitFlag@physx@@G@2@IPIAUPxRaycastHit@2@_NP6A_NAAU72@PAX@Z7@ZXZ 10025094     PhysX3Common_x86:PhysX3Common_x86.dll
 0002:00000098       __imp_?distanceSegmentSegmentSquaredOLD@Gu@physx@@YAMABVPxVec3@2@000PAM1@Z 10025098     PhysX3Common_x86:PhysX3Common_x86.dll
 0002:0000009c       __imp_?CompleteBoxPruning@Gu@physx@@YA_NPBVPxBounds3@2@IAAV?$Array@IV?$ReflectionAllocator@I@shdfnd@physx@@@shdfnd@2@ABVAxes@12@@Z 1002509c     PhysX3Common_x86:PhysX3Common_x86.dll
 0002:000000a0       __imp_?error@Foundation@shdfnd@physx@@QAAXW4Enum@PxErrorCode@3@PBDH1ZZ 100250a0     PhysX3Common_x86:PhysX3Common_x86.dll
 0002:000000a4       __imp_?decRefCount@Foundation@shdfnd@physx@@SAXXZ 100250a4     PhysX3Common_x86:PhysX3Common_x86.dll
 0002:000000a8       __imp_?incRefCount@Foundation@shdfnd@physx@@SAXXZ 100250a8     PhysX3Common_x86:PhysX3Common_x86.dll
 0002:000000ac       __imp_?getInstance@Foundation@shdfnd@physx@@SAAAV123@XZ 100250ac     PhysX3Common_x86:PhysX3Common_x86.dll
 0002:000000b0       __imp_?allocate@Allocator@shdfnd@physx@@QAEPAXIPBDH@Z 100250b0     PhysX3Common_x86:PhysX3Common_x86.dll
 0002:000000b4       __imp_?intersectTriangleBox@Gu@physx@@YAHABVPxVec3@2@0000@Z 100250b4     PhysX3Common_x86:PhysX3Common_x86.dll
 0002:000000b8       __imp_??6RenderOutput@Cm@physx@@QAEAAV012@VPxVec3@2@@Z 100250b8     PhysX3Common_x86:PhysX3Common_x86.dll
 0002:000000bc       __imp_??6RenderOutput@Cm@physx@@QAEAAV012@W4Primitive@012@@Z 100250bc     PhysX3Common_x86:PhysX3Common_x86.dll
 0002:000000c0       __imp_?getTriangle@PxMeshQuery@physx@@SAXABVPxHeightFieldGeometry@2@ABVPxTransform@2@IAAVPxTriangle@2@PAI3@Z 100250c0     PhysX3Common_x86:PhysX3Common_x86.dll
 0002:000000c4       __imp_?getTriangle@PxMeshQuery@physx@@SAXABVPxTriangleMeshGeometry@2@ABVPxTransform@2@IAAVPxTriangle@2@PAI3@Z 100250c4     PhysX3Common_x86:PhysX3Common_x86.dll
 0002:000000c8       __imp_?sweep@PxMeshQuery@physx@@SA_NABVPxVec3@2@MABVPxGeometry@2@ABVPxTransform@2@IPBVPxTriangle@2@AAUPxSweepHit@2@V?$PxFlags@W4Enum@PxHitFlag@physx@@G@2@PBIM_N@Z 100250c8     PhysX3Common_x86:PhysX3Common_x86.dll
 0002:000000cc       __imp_?distanceSegmentBoxSquared@Gu@physx@@YAMABVPxVec3@2@000ABVPxMat33@2@PAMPAV32@@Z 100250cc     PhysX3Common_x86:PhysX3Common_x86.dll
 0002:000000d0       __imp_?intersectOBBOBB@Gu@physx@@YA_NABVPxVec3@2@0ABVPxMat33@2@001_N@Z 100250d0     PhysX3Common_x86:PhysX3Common_x86.dll
 0002:000000d4       __imp_??6Cm@physx@@YAAAVRenderOutput@01@AAV201@ABUDebugBox@01@@Z 100250d4     PhysX3Common_x86:PhysX3Common_x86.dll
 0002:000000d8       __imp_?outputCapsule@RenderOutput@Cm@physx@@QAEAAV123@MMABVMatrix34@23@@Z 100250d8     PhysX3Common_x86:PhysX3Common_x86.dll
 0002:000000dc       __imp_??6RenderOutput@Cm@physx@@QAEAAV012@ABVPxTransform@2@@Z 100250dc     PhysX3Common_x86:PhysX3Common_x86.dll
 0002:000000e0       __imp_??6RenderOutput@Cm@physx@@QAEAAV012@I@Z 100250e0     PhysX3Common_x86:PhysX3Common_x86.dll
 0002:000000e4       __imp_??0RenderOutput@Cm@physx@@QAE@AAVRenderBuffer@12@@Z 100250e4     PhysX3Common_x86:PhysX3Common_x86.dll
 0002:000000e8       __imp_?getAllocator@shdfnd@physx@@YAAAVPxAllocatorCallback@2@XZ 100250e8     PhysX3Common_x86:PhysX3Common_x86.dll
 0002:000000ec       __imp_?computePenetration@PxGeometryQuery@physx@@SA_NAAVPxVec3@2@AAMABVPxGeometry@2@ABVPxTransform@2@23@Z 100250ec     PhysX3Common_x86:PhysX3Common_x86.dll
 0002:000000f0       __imp_?sweep@PxGeometryQuery@physx@@SA_NABVPxVec3@2@MABVPxGeometry@2@ABVPxTransform@2@12AAUPxSweepHit@2@V?$PxFlags@W4Enum@PxHitFlag@physx@@G@2@M@Z 100250f0     PhysX3Common_x86:PhysX3Common_x86.dll
 0002:000000f4       __imp_?PxTransformFromSegment@physx@@YA?AVPxTransform@1@ABVPxVec3@1@0PAM@Z 100250f4     PhysX3Common_x86:PhysX3Common_x86.dll
 0002:000000f8       __imp__PxGetFoundation     100250f8     PhysX3Common_x86:PhysX3Common_x86.dll
 0002:000000fc       __imp_?deallocate@Allocator@shdfnd@physx@@QAEXPAX@Z 100250fc     PhysX3Common_x86:PhysX3Common_x86.dll
 0002:00000100       __imp_?findOverlapTriangleMesh@PxMeshQuery@physx@@SAIABVPxGeometry@2@ABVPxTransform@2@ABVPxTriangleMeshGeometry@2@1PAIIIAA_N@Z 10025100     PhysX3Common_x86:PhysX3Common_x86.dll
 0002:00000104       __imp_?findOverlapHeightField@PxMeshQuery@physx@@SAIABVPxGeometry@2@ABVPxTransform@2@ABVPxHeightFieldGeometry@2@1PAIIIAA_N@Z 10025104     PhysX3Common_x86:PhysX3Common_x86.dll
 0002:00000108       __imp_?PxDiagonalize@physx@@YA?AVPxVec3@1@ABVPxMat33@1@AAVPxQuat@1@@Z 10025108     PhysX3Common_x86:PhysX3Common_x86.dll
 0002:0000010c       \177PhysX3Common_x86_NULL_THUNK_DATA 1002510c     PhysX3Common_x86:PhysX3Common_x86.dll
 0002:00000110       ___xc_a                    10025110     MSVCRT:cinitexe.obj
 0002:00000144       ___xc_z                    10025144     MSVCRT:cinitexe.obj
 0002:00000148       ___xi_a                    10025148     MSVCRT:cinitexe.obj
 0002:00000154       ___xi_z                    10025154     MSVCRT:cinitexe.obj
 0002:0000019c       ??_7PxController@physx@@6B@ 1002519c     CctBoxController.obj
 0002:00000204       ??_7PxBoxController@physx@@6B@ 10025204     CctBoxController.obj
 0002:00000284       ??_7BoxController@Cct@physx@@6BPxBoxController@2@@ 10025284     CctBoxController.obj
 0002:00000304       ??_7BoxController@Cct@physx@@6BController@12@@ 10025304     CctBoxController.obj
 0002:00000318       __real@00000000            10025318     CctBoxController.obj
 0002:0000031c       __real@3f000000            1002531c     CctBoxController.obj
 0002:00000320       __xmm@3fe00000000000003fe0000000000000 10025320     CctBoxController.obj
 0002:00000334       ??_7PxCapsuleController@physx@@6B@ 10025334     CctCapsuleController.obj
 0002:000003b4       ??_7CapsuleController@Cct@physx@@6BPxCapsuleController@2@@ 100253b4     CctCapsuleController.obj
 0002:00000434       ??_7CapsuleController@Cct@physx@@6BController@12@@ 10025434     CctCapsuleController.obj
 0002:00000490       ?g_PXSinCoefficients0@aos@shdfnd@physx@@3UPX_VECTORF32@123@B 10025490     CctCharacterController.obj
 0002:000004a0       ?g_PXSinCoefficients1@aos@shdfnd@physx@@3UPX_VECTORF32@123@B 100254a0     CctCharacterController.obj
 0002:000004b0       ?g_PXSinCoefficients2@aos@shdfnd@physx@@3UPX_VECTORF32@123@B 100254b0     CctCharacterController.obj
 0002:000004c0       ?g_PXCosCoefficients0@aos@shdfnd@physx@@3UPX_VECTORF32@123@B 100254c0     CctCharacterController.obj
 0002:000004d0       ?g_PXCosCoefficients1@aos@shdfnd@physx@@3UPX_VECTORF32@123@B 100254d0     CctCharacterController.obj
 0002:000004e0       ?g_PXCosCoefficients2@aos@shdfnd@physx@@3UPX_VECTORF32@123@B 100254e0     CctCharacterController.obj
 0002:000004f0       ?g_PXTanCoefficients0@aos@shdfnd@physx@@3UPX_VECTORF32@123@B 100254f0     CctCharacterController.obj
 0002:00000500       ?g_PXTanCoefficients1@aos@shdfnd@physx@@3UPX_VECTORF32@123@B 10025500     CctCharacterController.obj
 0002:00000510       ?g_PXTanCoefficients2@aos@shdfnd@physx@@3UPX_VECTORF32@123@B 10025510     CctCharacterController.obj
 0002:00000520       ?g_PXASinCoefficients0@aos@shdfnd@physx@@3UPX_VECTORF32@123@B 10025520     CctCharacterController.obj
 0002:00000530       ?g_PXASinCoefficients1@aos@shdfnd@physx@@3UPX_VECTORF32@123@B 10025530     CctCharacterController.obj
 0002:00000540       ?g_PXASinCoefficients2@aos@shdfnd@physx@@3UPX_VECTORF32@123@B 10025540     CctCharacterController.obj
 0002:00000550       ?g_PXATanCoefficients0@aos@shdfnd@physx@@3UPX_VECTORF32@123@B 10025550     CctCharacterController.obj
 0002:00000560       ?g_PXATanCoefficients1@aos@shdfnd@physx@@3UPX_VECTORF32@123@B 10025560     CctCharacterController.obj
 0002:00000570       ?g_PXATanCoefficients2@aos@shdfnd@physx@@3UPX_VECTORF32@123@B 10025570     CctCharacterController.obj
 0002:00000580       ?g_PXSinEstCoefficients@aos@shdfnd@physx@@3UPX_VECTORF32@123@B 10025580     CctCharacterController.obj
 0002:00000590       ?g_PXCosEstCoefficients@aos@shdfnd@physx@@3UPX_VECTORF32@123@B 10025590     CctCharacterController.obj
 0002:000005a0       ?g_PXASinEstCoefficients@aos@shdfnd@physx@@3UPX_VECTORF32@123@B 100255a0     CctCharacterController.obj
 0002:000005b0       ??_7?$PxHitCallback@UPxRaycastHit@physx@@@physx@@6B@ 100255b0     CctCharacterController.obj
 0002:000005bc       ??_7?$PxHitBuffer@UPxRaycastHit@physx@@@physx@@6B@ 100255bc     CctCharacterController.obj
 0002:000005c8       ??_7PxQueryFilterCallback@physx@@6B@ 100255c8     CctCharacterController.obj
 0002:000005d4       ??_7PxControllerManager@physx@@6B@ 100255d4     CctCharacterController.obj
 0002:00000620       ??_C@_0FI@CHGNDKDL@C?3?2PhysX?5SDK?2PhysX?93?43?9master?2Ph@ 10025620     CctCharacterController.obj
 0002:00000678       ??_C@_0FJ@PJMJBLIO@The?5PxControllerManager?3?3createC@ 10025678     CctCharacterController.obj
 0002:000006d4       ??_7ControllerFilter@@6B@  100256d4     CctCharacterController.obj
 0002:000006e0       ??_C@_0BM@OIFKLHDN@?$DMallocation?5names?5disabled?$DO?$AA@ 100256e0     CctCharacterController.obj
 0002:00000700       ??_C@_0EL@BKMLHFN@C?3?2PhysX?5SDK?2PhysX?93?43?9master?2Ph@ 10025700     CctCharacterController.obj
 0002:0000074c       __real@3a83126f            1002574c     CctCharacterController.obj
 0002:00000750       __real@3eb0c6f7a0b5ed8d    10025750     CctCharacterController.obj
 0002:00000758       __real@3ee66666            10025758     CctCharacterController.obj
 0002:0000075c       __real@3f800000            1002575c     CctCharacterController.obj
 0002:00000760       __real@3fb999999999999a    10025760     CctCharacterController.obj
 0002:00000768       __real@3fe0000000000000    10025768     CctCharacterController.obj
 0002:00000770       __real@40000000            10025770     CctCharacterController.obj
 0002:00000774       __real@ba83126f            10025774     CctCharacterController.obj
 0002:00000780       __xmm@0000000000000000000000003f800000 10025780     CctCharacterController.obj
 0002:00000790       __xmm@000000003a83126f3a83126f3a83126f 10025790     CctCharacterController.obj
 0002:000007a0       __xmm@000000007f7fffff0000000000000000 100257a0     CctCharacterController.obj
 0002:000007b0       __xmm@00000000ba83126fba83126fba83126f 100257b0     CctCharacterController.obj
 0002:000007c0       __xmm@3f800000000000000000000000000000 100257c0     CctCharacterController.obj
 0002:000007d0       __xmm@7fefffffffffffff7fefffffffffffff 100257d0     CctCharacterController.obj
 0002:000007e0       __xmm@7fffffff7fffffff7fffffff7fffffff 100257e0     CctCharacterController.obj
 0002:000007f0       __xmm@80000000800000008000000080000000 100257f0     CctCharacterController.obj
 0002:00000800       __xmm@ffefffffffffffffffefffffffffffff 10025800     CctCharacterController.obj
 0002:00000818       ??_7?$PxHitCallback@UPxOverlapHit@physx@@@physx@@6B@ 10025818     CctCharacterControllerCallbacks.obj
 0002:00000824       ??_7?$PxHitBuffer@UPxOverlapHit@physx@@@physx@@6B@ 10025824     CctCharacterControllerCallbacks.obj
 0002:00000830       __real@3c23d70a            10025830     CctCharacterControllerCallbacks.obj
 0002:00000834       __real@3f7ff972            10025834     CctCharacterControllerCallbacks.obj
 0002:00000840       __xmm@000000003f8000003f8000003f800000 10025840     CctCharacterControllerCallbacks.obj
 0002:00000850       __xmm@80000000000000008000000000000000 10025850     CctCharacterControllerCallbacks.obj
 0002:00000890       ??_7PxRenderBuffer@physx@@6B@ 10025890     CctCharacterControllerManager.obj
 0002:000008bc       ??_7RenderBuffer@Cm@physx@@6B@ 100258bc     CctCharacterControllerManager.obj
 0002:000008e8       ??_7CharacterControllerManager@Cct@physx@@6B@ 100258e8     CctCharacterControllerManager.obj
 0002:00000938       ??_C@_0EE@IHHKBLHK@?4?4?2?4?4?2PhysXCharacterKinematic?2sr@ 10025938     CctCharacterControllerManager.obj
 0002:0000097c       ??_C@_0DJ@FJGFFNLM@PxControllerManager?3?3getControll@ 1002597c     CctCharacterControllerManager.obj
 0002:000009b8       ??_C@_0DO@NLBEEDJJ@PxControllerManager?3?3getObstacle@ 100259b8     CctCharacterControllerManager.obj
 0002:000009f8       ??_C@_0FD@HFOAEJAL@c?3?2physx?5sdk?2physx?93?43?9master?2ph@ 100259f8     CctCharacterControllerManager.obj
 0002:00000a4c       __real@358637bd            10025a4c     CctCharacterControllerManager.obj
 0002:00000a50       __real@40800000            10025a50     CctCharacterControllerManager.obj
 0002:00000a60       __xmm@41f00000000000000000000000000000 10025a60     CctCharacterControllerManager.obj
 0002:00000a74       ??_7PxDeletionListener@physx@@6B@ 10025a74     CctController.obj
 0002:00000a7c       ??_7Controller@Cct@physx@@6B@ 10025a7c     CctController.obj
 0002:00000a90       __real@3dcccccd            10025a90     CctController.obj
 0002:00000a94       __real@bf7fff58            10025a94     CctController.obj
 0002:00000a9c       ??_7PxObstacleContext@physx@@6B@ 10025a9c     CctObstacleContext.obj
 0002:00000ac0       ??_7ObstacleContext@Cct@physx@@6B@ 10025ac0     CctObstacleContext.obj
 0002:00000ae4       ??_C@_0DJ@FPEJDNHL@?4?4?2?4?4?2PhysXCharacterKinematic?2sr@ 10025ae4     CctObstacleContext.obj
 0002:00000b20       ??_C@_0EL@IKKPJEFJ@c?3?2physx?5sdk?2physx?93?43?9master?2ph@ 10025b20     CctObstacleContext.obj
 0002:00000b6c       __real@7f7fffff            10025b6c     CctObstacleContext.obj
 0002:00000b74       ??_7SweptBox@Cct@physx@@6B@ 10025b74     CctSweptBox.obj
 0002:00000b80       ??_7SweptCapsule@Cct@physx@@6B@ 10025b80     CctSweptCapsule.obj
 0002:00000b8c       ??_7SweptVolume@Cct@physx@@6B@ 10025b8c     CctSweptVolume.obj
 0002:00000b98       ??_C@_0DB@HFONPIBD@?4?4?2?4?4?2PhysXExtensions?2src?2ExtTri@ 10025b98     PhysX3Extensions:ExtTriangleMeshExt.obj
 0002:00000bd0       ??_7?$PxHitCallback@UPxSweepHit@physx@@@physx@@6B@ 10025bd0     PhysX3Extensions:ExtRigidBodyExt.obj
 0002:00000bdc       ??_7?$PxHitBuffer@UPxSweepHit@physx@@@physx@@6B@ 10025bdc     PhysX3Extensions:ExtRigidBodyExt.obj
 0002:00000be8       ??_C@_0IE@PMLMABKM@?$CFs?3?5inertia?5tensor?5has?5negative?5@ 10025be8     PhysX3Extensions:ExtRigidBodyExt.obj
 0002:00000c6c       ??_C@_0CO@PEEEKJKP@?4?4?2?4?4?2PhysXExtensions?2src?2ExtRig@ 10025c6c     PhysX3Extensions:ExtRigidBodyExt.obj
 0002:00000ca0       ??_C@_0ED@GFJAKEFC@computeMassAndInertia?3?5Provided?5@ 10025ca0     PhysX3Extensions:ExtRigidBodyExt.obj
 0002:00000ce8       ??_C@_0FL@MGPHIFPL@computeMassAndInertia?3?5Not?5enoug@ 10025ce8     PhysX3Extensions:ExtRigidBodyExt.obj
 0002:00000d48       ??_C@_0ED@IINBLCPB@computeMassAndInertia?3?5Dynamic?5a@ 10025d48     PhysX3Extensions:ExtRigidBodyExt.obj
 0002:00000d8c       ??_C@_0CF@NFENOJIA@PxRigidBodyExt?3?3updateMassAndIne@ 10025d8c     PhysX3Extensions:ExtRigidBodyExt.obj
 0002:00000db8       ??_C@_0FC@JIKFFKAL@?$CFs?3?5Mass?5and?5inertia?5computation@ 10025db8     PhysX3Extensions:ExtRigidBodyExt.obj
 0002:00000e10       ??_C@_0ED@BHIJHOEP@?$CFs?3?5No?5density?5specified?0?5settin@ 10025e10     PhysX3Extensions:ExtRigidBodyExt.obj
 0002:00000e54       ??_C@_0CI@NNBNKKJG@PxRigidBodyExt?3?3setMassAndUpdate@ 10025e54     PhysX3Extensions:ExtRigidBodyExt.obj
 0002:00000e80       ??_C@_0EA@JNKKHEHF@?$CFs?3?5No?5mass?5specified?0?5setting?5m@ 10025e80     PhysX3Extensions:ExtRigidBodyExt.obj
 0002:00000ec0       ??_C@_0FI@DKLFOMEB@PxRigidBodyExt?3?3addForce?5methods@ 10025ec0     PhysX3Extensions:ExtRigidBodyExt.obj
 0002:00000f18       __real@3d888889            10025f18     PhysX3Extensions:ExtRigidBodyExt.obj
 0002:00000f1c       __real@3daaaaab            10025f1c     PhysX3Extensions:ExtRigidBodyExt.obj
 0002:00000f20       __real@3eaaaaab            10025f20     PhysX3Extensions:ExtRigidBodyExt.obj
 0002:00000f24       __real@3ecccccd            10025f24     PhysX3Extensions:ExtRigidBodyExt.obj
 0002:00000f28       __real@3f2aaaab            10025f28     PhysX3Extensions:ExtRigidBodyExt.obj
 0002:00000f2c       __real@40400000            10025f2c     PhysX3Extensions:ExtRigidBodyExt.obj
 0002:00000f30       __real@40490fdb            10025f30     PhysX3Extensions:ExtRigidBodyExt.obj
 0002:00000f34       __real@40860a92            10025f34     PhysX3Extensions:ExtRigidBodyExt.obj
 0002:00000f38       __real@41000000            10025f38     PhysX3Extensions:ExtRigidBodyExt.obj
 0002:00000f3c       ?ProcessDetach@NativeDll@<CrtImplementationDetails>@@0IB 10025f3c     MSVCRT:tncleanup.obj
 0002:00000f40       ?ProcessAttach@NativeDll@<CrtImplementationDetails>@@0IB 10025f40     MSVCRT:tncleanup.obj
 0002:00000f44       ?ThreadAttach@NativeDll@<CrtImplementationDetails>@@0IB 10025f44     MSVCRT:tncleanup.obj
 0002:00000f48       ?ThreadDetach@NativeDll@<CrtImplementationDetails>@@0IB 10025f48     MSVCRT:tncleanup.obj
 0002:00000f4c       ?ProcessVerifier@NativeDll@<CrtImplementationDetails>@@0IB 10025f4c     MSVCRT:tncleanup.obj
 0002:00000f50       ?value@?$integral_constant@_N$0A@@std@@2_NB 10025f50     MSVCRT:tncleanup.obj
 0002:00000f51       ?value@?$integral_constant@_N$00@std@@2_NB 10025f51     MSVCRT:tncleanup.obj
 0002:00000f58       ??_7type_info@@6B@         10025f58     MSVCRT:ti_inst.obj
 0002:00000fe4       __pDefaultRawDllMain       10025fe4     MSVCRT:crtdll.obj
 0002:00000fe4       __pRawDllMain              10025fe4     MSVCRT:crtdll.obj
 0002:00000ff0       __load_config_used         10025ff0     MSVCRT:loadcfg.obj
 0002:000010bc       ??_R4type_info@@6B@        100260bc     MSVCRT:ti_inst.obj
 0002:000010d0       ??_R3type_info@@8          100260d0     MSVCRT:ti_inst.obj
 0002:000010e0       ??_R2type_info@@8          100260e0     MSVCRT:ti_inst.obj
 0002:000010e8       ??_R1A@?0A@EA@type_info@@8 100260e8     MSVCRT:ti_inst.obj
 0002:00001110       ___safe_se_handler_table   10026110     <linker-defined>
 0002:00001114       ___rtc_iaa                 10026114     MSVCRT:initsect.obj
 0002:00001118       ___rtc_izz                 10026118     MSVCRT:initsect.obj
 0002:0000111c       ___rtc_taa                 1002611c     MSVCRT:initsect.obj
 0002:00001120       ___rtc_tzz                 10026120     MSVCRT:initsect.obj
 0002:000013b8       __IMPORT_DESCRIPTOR_PhysX3Common_x86 100263b8     PhysX3Common_x86:PhysX3Common_x86.dll
 0002:000013cc       __IMPORT_DESCRIPTOR_MSVCR120 100263cc     MSVCRT:MSVCR120.dll
 0002:000013e0       __IMPORT_DESCRIPTOR_KERNEL32 100263e0     kernel32:KERNEL32.dll
 0002:000013f4       __NULL_IMPORT_DESCRIPTOR   100263f4     PhysX3Common_x86:PhysX3Common_x86.dll
 0003:00000030       ?g_PXTanEstCoefficients@aos@shdfnd@physx@@3UPX_VECTORF32@123@B 10028030     CctCharacterController.obj
 0003:00000040       ?g_PXATanEstCoefficients@aos@shdfnd@physx@@3UPX_VECTORF32@123@B 10028040     CctCharacterController.obj
 0003:00000050       ?g_PXASinEstConstants@aos@shdfnd@physx@@3UPX_VECTORF32@123@B 10028050     CctCharacterController.obj
 0003:00000060       ?g_PXPiConstants0@aos@shdfnd@physx@@3UPX_VECTORF32@123@B 10028060     CctCharacterController.obj
 0003:00000070       ?g_PXReciprocalTwoPi@aos@shdfnd@physx@@3UPX_VECTORF32@123@B 10028070     CctCharacterController.obj
 0003:00000080       ?g_PXTwoPi@aos@shdfnd@physx@@3UPX_VECTORF32@123@B 10028080     CctCharacterController.obj
 0003:00000090       ___native_dllmain_reason   10028090     MSVCRT:natstart.obj
 0003:00000094       ___security_cookie         10028094     MSVCRT:gs_cookie.obj
 0003:00000098       ___security_cookie_complement 10028098     MSVCRT:gs_cookie.obj
 0003:000000a0       ??_R0PBX@8                 100280a0     CctCharacterController.obj
 0003:000000b0       ??_R0?AVPxExtendedBox@physx@@@8 100280b0     CctCharacterController.obj
 0003:000000d4       ??_R0?AUPxExtendedCapsule@physx@@@8 100280d4     CctCharacterController.obj
 0003:000000fc       ??_R0I@8                   100280fc     CctCharacterController.obj
 0003:00000108       ??_R0?AVPxTriangle@physx@@@8 10028108     CctCharacterControllerCallbacks.obj
 0003:00000128       ??_R0?AVRenderBuffer@Cm@physx@@@8 10028128     CctCharacterControllerManager.obj
 0003:0000014c       ??_R0?AVBoxController@Cct@physx@@@8 1002814c     CctCharacterControllerManager.obj
 0003:00000174       ??_R0?AVCapsuleController@Cct@physx@@@8 10028174     CctCharacterControllerManager.obj
 0003:000001a0       ??_R0?AVObstacleContext@Cct@physx@@@8 100281a0     CctCharacterControllerManager.obj
 0003:000001c8       ??_R0?AVCharacterControllerManager@Cct@physx@@@8 100281c8     CctCharacterControllerManager.obj
 0003:000001fc       ??_R0?AUPxDebugLine@physx@@@8 100281fc     CctCharacterControllerManager.obj
 0003:0000021c       ??_R0PAVController@Cct@physx@@@8 1002821c     CctCharacterControllerManager.obj
 0003:00000240       ??_R0PAVObstacleContext@Cct@physx@@@8 10028240     CctCharacterControllerManager.obj
 0003:00000268       ??_R0?AUPxDebugPoint@physx@@@8 10028268     CctCharacterControllerManager.obj
 0003:0000028c       ??_R0?AUPxDebugTriangle@physx@@@8 1002828c     CctCharacterControllerManager.obj
 0003:000002b0       ??_R0?AUPxDebugText@physx@@@8 100282b0     CctCharacterControllerManager.obj
 0003:000002d0       ??_R0?AUInternalBoxObstacle@ObstacleContext@Cct@physx@@@8 100282d0     CctObstacleContext.obj
 0003:00000310       ??_R0?AUInternalCapsuleObstacle@ObstacleContext@Cct@physx@@@8 10028310     CctObstacleContext.obj
 0003:00000350       ??_R0PAVPxShape@physx@@@8  10028350     PhysX3Extensions:ExtRigidBodyExt.obj
 0003:0000036c       ??_R0?AVtype_info@@@8      1002836c     MSVCRT:ti_inst.obj
 0003:00000450       ?__type_info_root_node@@3U__type_info_node@@A 10028450     MSVCRT:tncleanup.obj
 0003:00000780       ___native_startup_lock     10028780     <common>
 0003:00000784       ___native_startup_state    10028784     <common>
 0003:00000788       ___onexitend               10028788     <common>
 0003:0000078c       ___onexitbegin             1002878c     <common>
 0003:00000790       ___dyn_tls_init_callback   10028790     <common>

 entry point at        0001:000234f4

 Static symbols

 0000:fffd5000       .debug$S                   10000000     MSVCRT:MSVCR120.dll
 0000:fffd5000       .debug$S                   10000000     MSVCRT:MSVCR120.dll
 0000:fffd5000       .debug$S                   10000000     MSVCRT:MSVCR120.dll
 0000:fffd5000       .debug$S                   10000000     MSVCRT:MSVCR120.dll
 0000:fffd5000       .debug$S                   10000000     MSVCRT:MSVCR120.dll
 0000:fffd5000       .debug$S                   10000000     MSVCRT:MSVCR120.dll
 0000:fffd5000       .debug$S                   10000000     MSVCRT:MSVCR120.dll
 0000:fffd5000       .debug$S                   10000000     MSVCRT:MSVCR120.dll
 0000:fffd5000       .debug$S                   10000000     MSVCRT:MSVCR120.dll
 0000:fffd5000       .debug$S                   10000000     MSVCRT:MSVCR120.dll
 0000:fffd5000       .debug$S                   10000000     MSVCRT:MSVCR120.dll
 0000:fffd5000       .debug$S                   10000000     MSVCRT:MSVCR120.dll
 0000:fffd5000       .debug$S                   10000000     MSVCRT:MSVCR120.dll
 0000:fffd5000       .debug$S                   10000000     MSVCRT:MSVCR120.dll
 0000:fffd5000       .debug$S                   10000000     MSVCRT:MSVCR120.dll
 0000:fffd5000       .debug$S                   10000000     MSVCRT:MSVCR120.dll
 0000:fffd5000       .debug$S                   10000000     MSVCRT:MSVCR120.dll
 0000:fffd5000       .debug$S                   10000000     MSVCRT:MSVCR120.dll
 0000:fffd5000       .debug$S                   10000000     PhysX3Common_x86:PhysX3Common_x86.dll
 0000:fffd5000       .debug$S                   10000000     PhysX3Common_x86:PhysX3Common_x86.dll
 0000:fffd5000       .debug$S                   10000000     PhysX3Common_x86:PhysX3Common_x86.dll
 0000:fffd5000       .debug$S                   10000000     PhysX3Common_x86:PhysX3Common_x86.dll
 0000:fffd5000       .debug$S                   10000000     PhysX3Common_x86:PhysX3Common_x86.dll
 0000:fffd5000       .debug$S                   10000000     MSVCRT:MSVCR120.dll
 0000:fffd5000       .debug$S                   10000000     MSVCRT:MSVCR120.dll
 0000:fffd5000       .debug$S                   10000000     MSVCRT:MSVCR120.dll
 0000:fffd5000       .debug$S                   10000000     MSVCRT:MSVCR120.dll
 0000:fffd5000       .debug$S                   10000000     MSVCRT:MSVCR120.dll
 0000:fffd5000       .debug$S                   10000000     MSVCRT:MSVCR120.dll
 0000:fffd5000       .debug$S                   10000000     MSVCRT:MSVCR120.dll
 0000:fffd5000       .debug$S                   10000000     MSVCRT:MSVCR120.dll
 0000:fffd5000       .debug$S                   10000000     PhysX3Common_x86:PhysX3Common_x86.dll
 0000:fffd5000       .debug$S                   10000000     PhysX3Common_x86:PhysX3Common_x86.dll
 0000:fffd5000       .debug$S                   10000000     PhysX3Common_x86:PhysX3Common_x86.dll
 0000:fffd5000       .debug$S                   10000000     PhysX3Common_x86:PhysX3Common_x86.dll
 0000:fffd5000       .debug$S                   10000000     kernel32:KERNEL32.dll
 0000:fffd5000       .debug$S                   10000000     kernel32:KERNEL32.dll
 0000:fffd5000       .debug$S                   10000000     kernel32:KERNEL32.dll
 0000:fffd5000       .debug$S                   10000000     kernel32:KERNEL32.dll
 0000:fffd5000       .debug$S                   10000000     kernel32:KERNEL32.dll
 0000:fffd5000       .debug$S                   10000000     kernel32:KERNEL32.dll
 0000:fffd5000       .debug$S                   10000000     kernel32:KERNEL32.dll
 0000:fffd5000       .debug$S                   10000000     kernel32:KERNEL32.dll
 0000:fffd5000       .debug$S                   10000000     kernel32:KERNEL32.dll
 0000:fffd5000       .debug$S                   10000000     PhysX3Common_x86:PhysX3Common_x86.dll
 0000:fffd5000       .debug$S                   10000000     PhysX3Common_x86:PhysX3Common_x86.dll
 0000:fffd5000       .debug$S                   10000000     PhysX3Common_x86:PhysX3Common_x86.dll
 0000:fffd5000       .debug$S                   10000000     PhysX3Common_x86:PhysX3Common_x86.dll
 0000:fffd5000       .debug$S                   10000000     PhysX3Common_x86:PhysX3Common_x86.dll
 0000:fffd5000       .debug$S                   10000000     PhysX3Common_x86:PhysX3Common_x86.dll
 0000:fffd5000       .debug$S                   10000000     PhysX3Common_x86:PhysX3Common_x86.dll
 0000:fffd5000       .debug$S                   10000000     PhysX3Common_x86:PhysX3Common_x86.dll
 0000:fffd5000       .debug$S                   10000000     PhysX3Common_x86:PhysX3Common_x86.dll
 0000:fffd5000       .debug$S                   10000000     PhysX3Common_x86:PhysX3Common_x86.dll
 0000:fffd5000       .debug$S                   10000000     PhysX3Common_x86:PhysX3Common_x86.dll
 0000:fffd5000       .debug$S                   10000000     PhysX3Common_x86:PhysX3Common_x86.dll
 0000:fffd5000       .debug$S                   10000000     PhysX3Common_x86:PhysX3Common_x86.dll
 0000:fffd5000       .debug$S                   10000000     PhysX3Common_x86:PhysX3Common_x86.dll
 0000:fffd5000       .debug$S                   10000000     PhysX3Common_x86:PhysX3Common_x86.dll
 0000:fffd5000       .debug$S                   10000000     PhysX3Common_x86:PhysX3Common_x86.dll
 0000:fffd5000       .debug$S                   10000000     PhysX3Common_x86:PhysX3Common_x86.dll
 0000:fffd5000       .debug$S                   10000000     PhysX3Common_x86:PhysX3Common_x86.dll
 0000:fffd5000       .debug$S                   10000000     PhysX3Common_x86:PhysX3Common_x86.dll
 0000:fffd5000       .debug$S                   10000000     PhysX3Common_x86:PhysX3Common_x86.dll
 0000:fffd5000       .debug$S                   10000000     PhysX3Common_x86:PhysX3Common_x86.dll
 0001:00000000       ??__EmaxFError@_VecMathTests@aos@shdfnd@physx@@YAXXZ 10001000 f   CctCharacterController.obj
 0001:00000020       ??__EmaxV3Error@_VecMathTests@aos@shdfnd@physx@@YAXXZ 10001020 f   CctCharacterController.obj
 0001:00000030       ??__EmaxV4Error@_VecMathTests@aos@shdfnd@physx@@YAXXZ 10001030 f   CctCharacterController.obj
 0001:00000050       ??__EminFError@_VecMathTests@aos@shdfnd@physx@@YAXXZ 10001050 f   CctCharacterController.obj
 0001:00000070       ??__EminV3Error@_VecMathTests@aos@shdfnd@physx@@YAXXZ 10001070 f   CctCharacterController.obj
 0001:00000080       ??__EminV4Error@_VecMathTests@aos@shdfnd@physx@@YAXXZ 10001080 f   CctCharacterController.obj
 0001:000000a0       ??__EmaxFError@_VecMathTests@aos@shdfnd@physx@@YAXXZ 100010a0 f   CctCharacterControllerManager.obj
 0001:000000c0       ??__EmaxV3Error@_VecMathTests@aos@shdfnd@physx@@YAXXZ 100010c0 f   CctCharacterControllerManager.obj
 0001:000000d0       ??__EmaxV4Error@_VecMathTests@aos@shdfnd@physx@@YAXXZ 100010d0 f   CctCharacterControllerManager.obj
 0001:000000f0       ??__EminFError@_VecMathTests@aos@shdfnd@physx@@YAXXZ 100010f0 f   CctCharacterControllerManager.obj
 0001:00000110       ??__EminV3Error@_VecMathTests@aos@shdfnd@physx@@YAXXZ 10001110 f   CctCharacterControllerManager.obj
 0001:00000120       ??__EminV4Error@_VecMathTests@aos@shdfnd@physx@@YAXXZ 10001120 f   CctCharacterControllerManager.obj
 0001:000006a0       ?CCTtoProxyExtents@@YA?AVPxVec3@physx@@MMMM@Z 100016a0 f   CctBoxController.obj
 0001:000013a0       ?CCTtoProxyRadius@@YAMMM@Z 100023a0 f   CctCapsuleController.obj
 0001:000013b0       ?CCTtoProxyHeight@@YAMMM@Z 100023b0 f   CctCapsuleController.obj
 0001:000061d0       ?getSweepHintFlags@@YA?AV?$PxFlags@W4Enum@PxHitFlag@physx@@G@physx@@ABUCCTParams@Cct@2@@Z 100071d0 f   CctCharacterController.obj
 0001:00006200       ?worldToLocal@@YA?AVPxVec3@physx@@ABVPxObstacle@2@ABUPxExtendedVec3@2@@Z 10007200 f   CctCharacterController.obj
 0001:00006340       ?localToWorld@@YA?AVPxVec3@physx@@ABVPxObstacle@2@ABV12@@Z 10007340 f   CctCharacterController.obj
 0001:00006490       ?scale@@YAXAAUPxExtendedBounds3@physx@@ABVPxVec3@2@@Z 10007490 f   CctCharacterController.obj
 0001:000065b0       ?computeReflexionVector@@YAXAAVPxVec3@physx@@ABV12@1@Z 100075b0 f   CctCharacterController.obj
 0001:00006660       ?collisionResponse@@YAXAAUPxExtendedVec3@physx@@ABU12@ABVPxVec3@2@2MM_N@Z 10007660 f   CctCharacterController.obj
 0001:00006920       ?relocateBox@@YAXAAVPxBoxGeometry@physx@@AAVPxTransform@2@ABUPxExtendedVec3@2@ABVPxVec3@2@2ABVPxQuat@2@@Z 10007920 f   CctCharacterController.obj
 0001:000069a0       ?relocateBox@@YAXAAVPxBoxGeometry@physx@@AAVPxTransform@2@ABUTouchedUserBox@Cct@2@@Z 100079a0 f   CctCharacterController.obj
 0001:00006a10       ?relocateBox@@YAXAAVPxBoxGeometry@physx@@AAVPxTransform@2@ABUTouchedBox@Cct@2@@Z 10007a10 f   CctCharacterController.obj
 0001:00006a60       ?relocateCapsule@@YAXAAVPxCapsuleGeometry@physx@@AAVPxTransform@2@PBVSweptCapsule@Cct@2@ABVPxQuat@2@ABUPxExtendedVec3@2@4@Z 10007a60 f   CctCharacterController.obj
 0001:00006ae0       ?relocateCapsule@@YAXAAVPxCapsuleGeometry@physx@@AAVPxTransform@2@ABVPxVec3@2@2M@Z 10007ae0 f   CctCharacterController.obj
 0001:00006b40       ?relocateCapsule@@YAXAAVPxCapsuleGeometry@physx@@AAVPxTransform@2@ABUTouchedUserCapsule@Cct@2@@Z 10007b40 f   CctCharacterController.obj
 0001:00006c10       ?SweepBoxUserBox@@YA_NPBVSweepTest@Cct@physx@@PBVSweptVolume@23@PBUTouchedGeom@23@ABUPxExtendedVec3@3@ABVPxVec3@3@AAUSweptContact@23@@Z 10007c10 f   CctCharacterController.obj
 0001:00006e00       ?SweepBoxUserCapsule@@YA_NPBVSweepTest@Cct@physx@@PBVSweptVolume@23@PBUTouchedGeom@23@ABUPxExtendedVec3@3@ABVPxVec3@3@AAUSweptContact@23@@Z 10007e00 f   CctCharacterController.obj
 0001:00006fb0       ?sweepVolumeVsMesh@@YA_NPBVSweepTest@Cct@physx@@PBUTouchedMesh@23@AAUSweptContact@23@ABVPxVec3@3@ABVPxGeometry@3@ABVPxTransform@3@IPBVPxTriangle@3@I@Z 10007fb0 f   CctCharacterController.obj
 0001:000070e0       ?SweepBoxMesh@@YA_NPBVSweepTest@Cct@physx@@PBVSweptVolume@23@PBUTouchedGeom@23@ABUPxExtendedVec3@3@ABVPxVec3@3@AAUSweptContact@23@@Z 100080e0 f   CctCharacterController.obj
 0001:000071b0       ?SweepCapsuleMesh@@YA_NPBVSweepTest@Cct@physx@@PBVSweptVolume@23@PBUTouchedGeom@23@ABUPxExtendedVec3@3@ABVPxVec3@3@AAUSweptContact@23@@Z 100081b0 f   CctCharacterController.obj
 0001:00007280       ?SweepBoxBox@@YA_NPBVSweepTest@Cct@physx@@PBVSweptVolume@23@PBUTouchedGeom@23@ABUPxExtendedVec3@3@ABVPxVec3@3@AAUSweptContact@23@@Z 10008280 f   CctCharacterController.obj
 0001:00007460       ?SweepBoxSphere@@YA_NPBVSweepTest@Cct@physx@@PBVSweptVolume@23@PBUTouchedGeom@23@ABUPxExtendedVec3@3@ABVPxVec3@3@AAUSweptContact@23@@Z 10008460 f   CctCharacterController.obj
 0001:00007600       ?SweepBoxCapsule@@YA_NPBVSweepTest@Cct@physx@@PBVSweptVolume@23@PBUTouchedGeom@23@ABUPxExtendedVec3@3@ABVPxVec3@3@AAUSweptContact@23@@Z 10008600 f   CctCharacterController.obj
 0001:00007800       ?SweepCapsuleBox@@YA_NPBVSweepTest@Cct@physx@@PBVSweptVolume@23@PBUTouchedGeom@23@ABUPxExtendedVec3@3@ABVPxVec3@3@AAUSweptContact@23@@Z 10008800 f   CctCharacterController.obj
 0001:000079e0       ?SweepCapsuleSphere@@YA_NPBVSweepTest@Cct@physx@@PBVSweptVolume@23@PBUTouchedGeom@23@ABUPxExtendedVec3@3@ABVPxVec3@3@AAUSweptContact@23@@Z 100089e0 f   CctCharacterController.obj
 0001:00007be0       ?SweepCapsuleCapsule@@YA_NPBVSweepTest@Cct@physx@@PBVSweptVolume@23@PBUTouchedGeom@23@ABUPxExtendedVec3@3@ABVPxVec3@3@AAUSweptContact@23@@Z 10008be0 f   CctCharacterController.obj
 0001:00007de0       ?SweepCapsuleUserCapsule@@YA_NPBVSweepTest@Cct@physx@@PBVSweptVolume@23@PBUTouchedGeom@23@ABUPxExtendedVec3@3@ABVPxVec3@3@AAUSweptContact@23@@Z 10008de0 f   CctCharacterController.obj
 0001:00007f90       ?SweepCapsuleUserBox@@YA_NPBVSweepTest@Cct@physx@@PBVSweptVolume@23@PBUTouchedGeom@23@ABUPxExtendedVec3@3@ABVPxVec3@3@AAUSweptContact@23@@Z 10008f90 f   CctCharacterController.obj
 0001:00008180       ?CollideGeoms@@YAPAUTouchedGeom@Cct@physx@@PBVSweepTest@23@ABVSweptVolume@23@ABV?$Array@IV?$ReflectionAllocator@I@shdfnd@physx@@@shdfnd@3@ABUPxExtendedVec3@3@ABVPxVec3@3@AAUSweptContact@23@_N@Z 10009180 f   CctCharacterController.obj
 0001:00008310       ?computeMTD@@YA?AVPxVec3@physx@@PBVSweepTest@Cct@2@ABVSweptVolume@42@ABV?$Array@IV?$ReflectionAllocator@I@shdfnd@physx@@@shdfnd@2@ABUPxExtendedVec3@2@M@Z 10009310 f   CctCharacterController.obj
 0001:00008720       ?ParseGeomStream@@YA_NPBXABV?$Array@IV?$ReflectionAllocator@I@shdfnd@physx@@@shdfnd@physx@@@Z 10009720 f   CctCharacterController.obj
 0001:00008760       ?getBounds3@@YA?AVPxBounds3@physx@@ABUPxExtendedBounds3@2@@Z 10009760 f   CctCharacterController.obj
 0001:00008960       ??0AB@?1???$PxUnionCast@PBVPxGeometry@physx@@PAY03$$CBE@physx@@YAPBVPxGeometry@1@PAY03$$CBE@Z@QAE@0@Z 10009960 f   CctCharacterController.obj
 0001:0000c5e0       ??Dphysx@@YA?AVPxVec3@0@MABV10@@Z 1000d5e0 f   CctCharacterControllerCallbacks.obj
 0001:0000cf50       ?visualizeTouchedTriangles@@YAXIIPBVPxTriangle@physx@@PAVRenderBuffer@Cm@2@ABVPxVec3@2@2@Z 1000df50 f   CctCharacterControllerCallbacks.obj
 0001:0000d170       ?tessellateTriangle@@YAXPAUTessParams@@ABVPxVec3@physx@@11@Z 1000e170 f   CctCharacterControllerCallbacks.obj
 0001:0000d5e8       $LN113                     1000e5e8     CctCharacterControllerCallbacks.obj
 0001:0000d610       ?tessellateTriangle@@YAXAAIABVPxTriangle@physx@@IAAV?$Array@VPxTriangle@physx@@V?$ReflectionAllocator@VPxTriangle@physx@@@shdfnd@2@@shdfnd@2@AAV?$Array@IV?$ReflectionAllocator@I@shdfnd@physx@@@42@ABVPxBounds3@2@ABUCCTParams@Cct@2@AAG@Z 1000e610 f   CctCharacterControllerCallbacks.obj
 0001:0000d6f0       ?outputPlaneToStream@@YAXPAVPxShape@physx@@PBVPxRigidActor@2@ABVPxTransform@2@AAV?$Array@IV?$ReflectionAllocator@I@shdfnd@physx@@@shdfnd@2@AAV?$Array@VPxTriangle@physx@@V?$ReflectionAllocator@VPxTriangle@physx@@@shdfnd@2@@62@3ABUPxExtendedVec3@2@ABVPxBounds3@2@ABUCCTParams@Cct@2@PAVRenderBuffer@Cm@2@@Z 1000e6f0 f   CctCharacterControllerCallbacks.obj
 0001:0000dd40       ?outputSphereToStream@@YAXPAVPxShape@physx@@PBVPxRigidActor@2@ABVPxTransform@2@AAV?$Array@IV?$ReflectionAllocator@I@shdfnd@physx@@@shdfnd@2@ABUPxExtendedVec3@2@@Z 1000ed40 f   CctCharacterControllerCallbacks.obj
 0001:0000de20       ?outputCapsuleToStream@@YAXPAVPxShape@physx@@PBVPxRigidActor@2@ABVPxTransform@2@AAV?$Array@IV?$ReflectionAllocator@I@shdfnd@physx@@@shdfnd@2@ABUPxExtendedVec3@2@@Z 1000ee20 f   CctCharacterControllerCallbacks.obj
 0001:0000e010       ?outputBoxToStream@@YAXPAVPxShape@physx@@PBVPxRigidActor@2@ABVPxTransform@2@AAV?$Array@IV?$ReflectionAllocator@I@shdfnd@physx@@@shdfnd@2@AAV?$Array@VPxTriangle@physx@@V?$ReflectionAllocator@VPxTriangle@physx@@@shdfnd@2@@62@3ABUPxExtendedVec3@2@ABVPxBounds3@2@ABUCCTParams@Cct@2@AAG@Z 1000f010 f   CctCharacterControllerCallbacks.obj
 0001:0000eef0       ?createInvisibleWalls@@YAIABUCCTParams@Cct@physx@@ABVPxTriangle@3@AAV?$Array@VPxTriangle@physx@@V?$ReflectionAllocator@VPxTriangle@physx@@@shdfnd@2@@shdfnd@3@AAV?$Array@IV?$ReflectionAllocator@I@shdfnd@physx@@@63@@Z 1000fef0 f   CctCharacterControllerCallbacks.obj
 0001:0000f580       ?outputMeshToStream@@YAXPAVPxShape@physx@@PBVPxRigidActor@2@ABVPxTransform@2@AAV?$Array@IV?$ReflectionAllocator@I@shdfnd@physx@@@shdfnd@2@AAV?$Array@VPxTriangle@physx@@V?$ReflectionAllocator@VPxTriangle@physx@@@shdfnd@2@@62@3ABUPxExtendedVec3@2@ABVPxBounds3@2@ABUCCTParams@Cct@2@PAVRenderBuffer@Cm@2@AAG@Z 10010580 f   CctCharacterControllerCallbacks.obj
 0001:0000ff30       ?outputHeightFieldToStream@@YAXPAVPxShape@physx@@PBVPxRigidActor@2@ABVPxTransform@2@AAV?$Array@IV?$ReflectionAllocator@I@shdfnd@physx@@@shdfnd@2@AAV?$Array@VPxTriangle@physx@@V?$ReflectionAllocator@VPxTriangle@physx@@@shdfnd@2@@62@3ABUPxExtendedVec3@2@ABVPxBounds3@2@ABUCCTParams@Cct@2@PAVRenderBuffer@Cm@2@AAG@Z 10010f30 f   CctCharacterControllerCallbacks.obj
 0001:000108d0       ?outputConvexToStream@@YAXPAVPxShape@physx@@PBVPxRigidActor@2@ABVPxTransform@2@AAV?$Array@IV?$ReflectionAllocator@I@shdfnd@physx@@@shdfnd@2@AAV?$Array@VPxTriangle@physx@@V?$ReflectionAllocator@VPxTriangle@physx@@@shdfnd@2@@62@3ABUPxExtendedVec3@2@ABVPxBounds3@2@ABUCCTParams@Cct@2@PAVRenderBuffer@Cm@2@AAG@Z 100118d0 f   CctCharacterControllerCallbacks.obj
 0001:00011810       ?fillCCTHit@@YAXAAUPxControllerHit@physx@@ABUSweptContact@Cct@2@ABVPxVec3@2@MPAVController@42@@Z 10012810 f   CctCharacterControllerCallbacks.obj
 0001:00011870       ?handleObstacleHit@@YAIABVPxObstacle@physx@@ABIAAUPxControllerObstacleHit@2@PBUPxInternalCBData_OnHit@Cct@2@PAVController@52@@Z 10012870 f   CctCharacterControllerCallbacks.obj
 0001:00013340       ??Dphysx@@YA?AVPxVec3@0@MABV10@@Z 10014340 f   CctCharacterControllerManager.obj
 0001:00014160       ?computeMTD@@YA_NAAVPxVec3@physx@@AAMABV12@2ABVPxMat33@2@223@Z 10015160 f   CctCharacterControllerManager.obj
 0001:00014670       $LN359                     10015670     CctCharacterControllerManager.obj
 0001:00014690       ?fixDir@@YA?AVPxVec3@physx@@ABV12@0@Z 10015690 f   CctCharacterControllerManager.obj
 0001:00014780       ?InteractionCharacterCharacter@@YAXPAVController@Cct@physx@@0M@Z 10015780 f   CctCharacterControllerManager.obj
 0001:0001a440       ?encodeInternalHandle@@YAPAXIW4Enum@PxGeometryType@physx@@@Z 1001b440 f   CctObstacleContext.obj
 0001:0001a460       ?decodeInternalType@@YA?AW4Enum@PxGeometryType@physx@@PAX@Z 1001b460 f   CctObstacleContext.obj
 0001:0001a470       ?decodeInternalIndex@@YAIPAX@Z 1001b470 f   CctObstacleContext.obj
 0001:0001a480       ??$remove@UInternalBoxObstacle@ObstacleContext@Cct@physx@@@@YAXAAVHandleManager@Cct@physx@@PAXIIIABV?$Array@UInternalBoxObstacle@ObstacleContext@Cct@physx@@V?$ReflectionAllocator@UInternalBoxObstacle@ObstacleContext@Cct@physx@@@shdfnd@4@@shdfnd@2@@Z 1001b480 f   CctObstacleContext.obj
 0001:0001a4f0       ??$remove@UInternalCapsuleObstacle@ObstacleContext@Cct@physx@@@@YAXAAVHandleManager@Cct@physx@@PAXIIIABV?$Array@UInternalCapsuleObstacle@ObstacleContext@Cct@physx@@V?$ReflectionAllocator@UInternalCapsuleObstacle@ObstacleContext@Cct@physx@@@shdfnd@4@@shdfnd@2@@Z 1001b4f0 f   CctObstacleContext.obj
 0001:0001ee70       ?computeMassAndDiagInertia@@YA_NAAVInertiaTensorComputer@Ext@physx@@AAVPxVec3@3@AAVPxQuat@3@AAM1_NABVPxRigidBody@3@PBD@Z 1001fe70 f   PhysX3Extensions:ExtRigidBodyExt.obj
 0001:0001f210       ?computeMassAndInertia@@YA_N_NAAVPxRigidBody@physx@@PBM2I0AAVInertiaTensorComputer@Ext@2@@Z 10020210 f   PhysX3Extensions:ExtRigidBodyExt.obj
 0001:0001fd4c       $LN321                     10020d4c     PhysX3Extensions:ExtRigidBodyExt.obj
 0001:0001fd60       ?updateMassAndInertia@@YA_N_NAAVPxRigidBody@physx@@PBMIPBVPxVec3@2@0@Z 10020d60 f   PhysX3Extensions:ExtRigidBodyExt.obj
 0001:0001ff20       ?setMassAndUpdateInertia@@YA_N_NAAVPxRigidBody@physx@@PBMIPBVPxVec3@2@0@Z 10020f20 f   PhysX3Extensions:ExtRigidBodyExt.obj
 0001:00020140       ?transformInertiaTensor@@YAXABVPxVec3@physx@@ABVPxMat33@2@AAV32@@Z 10021140 f   PhysX3Extensions:ExtRigidBodyExt.obj
 0001:000202c0       ??0AB@?1???$PxUnionCast@PAVPxGeometry@physx@@PAY03E@physx@@YAPAVPxGeometry@1@PAY03E@Z@QAE@0@Z 100212c0 f   PhysX3Extensions:ExtRigidBodyExt.obj
 0001:00022ea0       $$000000                   10023ea0     MSVCRT:alloca16.obj
 0001:00022ed0       $$000000                   10023ed0     MSVCRT:ftol3.obj
 0001:000232aa       _pre_c_init                100242aa f   MSVCRT:crtdll.obj
 0001:00023517       ___DllMainCRTStartup       10024517 f   MSVCRT:crtdll.obj
 0001:000236c5       ?ArrayUnwindFilter@@YAHPAU_EXCEPTION_POINTERS@@@Z 100246c5 f   MSVCRT:ehvecdtr.obj
 0001:00023750       $$000000                   10024750     MSVCRT:chkstk.obj
 0001:00023af0       $$000000                   10024af0     MSVCRT:sehprolg4.obj
 0002:00000114       _minFError$initializer$    10025114     CctCharacterController.obj
 0002:00000118       _maxFError$initializer$    10025118     CctCharacterController.obj
 0002:0000011c       _minV3Error$initializer$   1002511c     CctCharacterController.obj
 0002:00000120       _maxV3Error$initializer$   10025120     CctCharacterController.obj
 0002:00000124       _minV4Error$initializer$   10025124     CctCharacterController.obj
 0002:00000128       _maxV4Error$initializer$   10025128     CctCharacterController.obj
 0002:0000012c       _minFError$initializer$    1002512c     CctCharacterControllerManager.obj
 0002:00000130       _maxFError$initializer$    10025130     CctCharacterControllerManager.obj
 0002:00000134       _minV3Error$initializer$   10025134     CctCharacterControllerManager.obj
 0002:00000138       _maxV3Error$initializer$   10025138     CctCharacterControllerManager.obj
 0002:0000013c       _minV4Error$initializer$   1002513c     CctCharacterControllerManager.obj
 0002:00000140       _maxV4Error$initializer$   10025140     CctCharacterControllerManager.obj
 0002:0000014c       _pcinit                    1002514c     MSVCRT:crtdll.obj
 0002:00000150       _pinit                     10025150     MSVCRT:atonexit.obj
 0002:00000198       _PxPi                      10025198     CctBoxController.obj
 0002:00000330       _PxPi                      10025330     CctCapsuleController.obj
 0002:00000450       _GeomSizes                 10025450     CctCharacterController.obj
 0002:00000468       _PxPi                      10025468     CctCharacterController.obj
 0002:0000046c       _PxTwoPi                   1002546c     CctCharacterController.obj
 0002:00000470       _gMaskXYZ                  10025470     CctCharacterController.obj
 0002:00000480       _PxInvPi                   10025480     CctCharacterController.obj
 0002:00000484       _PxInvTwoPi                10025484     CctCharacterController.obj
 0002:00000488       _PxPiDivTwo                10025488     CctCharacterController.obj
 0002:00000810       _gDebugVisOffset           10025810     CctCharacterControllerCallbacks.obj
 0002:00000814       _PxPi                      10025814     CctCharacterControllerCallbacks.obj
 0002:00000860       _PxPi                      10025860     CctCharacterControllerManager.obj
 0002:00000864       _PxTwoPi                   10025864     CctCharacterControllerManager.obj
 0002:00000868       _PxInvPi                   10025868     CctCharacterControllerManager.obj
 0002:0000086c       _PxInvTwoPi                1002586c     CctCharacterControllerManager.obj
 0002:00000870       _PxPiDivTwo                10025870     CctCharacterControllerManager.obj
 0002:00000874       _gMaxOverlapRecover        10025874     CctCharacterControllerManager.obj
 0002:00000880       _gMaskXYZ                  10025880     CctCharacterControllerManager.obj
 0002:00000a70       _PxPi                      10025a70     CctController.obj
 0002:00000a98       _PxPi                      10025a98     CctObstacleContext.obj
 0002:00000b70       _PxPi                      10025b70     CctSweptBox.obj
 0002:00000b7c       _PxPi                      10025b7c     CctSweptCapsule.obj
 0002:00000b88       _PxPi                      10025b88     CctSweptVolume.obj
 0002:00000b94       _PxPi                      10025b94     PhysX3Extensions:ExtTriangleMeshExt.obj
 0002:00000bcc       _PxPi                      10025bcc     PhysX3Extensions:ExtRigidBodyExt.obj
 0002:00000f60       _Int32ToUInt32             10025f60     MSVCRT:ftol3.obj
 0002:00000f70       _MantissaMask              10025f70     MSVCRT:ftol3.obj
 0002:00000f78       _IntegerBit                10025f78     MSVCRT:ftol3.obj
 0002:00000f80       _SignBit64                 10025f80     MSVCRT:ftol3.obj
 0002:00000f88       _MinFP64                   10025f88     MSVCRT:ftol3.obj
 0002:00000f90       _MinInt64                  10025f90     MSVCRT:ftol3.obj
 0002:00000f98       _MaxInt64                  10025f98     MSVCRT:ftol3.obj
 0002:00000fa0       _MaxUInt64                 10025fa0     MSVCRT:ftol3.obj
 0002:00000fa8       _MaxFP32                   10025fa8     MSVCRT:ftol3.obj
 0002:00000fb0       _MinFP32                   10025fb0     MSVCRT:ftol3.obj
 0002:00000fb8       _MinSubInexact             10025fb8     MSVCRT:ftol3.obj
 0002:00000fc0       _FpExcptTable              10025fc0     MSVCRT:ftol3.obj
 0002:00000fd0       _i1075                     10025fd0     MSVCRT:ftol3.obj
 0002:00000fd4       _i1087                     10025fd4     MSVCRT:ftol3.obj
 0002:00000fd8       _x0800                     10025fd8     MSVCRT:ftol3.obj
 0002:00000fdc       _x17FF                     10025fdc     MSVCRT:ftol3.obj
 0002:00000fe0       _CWMask                    10025fe0     MSVCRT:ftol3.obj
 0002:00000fe8       _GS_ExceptionPointers      10025fe8     MSVCRT:gs_report.obj
 0002:00001128       __sehtable$___DllMainCRTStartup 10026128     MSVCRT:crtdll.obj
 0002:00001150       __sehtable$??_M@YGXPAXIHP6EX0@Z@Z 10026150     MSVCRT:ehvecdtr.obj
 0002:00001170       __sehtable$?__ArrayUnwind@@YGXPAXIHP6EX0@Z@Z 10026170     MSVCRT:ehvecdtr.obj
 0002:00001190       __sehtable$__IsNonwritableInCurrentImage 10026190     MSVCRT:pesect.obj
 0002:000011b0       __sehtable$__onexit        100261b0     MSVCRT:atonexit.obj
 0002:000011d0       .edata                     100261d0     PhysX3CharacterKinematic_x86.exp
 0002:000011f8       rgpv                       100261f8     PhysX3CharacterKinematic_x86.exp
 0002:00001214       rgszName                   10026214     PhysX3CharacterKinematic_x86.exp
 0002:00001230       rgwOrd                     10026230     PhysX3CharacterKinematic_x86.exp
 0002:0000123e       szName                     1002623e     PhysX3CharacterKinematic_x86.exp
 0002:0000125f       $N00001                    1002625f     PhysX3CharacterKinematic_x86.exp
 0002:00001284       $N00002                    10026284     PhysX3CharacterKinematic_x86.exp
 0002:000012af       $N00003                    100262af     PhysX3CharacterKinematic_x86.exp
 0002:000012d4       $N00004                    100262d4     PhysX3CharacterKinematic_x86.exp
 0002:00001304       $N00005                    10026304     PhysX3CharacterKinematic_x86.exp
 0002:00001327       $N00006                    10026327     PhysX3CharacterKinematic_x86.exp
 0002:0000139e       $N00007                    1002639e     PhysX3CharacterKinematic_x86.exp
 0002:00001d1e       .idata$6                   10026d1e     PhysX3Common_x86:PhysX3Common_x86.dll
 0002:00001db2       .idata$6                   10026db2     MSVCRT:MSVCR120.dll
 0002:00001fd2       .idata$6                   10026fd2     kernel32:KERNEL32.dll
 0003:00000000       _gSweepMap                 10028000     CctCharacterController.obj
 0003:00000390       _minV4Error                10028390     CctCharacterController.obj
 0003:000003a0       _maxV4Error                100283a0     CctCharacterController.obj
 0003:000003b0       _minFError                 100283b0     CctCharacterController.obj
 0003:000003c0       _minV3Error                100283c0     CctCharacterController.obj
 0003:000003d0       _maxV3Error                100283d0     CctCharacterController.obj
 0003:000003e0       _maxFError                 100283e0     CctCharacterController.obj
 0003:000003f0       _minV4Error                100283f0     CctCharacterControllerManager.obj
 0003:00000400       _maxV4Error                10028400     CctCharacterControllerManager.obj
 0003:00000410       _minFError                 10028410     CctCharacterControllerManager.obj
 0003:00000420       _minV3Error                10028420     CctCharacterControllerManager.obj
 0003:00000430       _maxV3Error                10028430     CctCharacterControllerManager.obj
 0003:00000440       _maxFError                 10028440     CctCharacterControllerManager.obj
 0003:00000458       ___proc_attached           10028458     MSVCRT:crtdll.obj
 0003:00000460       _GS_ExceptionRecord        10028460     MSVCRT:gs_report.obj
 0003:000004b0       _GS_ContextRecord          100284b0     MSVCRT:gs_report.obj
 0003:0000077c       _DebuggerWasPresent        1002877c     MSVCRT:gs_report.obj
 0004:000000a0       $R000000                   100290a0     PhysX3CharacterKinematic.res
 0004:00000420       $R000380                   10029420     PhysX3CharacterKinematic.res
